; Listing generated by Microsoft (R) Optimizing Compiler Version 19.00.23506.0 

	TITLE	e:\fusion3d_work\engine\src\core\entity.cpp
	.686P
	.XMM
	include listing.inc
	.model	flat

INCLUDELIB OLDNAMES

PUBLIC	??_C@_0GM@LMOAMGID@Assert?5e?3?2fusion3d_work?2lib?2bull@ ; `string'
PUBLIC	??_C@_0BK@ILJDJEOD@btConvexInternalShapeData?$AA@ ; `string'
PUBLIC	??_C@_06FKFPCBEF@SPHERE?$AA@			; `string'
PUBLIC	??_C@_1JA@IJKHNLMB@?$AAC?$AA?3?$AA?2?$AAP?$AAr?$AAo?$AAg?$AAr?$AAa?$AAm?$AA?5?$AAF?$AAi?$AAl?$AAe?$AAs?$AA?5?$AA?$CI?$AAx?$AA8?$AA6?$AA?$CJ?$AA?2?$AAM?$AAi?$AAc?$AAr?$AAo?$AAs?$AAo?$AAf?$AAt@ ; `string'
PUBLIC	??_C@_1DC@POOIKBAO@?$AAI?$AAT?$AAE?$AAR?$AAA?$AAT?$AAO?$AAR?$AA?5?$AAL?$AAI?$AAS?$AAT?$AA?5?$AAC?$AAO?$AAR?$AAR?$AAU?$AAP?$AAT?$AAE?$AAD?$AA?$CB?$AA?$AA@ ; `string'
PUBLIC	??_C@_0BE@LMNLACIC@_Ptr_container?5?$CB?$DN?50?$AA@ ; `string'
PUBLIC	??_C@_1DG@HGDKEBPG@?$AA?$CC?$AA_?$AAP?$AAt?$AAr?$AA_?$AAc?$AAo?$AAn?$AAt?$AAa?$AAi?$AAn?$AAe?$AAr?$AA?5?$AA?$CB?$AA?$DN?$AA?5?$AA0?$AA?$CC?$AA?5?$AA?$CG?$AA?$CG?$AA?5?$AA0?$AA?$AA@ ; `string'
PUBLIC	??_C@_17CNPHIMPH@?$AA?$CF?$AAl?$AAs?$AA?$AA@	; `string'
PUBLIC	??_C@_1JA@HEEMAOGC@?$AAC?$AA?3?$AA?2?$AAP?$AAr?$AAo?$AAg?$AAr?$AAa?$AAm?$AA?5?$AAF?$AAi?$AAl?$AAe?$AAs?$AA?5?$AA?$CI?$AAx?$AA8?$AA6?$AA?$CJ?$AA?2?$AAM?$AAi?$AAc?$AAr?$AAo?$AAs?$AAo?$AAf?$AAt@ ; `string'
PUBLIC	??_C@_1BO@NKFMJPA@?$AAs?$AAt?$AAd?$AA?3?$AA?3?$AA_?$AAA?$AAl?$AAl?$AAo?$AAc?$AAa?$AAt?$AAe?$AA?$AA@ ; `string'
PUBLIC	??_C@_1CG@JNLFBNGN@?$AA?$CC?$AAi?$AAn?$AAv?$AAa?$AAl?$AAi?$AAd?$AA?5?$AAa?$AAr?$AAg?$AAu?$AAm?$AAe?$AAn?$AAt?$AA?$CC?$AA?$AA@ ; `string'
PUBLIC	??_C@_09GLJCAGLP@_Ptr?5?$CB?$DN?50?$AA@		; `string'
PUBLIC	??_C@_1CC@GKJLLHIM@?$AA?$CC?$AA_?$AAP?$AAt?$AAr?$AA?5?$AA?$CB?$AA?$DN?$AA?5?$AA0?$AA?$CC?$AA?5?$AA?$CG?$AA?$CG?$AA?5?$AA0?$AA?$AA@ ; `string'
PUBLIC	??_C@_0BN@HMCJOMKN@_Count?5?$DM?$DN?5?$CIsize_t?$CJ?$CI?91?$CJ?5?1?5_Sz?$AA@ ; `string'
PUBLIC	??_C@_1EI@MLOBABC@?$AA?$CC?$AA_?$AAC?$AAo?$AAu?$AAn?$AAt?$AA?5?$AA?$DM?$AA?$DN?$AA?5?$AA?$CI?$AAs?$AAi?$AAz?$AAe?$AA_?$AAt?$AA?$CJ?$AA?$CI?$AA?9?$AA1?$AA?$CJ?$AA?5?$AA?1?$AA?5?$AA_?$AAS?$AAz?$AA?$CC?$AA?5?$AA?$CG@ ; `string'
PUBLIC	??_C@_1CC@LOFJFFDB@?$AAs?$AAt?$AAd?$AA?3?$AA?3?$AA_?$AAD?$AAe?$AAa?$AAl?$AAl?$AAo?$AAc?$AAa?$AAt?$AAe?$AA?$AA@ ; `string'
PUBLIC	??_C@_0DD@GBGGGKGG@?$CI_Ptr_user?5?$CG?5?$CI_BIG_ALLOCATION_AL@ ; `string'
PUBLIC	??_C@_1HE@CDMBFOKC@?$AA?$CC?$AA?$CI?$AA_?$AAP?$AAt?$AAr?$AA_?$AAu?$AAs?$AAe?$AAr?$AA?5?$AA?$CG?$AA?5?$AA?$CI?$AA_?$AAB?$AAI?$AAG?$AA_?$AAA?$AAL?$AAL?$AAO?$AAC?$AAA?$AAT?$AAI?$AAO?$AAN?$AA_?$AAA@ ; `string'
PUBLIC	??_C@_0EI@NOJHEJCJ@reinterpret_cast?$DMuintptr_t?5?$CK?$DO?$CI_P@ ; `string'
PUBLIC	??_C@_1JO@EKLKIEHP@?$AA?$CC?$AAr?$AAe?$AAi?$AAn?$AAt?$AAe?$AAr?$AAp?$AAr?$AAe?$AAt?$AA_?$AAc?$AAa?$AAs?$AAt?$AA?$DM?$AAu?$AAi?$AAn?$AAt?$AAp?$AAt?$AAr?$AA_?$AAt?$AA?5?$AA?$CK?$AA?$DO?$AA?$CI?$AA_@ ; `string'
PUBLIC	??_C@_0BL@OCKMEJON@_Ptr_container?5?$DM?5_Ptr_user?$AA@ ; `string'
PUBLIC	??_C@_1EE@PDHAHDDC@?$AA?$CC?$AA_?$AAP?$AAt?$AAr?$AA_?$AAc?$AAo?$AAn?$AAt?$AAa?$AAi?$AAn?$AAe?$AAr?$AA?5?$AA?$DM?$AA?5?$AA_?$AAP?$AAt?$AAr?$AA_?$AAu?$AAs?$AAe?$AAr?$AA?$CC?$AA?5?$AA?$CG?$AA?$CG?$AA?5@ ; `string'
PUBLIC	??_C@_0DB@GLFJLNCE@2?5?$CK?5sizeof?$CIvoid?5?$CK?$CJ?5?$DM?$DN?5_Ptr_user?5@ ; `string'
PUBLIC	??_C@_1HA@NAPGMHAO@?$AA?$CC?$AA2?$AA?5?$AA?$CK?$AA?5?$AAs?$AAi?$AAz?$AAe?$AAo?$AAf?$AA?$CI?$AAv?$AAo?$AAi?$AAd?$AA?5?$AA?$CK?$AA?$CJ?$AA?5?$AA?$DM?$AA?$DN?$AA?5?$AA_?$AAP?$AAt?$AAr?$AA_?$AAu?$AAs?$AAe?$AAr@ ; `string'
PUBLIC	??_C@_0CN@BLHJCAL@_Ptr_user?5?9?5_Ptr_container?5?$DM?$DN?5_N@ ; `string'
PUBLIC	??_C@_1GI@DHJGPFNI@?$AA?$CC?$AA_?$AAP?$AAt?$AAr?$AA_?$AAu?$AAs?$AAe?$AAr?$AA?5?$AA?9?$AA?5?$AA_?$AAP?$AAt?$AAr?$AA_?$AAc?$AAo?$AAn?$AAt?$AAa?$AAi?$AAn?$AAe?$AAr?$AA?5?$AA?$DM?$AA?$DN?$AA?5?$AA_@ ; `string'
PUBLIC	??_C@_0BA@LLDLEGBI@EntityComponent?$AA@		; `string'
PUBLIC	??_C@_09PGGEFGOE@RigidBody?$AA@			; `string'
PUBLIC	??_C@_05KFCIHKGL@shape?$AA@			; `string'
PUBLIC	??_C@_03LCMMOKCG@bvh?$AA@			; `string'
PUBLIC	??_C@_06OAMDAHCP@convex?$AA@			; `string'
PUBLIC	??_C@_03OLPJGAII@box?$AA@			; `string'
PUBLIC	??_C@_06FOHEPPJH@sphere?$AA@			; `string'
PUBLIC	??_C@_07FJIOKKEJ@capsule?$AA@			; `string'
PUBLIC	??_C@_08GNLJBPEP@cylinder?$AA@			; `string'
PUBLIC	??_C@_0BO@ILCGBKME@Unsupported?5collision?5shape?$CB?5?$AA@ ; `string'
PUBLIC	??_C@_1JM@EPLIDHMN@?$AAe?$AA?3?$AA?2?$AAf?$AAu?$AAs?$AAi?$AAo?$AAn?$AA3?$AAd?$AA_?$AAw?$AAo?$AAr?$AAk?$AA?2?$AAe?$AAn?$AAg?$AAi?$AAn?$AAe?$AA?2?$AAs?$AAr?$AAc?$AA?2?$AAc?$AAo?$AAm?$AAp@ ; `string'
PUBLIC	??_C@_1O@HEOOEKLB@?$AA1?$AA?5?$AA?$DN?$AA?$DN?$AA?5?$AA0?$AA?$AA@ ; `string'
PUBLIC	??_C@_0BO@GEOEHOMC@Unspecified?5collision?5shape?$CB?5?$AA@ ; `string'
PUBLIC	??_C@_04IJEANHEE@mass?$AA@			; `string'
PUBLIC	??_C@_0M@NEEMJLF@calcInertia?$AA@		; `string'
PUBLIC	??_C@_07IKGGBMHK@inertia?$AA@			; `string'
PUBLIC	??_C@_1IM@LECEOODI@?$AAC?$AA?3?$AA?2?$AAP?$AAr?$AAo?$AAg?$AAr?$AAa?$AAm?$AA?5?$AAF?$AAi?$AAl?$AAe?$AAs?$AA?5?$AA?$CI?$AAx?$AA8?$AA6?$AA?$CJ?$AA?2?$AAM?$AAi?$AAc?$AAr?$AAo?$AAs?$AAo?$AAf?$AAt@ ; `string'
PUBLIC	??_C@_1EE@EJDKCLKB@?$AAv?$AAe?$AAc?$AAt?$AAo?$AAr?$AA?5?$AAi?$AAt?$AAe?$AAr?$AAa?$AAt?$AAo?$AAr?$AA?5?$AAn?$AAo?$AAt?$AA?5?$AAi?$AAn?$AAc?$AAr?$AAe?$AAm?$AAe?$AAn?$AAt?$AAa?$AAb?$AAl@ ; `string'
PUBLIC	??_C@_0CE@OFMIGAMM@Standard?5C?$CL?$CL?5Libraries?5Out?5of?5Ra@ ; `string'
PUBLIC	??_C@_1FG@IBPIFFN@?$AA?$CC?$AAS?$AAt?$AAa?$AAn?$AAd?$AAa?$AAr?$AAd?$AA?5?$AAC?$AA?$CL?$AA?$CL?$AA?5?$AAL?$AAi?$AAb?$AAr?$AAa?$AAr?$AAi?$AAe?$AAs?$AA?5?$AAO?$AAu?$AAt?$AA?5?$AAo?$AAf?$AA?5?$AAR@ ; `string'
PUBLIC	??_C@_1BO@MEPPHOO@?$AA?$CC?$AAo?$AAu?$AAt?$AA?5?$AAo?$AAf?$AA?5?$AAr?$AAa?$AAn?$AAg?$AAe?$AA?$CC?$AA?$AA@ ; `string'
PUBLIC	??_C@_1EG@FOHJJHAC@?$AAv?$AAe?$AAc?$AAt?$AAo?$AAr?$AA?5?$AAi?$AAt?$AAe?$AAr?$AAa?$AAt?$AAo?$AAr?$AA?5?$AAn?$AAo?$AAt?$AA?5?$AAd?$AAe?$AAr?$AAe?$AAf?$AAe?$AAr?$AAe?$AAn?$AAc?$AAa?$AAb@ ; `string'
PUBLIC	??_C@_1DM@LHGCHCBA@?$AAv?$AAe?$AAc?$AAt?$AAo?$AAr?$AA?5?$AAs?$AAu?$AAb?$AAs?$AAc?$AAr?$AAi?$AAp?$AAt?$AA?5?$AAo?$AAu?$AAt?$AA?5?$AAo?$AAf?$AA?5?$AAr?$AAa?$AAn?$AAg?$AAe?$AA?$AA@ ; `string'
PUBLIC	??_C@_1JO@KJPPJIKP@?$AAs?$AAt?$AAd?$AA?3?$AA?3?$AAv?$AAe?$AAc?$AAt?$AAo?$AAr?$AA?$DM?$AAc?$AAl?$AAa?$AAs?$AAs?$AA?5?$AAE?$AAn?$AAt?$AAi?$AAt?$AAy?$AA?5?$AA?$CK?$AA?0?$AAc?$AAl?$AAa?$AAs?$AAs@ ; `string'
PUBLIC	??_C@_1MC@NHEIOOEP@?$AAs?$AAt?$AAd?$AA?3?$AA?3?$AAv?$AAe?$AAc?$AAt?$AAo?$AAr?$AA?$DM?$AAc?$AAl?$AAa?$AAs?$AAs?$AA?5?$AAE?$AAn?$AAt?$AAi?$AAt?$AAy?$AAC?$AAo?$AAm?$AAp?$AAo?$AAn?$AAe?$AAn@ ; `string'
PUBLIC	??_C@_0CI@FNPHFCCM@Standard?5C?$CL?$CL?5Libraries?5Invalid?5A@ ; `string'
PUBLIC	??_C@_1FO@GJIHNDLM@?$AA?$CC?$AAS?$AAt?$AAa?$AAn?$AAd?$AAa?$AAr?$AAd?$AA?5?$AAC?$AA?$CL?$AA?$CL?$AA?5?$AAL?$AAi?$AAb?$AAr?$AAa?$AAr?$AAi?$AAe?$AAs?$AA?5?$AAI?$AAn?$AAv?$AAa?$AAl?$AAi?$AAd?$AA?5@ ; `string'
PUBLIC	??_C@_1BME@NCIPHHDN@?$AAs?$AAt?$AAd?$AA?3?$AA?3?$AAv?$AAe?$AAc?$AAt?$AAo?$AAr?$AA?$DM?$AAc?$AAl?$AAa?$AAs?$AAs?$AA?5?$AAs?$AAt?$AAd?$AA?3?$AA?3?$AAb?$AAa?$AAs?$AAi?$AAc?$AA_?$AAs?$AAt?$AAr@ ; `string'
PUBLIC	??_C@_1IO@IPMLDGDI@?$AAC?$AA?3?$AA?2?$AAP?$AAr?$AAo?$AAg?$AAr?$AAa?$AAm?$AA?5?$AAF?$AAi?$AAl?$AAe?$AAs?$AA?5?$AA?$CI?$AAx?$AA8?$AA6?$AA?$CJ?$AA?2?$AAM?$AAi?$AAc?$AAr?$AAo?$AAs?$AAo?$AAf?$AAt@ ; `string'
PUBLIC	??_C@_0BM@NMJKDPPO@invalid?5vector?$DMT?$DO?5subscript?$AA@ ; `string'
PUBLIC	??_C@_1BBA@POHNFPDP@?$AAs?$AAt?$AAd?$AA?3?$AA?3?$AA_?$AAV?$AAe?$AAc?$AAt?$AAo?$AAr?$AA_?$AAc?$AAo?$AAn?$AAs?$AAt?$AA_?$AAi?$AAt?$AAe?$AAr?$AAa?$AAt?$AAo?$AAr?$AA?$DM?$AAc?$AAl?$AAa?$AAs@ ; `string'
PUBLIC	??_C@_1BAO@DGCLFBOA@?$AAs?$AAt?$AAd?$AA?3?$AA?3?$AA_?$AAV?$AAe?$AAc?$AAt?$AAo?$AAr?$AA_?$AAc?$AAo?$AAn?$AAs?$AAt?$AA_?$AAi?$AAt?$AAe?$AAr?$AAa?$AAt?$AAo?$AAr?$AA?$DM?$AAc?$AAl?$AAa?$AAs@ ; `string'
PUBLIC	??_C@_1OO@HAKMEMBI@?$AAs?$AAt?$AAd?$AA?3?$AA?3?$AA_?$AAV?$AAe?$AAc?$AAt?$AAo?$AAr?$AA_?$AAc?$AAo?$AAn?$AAs?$AAt?$AA_?$AAi?$AAt?$AAe?$AAr?$AAa?$AAt?$AAo?$AAr?$AA?$DM?$AAc?$AAl?$AAa?$AAs@ ; `string'
PUBLIC	??_C@_1OM@HKICCNDG@?$AAs?$AAt?$AAd?$AA?3?$AA?3?$AA_?$AAV?$AAe?$AAc?$AAt?$AAo?$AAr?$AA_?$AAc?$AAo?$AAn?$AAs?$AAt?$AA_?$AAi?$AAt?$AAe?$AAr?$AAa?$AAt?$AAo?$AAr?$AA?$DM?$AAc?$AAl?$AAa?$AAs@ ; `string'
PUBLIC	??_C@_0BI@CFPLBAOH@invalid?5string?5position?$AA@ ; `string'
PUBLIC	??_C@_1DM@HINDPMBP@?$AAv?$AAe?$AAc?$AAt?$AAo?$AAr?$AA?5?$AAi?$AAt?$AAe?$AAr?$AAa?$AAt?$AAo?$AAr?$AAs?$AA?5?$AAi?$AAn?$AAc?$AAo?$AAm?$AAp?$AAa?$AAt?$AAi?$AAb?$AAl?$AAe?$AA?$AA@ ; `string'
PUBLIC	??_C@_1EM@FKAOCOMF@?$AAv?$AAe?$AAc?$AAt?$AAo?$AAr?$AA?5?$AAi?$AAt?$AAe?$AAr?$AAa?$AAt?$AAo?$AAr?$AA?5?$AA?$CL?$AA?5?$AAo?$AAf?$AAf?$AAs?$AAe?$AAt?$AA?5?$AAo?$AAu?$AAt?$AA?5?$AAo?$AAf?$AA?5@ ; `string'
PUBLIC	??_C@_0BD@OLBABOEK@vector?$DMT?$DO?5too?5long?$AA@ ; `string'
PUBLIC	??_C@_1BAI@MFPHLFHP@?$AAs?$AAt?$AAd?$AA?3?$AA?3?$AA_?$AAV?$AAe?$AAc?$AAt?$AAo?$AAr?$AA_?$AAc?$AAo?$AAn?$AAs?$AAt?$AA_?$AAi?$AAt?$AAe?$AAr?$AAa?$AAt?$AAo?$AAr?$AA?$DM?$AAc?$AAl?$AAa?$AAs@ ; `string'
PUBLIC	??_C@_1OG@NINHJLHM@?$AAs?$AAt?$AAd?$AA?3?$AA?3?$AA_?$AAV?$AAe?$AAc?$AAt?$AAo?$AAr?$AA_?$AAc?$AAo?$AAn?$AAs?$AAt?$AA_?$AAi?$AAt?$AAe?$AAr?$AAa?$AAt?$AAo?$AAr?$AA?$DM?$AAc?$AAl?$AAa?$AAs@ ; `string'
PUBLIC	??_C@_0BA@JFNIOLAK@string?5too?5long?$AA@	; `string'
PUBLIC	??_C@_1CK@EOPGIILJ@?$AAi?$AAn?$AAv?$AAa?$AAl?$AAi?$AAd?$AA?5?$AAn?$AAu?$AAl?$AAl?$AA?5?$AAp?$AAo?$AAi?$AAn?$AAt?$AAe?$AAr?$AA?$AA@ ; `string'
PUBLIC	??_C@_1NM@MILGICEN@?$AAs?$AAt?$AAd?$AA?3?$AA?3?$AA_?$AAV?$AAe?$AAc?$AAt?$AAo?$AAr?$AA_?$AAc?$AAo?$AAn?$AAs?$AAt?$AA_?$AAi?$AAt?$AAe?$AAr?$AAa?$AAt?$AAo?$AAr?$AA?$DM?$AAc?$AAl?$AAa?$AAs@ ; `string'
PUBLIC	??_C@_1CO@DGLIKNHI@?$AAi?$AAn?$AAv?$AAa?$AAl?$AAi?$AAd?$AA?5?$AAi?$AAt?$AAe?$AAr?$AAa?$AAt?$AAo?$AAr?$AA?5?$AAr?$AAa?$AAn?$AAg?$AAe?$AA?$AA@ ; `string'
PUBLIC	??_C@_1EK@EEHFMKDC@?$AAv?$AAe?$AAc?$AAt?$AAo?$AAr?$AA?5?$AAi?$AAn?$AAs?$AAe?$AAr?$AAt?$AA?5?$AAi?$AAt?$AAe?$AAr?$AAa?$AAt?$AAo?$AAr?$AA?5?$AAo?$AAu?$AAt?$AAs?$AAi?$AAd?$AAe?$AA?5?$AAr@ ; `string'
PUBLIC	??_C@_1IO@GBEHMPOJ@?$AAC?$AA?3?$AA?2?$AAP?$AAr?$AAo?$AAg?$AAr?$AAa?$AAm?$AA?5?$AAF?$AAi?$AAl?$AAe?$AAs?$AA?5?$AA?$CI?$AAx?$AA8?$AA6?$AA?$CJ?$AA?2?$AAM?$AAi?$AAc?$AAr?$AAo?$AAs?$AAo?$AAf?$AAt@ ; `string'
PUBLIC	??_C@_1NE@OMIDEADP@?$AAs?$AAt?$AAd?$AA?3?$AA?3?$AA_?$AAV?$AAe?$AAc?$AAt?$AAo?$AAr?$AA_?$AAc?$AAo?$AAn?$AAs?$AAt?$AA_?$AAi?$AAt?$AAe?$AAr?$AAa?$AAt?$AAo?$AAr?$AA?$DM?$AAc?$AAl?$AAa?$AAs@ ; `string'
PUBLIC	??_R4btConvexInternalShape@@6B@			; btConvexInternalShape::`RTTI Complete Object Locator'
PUBLIC	??_R2EntityComponent@@8				; EntityComponent::`RTTI Base Class Array'
PUBLIC	??_R0?AVbtConvexShape@@@8			; btConvexShape `RTTI Type Descriptor'
PUBLIC	??_7RigidBody@@6B@				; RigidBody::`vftable'
PUBLIC	??_R1A@?0A@EA@btConvexInternalShape@@8		; btConvexInternalShape::`RTTI Base Class Descriptor at (0,-1,0,64)'
PUBLIC	??_R3btDefaultMotionState@@8			; btDefaultMotionState::`RTTI Class Hierarchy Descriptor'
PUBLIC	?$TSS0@?1??getIdentity@btMatrix3x3@@SAABV2@XZ@4HA ; TSS0<`template-parameter-2',btMatrix3x3::etIdentity, ?? :: ?? ::HA::XZ::XZ::BV2 * const volatile>
PUBLIC	??_7btMotionState@@6B@				; btMotionState::`vftable'
PUBLIC	??_R2btDefaultMotionState@@8			; btDefaultMotionState::`RTTI Base Class Array'
PUBLIC	??_R0?AVbtCollisionShape@@@8			; btCollisionShape `RTTI Type Descriptor'
PUBLIC	??_R1A@?0A@EA@Entity@@8				; Entity::`RTTI Base Class Descriptor at (0,-1,0,64)'
PUBLIC	??_R0?AVEntityComponent@@@8			; EntityComponent `RTTI Type Descriptor'
PUBLIC	??_R2btConvexShape@@8				; btConvexShape::`RTTI Base Class Array'
PUBLIC	??_R1A@?0A@EA@btDefaultMotionState@@8		; btDefaultMotionState::`RTTI Base Class Descriptor at (0,-1,0,64)'
PUBLIC	??_R2Entity@@8					; Entity::`RTTI Base Class Array'
PUBLIC	??_R0?AVRigidBody@@@8				; RigidBody `RTTI Type Descriptor'
PUBLIC	??_7btDefaultMotionState@@6B@			; btDefaultMotionState::`vftable'
PUBLIC	??_7Entity@@6B@					; Entity::`vftable'
PUBLIC	??_R3btMotionState@@8				; btMotionState::`RTTI Class Hierarchy Descriptor'
PUBLIC	??_R3EntityComponent@@8				; EntityComponent::`RTTI Class Hierarchy Descriptor'
PUBLIC	?_OptionsStorage@?1??__local_stdio_printf_options@@9@4_KA ; `__local_stdio_printf_options'::`2'::_OptionsStorage
PUBLIC	??_R4Entity@@6B@				; Entity::`RTTI Complete Object Locator'
PUBLIC	?identityTransform@?1??getIdentity@btTransform@@SAABV2@XZ@4V2@B ; `btTransform::getIdentity'::`2'::identityTransform
PUBLIC	??_R3RigidBody@@8				; RigidBody::`RTTI Class Hierarchy Descriptor'
PUBLIC	??_R2btConvexInternalShape@@8			; btConvexInternalShape::`RTTI Base Class Array'
PUBLIC	??_R4RigidBody@@6B@				; RigidBody::`RTTI Complete Object Locator'
PUBLIC	??_R2btSphereShape@@8				; btSphereShape::`RTTI Base Class Array'
PUBLIC	??_7EntityComponent@@6B@			; EntityComponent::`vftable'
PUBLIC	??_R1A@?0A@EA@btSphereShape@@8			; btSphereShape::`RTTI Base Class Descriptor at (0,-1,0,64)'
PUBLIC	??_R1A@?0A@EA@EntityComponent@@8		; EntityComponent::`RTTI Base Class Descriptor at (0,-1,0,64)'
PUBLIC	??_R0?AVEntity@@@8				; Entity `RTTI Type Descriptor'
PUBLIC	??_R2btMotionState@@8				; btMotionState::`RTTI Base Class Array'
PUBLIC	??_R0?AVbtMotionState@@@8			; btMotionState `RTTI Type Descriptor'
PUBLIC	??_R3Entity@@8					; Entity::`RTTI Class Hierarchy Descriptor'
PUBLIC	??_R2RigidBody@@8				; RigidBody::`RTTI Base Class Array'
PUBLIC	??_R4btSphereShape@@6B@				; btSphereShape::`RTTI Complete Object Locator'
PUBLIC	??_R1A@?0A@EA@btMotionState@@8			; btMotionState::`RTTI Base Class Descriptor at (0,-1,0,64)'
PUBLIC	??_R3btCollisionShape@@8			; btCollisionShape::`RTTI Class Hierarchy Descriptor'
PUBLIC	??_7btConvexInternalShape@@6B@			; btConvexInternalShape::`vftable'
PUBLIC	?$TSS0@?1??getIdentity@btTransform@@SAABV2@XZ@4HA ; TSS0<`template-parameter-2',btTransform::etIdentity, ?? :: ?? ::HA::XZ::XZ::BV2 * const volatile>
PUBLIC	??_R4btDefaultMotionState@@6B@			; btDefaultMotionState::`RTTI Complete Object Locator'
PUBLIC	??_7btSphereShape@@6B@				; btSphereShape::`vftable'
PUBLIC	??_R3btSphereShape@@8				; btSphereShape::`RTTI Class Hierarchy Descriptor'
PUBLIC	??_R1A@?0A@EA@RigidBody@@8			; RigidBody::`RTTI Base Class Descriptor at (0,-1,0,64)'
PUBLIC	??_R1A@?0A@EA@btConvexShape@@8			; btConvexShape::`RTTI Base Class Descriptor at (0,-1,0,64)'
PUBLIC	??_R4btMotionState@@6B@				; btMotionState::`RTTI Complete Object Locator'
PUBLIC	??_R0?AVbtConvexInternalShape@@@8		; btConvexInternalShape `RTTI Type Descriptor'
PUBLIC	??_R2btCollisionShape@@8			; btCollisionShape::`RTTI Base Class Array'
PUBLIC	??_R3btConvexShape@@8				; btConvexShape::`RTTI Class Hierarchy Descriptor'
PUBLIC	??_R3btConvexInternalShape@@8			; btConvexInternalShape::`RTTI Class Hierarchy Descriptor'
PUBLIC	??_R0?AVbtSphereShape@@@8			; btSphereShape `RTTI Type Descriptor'
PUBLIC	??_R1A@?0A@EA@btCollisionShape@@8		; btCollisionShape::`RTTI Base Class Descriptor at (0,-1,0,64)'
PUBLIC	?identityMatrix@?1??getIdentity@btMatrix3x3@@SAABV2@XZ@4V2@B ; `btMatrix3x3::getIdentity'::`2'::identityMatrix
PUBLIC	??_R4EntityComponent@@6B@			; EntityComponent::`RTTI Complete Object Locator'
PUBLIC	??_R0?AUbtDefaultMotionState@@@8		; btDefaultMotionState `RTTI Type Descriptor'
EXTRN	__imp_?good@ios_base@std@@QBE_NXZ:PROC
EXTRN	__imp_?flags@ios_base@std@@QBEHXZ:PROC
EXTRN	__imp_?width@ios_base@std@@QBE_JXZ:PROC
EXTRN	__imp_?width@ios_base@std@@QAE_J_J@Z:PROC
EXTRN	__imp_??6?$basic_ostream@DU?$char_traits@D@std@@@std@@QAEAAV01@P6AAAV01@AAV01@@Z@Z:PROC
EXTRN	__imp_?sputc@?$basic_streambuf@DU?$char_traits@D@std@@@std@@QAEHD@Z:PROC
EXTRN	__imp_?widen@?$basic_ios@DU?$char_traits@D@std@@@std@@QBEDD@Z:PROC
EXTRN	__imp_?setstate@?$basic_ios@DU?$char_traits@D@std@@@std@@QAEXH_N@Z:PROC
EXTRN	__purecall:PROC
EXTRN	__imp_?flush@?$basic_ostream@DU?$char_traits@D@std@@@std@@QAEAAV12@XZ:PROC
EXTRN	__imp_?put@?$basic_ostream@DU?$char_traits@D@std@@@std@@QAEAAV12@D@Z:PROC
EXTRN	__imp_?sputn@?$basic_streambuf@DU?$char_traits@D@std@@@std@@QAE_JPBD_J@Z:PROC
EXTRN	__imp_?fill@?$basic_ios@DU?$char_traits@D@std@@@std@@QBEDXZ:PROC
EXTRN	__imp_?rdbuf@?$basic_ios@DU?$char_traits@D@std@@@std@@QBEPAV?$basic_streambuf@DU?$char_traits@D@std@@@2@XZ:PROC
EXTRN	__imp_?_Osfx@?$basic_ostream@DU?$char_traits@D@std@@@std@@QAEXXZ:PROC
EXTRN	__imp_?tie@?$basic_ios@DU?$char_traits@D@std@@@std@@QBEPAV?$basic_ostream@DU?$char_traits@D@std@@@2@XZ:PROC
EXTRN	??0btConvexTriangleMeshShape@@QAE@PAVbtStridingMeshInterface@@_N@Z:PROC ; btConvexTriangleMeshShape::btConvexTriangleMeshShape
EXTRN	__imp___wassert:PROC
EXTRN	??0btCapsuleShape@@QAE@MM@Z:PROC		; btCapsuleShape::btCapsuleShape
EXTRN	??_7type_info@@6B@:QWORD			; type_info::`vftable'
EXTRN	__imp__sqrt:PROC
EXTRN	__imp__atof:PROC
EXTRN	__imp____std_terminate:PROC
EXTRN	?btAlignedAllocInternal@@YAPAXIH@Z:PROC		; btAlignedAllocInternal
EXTRN	__imp__atoi:PROC
EXTRN	??0btCylinderShape@@QAE@ABVbtVector3@@@Z:PROC	; btCylinderShape::btCylinderShape
EXTRN	__imp___CrtDbgReportW:PROC
EXTRN	??1btConvexShape@@UAE@XZ:PROC			; btConvexShape::~btConvexShape
EXTRN	?project@btConvexShape@@UBEXABVbtTransform@@ABVbtVector3@@AAM2AAV3@3@Z:PROC ; btConvexShape::project
EXTRN	__imp__memcmp:PROC
EXTRN	__Init_thread_abort:PROC
EXTRN	__imp__strlen:PROC
EXTRN	??0btConvexInternalShape@@IAE@XZ:PROC		; btConvexInternalShape::btConvexInternalShape
EXTRN	?localGetSupportingVertex@btConvexInternalShape@@UBE?AVbtVector3@@ABV2@@Z:PROC ; btConvexInternalShape::localGetSupportingVertex
EXTRN	?getAabbSlow@btConvexInternalShape@@UBEXABVbtTransform@@AAVbtVector3@@1@Z:PROC ; btConvexInternalShape::getAabbSlow
EXTRN	?setLocalScaling@btConvexInternalShape@@UAEXABVbtVector3@@@Z:PROC ; btConvexInternalShape::setLocalScaling
EXTRN	__Init_thread_header:PROC
EXTRN	?localGetSupportingVertex@btSphereShape@@UBE?AVbtVector3@@ABV2@@Z:PROC ; btSphereShape::localGetSupportingVertex
EXTRN	?localGetSupportingVertexWithoutMargin@btSphereShape@@UBE?AVbtVector3@@ABV2@@Z:PROC ; btSphereShape::localGetSupportingVertexWithoutMargin
EXTRN	?batchedUnitVectorGetSupportingVertexWithoutMargin@btSphereShape@@UBEXPBVbtVector3@@PAV2@H@Z:PROC ; btSphereShape::batchedUnitVectorGetSupportingVertexWithoutMargin
EXTRN	?calculateLocalInertia@btSphereShape@@UBEXMAAVbtVector3@@@Z:PROC ; btSphereShape::calculateLocalInertia
EXTRN	?getAabb@btSphereShape@@UBEXABVbtTransform@@AAVbtVector3@@1@Z:PROC ; btSphereShape::getAabb
EXTRN	__imp___purecall:PROC
EXTRN	__imp____stdio_common_vfprintf:PROC
EXTRN	??3@YAXPAXI@Z:PROC				; operator delete
EXTRN	??3@YAXPAX@Z:PROC				; operator delete
EXTRN	__Init_thread_footer:PROC
EXTRN	??0btBoxShape@@QAE@ABVbtVector3@@@Z:PROC	; btBoxShape::btBoxShape
EXTRN	??0btBvhTriangleMeshShape@@QAE@PAVbtStridingMeshInterface@@_N1@Z:PROC ; btBvhTriangleMeshShape::btBvhTriangleMeshShape
EXTRN	__imp_?_Xlength_error@std@@YAXPBD@Z:PROC
EXTRN	__imp_?_Xbad_function_call@std@@YAXXZ:PROC
EXTRN	__imp_?_Debug_message@std@@YAXPB_W0I@Z:PROC
EXTRN	__imp_?cerr@std@@3V?$basic_ostream@DU?$char_traits@D@std@@@1@A:BYTE
EXTRN	__imp_?_Xout_of_range@std@@YAXPBD@Z:PROC
EXTRN	__imp_?_Xbad_alloc@std@@YAXXZ:PROC
EXTRN	__imp_?uncaught_exception@std@@YA_NXZ:PROC
EXTRN	__imp_??0_Lockit@std@@QAE@H@Z:PROC
EXTRN	__imp_??1_Lockit@std@@QAE@XZ:PROC
EXTRN	?btAlignedFreeInternal@@YAXPAX@Z:PROC		; btAlignedFreeInternal
EXTRN	??0btRigidBody@@QAE@ABUbtRigidBodyConstructionInfo@0@@Z:PROC ; btRigidBody::btRigidBody
EXTRN	??2@YAPAXI@Z:PROC				; operator new
EXTRN	__imp____acrt_iob_func:PROC
EXTRN	__imp___invalid_parameter:PROC
EXTRN	?getBoundingSphere@btCollisionShape@@UBEXAAVbtVector3@@AAM@Z:PROC ; btCollisionShape::getBoundingSphere
EXTRN	?getAngularMotionDisc@btCollisionShape@@UBEMXZ:PROC ; btCollisionShape::getAngularMotionDisc
EXTRN	?getContactBreakingThreshold@btCollisionShape@@UBEMM@Z:PROC ; btCollisionShape::getContactBreakingThreshold
EXTRN	?serialize@btCollisionShape@@UBEPBDPAXPAVbtSerializer@@@Z:PROC ; btCollisionShape::serialize
EXTRN	?serializeSingleShape@btCollisionShape@@UBEXPAVbtSerializer@@@Z:PROC ; btCollisionShape::serializeSingleShape
EXTRN	__Init_thread_epoch:DWORD
EXTRN	__imp__memcpy:PROC
EXTRN	__imp__memmove:PROC
EXTRN	@__security_check_cookie@4:PROC
;	COMDAT ?$TSS0@?1??getIdentity@btMatrix3x3@@SAABV2@XZ@4HA
_BSS	SEGMENT
?$TSS0@?1??getIdentity@btMatrix3x3@@SAABV2@XZ@4HA DD 01H DUP (?) ; TSS0<`template-parameter-2',btMatrix3x3::etIdentity, ?? :: ?? ::HA::XZ::XZ::BV2 * const volatile>
_BSS	ENDS
;	COMDAT ?_OptionsStorage@?1??__local_stdio_printf_options@@9@4_KA
_BSS	SEGMENT
?_OptionsStorage@?1??__local_stdio_printf_options@@9@4_KA DQ 01H DUP (?) ; `__local_stdio_printf_options'::`2'::_OptionsStorage
_BSS	ENDS
;	COMDAT ?identityTransform@?1??getIdentity@btTransform@@SAABV2@XZ@4V2@B
_BSS	SEGMENT
?identityTransform@?1??getIdentity@btTransform@@SAABV2@XZ@4V2@B DB 040H DUP (?) ; `btTransform::getIdentity'::`2'::identityTransform
_BSS	ENDS
;	COMDAT ?$TSS0@?1??getIdentity@btTransform@@SAABV2@XZ@4HA
_BSS	SEGMENT
?$TSS0@?1??getIdentity@btTransform@@SAABV2@XZ@4HA DD 01H DUP (?) ; TSS0<`template-parameter-2',btTransform::etIdentity, ?? :: ?? ::HA::XZ::XZ::BV2 * const volatile>
_BSS	ENDS
;	COMDAT ?identityMatrix@?1??getIdentity@btMatrix3x3@@SAABV2@XZ@4V2@B
_BSS	SEGMENT
?identityMatrix@?1??getIdentity@btMatrix3x3@@SAABV2@XZ@4V2@B DB 030H DUP (?) ; `btMatrix3x3::getIdentity'::`2'::identityMatrix
_BSS	ENDS
;	COMDAT ??_R0?AUbtDefaultMotionState@@@8
data$r	SEGMENT
??_R0?AUbtDefaultMotionState@@@8 DD FLAT:??_7type_info@@6B@ ; btDefaultMotionState `RTTI Type Descriptor'
	DD	00H
	DB	'.?AUbtDefaultMotionState@@', 00H
data$r	ENDS
;	COMDAT ??_R4EntityComponent@@6B@
rdata$r	SEGMENT
??_R4EntityComponent@@6B@ DD 00H			; EntityComponent::`RTTI Complete Object Locator'
	DD	00H
	DD	00H
	DD	FLAT:??_R0?AVEntityComponent@@@8
	DD	FLAT:??_R3EntityComponent@@8
rdata$r	ENDS
;	COMDAT ??_R1A@?0A@EA@btCollisionShape@@8
rdata$r	SEGMENT
??_R1A@?0A@EA@btCollisionShape@@8 DD FLAT:??_R0?AVbtCollisionShape@@@8 ; btCollisionShape::`RTTI Base Class Descriptor at (0,-1,0,64)'
	DD	00H
	DD	00H
	DD	0ffffffffH
	DD	00H
	DD	040H
	DD	FLAT:??_R3btCollisionShape@@8
rdata$r	ENDS
;	COMDAT ??_R0?AVbtSphereShape@@@8
data$r	SEGMENT
??_R0?AVbtSphereShape@@@8 DD FLAT:??_7type_info@@6B@	; btSphereShape `RTTI Type Descriptor'
	DD	00H
	DB	'.?AVbtSphereShape@@', 00H
data$r	ENDS
;	COMDAT ??_R3btConvexInternalShape@@8
rdata$r	SEGMENT
??_R3btConvexInternalShape@@8 DD 00H			; btConvexInternalShape::`RTTI Class Hierarchy Descriptor'
	DD	00H
	DD	03H
	DD	FLAT:??_R2btConvexInternalShape@@8
rdata$r	ENDS
;	COMDAT ??_R3btConvexShape@@8
rdata$r	SEGMENT
??_R3btConvexShape@@8 DD 00H				; btConvexShape::`RTTI Class Hierarchy Descriptor'
	DD	00H
	DD	02H
	DD	FLAT:??_R2btConvexShape@@8
rdata$r	ENDS
;	COMDAT ??_R2btCollisionShape@@8
rdata$r	SEGMENT
??_R2btCollisionShape@@8 DD FLAT:??_R1A@?0A@EA@btCollisionShape@@8 ; btCollisionShape::`RTTI Base Class Array'
rdata$r	ENDS
;	COMDAT ??_R0?AVbtConvexInternalShape@@@8
data$r	SEGMENT
??_R0?AVbtConvexInternalShape@@@8 DD FLAT:??_7type_info@@6B@ ; btConvexInternalShape `RTTI Type Descriptor'
	DD	00H
	DB	'.?AVbtConvexInternalShape@@', 00H
data$r	ENDS
;	COMDAT ??_R4btMotionState@@6B@
rdata$r	SEGMENT
??_R4btMotionState@@6B@ DD 00H				; btMotionState::`RTTI Complete Object Locator'
	DD	00H
	DD	00H
	DD	FLAT:??_R0?AVbtMotionState@@@8
	DD	FLAT:??_R3btMotionState@@8
rdata$r	ENDS
;	COMDAT ??_R1A@?0A@EA@btConvexShape@@8
rdata$r	SEGMENT
??_R1A@?0A@EA@btConvexShape@@8 DD FLAT:??_R0?AVbtConvexShape@@@8 ; btConvexShape::`RTTI Base Class Descriptor at (0,-1,0,64)'
	DD	01H
	DD	00H
	DD	0ffffffffH
	DD	00H
	DD	040H
	DD	FLAT:??_R3btConvexShape@@8
rdata$r	ENDS
;	COMDAT ??_R1A@?0A@EA@RigidBody@@8
rdata$r	SEGMENT
??_R1A@?0A@EA@RigidBody@@8 DD FLAT:??_R0?AVRigidBody@@@8 ; RigidBody::`RTTI Base Class Descriptor at (0,-1,0,64)'
	DD	01H
	DD	00H
	DD	0ffffffffH
	DD	00H
	DD	040H
	DD	FLAT:??_R3RigidBody@@8
rdata$r	ENDS
;	COMDAT ??_R3btSphereShape@@8
rdata$r	SEGMENT
??_R3btSphereShape@@8 DD 00H				; btSphereShape::`RTTI Class Hierarchy Descriptor'
	DD	00H
	DD	04H
	DD	FLAT:??_R2btSphereShape@@8
rdata$r	ENDS
;	COMDAT ??_7btSphereShape@@6B@
CONST	SEGMENT
??_7btSphereShape@@6B@ DD FLAT:??_R4btSphereShape@@6B@	; btSphereShape::`vftable'
	DD	FLAT:??_EbtSphereShape@@UAEPAXI@Z
	DD	FLAT:?getAabb@btSphereShape@@UBEXABVbtTransform@@AAVbtVector3@@1@Z
	DD	FLAT:?getBoundingSphere@btCollisionShape@@UBEXAAVbtVector3@@AAM@Z
	DD	FLAT:?getAngularMotionDisc@btCollisionShape@@UBEMXZ
	DD	FLAT:?getContactBreakingThreshold@btCollisionShape@@UBEMM@Z
	DD	FLAT:?setLocalScaling@btConvexInternalShape@@UAEXABVbtVector3@@@Z
	DD	FLAT:?getLocalScaling@btConvexInternalShape@@UBEABVbtVector3@@XZ
	DD	FLAT:?calculateLocalInertia@btSphereShape@@UBEXMAAVbtVector3@@@Z
	DD	FLAT:?getName@btSphereShape@@UBEPBDXZ
	DD	FLAT:?getAnisotropicRollingFrictionDirection@btCollisionShape@@UBE?AVbtVector3@@XZ
	DD	FLAT:?setMargin@btSphereShape@@UAEXM@Z
	DD	FLAT:?getMargin@btSphereShape@@UBEMXZ
	DD	FLAT:?calculateSerializeBufferSize@btConvexInternalShape@@UBEHXZ
	DD	FLAT:?serialize@btConvexInternalShape@@UBEPBDPAXPAVbtSerializer@@@Z
	DD	FLAT:?serializeSingleShape@btCollisionShape@@UBEXPAVbtSerializer@@@Z
	DD	FLAT:?localGetSupportingVertex@btSphereShape@@UBE?AVbtVector3@@ABV2@@Z
	DD	FLAT:?localGetSupportingVertexWithoutMargin@btSphereShape@@UBE?AVbtVector3@@ABV2@@Z
	DD	FLAT:?project@btConvexShape@@UBEXABVbtTransform@@ABVbtVector3@@AAM2AAV3@3@Z
	DD	FLAT:?batchedUnitVectorGetSupportingVertexWithoutMargin@btSphereShape@@UBEXPBVbtVector3@@PAV2@H@Z
	DD	FLAT:?getAabbSlow@btConvexInternalShape@@UBEXABVbtTransform@@AAVbtVector3@@1@Z
	DD	FLAT:?getNumPreferredPenetrationDirections@btConvexInternalShape@@UBEHXZ
	DD	FLAT:?getPreferredPenetrationDirection@btConvexInternalShape@@UBEXHAAVbtVector3@@@Z
CONST	ENDS
;	COMDAT ??_R4btDefaultMotionState@@6B@
rdata$r	SEGMENT
??_R4btDefaultMotionState@@6B@ DD 00H			; btDefaultMotionState::`RTTI Complete Object Locator'
	DD	00H
	DD	00H
	DD	FLAT:??_R0?AUbtDefaultMotionState@@@8
	DD	FLAT:??_R3btDefaultMotionState@@8
rdata$r	ENDS
;	COMDAT ??_7btConvexInternalShape@@6B@
CONST	SEGMENT
??_7btConvexInternalShape@@6B@ DD FLAT:??_R4btConvexInternalShape@@6B@ ; btConvexInternalShape::`vftable'
	DD	FLAT:??_EbtConvexInternalShape@@UAEPAXI@Z
	DD	FLAT:?getAabb@btConvexInternalShape@@UBEXABVbtTransform@@AAVbtVector3@@1@Z
	DD	FLAT:?getBoundingSphere@btCollisionShape@@UBEXAAVbtVector3@@AAM@Z
	DD	FLAT:?getAngularMotionDisc@btCollisionShape@@UBEMXZ
	DD	FLAT:?getContactBreakingThreshold@btCollisionShape@@UBEMM@Z
	DD	FLAT:?setLocalScaling@btConvexInternalShape@@UAEXABVbtVector3@@@Z
	DD	FLAT:?getLocalScaling@btConvexInternalShape@@UBEABVbtVector3@@XZ
	DD	FLAT:__purecall
	DD	FLAT:__purecall
	DD	FLAT:?getAnisotropicRollingFrictionDirection@btCollisionShape@@UBE?AVbtVector3@@XZ
	DD	FLAT:?setMargin@btConvexInternalShape@@UAEXM@Z
	DD	FLAT:?getMargin@btConvexInternalShape@@UBEMXZ
	DD	FLAT:?calculateSerializeBufferSize@btConvexInternalShape@@UBEHXZ
	DD	FLAT:?serialize@btConvexInternalShape@@UBEPBDPAXPAVbtSerializer@@@Z
	DD	FLAT:?serializeSingleShape@btCollisionShape@@UBEXPAVbtSerializer@@@Z
	DD	FLAT:?localGetSupportingVertex@btConvexInternalShape@@UBE?AVbtVector3@@ABV2@@Z
	DD	FLAT:__purecall
	DD	FLAT:?project@btConvexShape@@UBEXABVbtTransform@@ABVbtVector3@@AAM2AAV3@3@Z
	DD	FLAT:__purecall
	DD	FLAT:?getAabbSlow@btConvexInternalShape@@UBEXABVbtTransform@@AAVbtVector3@@1@Z
	DD	FLAT:?getNumPreferredPenetrationDirections@btConvexInternalShape@@UBEHXZ
	DD	FLAT:?getPreferredPenetrationDirection@btConvexInternalShape@@UBEXHAAVbtVector3@@@Z
CONST	ENDS
;	COMDAT ??_R3btCollisionShape@@8
rdata$r	SEGMENT
??_R3btCollisionShape@@8 DD 00H				; btCollisionShape::`RTTI Class Hierarchy Descriptor'
	DD	00H
	DD	01H
	DD	FLAT:??_R2btCollisionShape@@8
rdata$r	ENDS
;	COMDAT ??_R1A@?0A@EA@btMotionState@@8
rdata$r	SEGMENT
??_R1A@?0A@EA@btMotionState@@8 DD FLAT:??_R0?AVbtMotionState@@@8 ; btMotionState::`RTTI Base Class Descriptor at (0,-1,0,64)'
	DD	00H
	DD	00H
	DD	0ffffffffH
	DD	00H
	DD	040H
	DD	FLAT:??_R3btMotionState@@8
rdata$r	ENDS
;	COMDAT ??_R4btSphereShape@@6B@
rdata$r	SEGMENT
??_R4btSphereShape@@6B@ DD 00H				; btSphereShape::`RTTI Complete Object Locator'
	DD	00H
	DD	00H
	DD	FLAT:??_R0?AVbtSphereShape@@@8
	DD	FLAT:??_R3btSphereShape@@8
rdata$r	ENDS
;	COMDAT ??_R2RigidBody@@8
rdata$r	SEGMENT
??_R2RigidBody@@8 DD FLAT:??_R1A@?0A@EA@RigidBody@@8	; RigidBody::`RTTI Base Class Array'
	DD	FLAT:??_R1A@?0A@EA@EntityComponent@@8
rdata$r	ENDS
;	COMDAT ??_R3Entity@@8
rdata$r	SEGMENT
??_R3Entity@@8 DD 00H					; Entity::`RTTI Class Hierarchy Descriptor'
	DD	00H
	DD	01H
	DD	FLAT:??_R2Entity@@8
rdata$r	ENDS
;	COMDAT ??_R0?AVbtMotionState@@@8
data$r	SEGMENT
??_R0?AVbtMotionState@@@8 DD FLAT:??_7type_info@@6B@	; btMotionState `RTTI Type Descriptor'
	DD	00H
	DB	'.?AVbtMotionState@@', 00H
data$r	ENDS
;	COMDAT ??_R2btMotionState@@8
rdata$r	SEGMENT
??_R2btMotionState@@8 DD FLAT:??_R1A@?0A@EA@btMotionState@@8 ; btMotionState::`RTTI Base Class Array'
rdata$r	ENDS
;	COMDAT ??_R0?AVEntity@@@8
data$r	SEGMENT
??_R0?AVEntity@@@8 DD FLAT:??_7type_info@@6B@		; Entity `RTTI Type Descriptor'
	DD	00H
	DB	'.?AVEntity@@', 00H
data$r	ENDS
;	COMDAT ??_R1A@?0A@EA@EntityComponent@@8
rdata$r	SEGMENT
??_R1A@?0A@EA@EntityComponent@@8 DD FLAT:??_R0?AVEntityComponent@@@8 ; EntityComponent::`RTTI Base Class Descriptor at (0,-1,0,64)'
	DD	00H
	DD	00H
	DD	0ffffffffH
	DD	00H
	DD	040H
	DD	FLAT:??_R3EntityComponent@@8
rdata$r	ENDS
;	COMDAT ??_R1A@?0A@EA@btSphereShape@@8
rdata$r	SEGMENT
??_R1A@?0A@EA@btSphereShape@@8 DD FLAT:??_R0?AVbtSphereShape@@@8 ; btSphereShape::`RTTI Base Class Descriptor at (0,-1,0,64)'
	DD	03H
	DD	00H
	DD	0ffffffffH
	DD	00H
	DD	040H
	DD	FLAT:??_R3btSphereShape@@8
rdata$r	ENDS
;	COMDAT ??_7EntityComponent@@6B@
CONST	SEGMENT
??_7EntityComponent@@6B@ DD FLAT:??_R4EntityComponent@@6B@ ; EntityComponent::`vftable'
	DD	FLAT:?__ClassType__@EntityComponent@@UAE?AV?$basic_string@DU?$char_traits@D@std@@V?$allocator@D@2@@std@@XZ
	DD	FLAT:??_EEntityComponent@@UAEPAXI@Z
	DD	FLAT:?_GetClassName_@EntityComponent@@UAE?AV?$basic_string@DU?$char_traits@D@std@@V?$allocator@D@2@@std@@XZ
	DD	FLAT:?Init@EntityComponent@@UAEXXZ
	DD	FLAT:?ProcessInput@EntityComponent@@UAEXABVInput@@M@Z
	DD	FLAT:?Update@EntityComponent@@UAEXM@Z
	DD	FLAT:?Render@EntityComponent@@UBEXABVShader@@ABVRenderingEngine@@ABVCamera@@@Z
	DD	FLAT:?PostRender@EntityComponent@@UBEXABVShader@@ABVRenderingEngine@@ABVCamera@@@Z
	DD	FLAT:?DataDeploy@EntityComponent@@UAEXPAVXMLElement@tinyxml2@@@Z
	DD	FLAT:?AddToEngine@EntityComponent@@UAEXPAVCoreEngine@@@Z
	DD	FLAT:?SetParent@EntityComponent@@UAEXPAVEntity@@@Z
CONST	ENDS
;	COMDAT ??_R2btSphereShape@@8
rdata$r	SEGMENT
??_R2btSphereShape@@8 DD FLAT:??_R1A@?0A@EA@btSphereShape@@8 ; btSphereShape::`RTTI Base Class Array'
	DD	FLAT:??_R1A@?0A@EA@btConvexInternalShape@@8
	DD	FLAT:??_R1A@?0A@EA@btConvexShape@@8
	DD	FLAT:??_R1A@?0A@EA@btCollisionShape@@8
rdata$r	ENDS
;	COMDAT ??_R4RigidBody@@6B@
rdata$r	SEGMENT
??_R4RigidBody@@6B@ DD 00H				; RigidBody::`RTTI Complete Object Locator'
	DD	00H
	DD	00H
	DD	FLAT:??_R0?AVRigidBody@@@8
	DD	FLAT:??_R3RigidBody@@8
rdata$r	ENDS
;	COMDAT ??_R2btConvexInternalShape@@8
rdata$r	SEGMENT
??_R2btConvexInternalShape@@8 DD FLAT:??_R1A@?0A@EA@btConvexInternalShape@@8 ; btConvexInternalShape::`RTTI Base Class Array'
	DD	FLAT:??_R1A@?0A@EA@btConvexShape@@8
	DD	FLAT:??_R1A@?0A@EA@btCollisionShape@@8
rdata$r	ENDS
;	COMDAT ??_R3RigidBody@@8
rdata$r	SEGMENT
??_R3RigidBody@@8 DD 00H				; RigidBody::`RTTI Class Hierarchy Descriptor'
	DD	00H
	DD	02H
	DD	FLAT:??_R2RigidBody@@8
rdata$r	ENDS
;	COMDAT ??_R4Entity@@6B@
rdata$r	SEGMENT
??_R4Entity@@6B@ DD 00H					; Entity::`RTTI Complete Object Locator'
	DD	00H
	DD	00H
	DD	FLAT:??_R0?AVEntity@@@8
	DD	FLAT:??_R3Entity@@8
rdata$r	ENDS
;	COMDAT ??_R3EntityComponent@@8
rdata$r	SEGMENT
??_R3EntityComponent@@8 DD 00H				; EntityComponent::`RTTI Class Hierarchy Descriptor'
	DD	00H
	DD	01H
	DD	FLAT:??_R2EntityComponent@@8
rdata$r	ENDS
;	COMDAT ??_R3btMotionState@@8
rdata$r	SEGMENT
??_R3btMotionState@@8 DD 00H				; btMotionState::`RTTI Class Hierarchy Descriptor'
	DD	00H
	DD	01H
	DD	FLAT:??_R2btMotionState@@8
rdata$r	ENDS
;	COMDAT ??_7Entity@@6B@
CONST	SEGMENT
??_7Entity@@6B@ DD FLAT:??_R4Entity@@6B@		; Entity::`vftable'
	DD	FLAT:??_EEntity@@UAEPAXI@Z
CONST	ENDS
;	COMDAT ??_7btDefaultMotionState@@6B@
CONST	SEGMENT
??_7btDefaultMotionState@@6B@ DD FLAT:??_R4btDefaultMotionState@@6B@ ; btDefaultMotionState::`vftable'
	DD	FLAT:??_EbtDefaultMotionState@@UAEPAXI@Z
	DD	FLAT:?getWorldTransform@btDefaultMotionState@@UBEXAAVbtTransform@@@Z
	DD	FLAT:?setWorldTransform@btDefaultMotionState@@UAEXABVbtTransform@@@Z
CONST	ENDS
;	COMDAT ??_R0?AVRigidBody@@@8
data$r	SEGMENT
??_R0?AVRigidBody@@@8 DD FLAT:??_7type_info@@6B@	; RigidBody `RTTI Type Descriptor'
	DD	00H
	DB	'.?AVRigidBody@@', 00H
data$r	ENDS
;	COMDAT ??_R2Entity@@8
rdata$r	SEGMENT
??_R2Entity@@8 DD FLAT:??_R1A@?0A@EA@Entity@@8		; Entity::`RTTI Base Class Array'
rdata$r	ENDS
;	COMDAT ??_R1A@?0A@EA@btDefaultMotionState@@8
rdata$r	SEGMENT
??_R1A@?0A@EA@btDefaultMotionState@@8 DD FLAT:??_R0?AUbtDefaultMotionState@@@8 ; btDefaultMotionState::`RTTI Base Class Descriptor at (0,-1,0,64)'
	DD	01H
	DD	00H
	DD	0ffffffffH
	DD	00H
	DD	040H
	DD	FLAT:??_R3btDefaultMotionState@@8
rdata$r	ENDS
;	COMDAT ??_R2btConvexShape@@8
rdata$r	SEGMENT
??_R2btConvexShape@@8 DD FLAT:??_R1A@?0A@EA@btConvexShape@@8 ; btConvexShape::`RTTI Base Class Array'
	DD	FLAT:??_R1A@?0A@EA@btCollisionShape@@8
rdata$r	ENDS
;	COMDAT ??_R0?AVEntityComponent@@@8
data$r	SEGMENT
??_R0?AVEntityComponent@@@8 DD FLAT:??_7type_info@@6B@	; EntityComponent `RTTI Type Descriptor'
	DD	00H
	DB	'.?AVEntityComponent@@', 00H
data$r	ENDS
;	COMDAT ??_R1A@?0A@EA@Entity@@8
rdata$r	SEGMENT
??_R1A@?0A@EA@Entity@@8 DD FLAT:??_R0?AVEntity@@@8	; Entity::`RTTI Base Class Descriptor at (0,-1,0,64)'
	DD	00H
	DD	00H
	DD	0ffffffffH
	DD	00H
	DD	040H
	DD	FLAT:??_R3Entity@@8
rdata$r	ENDS
;	COMDAT ??_R0?AVbtCollisionShape@@@8
data$r	SEGMENT
??_R0?AVbtCollisionShape@@@8 DD FLAT:??_7type_info@@6B@	; btCollisionShape `RTTI Type Descriptor'
	DD	00H
	DB	'.?AVbtCollisionShape@@', 00H
data$r	ENDS
;	COMDAT ??_R2btDefaultMotionState@@8
rdata$r	SEGMENT
??_R2btDefaultMotionState@@8 DD FLAT:??_R1A@?0A@EA@btDefaultMotionState@@8 ; btDefaultMotionState::`RTTI Base Class Array'
	DD	FLAT:??_R1A@?0A@EA@btMotionState@@8
rdata$r	ENDS
;	COMDAT ??_7btMotionState@@6B@
CONST	SEGMENT
??_7btMotionState@@6B@ DD FLAT:??_R4btMotionState@@6B@	; btMotionState::`vftable'
	DD	FLAT:??_EbtMotionState@@UAEPAXI@Z
	DD	FLAT:__purecall
	DD	FLAT:__purecall
CONST	ENDS
;	COMDAT ??_R3btDefaultMotionState@@8
rdata$r	SEGMENT
??_R3btDefaultMotionState@@8 DD 00H			; btDefaultMotionState::`RTTI Class Hierarchy Descriptor'
	DD	00H
	DD	02H
	DD	FLAT:??_R2btDefaultMotionState@@8
rdata$r	ENDS
;	COMDAT ??_R1A@?0A@EA@btConvexInternalShape@@8
rdata$r	SEGMENT
??_R1A@?0A@EA@btConvexInternalShape@@8 DD FLAT:??_R0?AVbtConvexInternalShape@@@8 ; btConvexInternalShape::`RTTI Base Class Descriptor at (0,-1,0,64)'
	DD	02H
	DD	00H
	DD	0ffffffffH
	DD	00H
	DD	040H
	DD	FLAT:??_R3btConvexInternalShape@@8
rdata$r	ENDS
;	COMDAT ??_7RigidBody@@6B@
CONST	SEGMENT
??_7RigidBody@@6B@ DD FLAT:??_R4RigidBody@@6B@		; RigidBody::`vftable'
	DD	FLAT:?__ClassType__@RigidBody@@UAE?AV?$basic_string@DU?$char_traits@D@std@@V?$allocator@D@2@@std@@XZ
	DD	FLAT:??_ERigidBody@@UAEPAXI@Z
	DD	FLAT:?_GetClassName_@EntityComponent@@UAE?AV?$basic_string@DU?$char_traits@D@std@@V?$allocator@D@2@@std@@XZ
	DD	FLAT:?Init@RigidBody@@UAEXXZ
	DD	FLAT:?ProcessInput@EntityComponent@@UAEXABVInput@@M@Z
	DD	FLAT:?Update@RigidBody@@UAEXM@Z
	DD	FLAT:?Render@EntityComponent@@UBEXABVShader@@ABVRenderingEngine@@ABVCamera@@@Z
	DD	FLAT:?PostRender@EntityComponent@@UBEXABVShader@@ABVRenderingEngine@@ABVCamera@@@Z
	DD	FLAT:?DataDeploy@RigidBody@@UAEXPAVXMLElement@tinyxml2@@@Z
	DD	FLAT:?AddToEngine@EntityComponent@@UAEXPAVCoreEngine@@@Z
	DD	FLAT:?SetParent@EntityComponent@@UAEXPAVEntity@@@Z
CONST	ENDS
;	COMDAT ??_R0?AVbtConvexShape@@@8
data$r	SEGMENT
??_R0?AVbtConvexShape@@@8 DD FLAT:??_7type_info@@6B@	; btConvexShape `RTTI Type Descriptor'
	DD	00H
	DB	'.?AVbtConvexShape@@', 00H
data$r	ENDS
;	COMDAT ??_R2EntityComponent@@8
rdata$r	SEGMENT
??_R2EntityComponent@@8 DD FLAT:??_R1A@?0A@EA@EntityComponent@@8 ; EntityComponent::`RTTI Base Class Array'
rdata$r	ENDS
;	COMDAT ??_R4btConvexInternalShape@@6B@
rdata$r	SEGMENT
??_R4btConvexInternalShape@@6B@ DD 00H			; btConvexInternalShape::`RTTI Complete Object Locator'
	DD	00H
	DD	00H
	DD	FLAT:??_R0?AVbtConvexInternalShape@@@8
	DD	FLAT:??_R3btConvexInternalShape@@8
rdata$r	ENDS
;	COMDAT ??_C@_1NE@OMIDEADP@?$AAs?$AAt?$AAd?$AA?3?$AA?3?$AA_?$AAV?$AAe?$AAc?$AAt?$AAo?$AAr?$AA_?$AAc?$AAo?$AAn?$AAs?$AAt?$AA_?$AAi?$AAt?$AAe?$AAr?$AAa?$AAt?$AAo?$AAr?$AA?$DM?$AAc?$AAl?$AAa?$AAs@
CONST	SEGMENT
??_C@_1NE@OMIDEADP@?$AAs?$AAt?$AAd?$AA?3?$AA?3?$AA_?$AAV?$AAe?$AAc?$AAt?$AAo?$AAr?$AA_?$AAc?$AAo?$AAn?$AAs?$AAt?$AA_?$AAi?$AAt?$AAe?$AAr?$AAa?$AAt?$AAo?$AAr?$AA?$DM?$AAc?$AAl?$AAa?$AAs@ DB 's'
	DB	00H, 't', 00H, 'd', 00H, ':', 00H, ':', 00H, '_', 00H, 'V', 00H
	DB	'e', 00H, 'c', 00H, 't', 00H, 'o', 00H, 'r', 00H, '_', 00H, 'c'
	DB	00H, 'o', 00H, 'n', 00H, 's', 00H, 't', 00H, '_', 00H, 'i', 00H
	DB	't', 00H, 'e', 00H, 'r', 00H, 'a', 00H, 't', 00H, 'o', 00H, 'r'
	DB	00H, '<', 00H, 'c', 00H, 'l', 00H, 'a', 00H, 's', 00H, 's', 00H
	DB	' ', 00H, 's', 00H, 't', 00H, 'd', 00H, ':', 00H, ':', 00H, '_'
	DB	00H, 'V', 00H, 'e', 00H, 'c', 00H, 't', 00H, 'o', 00H, 'r', 00H
	DB	'_', 00H, 'v', 00H, 'a', 00H, 'l', 00H, '<', 00H, 's', 00H, 't'
	DB	00H, 'r', 00H, 'u', 00H, 'c', 00H, 't', 00H, ' ', 00H, 's', 00H
	DB	't', 00H, 'd', 00H, ':', 00H, ':', 00H, '_', 00H, 'S', 00H, 'i'
	DB	00H, 'm', 00H, 'p', 00H, 'l', 00H, 'e', 00H, '_', 00H, 't', 00H
	DB	'y', 00H, 'p', 00H, 'e', 00H, 's', 00H, '<', 00H, 'c', 00H, 'l'
	DB	00H, 'a', 00H, 's', 00H, 's', 00H, ' ', 00H, 'E', 00H, 'n', 00H
	DB	't', 00H, 'i', 00H, 't', 00H, 'y', 00H, ' ', 00H, '*', 00H, '>'
	DB	00H, ' ', 00H, '>', 00H, ' ', 00H, '>', 00H, ':', 00H, ':', 00H
	DB	'_', 00H, 'C', 00H, 'o', 00H, 'm', 00H, 'p', 00H, 'a', 00H, 't'
	DB	00H, 00H, 00H				; `string'
CONST	ENDS
;	COMDAT ??_C@_1IO@GBEHMPOJ@?$AAC?$AA?3?$AA?2?$AAP?$AAr?$AAo?$AAg?$AAr?$AAa?$AAm?$AA?5?$AAF?$AAi?$AAl?$AAe?$AAs?$AA?5?$AA?$CI?$AAx?$AA8?$AA6?$AA?$CJ?$AA?2?$AAM?$AAi?$AAc?$AAr?$AAo?$AAs?$AAo?$AAf?$AAt@
CONST	SEGMENT
??_C@_1IO@GBEHMPOJ@?$AAC?$AA?3?$AA?2?$AAP?$AAr?$AAo?$AAg?$AAr?$AAa?$AAm?$AA?5?$AAF?$AAi?$AAl?$AAe?$AAs?$AA?5?$AA?$CI?$AAx?$AA8?$AA6?$AA?$CJ?$AA?2?$AAM?$AAi?$AAc?$AAr?$AAo?$AAs?$AAo?$AAf?$AAt@ DB 'C'
	DB	00H, ':', 00H, '\', 00H, 'P', 00H, 'r', 00H, 'o', 00H, 'g', 00H
	DB	'r', 00H, 'a', 00H, 'm', 00H, ' ', 00H, 'F', 00H, 'i', 00H, 'l'
	DB	00H, 'e', 00H, 's', 00H, ' ', 00H, '(', 00H, 'x', 00H, '8', 00H
	DB	'6', 00H, ')', 00H, '\', 00H, 'M', 00H, 'i', 00H, 'c', 00H, 'r'
	DB	00H, 'o', 00H, 's', 00H, 'o', 00H, 'f', 00H, 't', 00H, ' ', 00H
	DB	'V', 00H, 'i', 00H, 's', 00H, 'u', 00H, 'a', 00H, 'l', 00H, ' '
	DB	00H, 'S', 00H, 't', 00H, 'u', 00H, 'd', 00H, 'i', 00H, 'o', 00H
	DB	' ', 00H, '1', 00H, '4', 00H, '.', 00H, '0', 00H, '\', 00H, 'V'
	DB	00H, 'C', 00H, '\', 00H, 'i', 00H, 'n', 00H, 'c', 00H, 'l', 00H
	DB	'u', 00H, 'd', 00H, 'e', 00H, '\', 00H, 'x', 00H, 'm', 00H, 'e'
	DB	00H, 'm', 00H, 'o', 00H, 'r', 00H, 'y', 00H, 00H, 00H ; `string'
CONST	ENDS
;	COMDAT ??_C@_1EK@EEHFMKDC@?$AAv?$AAe?$AAc?$AAt?$AAo?$AAr?$AA?5?$AAi?$AAn?$AAs?$AAe?$AAr?$AAt?$AA?5?$AAi?$AAt?$AAe?$AAr?$AAa?$AAt?$AAo?$AAr?$AA?5?$AAo?$AAu?$AAt?$AAs?$AAi?$AAd?$AAe?$AA?5?$AAr@
CONST	SEGMENT
??_C@_1EK@EEHFMKDC@?$AAv?$AAe?$AAc?$AAt?$AAo?$AAr?$AA?5?$AAi?$AAn?$AAs?$AAe?$AAr?$AAt?$AA?5?$AAi?$AAt?$AAe?$AAr?$AAa?$AAt?$AAo?$AAr?$AA?5?$AAo?$AAu?$AAt?$AAs?$AAi?$AAd?$AAe?$AA?5?$AAr@ DB 'v'
	DB	00H, 'e', 00H, 'c', 00H, 't', 00H, 'o', 00H, 'r', 00H, ' ', 00H
	DB	'i', 00H, 'n', 00H, 's', 00H, 'e', 00H, 'r', 00H, 't', 00H, ' '
	DB	00H, 'i', 00H, 't', 00H, 'e', 00H, 'r', 00H, 'a', 00H, 't', 00H
	DB	'o', 00H, 'r', 00H, ' ', 00H, 'o', 00H, 'u', 00H, 't', 00H, 's'
	DB	00H, 'i', 00H, 'd', 00H, 'e', 00H, ' ', 00H, 'r', 00H, 'a', 00H
	DB	'n', 00H, 'g', 00H, 'e', 00H, 00H, 00H	; `string'
CONST	ENDS
;	COMDAT ??_C@_1CO@DGLIKNHI@?$AAi?$AAn?$AAv?$AAa?$AAl?$AAi?$AAd?$AA?5?$AAi?$AAt?$AAe?$AAr?$AAa?$AAt?$AAo?$AAr?$AA?5?$AAr?$AAa?$AAn?$AAg?$AAe?$AA?$AA@
CONST	SEGMENT
??_C@_1CO@DGLIKNHI@?$AAi?$AAn?$AAv?$AAa?$AAl?$AAi?$AAd?$AA?5?$AAi?$AAt?$AAe?$AAr?$AAa?$AAt?$AAo?$AAr?$AA?5?$AAr?$AAa?$AAn?$AAg?$AAe?$AA?$AA@ DB 'i'
	DB	00H, 'n', 00H, 'v', 00H, 'a', 00H, 'l', 00H, 'i', 00H, 'd', 00H
	DB	' ', 00H, 'i', 00H, 't', 00H, 'e', 00H, 'r', 00H, 'a', 00H, 't'
	DB	00H, 'o', 00H, 'r', 00H, ' ', 00H, 'r', 00H, 'a', 00H, 'n', 00H
	DB	'g', 00H, 'e', 00H, 00H, 00H			; `string'
CONST	ENDS
;	COMDAT ??_C@_1NM@MILGICEN@?$AAs?$AAt?$AAd?$AA?3?$AA?3?$AA_?$AAV?$AAe?$AAc?$AAt?$AAo?$AAr?$AA_?$AAc?$AAo?$AAn?$AAs?$AAt?$AA_?$AAi?$AAt?$AAe?$AAr?$AAa?$AAt?$AAo?$AAr?$AA?$DM?$AAc?$AAl?$AAa?$AAs@
CONST	SEGMENT
??_C@_1NM@MILGICEN@?$AAs?$AAt?$AAd?$AA?3?$AA?3?$AA_?$AAV?$AAe?$AAc?$AAt?$AAo?$AAr?$AA_?$AAc?$AAo?$AAn?$AAs?$AAt?$AA_?$AAi?$AAt?$AAe?$AAr?$AAa?$AAt?$AAo?$AAr?$AA?$DM?$AAc?$AAl?$AAa?$AAs@ DB 's'
	DB	00H, 't', 00H, 'd', 00H, ':', 00H, ':', 00H, '_', 00H, 'V', 00H
	DB	'e', 00H, 'c', 00H, 't', 00H, 'o', 00H, 'r', 00H, '_', 00H, 'c'
	DB	00H, 'o', 00H, 'n', 00H, 's', 00H, 't', 00H, '_', 00H, 'i', 00H
	DB	't', 00H, 'e', 00H, 'r', 00H, 'a', 00H, 't', 00H, 'o', 00H, 'r'
	DB	00H, '<', 00H, 'c', 00H, 'l', 00H, 'a', 00H, 's', 00H, 's', 00H
	DB	' ', 00H, 's', 00H, 't', 00H, 'd', 00H, ':', 00H, ':', 00H, '_'
	DB	00H, 'V', 00H, 'e', 00H, 'c', 00H, 't', 00H, 'o', 00H, 'r', 00H
	DB	'_', 00H, 'v', 00H, 'a', 00H, 'l', 00H, '<', 00H, 's', 00H, 't'
	DB	00H, 'r', 00H, 'u', 00H, 'c', 00H, 't', 00H, ' ', 00H, 's', 00H
	DB	't', 00H, 'd', 00H, ':', 00H, ':', 00H, '_', 00H, 'S', 00H, 'i'
	DB	00H, 'm', 00H, 'p', 00H, 'l', 00H, 'e', 00H, '_', 00H, 't', 00H
	DB	'y', 00H, 'p', 00H, 'e', 00H, 's', 00H, '<', 00H, 'c', 00H, 'l'
	DB	00H, 'a', 00H, 's', 00H, 's', 00H, ' ', 00H, 'E', 00H, 'n', 00H
	DB	't', 00H, 'i', 00H, 't', 00H, 'y', 00H, ' ', 00H, '*', 00H, '>'
	DB	00H, ' ', 00H, '>', 00H, ' ', 00H, '>', 00H, ':', 00H, ':', 00H
	DB	'o', 00H, 'p', 00H, 'e', 00H, 'r', 00H, 'a', 00H, 't', 00H, 'o'
	DB	00H, 'r', 00H, ' ', 00H, '+', 00H, '=', 00H, 00H, 00H ; `string'
CONST	ENDS
;	COMDAT ??_C@_1CK@EOPGIILJ@?$AAi?$AAn?$AAv?$AAa?$AAl?$AAi?$AAd?$AA?5?$AAn?$AAu?$AAl?$AAl?$AA?5?$AAp?$AAo?$AAi?$AAn?$AAt?$AAe?$AAr?$AA?$AA@
CONST	SEGMENT
??_C@_1CK@EOPGIILJ@?$AAi?$AAn?$AAv?$AAa?$AAl?$AAi?$AAd?$AA?5?$AAn?$AAu?$AAl?$AAl?$AA?5?$AAp?$AAo?$AAi?$AAn?$AAt?$AAe?$AAr?$AA?$AA@ DB 'i'
	DB	00H, 'n', 00H, 'v', 00H, 'a', 00H, 'l', 00H, 'i', 00H, 'd', 00H
	DB	' ', 00H, 'n', 00H, 'u', 00H, 'l', 00H, 'l', 00H, ' ', 00H, 'p'
	DB	00H, 'o', 00H, 'i', 00H, 'n', 00H, 't', 00H, 'e', 00H, 'r', 00H
	DB	00H, 00H					; `string'
CONST	ENDS
;	COMDAT ??_C@_0BA@JFNIOLAK@string?5too?5long?$AA@
CONST	SEGMENT
??_C@_0BA@JFNIOLAK@string?5too?5long?$AA@ DB 'string too long', 00H ; `string'
CONST	ENDS
;	COMDAT ??_C@_1OG@NINHJLHM@?$AAs?$AAt?$AAd?$AA?3?$AA?3?$AA_?$AAV?$AAe?$AAc?$AAt?$AAo?$AAr?$AA_?$AAc?$AAo?$AAn?$AAs?$AAt?$AA_?$AAi?$AAt?$AAe?$AAr?$AAa?$AAt?$AAo?$AAr?$AA?$DM?$AAc?$AAl?$AAa?$AAs@
CONST	SEGMENT
??_C@_1OG@NINHJLHM@?$AAs?$AAt?$AAd?$AA?3?$AA?3?$AA_?$AAV?$AAe?$AAc?$AAt?$AAo?$AAr?$AA_?$AAc?$AAo?$AAn?$AAs?$AAt?$AA_?$AAi?$AAt?$AAe?$AAr?$AAa?$AAt?$AAo?$AAr?$AA?$DM?$AAc?$AAl?$AAa?$AAs@ DB 's'
	DB	00H, 't', 00H, 'd', 00H, ':', 00H, ':', 00H, '_', 00H, 'V', 00H
	DB	'e', 00H, 'c', 00H, 't', 00H, 'o', 00H, 'r', 00H, '_', 00H, 'c'
	DB	00H, 'o', 00H, 'n', 00H, 's', 00H, 't', 00H, '_', 00H, 'i', 00H
	DB	't', 00H, 'e', 00H, 'r', 00H, 'a', 00H, 't', 00H, 'o', 00H, 'r'
	DB	00H, '<', 00H, 'c', 00H, 'l', 00H, 'a', 00H, 's', 00H, 's', 00H
	DB	' ', 00H, 's', 00H, 't', 00H, 'd', 00H, ':', 00H, ':', 00H, '_'
	DB	00H, 'V', 00H, 'e', 00H, 'c', 00H, 't', 00H, 'o', 00H, 'r', 00H
	DB	'_', 00H, 'v', 00H, 'a', 00H, 'l', 00H, '<', 00H, 's', 00H, 't'
	DB	00H, 'r', 00H, 'u', 00H, 'c', 00H, 't', 00H, ' ', 00H, 's', 00H
	DB	't', 00H, 'd', 00H, ':', 00H, ':', 00H, '_', 00H, 'S', 00H, 'i'
	DB	00H, 'm', 00H, 'p', 00H, 'l', 00H, 'e', 00H, '_', 00H, 't', 00H
	DB	'y', 00H, 'p', 00H, 'e', 00H, 's', 00H, '<', 00H, 'c', 00H, 'l'
	DB	00H, 'a', 00H, 's', 00H, 's', 00H, ' ', 00H, 'E', 00H, 'n', 00H
	DB	't', 00H, 'i', 00H, 't', 00H, 'y', 00H, 'C', 00H, 'o', 00H, 'm'
	DB	00H, 'p', 00H, 'o', 00H, 'n', 00H, 'e', 00H, 'n', 00H, 't', 00H
	DB	' ', 00H, '*', 00H, '>', 00H, ' ', 00H, '>', 00H, ' ', 00H, '>'
	DB	00H, ':', 00H, ':', 00H, '_', 00H, 'C', 00H, 'o', 00H, 'm', 00H
	DB	'p', 00H, 'a', 00H, 't', 00H, 00H, 00H	; `string'
CONST	ENDS
;	COMDAT ??_C@_1BAI@MFPHLFHP@?$AAs?$AAt?$AAd?$AA?3?$AA?3?$AA_?$AAV?$AAe?$AAc?$AAt?$AAo?$AAr?$AA_?$AAc?$AAo?$AAn?$AAs?$AAt?$AA_?$AAi?$AAt?$AAe?$AAr?$AAa?$AAt?$AAo?$AAr?$AA?$DM?$AAc?$AAl?$AAa?$AAs@
CONST	SEGMENT
??_C@_1BAI@MFPHLFHP@?$AAs?$AAt?$AAd?$AA?3?$AA?3?$AA_?$AAV?$AAe?$AAc?$AAt?$AAo?$AAr?$AA_?$AAc?$AAo?$AAn?$AAs?$AAt?$AA_?$AAi?$AAt?$AAe?$AAr?$AAa?$AAt?$AAo?$AAr?$AA?$DM?$AAc?$AAl?$AAa?$AAs@ DB 's'
	DB	00H, 't', 00H, 'd', 00H, ':', 00H, ':', 00H, '_', 00H, 'V', 00H
	DB	'e', 00H, 'c', 00H, 't', 00H, 'o', 00H, 'r', 00H, '_', 00H, 'c'
	DB	00H, 'o', 00H, 'n', 00H, 's', 00H, 't', 00H, '_', 00H, 'i', 00H
	DB	't', 00H, 'e', 00H, 'r', 00H, 'a', 00H, 't', 00H, 'o', 00H, 'r'
	DB	00H, '<', 00H, 'c', 00H, 'l', 00H, 'a', 00H, 's', 00H, 's', 00H
	DB	' ', 00H, 's', 00H, 't', 00H, 'd', 00H, ':', 00H, ':', 00H, '_'
	DB	00H, 'V', 00H, 'e', 00H, 'c', 00H, 't', 00H, 'o', 00H, 'r', 00H
	DB	'_', 00H, 'v', 00H, 'a', 00H, 'l', 00H, '<', 00H, 's', 00H, 't'
	DB	00H, 'r', 00H, 'u', 00H, 'c', 00H, 't', 00H, ' ', 00H, 's', 00H
	DB	't', 00H, 'd', 00H, ':', 00H, ':', 00H, '_', 00H, 'S', 00H, 'i'
	DB	00H, 'm', 00H, 'p', 00H, 'l', 00H, 'e', 00H, '_', 00H, 't', 00H
	DB	'y', 00H, 'p', 00H, 'e', 00H, 's', 00H, '<', 00H, 's', 00H, 't'
	DB	00H, 'r', 00H, 'u', 00H, 'c', 00H, 't', 00H, ' ', 00H, 's', 00H
	DB	't', 00H, 'd', 00H, ':', 00H, ':', 00H, 'p', 00H, 'a', 00H, 'i'
	DB	00H, 'r', 00H, '<', 00H, 'c', 00H, 'l', 00H, 'a', 00H, 's', 00H
	DB	's', 00H, ' ', 00H, 'R', 00H, 'i', 00H, 'g', 00H, 'i', 00H, 'd'
	DB	00H, 'B', 00H, 'o', 00H, 'd', 00H, 'y', 00H, ' ', 00H, '*', 00H
	DB	',', 00H, 'i', 00H, 'n', 00H, 't', 00H, '>', 00H, ' ', 00H, '>'
	DB	00H, ' ', 00H, '>', 00H, ' ', 00H, '>', 00H, ':', 00H, ':', 00H
	DB	'_', 00H, 'C', 00H, 'o', 00H, 'm', 00H, 'p', 00H, 'a', 00H, 't'
	DB	00H, 00H, 00H				; `string'
CONST	ENDS
;	COMDAT ??_C@_0BD@OLBABOEK@vector?$DMT?$DO?5too?5long?$AA@
CONST	SEGMENT
??_C@_0BD@OLBABOEK@vector?$DMT?$DO?5too?5long?$AA@ DB 'vector<T> too long'
	DB	00H						; `string'
CONST	ENDS
;	COMDAT ??_C@_1EM@FKAOCOMF@?$AAv?$AAe?$AAc?$AAt?$AAo?$AAr?$AA?5?$AAi?$AAt?$AAe?$AAr?$AAa?$AAt?$AAo?$AAr?$AA?5?$AA?$CL?$AA?5?$AAo?$AAf?$AAf?$AAs?$AAe?$AAt?$AA?5?$AAo?$AAu?$AAt?$AA?5?$AAo?$AAf?$AA?5@
CONST	SEGMENT
??_C@_1EM@FKAOCOMF@?$AAv?$AAe?$AAc?$AAt?$AAo?$AAr?$AA?5?$AAi?$AAt?$AAe?$AAr?$AAa?$AAt?$AAo?$AAr?$AA?5?$AA?$CL?$AA?5?$AAo?$AAf?$AAf?$AAs?$AAe?$AAt?$AA?5?$AAo?$AAu?$AAt?$AA?5?$AAo?$AAf?$AA?5@ DB 'v'
	DB	00H, 'e', 00H, 'c', 00H, 't', 00H, 'o', 00H, 'r', 00H, ' ', 00H
	DB	'i', 00H, 't', 00H, 'e', 00H, 'r', 00H, 'a', 00H, 't', 00H, 'o'
	DB	00H, 'r', 00H, ' ', 00H, '+', 00H, ' ', 00H, 'o', 00H, 'f', 00H
	DB	'f', 00H, 's', 00H, 'e', 00H, 't', 00H, ' ', 00H, 'o', 00H, 'u'
	DB	00H, 't', 00H, ' ', 00H, 'o', 00H, 'f', 00H, ' ', 00H, 'r', 00H
	DB	'a', 00H, 'n', 00H, 'g', 00H, 'e', 00H, 00H, 00H ; `string'
CONST	ENDS
;	COMDAT ??_C@_1DM@HINDPMBP@?$AAv?$AAe?$AAc?$AAt?$AAo?$AAr?$AA?5?$AAi?$AAt?$AAe?$AAr?$AAa?$AAt?$AAo?$AAr?$AAs?$AA?5?$AAi?$AAn?$AAc?$AAo?$AAm?$AAp?$AAa?$AAt?$AAi?$AAb?$AAl?$AAe?$AA?$AA@
CONST	SEGMENT
??_C@_1DM@HINDPMBP@?$AAv?$AAe?$AAc?$AAt?$AAo?$AAr?$AA?5?$AAi?$AAt?$AAe?$AAr?$AAa?$AAt?$AAo?$AAr?$AAs?$AA?5?$AAi?$AAn?$AAc?$AAo?$AAm?$AAp?$AAa?$AAt?$AAi?$AAb?$AAl?$AAe?$AA?$AA@ DB 'v'
	DB	00H, 'e', 00H, 'c', 00H, 't', 00H, 'o', 00H, 'r', 00H, ' ', 00H
	DB	'i', 00H, 't', 00H, 'e', 00H, 'r', 00H, 'a', 00H, 't', 00H, 'o'
	DB	00H, 'r', 00H, 's', 00H, ' ', 00H, 'i', 00H, 'n', 00H, 'c', 00H
	DB	'o', 00H, 'm', 00H, 'p', 00H, 'a', 00H, 't', 00H, 'i', 00H, 'b'
	DB	00H, 'l', 00H, 'e', 00H, 00H, 00H		; `string'
CONST	ENDS
;	COMDAT ??_C@_0BI@CFPLBAOH@invalid?5string?5position?$AA@
CONST	SEGMENT
??_C@_0BI@CFPLBAOH@invalid?5string?5position?$AA@ DB 'invalid string posi'
	DB	'tion', 00H					; `string'
CONST	ENDS
;	COMDAT ??_C@_1OM@HKICCNDG@?$AAs?$AAt?$AAd?$AA?3?$AA?3?$AA_?$AAV?$AAe?$AAc?$AAt?$AAo?$AAr?$AA_?$AAc?$AAo?$AAn?$AAs?$AAt?$AA_?$AAi?$AAt?$AAe?$AAr?$AAa?$AAt?$AAo?$AAr?$AA?$DM?$AAc?$AAl?$AAa?$AAs@
CONST	SEGMENT
??_C@_1OM@HKICCNDG@?$AAs?$AAt?$AAd?$AA?3?$AA?3?$AA_?$AAV?$AAe?$AAc?$AAt?$AAo?$AAr?$AA_?$AAc?$AAo?$AAn?$AAs?$AAt?$AA_?$AAi?$AAt?$AAe?$AAr?$AAa?$AAt?$AAo?$AAr?$AA?$DM?$AAc?$AAl?$AAa?$AAs@ DB 's'
	DB	00H, 't', 00H, 'd', 00H, ':', 00H, ':', 00H, '_', 00H, 'V', 00H
	DB	'e', 00H, 'c', 00H, 't', 00H, 'o', 00H, 'r', 00H, '_', 00H, 'c'
	DB	00H, 'o', 00H, 'n', 00H, 's', 00H, 't', 00H, '_', 00H, 'i', 00H
	DB	't', 00H, 'e', 00H, 'r', 00H, 'a', 00H, 't', 00H, 'o', 00H, 'r'
	DB	00H, '<', 00H, 'c', 00H, 'l', 00H, 'a', 00H, 's', 00H, 's', 00H
	DB	' ', 00H, 's', 00H, 't', 00H, 'd', 00H, ':', 00H, ':', 00H, '_'
	DB	00H, 'V', 00H, 'e', 00H, 'c', 00H, 't', 00H, 'o', 00H, 'r', 00H
	DB	'_', 00H, 'v', 00H, 'a', 00H, 'l', 00H, '<', 00H, 's', 00H, 't'
	DB	00H, 'r', 00H, 'u', 00H, 'c', 00H, 't', 00H, ' ', 00H, 's', 00H
	DB	't', 00H, 'd', 00H, ':', 00H, ':', 00H, '_', 00H, 'S', 00H, 'i'
	DB	00H, 'm', 00H, 'p', 00H, 'l', 00H, 'e', 00H, '_', 00H, 't', 00H
	DB	'y', 00H, 'p', 00H, 'e', 00H, 's', 00H, '<', 00H, 'c', 00H, 'l'
	DB	00H, 'a', 00H, 's', 00H, 's', 00H, ' ', 00H, 'E', 00H, 'n', 00H
	DB	't', 00H, 'i', 00H, 't', 00H, 'y', 00H, 'C', 00H, 'o', 00H, 'm'
	DB	00H, 'p', 00H, 'o', 00H, 'n', 00H, 'e', 00H, 'n', 00H, 't', 00H
	DB	' ', 00H, '*', 00H, '>', 00H, ' ', 00H, '>', 00H, ' ', 00H, '>'
	DB	00H, ':', 00H, ':', 00H, 'o', 00H, 'p', 00H, 'e', 00H, 'r', 00H
	DB	'a', 00H, 't', 00H, 'o', 00H, 'r', 00H, ' ', 00H, '*', 00H, 00H
	DB	00H						; `string'
CONST	ENDS
;	COMDAT ??_C@_1OO@HAKMEMBI@?$AAs?$AAt?$AAd?$AA?3?$AA?3?$AA_?$AAV?$AAe?$AAc?$AAt?$AAo?$AAr?$AA_?$AAc?$AAo?$AAn?$AAs?$AAt?$AA_?$AAi?$AAt?$AAe?$AAr?$AAa?$AAt?$AAo?$AAr?$AA?$DM?$AAc?$AAl?$AAa?$AAs@
CONST	SEGMENT
??_C@_1OO@HAKMEMBI@?$AAs?$AAt?$AAd?$AA?3?$AA?3?$AA_?$AAV?$AAe?$AAc?$AAt?$AAo?$AAr?$AA_?$AAc?$AAo?$AAn?$AAs?$AAt?$AA_?$AAi?$AAt?$AAe?$AAr?$AAa?$AAt?$AAo?$AAr?$AA?$DM?$AAc?$AAl?$AAa?$AAs@ DB 's'
	DB	00H, 't', 00H, 'd', 00H, ':', 00H, ':', 00H, '_', 00H, 'V', 00H
	DB	'e', 00H, 'c', 00H, 't', 00H, 'o', 00H, 'r', 00H, '_', 00H, 'c'
	DB	00H, 'o', 00H, 'n', 00H, 's', 00H, 't', 00H, '_', 00H, 'i', 00H
	DB	't', 00H, 'e', 00H, 'r', 00H, 'a', 00H, 't', 00H, 'o', 00H, 'r'
	DB	00H, '<', 00H, 'c', 00H, 'l', 00H, 'a', 00H, 's', 00H, 's', 00H
	DB	' ', 00H, 's', 00H, 't', 00H, 'd', 00H, ':', 00H, ':', 00H, '_'
	DB	00H, 'V', 00H, 'e', 00H, 'c', 00H, 't', 00H, 'o', 00H, 'r', 00H
	DB	'_', 00H, 'v', 00H, 'a', 00H, 'l', 00H, '<', 00H, 's', 00H, 't'
	DB	00H, 'r', 00H, 'u', 00H, 'c', 00H, 't', 00H, ' ', 00H, 's', 00H
	DB	't', 00H, 'd', 00H, ':', 00H, ':', 00H, '_', 00H, 'S', 00H, 'i'
	DB	00H, 'm', 00H, 'p', 00H, 'l', 00H, 'e', 00H, '_', 00H, 't', 00H
	DB	'y', 00H, 'p', 00H, 'e', 00H, 's', 00H, '<', 00H, 'c', 00H, 'l'
	DB	00H, 'a', 00H, 's', 00H, 's', 00H, ' ', 00H, 'E', 00H, 'n', 00H
	DB	't', 00H, 'i', 00H, 't', 00H, 'y', 00H, 'C', 00H, 'o', 00H, 'm'
	DB	00H, 'p', 00H, 'o', 00H, 'n', 00H, 'e', 00H, 'n', 00H, 't', 00H
	DB	' ', 00H, '*', 00H, '>', 00H, ' ', 00H, '>', 00H, ' ', 00H, '>'
	DB	00H, ':', 00H, ':', 00H, 'o', 00H, 'p', 00H, 'e', 00H, 'r', 00H
	DB	'a', 00H, 't', 00H, 'o', 00H, 'r', 00H, ' ', 00H, '+', 00H, '+'
	DB	00H, 00H, 00H				; `string'
CONST	ENDS
;	COMDAT ??_C@_1BAO@DGCLFBOA@?$AAs?$AAt?$AAd?$AA?3?$AA?3?$AA_?$AAV?$AAe?$AAc?$AAt?$AAo?$AAr?$AA_?$AAc?$AAo?$AAn?$AAs?$AAt?$AA_?$AAi?$AAt?$AAe?$AAr?$AAa?$AAt?$AAo?$AAr?$AA?$DM?$AAc?$AAl?$AAa?$AAs@
CONST	SEGMENT
??_C@_1BAO@DGCLFBOA@?$AAs?$AAt?$AAd?$AA?3?$AA?3?$AA_?$AAV?$AAe?$AAc?$AAt?$AAo?$AAr?$AA_?$AAc?$AAo?$AAn?$AAs?$AAt?$AA_?$AAi?$AAt?$AAe?$AAr?$AAa?$AAt?$AAo?$AAr?$AA?$DM?$AAc?$AAl?$AAa?$AAs@ DB 's'
	DB	00H, 't', 00H, 'd', 00H, ':', 00H, ':', 00H, '_', 00H, 'V', 00H
	DB	'e', 00H, 'c', 00H, 't', 00H, 'o', 00H, 'r', 00H, '_', 00H, 'c'
	DB	00H, 'o', 00H, 'n', 00H, 's', 00H, 't', 00H, '_', 00H, 'i', 00H
	DB	't', 00H, 'e', 00H, 'r', 00H, 'a', 00H, 't', 00H, 'o', 00H, 'r'
	DB	00H, '<', 00H, 'c', 00H, 'l', 00H, 'a', 00H, 's', 00H, 's', 00H
	DB	' ', 00H, 's', 00H, 't', 00H, 'd', 00H, ':', 00H, ':', 00H, '_'
	DB	00H, 'V', 00H, 'e', 00H, 'c', 00H, 't', 00H, 'o', 00H, 'r', 00H
	DB	'_', 00H, 'v', 00H, 'a', 00H, 'l', 00H, '<', 00H, 's', 00H, 't'
	DB	00H, 'r', 00H, 'u', 00H, 'c', 00H, 't', 00H, ' ', 00H, 's', 00H
	DB	't', 00H, 'd', 00H, ':', 00H, ':', 00H, '_', 00H, 'S', 00H, 'i'
	DB	00H, 'm', 00H, 'p', 00H, 'l', 00H, 'e', 00H, '_', 00H, 't', 00H
	DB	'y', 00H, 'p', 00H, 'e', 00H, 's', 00H, '<', 00H, 's', 00H, 't'
	DB	00H, 'r', 00H, 'u', 00H, 'c', 00H, 't', 00H, ' ', 00H, 's', 00H
	DB	't', 00H, 'd', 00H, ':', 00H, ':', 00H, 'p', 00H, 'a', 00H, 'i'
	DB	00H, 'r', 00H, '<', 00H, 'c', 00H, 'l', 00H, 'a', 00H, 's', 00H
	DB	's', 00H, ' ', 00H, 'R', 00H, 'i', 00H, 'g', 00H, 'i', 00H, 'd'
	DB	00H, 'B', 00H, 'o', 00H, 'd', 00H, 'y', 00H, ' ', 00H, '*', 00H
	DB	',', 00H, 'i', 00H, 'n', 00H, 't', 00H, '>', 00H, ' ', 00H, '>'
	DB	00H, ' ', 00H, '>', 00H, ' ', 00H, '>', 00H, ':', 00H, ':', 00H
	DB	'o', 00H, 'p', 00H, 'e', 00H, 'r', 00H, 'a', 00H, 't', 00H, 'o'
	DB	00H, 'r', 00H, ' ', 00H, '*', 00H, 00H, 00H	; `string'
CONST	ENDS
;	COMDAT ??_C@_1BBA@POHNFPDP@?$AAs?$AAt?$AAd?$AA?3?$AA?3?$AA_?$AAV?$AAe?$AAc?$AAt?$AAo?$AAr?$AA_?$AAc?$AAo?$AAn?$AAs?$AAt?$AA_?$AAi?$AAt?$AAe?$AAr?$AAa?$AAt?$AAo?$AAr?$AA?$DM?$AAc?$AAl?$AAa?$AAs@
CONST	SEGMENT
??_C@_1BBA@POHNFPDP@?$AAs?$AAt?$AAd?$AA?3?$AA?3?$AA_?$AAV?$AAe?$AAc?$AAt?$AAo?$AAr?$AA_?$AAc?$AAo?$AAn?$AAs?$AAt?$AA_?$AAi?$AAt?$AAe?$AAr?$AAa?$AAt?$AAo?$AAr?$AA?$DM?$AAc?$AAl?$AAa?$AAs@ DB 's'
	DB	00H, 't', 00H, 'd', 00H, ':', 00H, ':', 00H, '_', 00H, 'V', 00H
	DB	'e', 00H, 'c', 00H, 't', 00H, 'o', 00H, 'r', 00H, '_', 00H, 'c'
	DB	00H, 'o', 00H, 'n', 00H, 's', 00H, 't', 00H, '_', 00H, 'i', 00H
	DB	't', 00H, 'e', 00H, 'r', 00H, 'a', 00H, 't', 00H, 'o', 00H, 'r'
	DB	00H, '<', 00H, 'c', 00H, 'l', 00H, 'a', 00H, 's', 00H, 's', 00H
	DB	' ', 00H, 's', 00H, 't', 00H, 'd', 00H, ':', 00H, ':', 00H, '_'
	DB	00H, 'V', 00H, 'e', 00H, 'c', 00H, 't', 00H, 'o', 00H, 'r', 00H
	DB	'_', 00H, 'v', 00H, 'a', 00H, 'l', 00H, '<', 00H, 's', 00H, 't'
	DB	00H, 'r', 00H, 'u', 00H, 'c', 00H, 't', 00H, ' ', 00H, 's', 00H
	DB	't', 00H, 'd', 00H, ':', 00H, ':', 00H, '_', 00H, 'S', 00H, 'i'
	DB	00H, 'm', 00H, 'p', 00H, 'l', 00H, 'e', 00H, '_', 00H, 't', 00H
	DB	'y', 00H, 'p', 00H, 'e', 00H, 's', 00H, '<', 00H, 's', 00H, 't'
	DB	00H, 'r', 00H, 'u', 00H, 'c', 00H, 't', 00H, ' ', 00H, 's', 00H
	DB	't', 00H, 'd', 00H, ':', 00H, ':', 00H, 'p', 00H, 'a', 00H, 'i'
	DB	00H, 'r', 00H, '<', 00H, 'c', 00H, 'l', 00H, 'a', 00H, 's', 00H
	DB	's', 00H, ' ', 00H, 'R', 00H, 'i', 00H, 'g', 00H, 'i', 00H, 'd'
	DB	00H, 'B', 00H, 'o', 00H, 'd', 00H, 'y', 00H, ' ', 00H, '*', 00H
	DB	',', 00H, 'i', 00H, 'n', 00H, 't', 00H, '>', 00H, ' ', 00H, '>'
	DB	00H, ' ', 00H, '>', 00H, ' ', 00H, '>', 00H, ':', 00H, ':', 00H
	DB	'o', 00H, 'p', 00H, 'e', 00H, 'r', 00H, 'a', 00H, 't', 00H, 'o'
	DB	00H, 'r', 00H, ' ', 00H, '+', 00H, '+', 00H, 00H, 00H ; `string'
CONST	ENDS
;	COMDAT ??_C@_0BM@NMJKDPPO@invalid?5vector?$DMT?$DO?5subscript?$AA@
CONST	SEGMENT
??_C@_0BM@NMJKDPPO@invalid?5vector?$DMT?$DO?5subscript?$AA@ DB 'invalid v'
	DB	'ector<T> subscript', 00H			; `string'
CONST	ENDS
;	COMDAT ??_C@_1IO@IPMLDGDI@?$AAC?$AA?3?$AA?2?$AAP?$AAr?$AAo?$AAg?$AAr?$AAa?$AAm?$AA?5?$AAF?$AAi?$AAl?$AAe?$AAs?$AA?5?$AA?$CI?$AAx?$AA8?$AA6?$AA?$CJ?$AA?2?$AAM?$AAi?$AAc?$AAr?$AAo?$AAs?$AAo?$AAf?$AAt@
CONST	SEGMENT
??_C@_1IO@IPMLDGDI@?$AAC?$AA?3?$AA?2?$AAP?$AAr?$AAo?$AAg?$AAr?$AAa?$AAm?$AA?5?$AAF?$AAi?$AAl?$AAe?$AAs?$AA?5?$AA?$CI?$AAx?$AA8?$AA6?$AA?$CJ?$AA?2?$AAM?$AAi?$AAc?$AAr?$AAo?$AAs?$AAo?$AAf?$AAt@ DB 'C'
	DB	00H, ':', 00H, '\', 00H, 'P', 00H, 'r', 00H, 'o', 00H, 'g', 00H
	DB	'r', 00H, 'a', 00H, 'm', 00H, ' ', 00H, 'F', 00H, 'i', 00H, 'l'
	DB	00H, 'e', 00H, 's', 00H, ' ', 00H, '(', 00H, 'x', 00H, '8', 00H
	DB	'6', 00H, ')', 00H, '\', 00H, 'M', 00H, 'i', 00H, 'c', 00H, 'r'
	DB	00H, 'o', 00H, 's', 00H, 'o', 00H, 'f', 00H, 't', 00H, ' ', 00H
	DB	'V', 00H, 'i', 00H, 's', 00H, 'u', 00H, 'a', 00H, 'l', 00H, ' '
	DB	00H, 'S', 00H, 't', 00H, 'u', 00H, 'd', 00H, 'i', 00H, 'o', 00H
	DB	' ', 00H, '1', 00H, '4', 00H, '.', 00H, '0', 00H, '\', 00H, 'V'
	DB	00H, 'C', 00H, '\', 00H, 'i', 00H, 'n', 00H, 'c', 00H, 'l', 00H
	DB	'u', 00H, 'd', 00H, 'e', 00H, '\', 00H, 'x', 00H, 's', 00H, 't'
	DB	00H, 'r', 00H, 'i', 00H, 'n', 00H, 'g', 00H, 00H, 00H ; `string'
CONST	ENDS
;	COMDAT ??_C@_1BME@NCIPHHDN@?$AAs?$AAt?$AAd?$AA?3?$AA?3?$AAv?$AAe?$AAc?$AAt?$AAo?$AAr?$AA?$DM?$AAc?$AAl?$AAa?$AAs?$AAs?$AA?5?$AAs?$AAt?$AAd?$AA?3?$AA?3?$AAb?$AAa?$AAs?$AAi?$AAc?$AA_?$AAs?$AAt?$AAr@
CONST	SEGMENT
??_C@_1BME@NCIPHHDN@?$AAs?$AAt?$AAd?$AA?3?$AA?3?$AAv?$AAe?$AAc?$AAt?$AAo?$AAr?$AA?$DM?$AAc?$AAl?$AAa?$AAs?$AAs?$AA?5?$AAs?$AAt?$AAd?$AA?3?$AA?3?$AAb?$AAa?$AAs?$AAi?$AAc?$AA_?$AAs?$AAt?$AAr@ DB 's'
	DB	00H, 't', 00H, 'd', 00H, ':', 00H, ':', 00H, 'v', 00H, 'e', 00H
	DB	'c', 00H, 't', 00H, 'o', 00H, 'r', 00H, '<', 00H, 'c', 00H, 'l'
	DB	00H, 'a', 00H, 's', 00H, 's', 00H, ' ', 00H, 's', 00H, 't', 00H
	DB	'd', 00H, ':', 00H, ':', 00H, 'b', 00H, 'a', 00H, 's', 00H, 'i'
	DB	00H, 'c', 00H, '_', 00H, 's', 00H, 't', 00H, 'r', 00H, 'i', 00H
	DB	'n', 00H, 'g', 00H, '<', 00H, 'c', 00H, 'h', 00H, 'a', 00H, 'r'
	DB	00H, ',', 00H, 's', 00H, 't', 00H, 'r', 00H, 'u', 00H, 'c', 00H
	DB	't', 00H, ' ', 00H, 's', 00H, 't', 00H, 'd', 00H, ':', 00H, ':'
	DB	00H, 'c', 00H, 'h', 00H, 'a', 00H, 'r', 00H, '_', 00H, 't', 00H
	DB	'r', 00H, 'a', 00H, 'i', 00H, 't', 00H, 's', 00H, '<', 00H, 'c'
	DB	00H, 'h', 00H, 'a', 00H, 'r', 00H, '>', 00H, ',', 00H, 'c', 00H
	DB	'l', 00H, 'a', 00H, 's', 00H, 's', 00H, ' ', 00H, 's', 00H, 't'
	DB	00H, 'd', 00H, ':', 00H, ':', 00H, 'a', 00H, 'l', 00H, 'l', 00H
	DB	'o', 00H, 'c', 00H, 'a', 00H, 't', 00H, 'o', 00H, 'r', 00H, '<'
	DB	00H, 'c', 00H, 'h', 00H, 'a', 00H, 'r', 00H, '>', 00H, ' ', 00H
	DB	'>', 00H, ',', 00H, 'c', 00H, 'l', 00H, 'a', 00H, 's', 00H, 's'
	DB	00H, ' ', 00H, 's', 00H, 't', 00H, 'd', 00H, ':', 00H, ':', 00H
	DB	'a', 00H, 'l', 00H, 'l', 00H, 'o', 00H, 'c', 00H, 'a', 00H, 't'
	DB	00H, 'o', 00H, 'r', 00H, '<', 00H, 'c', 00H, 'l', 00H, 'a', 00H
	DB	's', 00H, 's', 00H, ' ', 00H, 's', 00H, 't', 00H, 'd', 00H, ':'
	DB	00H, ':', 00H, 'b', 00H, 'a', 00H, 's', 00H, 'i', 00H, 'c', 00H
	DB	'_', 00H, 's', 00H, 't', 00H, 'r', 00H, 'i', 00H, 'n', 00H, 'g'
	DB	00H, '<', 00H, 'c', 00H, 'h', 00H, 'a', 00H, 'r', 00H, ',', 00H
	DB	's', 00H, 't', 00H, 'r', 00H, 'u', 00H, 'c', 00H, 't', 00H, ' '
	DB	00H, 's', 00H, 't', 00H, 'd', 00H, ':', 00H, ':', 00H, 'c', 00H
	DB	'h', 00H, 'a', 00H, 'r', 00H, '_', 00H, 't', 00H, 'r', 00H, 'a'
	DB	00H, 'i', 00H, 't', 00H, 's', 00H, '<', 00H, 'c', 00H, 'h', 00H
	DB	'a', 00H, 'r', 00H, '>', 00H, ',', 00H, 'c', 00H, 'l', 00H, 'a'
	DB	00H, 's', 00H, 's', 00H, ' ', 00H, 's', 00H, 't', 00H, 'd', 00H
	DB	':', 00H, ':', 00H, 'a', 00H, 'l', 00H, 'l', 00H, 'o', 00H, 'c'
	DB	00H, 'a', 00H, 't', 00H, 'o', 00H, 'r', 00H, '<', 00H, 'c', 00H
	DB	'h', 00H, 'a', 00H, 'r', 00H, '>', 00H, ' ', 00H, '>', 00H, ' '
	DB	00H, '>', 00H, ' ', 00H, '>', 00H, ':', 00H, ':', 00H, 'o', 00H
	DB	'p', 00H, 'e', 00H, 'r', 00H, 'a', 00H, 't', 00H, 'o', 00H, 'r'
	DB	00H, ' ', 00H, '[', 00H, ']', 00H, 00H, 00H	; `string'
CONST	ENDS
;	COMDAT ??_C@_1FO@GJIHNDLM@?$AA?$CC?$AAS?$AAt?$AAa?$AAn?$AAd?$AAa?$AAr?$AAd?$AA?5?$AAC?$AA?$CL?$AA?$CL?$AA?5?$AAL?$AAi?$AAb?$AAr?$AAa?$AAr?$AAi?$AAe?$AAs?$AA?5?$AAI?$AAn?$AAv?$AAa?$AAl?$AAi?$AAd?$AA?5@
CONST	SEGMENT
??_C@_1FO@GJIHNDLM@?$AA?$CC?$AAS?$AAt?$AAa?$AAn?$AAd?$AAa?$AAr?$AAd?$AA?5?$AAC?$AA?$CL?$AA?$CL?$AA?5?$AAL?$AAi?$AAb?$AAr?$AAa?$AAr?$AAi?$AAe?$AAs?$AA?5?$AAI?$AAn?$AAv?$AAa?$AAl?$AAi?$AAd?$AA?5@ DB '"'
	DB	00H, 'S', 00H, 't', 00H, 'a', 00H, 'n', 00H, 'd', 00H, 'a', 00H
	DB	'r', 00H, 'd', 00H, ' ', 00H, 'C', 00H, '+', 00H, '+', 00H, ' '
	DB	00H, 'L', 00H, 'i', 00H, 'b', 00H, 'r', 00H, 'a', 00H, 'r', 00H
	DB	'i', 00H, 'e', 00H, 's', 00H, ' ', 00H, 'I', 00H, 'n', 00H, 'v'
	DB	00H, 'a', 00H, 'l', 00H, 'i', 00H, 'd', 00H, ' ', 00H, 'A', 00H
	DB	'r', 00H, 'g', 00H, 'u', 00H, 'm', 00H, 'e', 00H, 'n', 00H, 't'
	DB	00H, '"', 00H, ' ', 00H, '&', 00H, '&', 00H, ' ', 00H, '0', 00H
	DB	00H, 00H					; `string'
CONST	ENDS
;	COMDAT ??_C@_0CI@FNPHFCCM@Standard?5C?$CL?$CL?5Libraries?5Invalid?5A@
CONST	SEGMENT
??_C@_0CI@FNPHFCCM@Standard?5C?$CL?$CL?5Libraries?5Invalid?5A@ DB 'Standa'
	DB	'rd C++ Libraries Invalid Argument', 00H	; `string'
CONST	ENDS
;	COMDAT ??_C@_1MC@NHEIOOEP@?$AAs?$AAt?$AAd?$AA?3?$AA?3?$AAv?$AAe?$AAc?$AAt?$AAo?$AAr?$AA?$DM?$AAc?$AAl?$AAa?$AAs?$AAs?$AA?5?$AAE?$AAn?$AAt?$AAi?$AAt?$AAy?$AAC?$AAo?$AAm?$AAp?$AAo?$AAn?$AAe?$AAn@
CONST	SEGMENT
??_C@_1MC@NHEIOOEP@?$AAs?$AAt?$AAd?$AA?3?$AA?3?$AAv?$AAe?$AAc?$AAt?$AAo?$AAr?$AA?$DM?$AAc?$AAl?$AAa?$AAs?$AAs?$AA?5?$AAE?$AAn?$AAt?$AAi?$AAt?$AAy?$AAC?$AAo?$AAm?$AAp?$AAo?$AAn?$AAe?$AAn@ DB 's'
	DB	00H, 't', 00H, 'd', 00H, ':', 00H, ':', 00H, 'v', 00H, 'e', 00H
	DB	'c', 00H, 't', 00H, 'o', 00H, 'r', 00H, '<', 00H, 'c', 00H, 'l'
	DB	00H, 'a', 00H, 's', 00H, 's', 00H, ' ', 00H, 'E', 00H, 'n', 00H
	DB	't', 00H, 'i', 00H, 't', 00H, 'y', 00H, 'C', 00H, 'o', 00H, 'm'
	DB	00H, 'p', 00H, 'o', 00H, 'n', 00H, 'e', 00H, 'n', 00H, 't', 00H
	DB	' ', 00H, '*', 00H, ',', 00H, 'c', 00H, 'l', 00H, 'a', 00H, 's'
	DB	00H, 's', 00H, ' ', 00H, 's', 00H, 't', 00H, 'd', 00H, ':', 00H
	DB	':', 00H, 'a', 00H, 'l', 00H, 'l', 00H, 'o', 00H, 'c', 00H, 'a'
	DB	00H, 't', 00H, 'o', 00H, 'r', 00H, '<', 00H, 'c', 00H, 'l', 00H
	DB	'a', 00H, 's', 00H, 's', 00H, ' ', 00H, 'E', 00H, 'n', 00H, 't'
	DB	00H, 'i', 00H, 't', 00H, 'y', 00H, 'C', 00H, 'o', 00H, 'm', 00H
	DB	'p', 00H, 'o', 00H, 'n', 00H, 'e', 00H, 'n', 00H, 't', 00H, ' '
	DB	00H, '*', 00H, '>', 00H, ' ', 00H, '>', 00H, ':', 00H, ':', 00H
	DB	'o', 00H, 'p', 00H, 'e', 00H, 'r', 00H, 'a', 00H, 't', 00H, 'o'
	DB	00H, 'r', 00H, ' ', 00H, '[', 00H, ']', 00H, 00H, 00H ; `string'
CONST	ENDS
;	COMDAT ??_C@_1JO@KJPPJIKP@?$AAs?$AAt?$AAd?$AA?3?$AA?3?$AAv?$AAe?$AAc?$AAt?$AAo?$AAr?$AA?$DM?$AAc?$AAl?$AAa?$AAs?$AAs?$AA?5?$AAE?$AAn?$AAt?$AAi?$AAt?$AAy?$AA?5?$AA?$CK?$AA?0?$AAc?$AAl?$AAa?$AAs?$AAs@
CONST	SEGMENT
??_C@_1JO@KJPPJIKP@?$AAs?$AAt?$AAd?$AA?3?$AA?3?$AAv?$AAe?$AAc?$AAt?$AAo?$AAr?$AA?$DM?$AAc?$AAl?$AAa?$AAs?$AAs?$AA?5?$AAE?$AAn?$AAt?$AAi?$AAt?$AAy?$AA?5?$AA?$CK?$AA?0?$AAc?$AAl?$AAa?$AAs?$AAs@ DB 's'
	DB	00H, 't', 00H, 'd', 00H, ':', 00H, ':', 00H, 'v', 00H, 'e', 00H
	DB	'c', 00H, 't', 00H, 'o', 00H, 'r', 00H, '<', 00H, 'c', 00H, 'l'
	DB	00H, 'a', 00H, 's', 00H, 's', 00H, ' ', 00H, 'E', 00H, 'n', 00H
	DB	't', 00H, 'i', 00H, 't', 00H, 'y', 00H, ' ', 00H, '*', 00H, ','
	DB	00H, 'c', 00H, 'l', 00H, 'a', 00H, 's', 00H, 's', 00H, ' ', 00H
	DB	's', 00H, 't', 00H, 'd', 00H, ':', 00H, ':', 00H, 'a', 00H, 'l'
	DB	00H, 'l', 00H, 'o', 00H, 'c', 00H, 'a', 00H, 't', 00H, 'o', 00H
	DB	'r', 00H, '<', 00H, 'c', 00H, 'l', 00H, 'a', 00H, 's', 00H, 's'
	DB	00H, ' ', 00H, 'E', 00H, 'n', 00H, 't', 00H, 'i', 00H, 't', 00H
	DB	'y', 00H, ' ', 00H, '*', 00H, '>', 00H, ' ', 00H, '>', 00H, ':'
	DB	00H, ':', 00H, 'o', 00H, 'p', 00H, 'e', 00H, 'r', 00H, 'a', 00H
	DB	't', 00H, 'o', 00H, 'r', 00H, ' ', 00H, '[', 00H, ']', 00H, 00H
	DB	00H						; `string'
CONST	ENDS
;	COMDAT ??_C@_1DM@LHGCHCBA@?$AAv?$AAe?$AAc?$AAt?$AAo?$AAr?$AA?5?$AAs?$AAu?$AAb?$AAs?$AAc?$AAr?$AAi?$AAp?$AAt?$AA?5?$AAo?$AAu?$AAt?$AA?5?$AAo?$AAf?$AA?5?$AAr?$AAa?$AAn?$AAg?$AAe?$AA?$AA@
CONST	SEGMENT
??_C@_1DM@LHGCHCBA@?$AAv?$AAe?$AAc?$AAt?$AAo?$AAr?$AA?5?$AAs?$AAu?$AAb?$AAs?$AAc?$AAr?$AAi?$AAp?$AAt?$AA?5?$AAo?$AAu?$AAt?$AA?5?$AAo?$AAf?$AA?5?$AAr?$AAa?$AAn?$AAg?$AAe?$AA?$AA@ DB 'v'
	DB	00H, 'e', 00H, 'c', 00H, 't', 00H, 'o', 00H, 'r', 00H, ' ', 00H
	DB	's', 00H, 'u', 00H, 'b', 00H, 's', 00H, 'c', 00H, 'r', 00H, 'i'
	DB	00H, 'p', 00H, 't', 00H, ' ', 00H, 'o', 00H, 'u', 00H, 't', 00H
	DB	' ', 00H, 'o', 00H, 'f', 00H, ' ', 00H, 'r', 00H, 'a', 00H, 'n'
	DB	00H, 'g', 00H, 'e', 00H, 00H, 00H		; `string'
CONST	ENDS
;	COMDAT ??_C@_1EG@FOHJJHAC@?$AAv?$AAe?$AAc?$AAt?$AAo?$AAr?$AA?5?$AAi?$AAt?$AAe?$AAr?$AAa?$AAt?$AAo?$AAr?$AA?5?$AAn?$AAo?$AAt?$AA?5?$AAd?$AAe?$AAr?$AAe?$AAf?$AAe?$AAr?$AAe?$AAn?$AAc?$AAa?$AAb@
CONST	SEGMENT
??_C@_1EG@FOHJJHAC@?$AAv?$AAe?$AAc?$AAt?$AAo?$AAr?$AA?5?$AAi?$AAt?$AAe?$AAr?$AAa?$AAt?$AAo?$AAr?$AA?5?$AAn?$AAo?$AAt?$AA?5?$AAd?$AAe?$AAr?$AAe?$AAf?$AAe?$AAr?$AAe?$AAn?$AAc?$AAa?$AAb@ DB 'v'
	DB	00H, 'e', 00H, 'c', 00H, 't', 00H, 'o', 00H, 'r', 00H, ' ', 00H
	DB	'i', 00H, 't', 00H, 'e', 00H, 'r', 00H, 'a', 00H, 't', 00H, 'o'
	DB	00H, 'r', 00H, ' ', 00H, 'n', 00H, 'o', 00H, 't', 00H, ' ', 00H
	DB	'd', 00H, 'e', 00H, 'r', 00H, 'e', 00H, 'f', 00H, 'e', 00H, 'r'
	DB	00H, 'e', 00H, 'n', 00H, 'c', 00H, 'a', 00H, 'b', 00H, 'l', 00H
	DB	'e', 00H, 00H, 00H				; `string'
CONST	ENDS
;	COMDAT ??_C@_1BO@MEPPHOO@?$AA?$CC?$AAo?$AAu?$AAt?$AA?5?$AAo?$AAf?$AA?5?$AAr?$AAa?$AAn?$AAg?$AAe?$AA?$CC?$AA?$AA@
CONST	SEGMENT
??_C@_1BO@MEPPHOO@?$AA?$CC?$AAo?$AAu?$AAt?$AA?5?$AAo?$AAf?$AA?5?$AAr?$AAa?$AAn?$AAg?$AAe?$AA?$CC?$AA?$AA@ DB '"'
	DB	00H, 'o', 00H, 'u', 00H, 't', 00H, ' ', 00H, 'o', 00H, 'f', 00H
	DB	' ', 00H, 'r', 00H, 'a', 00H, 'n', 00H, 'g', 00H, 'e', 00H, '"'
	DB	00H, 00H, 00H				; `string'
CONST	ENDS
;	COMDAT ??_C@_1FG@IBPIFFN@?$AA?$CC?$AAS?$AAt?$AAa?$AAn?$AAd?$AAa?$AAr?$AAd?$AA?5?$AAC?$AA?$CL?$AA?$CL?$AA?5?$AAL?$AAi?$AAb?$AAr?$AAa?$AAr?$AAi?$AAe?$AAs?$AA?5?$AAO?$AAu?$AAt?$AA?5?$AAo?$AAf?$AA?5?$AAR@
CONST	SEGMENT
??_C@_1FG@IBPIFFN@?$AA?$CC?$AAS?$AAt?$AAa?$AAn?$AAd?$AAa?$AAr?$AAd?$AA?5?$AAC?$AA?$CL?$AA?$CL?$AA?5?$AAL?$AAi?$AAb?$AAr?$AAa?$AAr?$AAi?$AAe?$AAs?$AA?5?$AAO?$AAu?$AAt?$AA?5?$AAo?$AAf?$AA?5?$AAR@ DB '"'
	DB	00H, 'S', 00H, 't', 00H, 'a', 00H, 'n', 00H, 'd', 00H, 'a', 00H
	DB	'r', 00H, 'd', 00H, ' ', 00H, 'C', 00H, '+', 00H, '+', 00H, ' '
	DB	00H, 'L', 00H, 'i', 00H, 'b', 00H, 'r', 00H, 'a', 00H, 'r', 00H
	DB	'i', 00H, 'e', 00H, 's', 00H, ' ', 00H, 'O', 00H, 'u', 00H, 't'
	DB	00H, ' ', 00H, 'o', 00H, 'f', 00H, ' ', 00H, 'R', 00H, 'a', 00H
	DB	'n', 00H, 'g', 00H, 'e', 00H, '"', 00H, ' ', 00H, '&', 00H, '&'
	DB	00H, ' ', 00H, '0', 00H, 00H, 00H		; `string'
CONST	ENDS
;	COMDAT ??_C@_0CE@OFMIGAMM@Standard?5C?$CL?$CL?5Libraries?5Out?5of?5Ra@
CONST	SEGMENT
??_C@_0CE@OFMIGAMM@Standard?5C?$CL?$CL?5Libraries?5Out?5of?5Ra@ DB 'Stand'
	DB	'ard C++ Libraries Out of Range', 00H	; `string'
CONST	ENDS
;	COMDAT ??_C@_1EE@EJDKCLKB@?$AAv?$AAe?$AAc?$AAt?$AAo?$AAr?$AA?5?$AAi?$AAt?$AAe?$AAr?$AAa?$AAt?$AAo?$AAr?$AA?5?$AAn?$AAo?$AAt?$AA?5?$AAi?$AAn?$AAc?$AAr?$AAe?$AAm?$AAe?$AAn?$AAt?$AAa?$AAb?$AAl@
CONST	SEGMENT
??_C@_1EE@EJDKCLKB@?$AAv?$AAe?$AAc?$AAt?$AAo?$AAr?$AA?5?$AAi?$AAt?$AAe?$AAr?$AAa?$AAt?$AAo?$AAr?$AA?5?$AAn?$AAo?$AAt?$AA?5?$AAi?$AAn?$AAc?$AAr?$AAe?$AAm?$AAe?$AAn?$AAt?$AAa?$AAb?$AAl@ DB 'v'
	DB	00H, 'e', 00H, 'c', 00H, 't', 00H, 'o', 00H, 'r', 00H, ' ', 00H
	DB	'i', 00H, 't', 00H, 'e', 00H, 'r', 00H, 'a', 00H, 't', 00H, 'o'
	DB	00H, 'r', 00H, ' ', 00H, 'n', 00H, 'o', 00H, 't', 00H, ' ', 00H
	DB	'i', 00H, 'n', 00H, 'c', 00H, 'r', 00H, 'e', 00H, 'm', 00H, 'e'
	DB	00H, 'n', 00H, 't', 00H, 'a', 00H, 'b', 00H, 'l', 00H, 'e', 00H
	DB	00H, 00H					; `string'
CONST	ENDS
;	COMDAT ??_C@_1IM@LECEOODI@?$AAC?$AA?3?$AA?2?$AAP?$AAr?$AAo?$AAg?$AAr?$AAa?$AAm?$AA?5?$AAF?$AAi?$AAl?$AAe?$AAs?$AA?5?$AA?$CI?$AAx?$AA8?$AA6?$AA?$CJ?$AA?2?$AAM?$AAi?$AAc?$AAr?$AAo?$AAs?$AAo?$AAf?$AAt@
CONST	SEGMENT
??_C@_1IM@LECEOODI@?$AAC?$AA?3?$AA?2?$AAP?$AAr?$AAo?$AAg?$AAr?$AAa?$AAm?$AA?5?$AAF?$AAi?$AAl?$AAe?$AAs?$AA?5?$AA?$CI?$AAx?$AA8?$AA6?$AA?$CJ?$AA?2?$AAM?$AAi?$AAc?$AAr?$AAo?$AAs?$AAo?$AAf?$AAt@ DB 'C'
	DB	00H, ':', 00H, '\', 00H, 'P', 00H, 'r', 00H, 'o', 00H, 'g', 00H
	DB	'r', 00H, 'a', 00H, 'm', 00H, ' ', 00H, 'F', 00H, 'i', 00H, 'l'
	DB	00H, 'e', 00H, 's', 00H, ' ', 00H, '(', 00H, 'x', 00H, '8', 00H
	DB	'6', 00H, ')', 00H, '\', 00H, 'M', 00H, 'i', 00H, 'c', 00H, 'r'
	DB	00H, 'o', 00H, 's', 00H, 'o', 00H, 'f', 00H, 't', 00H, ' ', 00H
	DB	'V', 00H, 'i', 00H, 's', 00H, 'u', 00H, 'a', 00H, 'l', 00H, ' '
	DB	00H, 'S', 00H, 't', 00H, 'u', 00H, 'd', 00H, 'i', 00H, 'o', 00H
	DB	' ', 00H, '1', 00H, '4', 00H, '.', 00H, '0', 00H, '\', 00H, 'V'
	DB	00H, 'C', 00H, '\', 00H, 'i', 00H, 'n', 00H, 'c', 00H, 'l', 00H
	DB	'u', 00H, 'd', 00H, 'e', 00H, '\', 00H, 'v', 00H, 'e', 00H, 'c'
	DB	00H, 't', 00H, 'o', 00H, 'r', 00H, 00H, 00H	; `string'
$SG4294966771 DB 'undefined', 00H
?piecewise_construct@std@@3Upiecewise_construct_t@1@B	ORG $+1 ; std::piecewise_construct
?btInfinityMask@@3HA DD 07f800000H			; btInfinityMask
$SG4294966598 DB 'Assert e:\fusion3d_work\lib\bullet3\include\BulletColli'
	DB	'sion/BroadphaseCollision/btAxisSweep3.h:%u (!pair.m_algorithm'
	DB	')', 0aH, 00H
$SG4294966597 DB 'Assert e:\fusion3d_work\lib\bullet3\include\BulletColli'
	DB	'sion/BroadphaseCollision/btAxisSweep3.h:%u (!pair.m_algorithm'
	DB	')', 0aH, 00H
$SG4294966568 DB 'Assert e:\fusion3d_work\lib\bullet3\include\BulletColli'
	DB	'sion/BroadphaseCollision/btAxisSweep3.h:%u (m_firstFreeHandle'
	DB	')', 0aH, 00H
$SG4294966567 DB 'Assert e:\fusion3d_work\lib\bullet3\include\BulletColli'
	DB	'sion/BroadphaseCollision/btAxisSweep3.h:%u (handle > 0 && han'
	DB	'dle < m_maxHandles)', 0aH, 00H
?btNanMask@@3HA DD 07f800001H				; btNanMask
$SG4294966566 DB 'Assert e:\fusion3d_work\lib\bullet3\include\BulletColli'
	DB	'sion/BroadphaseCollision/btAxisSweep3.h:%u (m_firstFreeHandle'
	DB	')', 0aH, 00H
$SG4294966565 DB 'Assert e:\fusion3d_work\lib\bullet3\include\BulletColli'
	DB	'sion/BroadphaseCollision/btAxisSweep3.h:%u (handle > 0 && han'
	DB	'dle < m_maxHandles)', 0aH, 00H
CONST	ENDS
;	COMDAT ??_C@_07IKGGBMHK@inertia?$AA@
CONST	SEGMENT
??_C@_07IKGGBMHK@inertia?$AA@ DB 'inertia', 00H		; `string'
CONST	ENDS
;	COMDAT ??_C@_0M@NEEMJLF@calcInertia?$AA@
CONST	SEGMENT
??_C@_0M@NEEMJLF@calcInertia?$AA@ DB 'calcInertia', 00H	; `string'
CONST	ENDS
;	COMDAT ??_C@_04IJEANHEE@mass?$AA@
CONST	SEGMENT
??_C@_04IJEANHEE@mass?$AA@ DB 'mass', 00H		; `string'
CONST	ENDS
;	COMDAT ??_C@_0BO@GEOEHOMC@Unspecified?5collision?5shape?$CB?5?$AA@
CONST	SEGMENT
??_C@_0BO@GEOEHOMC@Unspecified?5collision?5shape?$CB?5?$AA@ DB 'Unspecifi'
	DB	'ed collision shape! ', 00H			; `string'
CONST	ENDS
;	COMDAT ??_C@_1O@HEOOEKLB@?$AA1?$AA?5?$AA?$DN?$AA?$DN?$AA?5?$AA0?$AA?$AA@
CONST	SEGMENT
??_C@_1O@HEOOEKLB@?$AA1?$AA?5?$AA?$DN?$AA?$DN?$AA?5?$AA0?$AA?$AA@ DB '1', 00H
	DB	' ', 00H, '=', 00H, '=', 00H, ' ', 00H, '0', 00H, 00H, 00H ; `string'
CONST	ENDS
;	COMDAT ??_C@_1JM@EPLIDHMN@?$AAe?$AA?3?$AA?2?$AAf?$AAu?$AAs?$AAi?$AAo?$AAn?$AA3?$AAd?$AA_?$AAw?$AAo?$AAr?$AAk?$AA?2?$AAe?$AAn?$AAg?$AAi?$AAn?$AAe?$AA?2?$AAs?$AAr?$AAc?$AA?2?$AAc?$AAo?$AAm?$AAp@
CONST	SEGMENT
??_C@_1JM@EPLIDHMN@?$AAe?$AA?3?$AA?2?$AAf?$AAu?$AAs?$AAi?$AAo?$AAn?$AA3?$AAd?$AA_?$AAw?$AAo?$AAr?$AAk?$AA?2?$AAe?$AAn?$AAg?$AAi?$AAn?$AAe?$AA?2?$AAs?$AAr?$AAc?$AA?2?$AAc?$AAo?$AAm?$AAp@ DB 'e'
	DB	00H, ':', 00H, '\', 00H, 'f', 00H, 'u', 00H, 's', 00H, 'i', 00H
	DB	'o', 00H, 'n', 00H, '3', 00H, 'd', 00H, '_', 00H, 'w', 00H, 'o'
	DB	00H, 'r', 00H, 'k', 00H, '\', 00H, 'e', 00H, 'n', 00H, 'g', 00H
	DB	'i', 00H, 'n', 00H, 'e', 00H, '\', 00H, 's', 00H, 'r', 00H, 'c'
	DB	00H, '\', 00H, 'c', 00H, 'o', 00H, 'm', 00H, 'p', 00H, 'o', 00H
	DB	'n', 00H, 'e', 00H, 'n', 00H, 't', 00H, 's', 00H, '\', 00H, '.'
	DB	00H, '.', 00H, '/', 00H, 'c', 00H, 'o', 00H, 'm', 00H, 'p', 00H
	DB	'o', 00H, 'n', 00H, 'e', 00H, 'n', 00H, 't', 00H, 's', 00H, '/'
	DB	00H, 'p', 00H, 'h', 00H, 'y', 00H, 's', 00H, 'i', 00H, 'c', 00H
	DB	's', 00H, 'O', 00H, 'b', 00H, 'j', 00H, 'e', 00H, 'c', 00H, 't'
	DB	00H, 'C', 00H, 'o', 00H, 'm', 00H, 'p', 00H, 'o', 00H, 'n', 00H
	DB	'e', 00H, 'n', 00H, 't', 00H, '.', 00H, 'h', 00H, 00H, 00H ; `string'
CONST	ENDS
;	COMDAT ??_C@_0BO@ILCGBKME@Unsupported?5collision?5shape?$CB?5?$AA@
CONST	SEGMENT
??_C@_0BO@ILCGBKME@Unsupported?5collision?5shape?$CB?5?$AA@ DB 'Unsupport'
	DB	'ed collision shape! ', 00H			; `string'
CONST	ENDS
;	COMDAT ??_C@_08GNLJBPEP@cylinder?$AA@
CONST	SEGMENT
??_C@_08GNLJBPEP@cylinder?$AA@ DB 'cylinder', 00H	; `string'
CONST	ENDS
;	COMDAT ??_C@_07FJIOKKEJ@capsule?$AA@
CONST	SEGMENT
??_C@_07FJIOKKEJ@capsule?$AA@ DB 'capsule', 00H		; `string'
CONST	ENDS
;	COMDAT ??_C@_06FOHEPPJH@sphere?$AA@
CONST	SEGMENT
??_C@_06FOHEPPJH@sphere?$AA@ DB 'sphere', 00H		; `string'
CONST	ENDS
;	COMDAT ??_C@_03OLPJGAII@box?$AA@
CONST	SEGMENT
??_C@_03OLPJGAII@box?$AA@ DB 'box', 00H			; `string'
CONST	ENDS
;	COMDAT ??_C@_06OAMDAHCP@convex?$AA@
CONST	SEGMENT
??_C@_06OAMDAHCP@convex?$AA@ DB 'convex', 00H		; `string'
CONST	ENDS
;	COMDAT ??_C@_03LCMMOKCG@bvh?$AA@
CONST	SEGMENT
??_C@_03LCMMOKCG@bvh?$AA@ DB 'bvh', 00H			; `string'
CONST	ENDS
;	COMDAT ??_C@_05KFCIHKGL@shape?$AA@
CONST	SEGMENT
??_C@_05KFCIHKGL@shape?$AA@ DB 'shape', 00H		; `string'
CONST	ENDS
;	COMDAT ??_C@_09PGGEFGOE@RigidBody?$AA@
CONST	SEGMENT
??_C@_09PGGEFGOE@RigidBody?$AA@ DB 'RigidBody', 00H	; `string'
CONST	ENDS
;	COMDAT ??_C@_0BA@LLDLEGBI@EntityComponent?$AA@
CONST	SEGMENT
??_C@_0BA@LLDLEGBI@EntityComponent?$AA@ DB 'EntityComponent', 00H ; `string'
CONST	ENDS
;	COMDAT ??_C@_1GI@DHJGPFNI@?$AA?$CC?$AA_?$AAP?$AAt?$AAr?$AA_?$AAu?$AAs?$AAe?$AAr?$AA?5?$AA?9?$AA?5?$AA_?$AAP?$AAt?$AAr?$AA_?$AAc?$AAo?$AAn?$AAt?$AAa?$AAi?$AAn?$AAe?$AAr?$AA?5?$AA?$DM?$AA?$DN?$AA?5?$AA_@
CONST	SEGMENT
??_C@_1GI@DHJGPFNI@?$AA?$CC?$AA_?$AAP?$AAt?$AAr?$AA_?$AAu?$AAs?$AAe?$AAr?$AA?5?$AA?9?$AA?5?$AA_?$AAP?$AAt?$AAr?$AA_?$AAc?$AAo?$AAn?$AAt?$AAa?$AAi?$AAn?$AAe?$AAr?$AA?5?$AA?$DM?$AA?$DN?$AA?5?$AA_@ DB '"'
	DB	00H, '_', 00H, 'P', 00H, 't', 00H, 'r', 00H, '_', 00H, 'u', 00H
	DB	's', 00H, 'e', 00H, 'r', 00H, ' ', 00H, '-', 00H, ' ', 00H, '_'
	DB	00H, 'P', 00H, 't', 00H, 'r', 00H, '_', 00H, 'c', 00H, 'o', 00H
	DB	'n', 00H, 't', 00H, 'a', 00H, 'i', 00H, 'n', 00H, 'e', 00H, 'r'
	DB	00H, ' ', 00H, '<', 00H, '=', 00H, ' ', 00H, '_', 00H, 'N', 00H
	DB	'O', 00H, 'N', 00H, '_', 00H, 'U', 00H, 'S', 00H, 'E', 00H, 'R'
	DB	00H, '_', 00H, 'S', 00H, 'I', 00H, 'Z', 00H, 'E', 00H, '"', 00H
	DB	' ', 00H, '&', 00H, '&', 00H, ' ', 00H, '0', 00H, 00H, 00H ; `string'
CONST	ENDS
;	COMDAT ??_C@_0CN@BLHJCAL@_Ptr_user?5?9?5_Ptr_container?5?$DM?$DN?5_N@
CONST	SEGMENT
??_C@_0CN@BLHJCAL@_Ptr_user?5?9?5_Ptr_container?5?$DM?$DN?5_N@ DB '_Ptr_u'
	DB	'ser - _Ptr_container <= _NON_USER_SIZE', 00H ; `string'
CONST	ENDS
;	COMDAT ??_C@_1HA@NAPGMHAO@?$AA?$CC?$AA2?$AA?5?$AA?$CK?$AA?5?$AAs?$AAi?$AAz?$AAe?$AAo?$AAf?$AA?$CI?$AAv?$AAo?$AAi?$AAd?$AA?5?$AA?$CK?$AA?$CJ?$AA?5?$AA?$DM?$AA?$DN?$AA?5?$AA_?$AAP?$AAt?$AAr?$AA_?$AAu?$AAs?$AAe?$AAr@
CONST	SEGMENT
??_C@_1HA@NAPGMHAO@?$AA?$CC?$AA2?$AA?5?$AA?$CK?$AA?5?$AAs?$AAi?$AAz?$AAe?$AAo?$AAf?$AA?$CI?$AAv?$AAo?$AAi?$AAd?$AA?5?$AA?$CK?$AA?$CJ?$AA?5?$AA?$DM?$AA?$DN?$AA?5?$AA_?$AAP?$AAt?$AAr?$AA_?$AAu?$AAs?$AAe?$AAr@ DB '"'
	DB	00H, '2', 00H, ' ', 00H, '*', 00H, ' ', 00H, 's', 00H, 'i', 00H
	DB	'z', 00H, 'e', 00H, 'o', 00H, 'f', 00H, '(', 00H, 'v', 00H, 'o'
	DB	00H, 'i', 00H, 'd', 00H, ' ', 00H, '*', 00H, ')', 00H, ' ', 00H
	DB	'<', 00H, '=', 00H, ' ', 00H, '_', 00H, 'P', 00H, 't', 00H, 'r'
	DB	00H, '_', 00H, 'u', 00H, 's', 00H, 'e', 00H, 'r', 00H, ' ', 00H
	DB	'-', 00H, ' ', 00H, '_', 00H, 'P', 00H, 't', 00H, 'r', 00H, '_'
	DB	00H, 'c', 00H, 'o', 00H, 'n', 00H, 't', 00H, 'a', 00H, 'i', 00H
	DB	'n', 00H, 'e', 00H, 'r', 00H, '"', 00H, ' ', 00H, '&', 00H, '&'
	DB	00H, ' ', 00H, '0', 00H, 00H, 00H		; `string'
CONST	ENDS
;	COMDAT ??_C@_0DB@GLFJLNCE@2?5?$CK?5sizeof?$CIvoid?5?$CK?$CJ?5?$DM?$DN?5_Ptr_user?5@
CONST	SEGMENT
??_C@_0DB@GLFJLNCE@2?5?$CK?5sizeof?$CIvoid?5?$CK?$CJ?5?$DM?$DN?5_Ptr_user?5@ DB '2'
	DB	' * sizeof(void *) <= _Ptr_user - _Ptr_container', 00H ; `string'
CONST	ENDS
;	COMDAT ??_C@_1EE@PDHAHDDC@?$AA?$CC?$AA_?$AAP?$AAt?$AAr?$AA_?$AAc?$AAo?$AAn?$AAt?$AAa?$AAi?$AAn?$AAe?$AAr?$AA?5?$AA?$DM?$AA?5?$AA_?$AAP?$AAt?$AAr?$AA_?$AAu?$AAs?$AAe?$AAr?$AA?$CC?$AA?5?$AA?$CG?$AA?$CG?$AA?5@
CONST	SEGMENT
??_C@_1EE@PDHAHDDC@?$AA?$CC?$AA_?$AAP?$AAt?$AAr?$AA_?$AAc?$AAo?$AAn?$AAt?$AAa?$AAi?$AAn?$AAe?$AAr?$AA?5?$AA?$DM?$AA?5?$AA_?$AAP?$AAt?$AAr?$AA_?$AAu?$AAs?$AAe?$AAr?$AA?$CC?$AA?5?$AA?$CG?$AA?$CG?$AA?5@ DB '"'
	DB	00H, '_', 00H, 'P', 00H, 't', 00H, 'r', 00H, '_', 00H, 'c', 00H
	DB	'o', 00H, 'n', 00H, 't', 00H, 'a', 00H, 'i', 00H, 'n', 00H, 'e'
	DB	00H, 'r', 00H, ' ', 00H, '<', 00H, ' ', 00H, '_', 00H, 'P', 00H
	DB	't', 00H, 'r', 00H, '_', 00H, 'u', 00H, 's', 00H, 'e', 00H, 'r'
	DB	00H, '"', 00H, ' ', 00H, '&', 00H, '&', 00H, ' ', 00H, '0', 00H
	DB	00H, 00H					; `string'
CONST	ENDS
;	COMDAT ??_C@_0BL@OCKMEJON@_Ptr_container?5?$DM?5_Ptr_user?$AA@
CONST	SEGMENT
??_C@_0BL@OCKMEJON@_Ptr_container?5?$DM?5_Ptr_user?$AA@ DB '_Ptr_containe'
	DB	'r < _Ptr_user', 00H				; `string'
CONST	ENDS
;	COMDAT ??_C@_1JO@EKLKIEHP@?$AA?$CC?$AAr?$AAe?$AAi?$AAn?$AAt?$AAe?$AAr?$AAp?$AAr?$AAe?$AAt?$AA_?$AAc?$AAa?$AAs?$AAt?$AA?$DM?$AAu?$AAi?$AAn?$AAt?$AAp?$AAt?$AAr?$AA_?$AAt?$AA?5?$AA?$CK?$AA?$DO?$AA?$CI?$AA_@
CONST	SEGMENT
??_C@_1JO@EKLKIEHP@?$AA?$CC?$AAr?$AAe?$AAi?$AAn?$AAt?$AAe?$AAr?$AAp?$AAr?$AAe?$AAt?$AA_?$AAc?$AAa?$AAs?$AAt?$AA?$DM?$AAu?$AAi?$AAn?$AAt?$AAp?$AAt?$AAr?$AA_?$AAt?$AA?5?$AA?$CK?$AA?$DO?$AA?$CI?$AA_@ DB '"'
	DB	00H, 'r', 00H, 'e', 00H, 'i', 00H, 'n', 00H, 't', 00H, 'e', 00H
	DB	'r', 00H, 'p', 00H, 'r', 00H, 'e', 00H, 't', 00H, '_', 00H, 'c'
	DB	00H, 'a', 00H, 's', 00H, 't', 00H, '<', 00H, 'u', 00H, 'i', 00H
	DB	'n', 00H, 't', 00H, 'p', 00H, 't', 00H, 'r', 00H, '_', 00H, 't'
	DB	00H, ' ', 00H, '*', 00H, '>', 00H, '(', 00H, '_', 00H, 'P', 00H
	DB	't', 00H, 'r', 00H, '_', 00H, 'p', 00H, 't', 00H, 'r', 00H, ')'
	DB	00H, '[', 00H, '-', 00H, '1', 00H, ']', 00H, ' ', 00H, '=', 00H
	DB	'=', 00H, ' ', 00H, '_', 00H, 'B', 00H, 'I', 00H, 'G', 00H, '_'
	DB	00H, 'A', 00H, 'L', 00H, 'L', 00H, 'O', 00H, 'C', 00H, 'A', 00H
	DB	'T', 00H, 'I', 00H, 'O', 00H, 'N', 00H, '_', 00H, 'S', 00H, 'E'
	DB	00H, 'N', 00H, 'T', 00H, 'I', 00H, 'N', 00H, 'E', 00H, 'L', 00H
	DB	'"', 00H, ' ', 00H, '&', 00H, '&', 00H, ' ', 00H, '0', 00H, 00H
	DB	00H						; `string'
CONST	ENDS
;	COMDAT ??_C@_0EI@NOJHEJCJ@reinterpret_cast?$DMuintptr_t?5?$CK?$DO?$CI_P@
CONST	SEGMENT
??_C@_0EI@NOJHEJCJ@reinterpret_cast?$DMuintptr_t?5?$CK?$DO?$CI_P@ DB 'rei'
	DB	'nterpret_cast<uintptr_t *>(_Ptr_ptr)[-1] == _BIG_ALLOCATION_S'
	DB	'ENTINEL', 00H				; `string'
CONST	ENDS
;	COMDAT ??_C@_1HE@CDMBFOKC@?$AA?$CC?$AA?$CI?$AA_?$AAP?$AAt?$AAr?$AA_?$AAu?$AAs?$AAe?$AAr?$AA?5?$AA?$CG?$AA?5?$AA?$CI?$AA_?$AAB?$AAI?$AAG?$AA_?$AAA?$AAL?$AAL?$AAO?$AAC?$AAA?$AAT?$AAI?$AAO?$AAN?$AA_?$AAA@
CONST	SEGMENT
??_C@_1HE@CDMBFOKC@?$AA?$CC?$AA?$CI?$AA_?$AAP?$AAt?$AAr?$AA_?$AAu?$AAs?$AAe?$AAr?$AA?5?$AA?$CG?$AA?5?$AA?$CI?$AA_?$AAB?$AAI?$AAG?$AA_?$AAA?$AAL?$AAL?$AAO?$AAC?$AAA?$AAT?$AAI?$AAO?$AAN?$AA_?$AAA@ DB '"'
	DB	00H, '(', 00H, '_', 00H, 'P', 00H, 't', 00H, 'r', 00H, '_', 00H
	DB	'u', 00H, 's', 00H, 'e', 00H, 'r', 00H, ' ', 00H, '&', 00H, ' '
	DB	00H, '(', 00H, '_', 00H, 'B', 00H, 'I', 00H, 'G', 00H, '_', 00H
	DB	'A', 00H, 'L', 00H, 'L', 00H, 'O', 00H, 'C', 00H, 'A', 00H, 'T'
	DB	00H, 'I', 00H, 'O', 00H, 'N', 00H, '_', 00H, 'A', 00H, 'L', 00H
	DB	'I', 00H, 'G', 00H, 'N', 00H, 'M', 00H, 'E', 00H, 'N', 00H, 'T'
	DB	00H, ' ', 00H, '-', 00H, ' ', 00H, '1', 00H, ')', 00H, ')', 00H
	DB	' ', 00H, '=', 00H, '=', 00H, ' ', 00H, '0', 00H, '"', 00H, ' '
	DB	00H, '&', 00H, '&', 00H, ' ', 00H, '0', 00H, 00H, 00H ; `string'
CONST	ENDS
;	COMDAT ??_C@_0DD@GBGGGKGG@?$CI_Ptr_user?5?$CG?5?$CI_BIG_ALLOCATION_AL@
CONST	SEGMENT
??_C@_0DD@GBGGGKGG@?$CI_Ptr_user?5?$CG?5?$CI_BIG_ALLOCATION_AL@ DB '(_Ptr'
	DB	'_user & (_BIG_ALLOCATION_ALIGNMENT - 1)) == 0', 00H ; `string'
CONST	ENDS
;	COMDAT ??_C@_1CC@LOFJFFDB@?$AAs?$AAt?$AAd?$AA?3?$AA?3?$AA_?$AAD?$AAe?$AAa?$AAl?$AAl?$AAo?$AAc?$AAa?$AAt?$AAe?$AA?$AA@
CONST	SEGMENT
??_C@_1CC@LOFJFFDB@?$AAs?$AAt?$AAd?$AA?3?$AA?3?$AA_?$AAD?$AAe?$AAa?$AAl?$AAl?$AAo?$AAc?$AAa?$AAt?$AAe?$AA?$AA@ DB 's'
	DB	00H, 't', 00H, 'd', 00H, ':', 00H, ':', 00H, '_', 00H, 'D', 00H
	DB	'e', 00H, 'a', 00H, 'l', 00H, 'l', 00H, 'o', 00H, 'c', 00H, 'a'
	DB	00H, 't', 00H, 'e', 00H, 00H, 00H		; `string'
CONST	ENDS
;	COMDAT ??_C@_1EI@MLOBABC@?$AA?$CC?$AA_?$AAC?$AAo?$AAu?$AAn?$AAt?$AA?5?$AA?$DM?$AA?$DN?$AA?5?$AA?$CI?$AAs?$AAi?$AAz?$AAe?$AA_?$AAt?$AA?$CJ?$AA?$CI?$AA?9?$AA1?$AA?$CJ?$AA?5?$AA?1?$AA?5?$AA_?$AAS?$AAz?$AA?$CC?$AA?5?$AA?$CG@
CONST	SEGMENT
??_C@_1EI@MLOBABC@?$AA?$CC?$AA_?$AAC?$AAo?$AAu?$AAn?$AAt?$AA?5?$AA?$DM?$AA?$DN?$AA?5?$AA?$CI?$AAs?$AAi?$AAz?$AAe?$AA_?$AAt?$AA?$CJ?$AA?$CI?$AA?9?$AA1?$AA?$CJ?$AA?5?$AA?1?$AA?5?$AA_?$AAS?$AAz?$AA?$CC?$AA?5?$AA?$CG@ DB '"'
	DB	00H, '_', 00H, 'C', 00H, 'o', 00H, 'u', 00H, 'n', 00H, 't', 00H
	DB	' ', 00H, '<', 00H, '=', 00H, ' ', 00H, '(', 00H, 's', 00H, 'i'
	DB	00H, 'z', 00H, 'e', 00H, '_', 00H, 't', 00H, ')', 00H, '(', 00H
	DB	'-', 00H, '1', 00H, ')', 00H, ' ', 00H, '/', 00H, ' ', 00H, '_'
	DB	00H, 'S', 00H, 'z', 00H, '"', 00H, ' ', 00H, '&', 00H, '&', 00H
	DB	' ', 00H, '0', 00H, 00H, 00H			; `string'
CONST	ENDS
;	COMDAT ??_C@_0BN@HMCJOMKN@_Count?5?$DM?$DN?5?$CIsize_t?$CJ?$CI?91?$CJ?5?1?5_Sz?$AA@
CONST	SEGMENT
??_C@_0BN@HMCJOMKN@_Count?5?$DM?$DN?5?$CIsize_t?$CJ?$CI?91?$CJ?5?1?5_Sz?$AA@ DB '_'
	DB	'Count <= (size_t)(-1) / _Sz', 00H		; `string'
CONST	ENDS
;	COMDAT ??_C@_1CC@GKJLLHIM@?$AA?$CC?$AA_?$AAP?$AAt?$AAr?$AA?5?$AA?$CB?$AA?$DN?$AA?5?$AA0?$AA?$CC?$AA?5?$AA?$CG?$AA?$CG?$AA?5?$AA0?$AA?$AA@
CONST	SEGMENT
??_C@_1CC@GKJLLHIM@?$AA?$CC?$AA_?$AAP?$AAt?$AAr?$AA?5?$AA?$CB?$AA?$DN?$AA?5?$AA0?$AA?$CC?$AA?5?$AA?$CG?$AA?$CG?$AA?5?$AA0?$AA?$AA@ DB '"'
	DB	00H, '_', 00H, 'P', 00H, 't', 00H, 'r', 00H, ' ', 00H, '!', 00H
	DB	'=', 00H, ' ', 00H, '0', 00H, '"', 00H, ' ', 00H, '&', 00H, '&'
	DB	00H, ' ', 00H, '0', 00H, 00H, 00H		; `string'
CONST	ENDS
;	COMDAT ??_C@_09GLJCAGLP@_Ptr?5?$CB?$DN?50?$AA@
CONST	SEGMENT
??_C@_09GLJCAGLP@_Ptr?5?$CB?$DN?50?$AA@ DB '_Ptr != 0', 00H ; `string'
CONST	ENDS
;	COMDAT ??_C@_1CG@JNLFBNGN@?$AA?$CC?$AAi?$AAn?$AAv?$AAa?$AAl?$AAi?$AAd?$AA?5?$AAa?$AAr?$AAg?$AAu?$AAm?$AAe?$AAn?$AAt?$AA?$CC?$AA?$AA@
CONST	SEGMENT
??_C@_1CG@JNLFBNGN@?$AA?$CC?$AAi?$AAn?$AAv?$AAa?$AAl?$AAi?$AAd?$AA?5?$AAa?$AAr?$AAg?$AAu?$AAm?$AAe?$AAn?$AAt?$AA?$CC?$AA?$AA@ DB '"'
	DB	00H, 'i', 00H, 'n', 00H, 'v', 00H, 'a', 00H, 'l', 00H, 'i', 00H
	DB	'd', 00H, ' ', 00H, 'a', 00H, 'r', 00H, 'g', 00H, 'u', 00H, 'm'
	DB	00H, 'e', 00H, 'n', 00H, 't', 00H, '"', 00H, 00H, 00H ; `string'
CONST	ENDS
;	COMDAT ??_C@_1BO@NKFMJPA@?$AAs?$AAt?$AAd?$AA?3?$AA?3?$AA_?$AAA?$AAl?$AAl?$AAo?$AAc?$AAa?$AAt?$AAe?$AA?$AA@
CONST	SEGMENT
??_C@_1BO@NKFMJPA@?$AAs?$AAt?$AAd?$AA?3?$AA?3?$AA_?$AAA?$AAl?$AAl?$AAo?$AAc?$AAa?$AAt?$AAe?$AA?$AA@ DB 's'
	DB	00H, 't', 00H, 'd', 00H, ':', 00H, ':', 00H, '_', 00H, 'A', 00H
	DB	'l', 00H, 'l', 00H, 'o', 00H, 'c', 00H, 'a', 00H, 't', 00H, 'e'
	DB	00H, 00H, 00H				; `string'
CONST	ENDS
;	COMDAT ??_C@_1JA@HEEMAOGC@?$AAC?$AA?3?$AA?2?$AAP?$AAr?$AAo?$AAg?$AAr?$AAa?$AAm?$AA?5?$AAF?$AAi?$AAl?$AAe?$AAs?$AA?5?$AA?$CI?$AAx?$AA8?$AA6?$AA?$CJ?$AA?2?$AAM?$AAi?$AAc?$AAr?$AAo?$AAs?$AAo?$AAf?$AAt@
CONST	SEGMENT
??_C@_1JA@HEEMAOGC@?$AAC?$AA?3?$AA?2?$AAP?$AAr?$AAo?$AAg?$AAr?$AAa?$AAm?$AA?5?$AAF?$AAi?$AAl?$AAe?$AAs?$AA?5?$AA?$CI?$AAx?$AA8?$AA6?$AA?$CJ?$AA?2?$AAM?$AAi?$AAc?$AAr?$AAo?$AAs?$AAo?$AAf?$AAt@ DB 'C'
	DB	00H, ':', 00H, '\', 00H, 'P', 00H, 'r', 00H, 'o', 00H, 'g', 00H
	DB	'r', 00H, 'a', 00H, 'm', 00H, ' ', 00H, 'F', 00H, 'i', 00H, 'l'
	DB	00H, 'e', 00H, 's', 00H, ' ', 00H, '(', 00H, 'x', 00H, '8', 00H
	DB	'6', 00H, ')', 00H, '\', 00H, 'M', 00H, 'i', 00H, 'c', 00H, 'r'
	DB	00H, 'o', 00H, 's', 00H, 'o', 00H, 'f', 00H, 't', 00H, ' ', 00H
	DB	'V', 00H, 'i', 00H, 's', 00H, 'u', 00H, 'a', 00H, 'l', 00H, ' '
	DB	00H, 'S', 00H, 't', 00H, 'u', 00H, 'd', 00H, 'i', 00H, 'o', 00H
	DB	' ', 00H, '1', 00H, '4', 00H, '.', 00H, '0', 00H, '\', 00H, 'V'
	DB	00H, 'C', 00H, '\', 00H, 'i', 00H, 'n', 00H, 'c', 00H, 'l', 00H
	DB	'u', 00H, 'd', 00H, 'e', 00H, '\', 00H, 'x', 00H, 'm', 00H, 'e'
	DB	00H, 'm', 00H, 'o', 00H, 'r', 00H, 'y', 00H, '0', 00H, 00H, 00H ; `string'
CONST	ENDS
;	COMDAT ??_C@_17CNPHIMPH@?$AA?$CF?$AAl?$AAs?$AA?$AA@
CONST	SEGMENT
??_C@_17CNPHIMPH@?$AA?$CF?$AAl?$AAs?$AA?$AA@ DB '%', 00H, 'l', 00H, 's', 00H
	DB	00H, 00H					; `string'
CONST	ENDS
;	COMDAT ??_C@_1DG@HGDKEBPG@?$AA?$CC?$AA_?$AAP?$AAt?$AAr?$AA_?$AAc?$AAo?$AAn?$AAt?$AAa?$AAi?$AAn?$AAe?$AAr?$AA?5?$AA?$CB?$AA?$DN?$AA?5?$AA0?$AA?$CC?$AA?5?$AA?$CG?$AA?$CG?$AA?5?$AA0?$AA?$AA@
CONST	SEGMENT
??_C@_1DG@HGDKEBPG@?$AA?$CC?$AA_?$AAP?$AAt?$AAr?$AA_?$AAc?$AAo?$AAn?$AAt?$AAa?$AAi?$AAn?$AAe?$AAr?$AA?5?$AA?$CB?$AA?$DN?$AA?5?$AA0?$AA?$CC?$AA?5?$AA?$CG?$AA?$CG?$AA?5?$AA0?$AA?$AA@ DB '"'
	DB	00H, '_', 00H, 'P', 00H, 't', 00H, 'r', 00H, '_', 00H, 'c', 00H
	DB	'o', 00H, 'n', 00H, 't', 00H, 'a', 00H, 'i', 00H, 'n', 00H, 'e'
	DB	00H, 'r', 00H, ' ', 00H, '!', 00H, '=', 00H, ' ', 00H, '0', 00H
	DB	'"', 00H, ' ', 00H, '&', 00H, '&', 00H, ' ', 00H, '0', 00H, 00H
	DB	00H						; `string'
CONST	ENDS
;	COMDAT ??_C@_0BE@LMNLACIC@_Ptr_container?5?$CB?$DN?50?$AA@
CONST	SEGMENT
??_C@_0BE@LMNLACIC@_Ptr_container?5?$CB?$DN?50?$AA@ DB '_Ptr_container !='
	DB	' 0', 00H					; `string'
CONST	ENDS
;	COMDAT ??_C@_1DC@POOIKBAO@?$AAI?$AAT?$AAE?$AAR?$AAA?$AAT?$AAO?$AAR?$AA?5?$AAL?$AAI?$AAS?$AAT?$AA?5?$AAC?$AAO?$AAR?$AAR?$AAU?$AAP?$AAT?$AAE?$AAD?$AA?$CB?$AA?$AA@
CONST	SEGMENT
??_C@_1DC@POOIKBAO@?$AAI?$AAT?$AAE?$AAR?$AAA?$AAT?$AAO?$AAR?$AA?5?$AAL?$AAI?$AAS?$AAT?$AA?5?$AAC?$AAO?$AAR?$AAR?$AAU?$AAP?$AAT?$AAE?$AAD?$AA?$CB?$AA?$AA@ DB 'I'
	DB	00H, 'T', 00H, 'E', 00H, 'R', 00H, 'A', 00H, 'T', 00H, 'O', 00H
	DB	'R', 00H, ' ', 00H, 'L', 00H, 'I', 00H, 'S', 00H, 'T', 00H, ' '
	DB	00H, 'C', 00H, 'O', 00H, 'R', 00H, 'R', 00H, 'U', 00H, 'P', 00H
	DB	'T', 00H, 'E', 00H, 'D', 00H, '!', 00H, 00H, 00H ; `string'
CONST	ENDS
;	COMDAT ??_C@_1JA@IJKHNLMB@?$AAC?$AA?3?$AA?2?$AAP?$AAr?$AAo?$AAg?$AAr?$AAa?$AAm?$AA?5?$AAF?$AAi?$AAl?$AAe?$AAs?$AA?5?$AA?$CI?$AAx?$AA8?$AA6?$AA?$CJ?$AA?2?$AAM?$AAi?$AAc?$AAr?$AAo?$AAs?$AAo?$AAf?$AAt@
CONST	SEGMENT
??_C@_1JA@IJKHNLMB@?$AAC?$AA?3?$AA?2?$AAP?$AAr?$AAo?$AAg?$AAr?$AAa?$AAm?$AA?5?$AAF?$AAi?$AAl?$AAe?$AAs?$AA?5?$AA?$CI?$AAx?$AA8?$AA6?$AA?$CJ?$AA?2?$AAM?$AAi?$AAc?$AAr?$AAo?$AAs?$AAo?$AAf?$AAt@ DB 'C'
	DB	00H, ':', 00H, '\', 00H, 'P', 00H, 'r', 00H, 'o', 00H, 'g', 00H
	DB	'r', 00H, 'a', 00H, 'm', 00H, ' ', 00H, 'F', 00H, 'i', 00H, 'l'
	DB	00H, 'e', 00H, 's', 00H, ' ', 00H, '(', 00H, 'x', 00H, '8', 00H
	DB	'6', 00H, ')', 00H, '\', 00H, 'M', 00H, 'i', 00H, 'c', 00H, 'r'
	DB	00H, 'o', 00H, 's', 00H, 'o', 00H, 'f', 00H, 't', 00H, ' ', 00H
	DB	'V', 00H, 'i', 00H, 's', 00H, 'u', 00H, 'a', 00H, 'l', 00H, ' '
	DB	00H, 'S', 00H, 't', 00H, 'u', 00H, 'd', 00H, 'i', 00H, 'o', 00H
	DB	' ', 00H, '1', 00H, '4', 00H, '.', 00H, '0', 00H, '\', 00H, 'V'
	DB	00H, 'C', 00H, '\', 00H, 'i', 00H, 'n', 00H, 'c', 00H, 'l', 00H
	DB	'u', 00H, 'd', 00H, 'e', 00H, '\', 00H, 'x', 00H, 'u', 00H, 't'
	DB	00H, 'i', 00H, 'l', 00H, 'i', 00H, 't', 00H, 'y', 00H, 00H, 00H ; `string'
CONST	ENDS
;	COMDAT ??_C@_06FKFPCBEF@SPHERE?$AA@
CONST	SEGMENT
??_C@_06FKFPCBEF@SPHERE?$AA@ DB 'SPHERE', 00H		; `string'
CONST	ENDS
;	COMDAT ??_C@_0BK@ILJDJEOD@btConvexInternalShapeData?$AA@
CONST	SEGMENT
??_C@_0BK@ILJDJEOD@btConvexInternalShapeData?$AA@ DB 'btConvexInternalSha'
	DB	'peData', 00H				; `string'
CONST	ENDS
;	COMDAT ??_C@_0GM@LMOAMGID@Assert?5e?3?2fusion3d_work?2lib?2bull@
CONST	SEGMENT
??_C@_0GM@LMOAMGID@Assert?5e?3?2fusion3d_work?2lib?2bull@ DB 'Assert e:\f'
	DB	'usion3d_work\lib\bullet3\include\bulletcollision\collisionsha'
	DB	'pes\btConvexInternalShape.h:%u (0)', 0aH, 00H ; `string'
CONST	ENDS
PUBLIC	??$_Move@AAPAVEntity@@@std@@YA$$QAPAVEntity@@AAPAV1@@Z ; std::_Move<Entity * &>
PUBLIC	??$swap@PAVEntity@@@std@@YAXAAPAVEntity@@0@Z	; std::swap<Entity *>
PUBLIC	??$_Debug_pointer@PAVEntityComponent@@@std@@YAXPAPAVEntityComponent@@PB_WI@Z ; std::_Debug_pointer<EntityComponent *>
PUBLIC	??$iter_swap@PAPAVEntity@@PAPAV1@@std@@YAXPAPAVEntity@@0@Z ; std::iter_swap<Entity * *,Entity * *>
PUBLIC	??$_Debug_range_ptr2@PAPAVEntityComponent@@PAPAV1@@std@@YAXPAPAVEntityComponent@@0AAPAPAV1@PB_WIUrandom_access_iterator_tag@0@@Z ; std::_Debug_range_ptr2<EntityComponent * *,EntityComponent * *>
PUBLIC	??$_Iter_cat@PAPAVEntityComponent@@@std@@YA?AUrandom_access_iterator_tag@0@ABQAPAVEntityComponent@@@Z ; std::_Iter_cat<EntityComponent * *>
PUBLIC	??$_Debug_range_ptr2@PAPAVEntity@@PAPAV1@@std@@YAXPAPAVEntity@@0AAPAPAV1@PB_WIUrandom_access_iterator_tag@0@@Z ; std::_Debug_range_ptr2<Entity * *,Entity * *>
PUBLIC	??$_Reverse@PAPAVEntity@@@std@@YAXPAPAVEntity@@0Ubidirectional_iterator_tag@0@@Z ; std::_Reverse<Entity * *>
PUBLIC	??$_Debug_pointer@PAVEntity@@@std@@YAXPAPAVEntity@@PB_WI@Z ; std::_Debug_pointer<Entity *>
PUBLIC	??$_Uninit_copy@PAVEntity@@PAV1@@std@@YAPAPAVEntity@@PAPAV1@00AAU?$_Wrap_alloc@V?$allocator@PAVEntity@@@std@@@0@U_Scalar_ptr_iterator_tag@0@@Z ; std::_Uninit_copy<Entity *,Entity *>
PUBLIC	?_Unchecked@?$_Vector_iterator@V?$_Vector_val@U?$_Simple_types@PAVEntity@@@std@@@std@@@std@@QBEPAPAVEntity@@XZ ; std::_Vector_iterator<std::_Vector_val<std::_Simple_types<Entity *> > >::_Unchecked
PUBLIC	??$destroy@V?$basic_string@DU?$char_traits@D@std@@V?$allocator@D@2@@std@@@?$allocator@V?$basic_string@DU?$char_traits@D@std@@V?$allocator@D@2@@std@@@std@@QAEXPAV?$basic_string@DU?$char_traits@D@std@@V?$allocator@D@2@@1@@Z ; std::allocator<std::basic_string<char,std::char_traits<char>,std::allocator<char> > >::destroy<std::basic_string<char,std::char_traits<char>,std::allocator<char> > >
PUBLIC	??$_Debug_range_ptr@PAPAVEntityComponent@@PAPAV1@@std@@YAXPAPAVEntityComponent@@0AAPAPAV1@PB_WI@Z ; std::_Debug_range_ptr<EntityComponent * *,EntityComponent * *>
PUBLIC	??$_Debug_range_ptr@PAPAVEntity@@PAPAV1@@std@@YAXPAPAVEntity@@0AAPAPAV1@PB_WI@Z ; std::_Debug_range_ptr<Entity * *,Entity * *>
PUBLIC	??$destroy@U?$pair@PAVRigidBody@@H@std@@@?$allocator@U?$pair@PAVRigidBody@@H@std@@@std@@QAEXPAU?$pair@PAVRigidBody@@H@1@@Z ; std::allocator<std::pair<RigidBody *,int> >::destroy<std::pair<RigidBody *,int> >
PUBLIC	??$reverse@PAPAVEntity@@@std@@YAXPAPAVEntity@@0@Z ; std::reverse<Entity * *>
PUBLIC	??$_Debug_range2@PAPAVEntity@@@std@@YAXPAPAVEntity@@0PB_WIUrandom_access_iterator_tag@0@@Z ; std::_Debug_range2<Entity * *>
PUBLIC	??$_Uninit_copy@PAPAVEntity@@PAPAV1@U?$_Wrap_alloc@V?$allocator@PAVEntity@@@std@@@std@@@std@@YAPAPAVEntity@@PAPAV1@00AAU?$_Wrap_alloc@V?$allocator@PAVEntity@@@std@@@0@@Z ; std::_Uninit_copy<Entity * *,Entity * *,std::_Wrap_alloc<std::allocator<Entity *> > >
PUBLIC	??$_Unchecked@V?$_Vector_val@U?$_Simple_types@PAVEntity@@@std@@@std@@@std@@YAPAPAVEntity@@V?$_Vector_iterator@V?$_Vector_val@U?$_Simple_types@PAVEntity@@@std@@@std@@@0@@Z ; std::_Unchecked<std::_Vector_val<std::_Simple_types<Entity *> > >
PUBLIC	??$_Debug_pointer@V?$_Vector_iterator@V?$_Vector_val@U?$_Simple_types@PAVEntity@@@std@@@std@@@std@@@std@@YAXAAV?$_Vector_iterator@V?$_Vector_val@U?$_Simple_types@PAVEntity@@@std@@@std@@@0@PB_WI@Z ; std::_Debug_pointer<std::_Vector_iterator<std::_Vector_val<std::_Simple_types<Entity *> > > >
PUBLIC	??G?$_Vector_const_iterator@V?$_Vector_val@U?$_Simple_types@PAVEntity@@@std@@@std@@@std@@QBEHABV01@@Z ; std::_Vector_const_iterator<std::_Vector_val<std::_Simple_types<Entity *> > >::operator-
PUBLIC	??8?$_Vector_const_iterator@V?$_Vector_val@U?$_Simple_types@PAVEntity@@@std@@@std@@@std@@QBE_NABV01@@Z ; std::_Vector_const_iterator<std::_Vector_val<std::_Simple_types<Entity *> > >::operator==
PUBLIC	?_Compat@?$_Vector_const_iterator@V?$_Vector_val@U?$_Simple_types@PAVEntity@@@std@@@std@@@std@@QBEXABV12@@Z ; std::_Vector_const_iterator<std::_Vector_val<std::_Simple_types<Entity *> > >::_Compat
PUBLIC	??G?$_Vector_iterator@V?$_Vector_val@U?$_Simple_types@PAVEntity@@@std@@@std@@@std@@QBEHABV?$_Vector_const_iterator@V?$_Vector_val@U?$_Simple_types@PAVEntity@@@std@@@std@@@1@@Z ; std::_Vector_iterator<std::_Vector_val<std::_Simple_types<Entity *> > >::operator-
PUBLIC	??9?$_Vector_const_iterator@V?$_Vector_val@U?$_Simple_types@PAVEntity@@@std@@@std@@@std@@QBE_NABV01@@Z ; std::_Vector_const_iterator<std::_Vector_val<std::_Simple_types<Entity *> > >::operator!=
PUBLIC	??M?$_Vector_const_iterator@V?$_Vector_val@U?$_Simple_types@PAVEntity@@@std@@@std@@@std@@QBE_NABV01@@Z ; std::_Vector_const_iterator<std::_Vector_val<std::_Simple_types<Entity *> > >::operator<
PUBLIC	??$destroy@V?$basic_string@DU?$char_traits@D@std@@V?$allocator@D@2@@std@@@?$allocator_traits@V?$allocator@V?$basic_string@DU?$char_traits@D@std@@V?$allocator@D@2@@std@@@std@@@std@@SAXAAV?$allocator@V?$basic_string@DU?$char_traits@D@std@@V?$allocator@D@2@@std@@@1@PAV?$basic_string@DU?$char_traits@D@std@@V?$allocator@D@2@@1@@Z ; std::allocator_traits<std::allocator<std::basic_string<char,std::char_traits<char>,std::allocator<char> > > >::destroy<std::basic_string<char,std::char_traits<char>,std::allocator<char> > >
PUBLIC	??$_Uninit_move@PAVEntityComponent@@PAV1@PAV1@@std@@YAPAPAVEntityComponent@@PAPAV1@00AAU?$_Wrap_alloc@V?$allocator@PAVEntityComponent@@@std@@@0@0U_Scalar_ptr_iterator_tag@0@@Z ; std::_Uninit_move<EntityComponent *,EntityComponent *,EntityComponent *>
PUBLIC	??$_Val_type@PAPAVEntityComponent@@@std@@YAPAPAVEntityComponent@@PAPAV1@@Z ; std::_Val_type<EntityComponent * *>
PUBLIC	??$_Uninit_move@PAVEntity@@PAV1@PAV1@@std@@YAPAPAVEntity@@PAPAV1@00AAU?$_Wrap_alloc@V?$allocator@PAVEntity@@@std@@@0@0U_Scalar_ptr_iterator_tag@0@@Z ; std::_Uninit_move<Entity *,Entity *,Entity *>
PUBLIC	??$_Val_type@PAPAVEntity@@@std@@YAPAPAVEntity@@PAPAV1@@Z ; std::_Val_type<Entity * *>
PUBLIC	??$destroy@U?$pair@PAVRigidBody@@H@std@@@?$allocator_traits@V?$allocator@U?$pair@PAVRigidBody@@H@std@@@std@@@std@@SAXAAV?$allocator@U?$pair@PAVRigidBody@@H@std@@@1@PAU?$pair@PAVRigidBody@@H@1@@Z ; std::allocator_traits<std::allocator<std::pair<RigidBody *,int> > >::destroy<std::pair<RigidBody *,int> >
PUBLIC	??$_Rotate@PAPAVEntity@@@std@@YAPAPAVEntity@@PAPAV1@00Urandom_access_iterator_tag@0@@Z ; std::_Rotate<Entity * *>
PUBLIC	??$_Iter_cat@PAPAVEntity@@@std@@YA?AUrandom_access_iterator_tag@0@ABQAPAVEntity@@@Z ; std::_Iter_cat<Entity * *>
PUBLIC	??$_Debug_range@PAPAVEntity@@@std@@YAXPAPAVEntity@@0PB_WI@Z ; std::_Debug_range<Entity * *>
PUBLIC	??$_Uninitialized_copy@V?$_Vector_iterator@V?$_Vector_val@U?$_Simple_types@PAVEntity@@@std@@@std@@@std@@PAPAVEntity@@U?$_Wrap_alloc@V?$allocator@PAVEntity@@@std@@@2@@std@@YAPAPAVEntity@@V?$_Vector_iterator@V?$_Vector_val@U?$_Simple_types@PAVEntity@@@std@@@std@@@0@0PAPAV1@AAU?$_Wrap_alloc@V?$allocator@PAVEntity@@@std@@@0@@Z ; std::_Uninitialized_copy<std::_Vector_iterator<std::_Vector_val<std::_Simple_types<Entity *> > >,Entity * *,std::_Wrap_alloc<std::allocator<Entity *> > >
PUBLIC	??$_Distance2@V?$_Vector_iterator@V?$_Vector_val@U?$_Simple_types@PAVEntity@@@std@@@std@@@std@@I@std@@YAXV?$_Vector_iterator@V?$_Vector_val@U?$_Simple_types@PAVEntity@@@std@@@std@@@0@0AAIUrandom_access_iterator_tag@0@@Z ; std::_Distance2<std::_Vector_iterator<std::_Vector_val<std::_Simple_types<Entity *> > >,unsigned int>
PUBLIC	??$_Debug_range2@V?$_Vector_iterator@V?$_Vector_val@U?$_Simple_types@PAVEntity@@@std@@@std@@@std@@@std@@YAXV?$_Vector_iterator@V?$_Vector_val@U?$_Simple_types@PAVEntity@@@std@@@std@@@0@0PB_WIUrandom_access_iterator_tag@0@@Z ; std::_Debug_range2<std::_Vector_iterator<std::_Vector_val<std::_Simple_types<Entity *> > > >
PUBLIC	??_G?$basic_string@DU?$char_traits@D@std@@V?$allocator@D@2@@std@@QAEPAXI@Z ; std::basic_string<char,std::char_traits<char>,std::allocator<char> >::`scalar deleting destructor'
PUBLIC	??$destroy@V?$basic_string@DU?$char_traits@D@std@@V?$allocator@D@2@@std@@@?$_Wrap_alloc@V?$allocator@V?$basic_string@DU?$char_traits@D@std@@V?$allocator@D@2@@std@@@std@@@std@@QAEXPAV?$basic_string@DU?$char_traits@D@std@@V?$allocator@D@2@@1@@Z ; std::_Wrap_alloc<std::allocator<std::basic_string<char,std::char_traits<char>,std::allocator<char> > > >::destroy<std::basic_string<char,std::char_traits<char>,std::allocator<char> > >
PUBLIC	??$_Rechecked@PAPAVEntityComponent@@PAPAV1@@std@@YAAAPAPAVEntityComponent@@AAPAPAV1@PAPAV1@@Z ; std::_Rechecked<EntityComponent * *,EntityComponent * *>
PUBLIC	??$_Uninit_move@PAPAVEntityComponent@@PAPAV1@U?$_Wrap_alloc@V?$allocator@PAVEntityComponent@@@std@@@std@@@std@@YAPAPAVEntityComponent@@PAPAV1@00AAU?$_Wrap_alloc@V?$allocator@PAVEntityComponent@@@std@@@0@@Z ; std::_Uninit_move<EntityComponent * *,EntityComponent * *,std::_Wrap_alloc<std::allocator<EntityComponent *> > >
PUBLIC	??$_Unchecked@PAPAVEntityComponent@@@std@@YAPAPAVEntityComponent@@PAPAV1@@Z ; std::_Unchecked<EntityComponent * *>
PUBLIC	??$_Rechecked@PAPAVEntity@@PAPAV1@@std@@YAAAPAPAVEntity@@AAPAPAV1@PAPAV1@@Z ; std::_Rechecked<Entity * *,Entity * *>
PUBLIC	??$_Uninit_move@PAPAVEntity@@PAPAV1@U?$_Wrap_alloc@V?$allocator@PAVEntity@@@std@@@std@@@std@@YAPAPAVEntity@@PAPAV1@00AAU?$_Wrap_alloc@V?$allocator@PAVEntity@@@std@@@0@@Z ; std::_Uninit_move<Entity * *,Entity * *,std::_Wrap_alloc<std::allocator<Entity *> > >
PUBLIC	??$_Unchecked@PAPAVEntity@@@std@@YAPAPAVEntity@@PAPAV1@@Z ; std::_Unchecked<Entity * *>
PUBLIC	??$destroy@U?$pair@PAVRigidBody@@H@std@@@?$_Wrap_alloc@V?$allocator@U?$pair@PAVRigidBody@@H@std@@@std@@@std@@QAEXPAU?$pair@PAVRigidBody@@H@1@@Z ; std::_Wrap_alloc<std::allocator<std::pair<RigidBody *,int> > >::destroy<std::pair<RigidBody *,int> >
PUBLIC	??$construct@U_Container_proxy@std@@U12@@?$allocator@U_Container_proxy@std@@@std@@QAEXPAU_Container_proxy@1@$$QAU21@@Z ; std::allocator<std::_Container_proxy>::construct<std::_Container_proxy,std::_Container_proxy>
PUBLIC	??$destroy@U_Container_proxy@std@@@?$allocator@U_Container_proxy@std@@@std@@QAEXPAU_Container_proxy@1@@Z ; std::allocator<std::_Container_proxy>::destroy<std::_Container_proxy>
PUBLIC	??$construct@PADAAPAD@?$allocator@D@std@@QAEXPAPADAAPAD@Z ; std::allocator<char>::construct<char *,char * &>
PUBLIC	??$destroy@PAD@?$allocator@D@std@@QAEXPAPAD@Z	; std::allocator<char>::destroy<char *>
PUBLIC	??$construct@PAVEntityComponent@@ABQAV1@@?$allocator@PAVEntityComponent@@@std@@QAEXPAPAVEntityComponent@@ABQAV2@@Z ; std::allocator<EntityComponent *>::construct<EntityComponent *,EntityComponent * const &>
PUBLIC	??$construct@PAVEntityComponent@@AAPAV1@@?$allocator@PAVEntityComponent@@@std@@QAEXPAPAVEntityComponent@@AAPAV2@@Z ; std::allocator<EntityComponent *>::construct<EntityComponent *,EntityComponent * &>
PUBLIC	??$construct@PAVEntity@@ABQAV1@@?$allocator@PAVEntity@@@std@@QAEXPAPAVEntity@@ABQAV2@@Z ; std::allocator<Entity *>::construct<Entity *,Entity * const &>
PUBLIC	??$construct@PAVEntity@@AAPAV1@@?$allocator@PAVEntity@@@std@@QAEXPAPAVEntity@@AAPAV2@@Z ; std::allocator<Entity *>::construct<Entity *,Entity * &>
PUBLIC	??$rotate@PAPAVEntity@@@std@@YAPAPAVEntity@@PAPAV1@00@Z ; std::rotate<Entity * *>
PUBLIC	??$_Ucopy@V?$_Vector_iterator@V?$_Vector_val@U?$_Simple_types@PAVEntity@@@std@@@std@@@std@@@?$vector@PAVEntity@@V?$allocator@PAVEntity@@@std@@@std@@IAEPAPAVEntity@@V?$_Vector_iterator@V?$_Vector_val@U?$_Simple_types@PAVEntity@@@std@@@std@@@1@0PAPAV2@@Z ; std::vector<Entity *,std::allocator<Entity *> >::_Ucopy<std::_Vector_iterator<std::_Vector_val<std::_Simple_types<Entity *> > > >
PUBLIC	??$_Distance@V?$_Vector_iterator@V?$_Vector_val@U?$_Simple_types@PAVEntity@@@std@@@std@@@std@@I@std@@YAXV?$_Vector_iterator@V?$_Vector_val@U?$_Simple_types@PAVEntity@@@std@@@std@@@0@0AAI@Z ; std::_Distance<std::_Vector_iterator<std::_Vector_val<std::_Simple_types<Entity *> > >,unsigned int>
PUBLIC	??$_Debug_range@V?$_Vector_iterator@V?$_Vector_val@U?$_Simple_types@PAVEntity@@@std@@@std@@@std@@@std@@YAXV?$_Vector_iterator@V?$_Vector_val@U?$_Simple_types@PAVEntity@@@std@@@std@@@0@0PB_WI@Z ; std::_Debug_range<std::_Vector_iterator<std::_Vector_val<std::_Simple_types<Entity *> > > >
PUBLIC	??$_Destroy_range@U?$_Wrap_alloc@V?$allocator@V?$basic_string@DU?$char_traits@D@std@@V?$allocator@D@2@@std@@@std@@@std@@@std@@YAXPAV?$basic_string@DU?$char_traits@D@std@@V?$allocator@D@2@@0@0AAU?$_Wrap_alloc@V?$allocator@V?$basic_string@DU?$char_traits@D@std@@V?$allocator@D@2@@std@@@std@@@0@U_Nonscalar_ptr_iterator_tag@0@@Z ; std::_Destroy_range<std::_Wrap_alloc<std::allocator<std::basic_string<char,std::char_traits<char>,std::allocator<char> > > > >
PUBLIC	??$_Ptr_cat@V?$basic_string@DU?$char_traits@D@std@@V?$allocator@D@2@@std@@V12@@std@@YA?AU_Nonscalar_ptr_iterator_tag@0@PAV?$basic_string@DU?$char_traits@D@std@@V?$allocator@D@2@@0@0@Z ; std::_Ptr_cat<std::basic_string<char,std::char_traits<char>,std::allocator<char> >,std::basic_string<char,std::char_traits<char>,std::allocator<char> > >
PUBLIC	??$_Destroy_range@U?$_Wrap_alloc@V?$allocator@PAVEntityComponent@@@std@@@std@@@std@@YAXPAPAVEntityComponent@@0AAU?$_Wrap_alloc@V?$allocator@PAVEntityComponent@@@std@@@0@U_Scalar_ptr_iterator_tag@0@@Z ; std::_Destroy_range<std::_Wrap_alloc<std::allocator<EntityComponent *> > >
PUBLIC	??$_Ptr_cat@PAVEntityComponent@@PAV1@@std@@YA?AU_Scalar_ptr_iterator_tag@0@PAPAVEntityComponent@@0@Z ; std::_Ptr_cat<EntityComponent *,EntityComponent *>
PUBLIC	??$_Uninitialized_move@PAPAVEntityComponent@@PAPAV1@U?$_Wrap_alloc@V?$allocator@PAVEntityComponent@@@std@@@std@@@std@@YAPAPAVEntityComponent@@PAPAV1@00AAU?$_Wrap_alloc@V?$allocator@PAVEntityComponent@@@std@@@0@@Z ; std::_Uninitialized_move<EntityComponent * *,EntityComponent * *,std::_Wrap_alloc<std::allocator<EntityComponent *> > >
PUBLIC	??$_Destroy_range@U?$_Wrap_alloc@V?$allocator@PAVEntity@@@std@@@std@@@std@@YAXPAPAVEntity@@0AAU?$_Wrap_alloc@V?$allocator@PAVEntity@@@std@@@0@U_Scalar_ptr_iterator_tag@0@@Z ; std::_Destroy_range<std::_Wrap_alloc<std::allocator<Entity *> > >
PUBLIC	??$_Ptr_cat@PAVEntity@@PAV1@@std@@YA?AU_Scalar_ptr_iterator_tag@0@PAPAVEntity@@0@Z ; std::_Ptr_cat<Entity *,Entity *>
PUBLIC	??$_Uninitialized_move@PAPAVEntity@@PAPAV1@U?$_Wrap_alloc@V?$allocator@PAVEntity@@@std@@@std@@@std@@YAPAPAVEntity@@PAPAV1@00AAU?$_Wrap_alloc@V?$allocator@PAVEntity@@@std@@@0@@Z ; std::_Uninitialized_move<Entity * *,Entity * *,std::_Wrap_alloc<std::allocator<Entity *> > >
PUBLIC	??$_Destroy_range@U?$_Wrap_alloc@V?$allocator@U?$pair@PAVRigidBody@@H@std@@@std@@@std@@@std@@YAXPAU?$pair@PAVRigidBody@@H@0@0AAU?$_Wrap_alloc@V?$allocator@U?$pair@PAVRigidBody@@H@std@@@std@@@0@U_Nonscalar_ptr_iterator_tag@0@@Z ; std::_Destroy_range<std::_Wrap_alloc<std::allocator<std::pair<RigidBody *,int> > > >
PUBLIC	??$_Ptr_cat@U?$pair@PAVRigidBody@@H@std@@U12@@std@@YA?AU_Nonscalar_ptr_iterator_tag@0@PAU?$pair@PAVRigidBody@@H@0@0@Z ; std::_Ptr_cat<std::pair<RigidBody *,int>,std::pair<RigidBody *,int> >
PUBLIC	??$construct@U_Container_proxy@std@@U12@@?$allocator_traits@V?$allocator@U_Container_proxy@std@@@std@@@std@@SAXAAV?$allocator@U_Container_proxy@std@@@1@PAU_Container_proxy@1@$$QAU31@@Z ; std::allocator_traits<std::allocator<std::_Container_proxy> >::construct<std::_Container_proxy,std::_Container_proxy>
PUBLIC	??$forward@U_Container_proxy@std@@@std@@YA$$QAU_Container_proxy@0@AAU10@@Z ; std::forward<std::_Container_proxy>
PUBLIC	??$destroy@U_Container_proxy@std@@@?$allocator_traits@V?$allocator@U_Container_proxy@std@@@std@@@std@@SAXAAV?$allocator@U_Container_proxy@std@@@1@PAU_Container_proxy@1@@Z ; std::allocator_traits<std::allocator<std::_Container_proxy> >::destroy<std::_Container_proxy>
PUBLIC	??$construct@PADAAPAD@?$allocator_traits@V?$allocator@D@std@@@std@@SAXAAV?$allocator@D@1@PAPADAAPAD@Z ; std::allocator_traits<std::allocator<char> >::construct<char *,char * &>
PUBLIC	??$forward@AAPAD@std@@YAAAPADAAPAD@Z		; std::forward<char * &>
PUBLIC	??$destroy@PAD@?$allocator_traits@V?$allocator@D@std@@@std@@SAXAAV?$allocator@D@1@PAPAD@Z ; std::allocator_traits<std::allocator<char> >::destroy<char *>
PUBLIC	??$forward@ABV?$allocator@PAVEntity@@@std@@@std@@YAABV?$allocator@PAVEntity@@@0@ABV10@@Z ; std::forward<std::allocator<Entity *> const &>
PUBLIC	??$forward@V?$allocator@PAVEntity@@@std@@@std@@YA$$QAV?$allocator@PAVEntity@@@0@AAV10@@Z ; std::forward<std::allocator<Entity *> >
PUBLIC	??$forward@ABV?$allocator@PAVEntityComponent@@@std@@@std@@YAABV?$allocator@PAVEntityComponent@@@0@ABV10@@Z ; std::forward<std::allocator<EntityComponent *> const &>
PUBLIC	??$forward@V?$allocator@PAVEntityComponent@@@std@@@std@@YA$$QAV?$allocator@PAVEntityComponent@@@0@AAV10@@Z ; std::forward<std::allocator<EntityComponent *> >
PUBLIC	??$_Addressof@V?$basic_string@DU?$char_traits@D@std@@V?$allocator@D@2@@std@@@std@@YAPAV?$basic_string@DU?$char_traits@D@std@@V?$allocator@D@2@@0@AAV10@U?$integral_constant@_N$0A@@0@@Z ; std::_Addressof<std::basic_string<char,std::char_traits<char>,std::allocator<char> > >
PUBLIC	??$forward@ABV?$allocator@U?$pair@PAVRigidBody@@H@std@@@std@@@std@@YAABV?$allocator@U?$pair@PAVRigidBody@@H@std@@@0@ABV10@@Z ; std::forward<std::allocator<std::pair<RigidBody *,int> > const &>
PUBLIC	??$forward@ABV?$allocator@D@std@@@std@@YAABV?$allocator@D@0@ABV10@@Z ; std::forward<std::allocator<char> const &>
PUBLIC	??$construct@PAVEntityComponent@@ABQAV1@@?$allocator_traits@V?$allocator@PAVEntityComponent@@@std@@@std@@SAXAAV?$allocator@PAVEntityComponent@@@1@PAPAVEntityComponent@@ABQAV3@@Z ; std::allocator_traits<std::allocator<EntityComponent *> >::construct<EntityComponent *,EntityComponent * const &>
PUBLIC	??$forward@ABQAVEntityComponent@@@std@@YAABQAVEntityComponent@@ABQAV1@@Z ; std::forward<EntityComponent * const &>
PUBLIC	??$construct@PAVEntityComponent@@AAPAV1@@?$allocator_traits@V?$allocator@PAVEntityComponent@@@std@@@std@@SAXAAV?$allocator@PAVEntityComponent@@@1@PAPAVEntityComponent@@AAPAV3@@Z ; std::allocator_traits<std::allocator<EntityComponent *> >::construct<EntityComponent *,EntityComponent * &>
PUBLIC	??$forward@AAPAVEntityComponent@@@std@@YAAAPAVEntityComponent@@AAPAV1@@Z ; std::forward<EntityComponent * &>
PUBLIC	??$_Addressof@QAVEntityComponent@@@std@@YAPBQAVEntityComponent@@ABQAV1@U?$integral_constant@_N$0A@@0@@Z ; std::_Addressof<EntityComponent * const>
PUBLIC	??$construct@PAVEntity@@ABQAV1@@?$allocator_traits@V?$allocator@PAVEntity@@@std@@@std@@SAXAAV?$allocator@PAVEntity@@@1@PAPAVEntity@@ABQAV3@@Z ; std::allocator_traits<std::allocator<Entity *> >::construct<Entity *,Entity * const &>
PUBLIC	??$forward@ABQAVEntity@@@std@@YAABQAVEntity@@ABQAV1@@Z ; std::forward<Entity * const &>
PUBLIC	??$construct@PAVEntity@@AAPAV1@@?$allocator_traits@V?$allocator@PAVEntity@@@std@@@std@@SAXAAV?$allocator@PAVEntity@@@1@PAPAVEntity@@AAPAV3@@Z ; std::allocator_traits<std::allocator<Entity *> >::construct<Entity *,Entity * &>
PUBLIC	??$forward@AAPAVEntity@@@std@@YAAAPAVEntity@@AAPAV1@@Z ; std::forward<Entity * &>
PUBLIC	??$_Addressof@QAVEntity@@@std@@YAPBQAVEntity@@ABQAV1@U?$integral_constant@_N$0A@@0@@Z ; std::_Addressof<Entity * const>
PUBLIC	??$_Addressof@U?$pair@PAVRigidBody@@H@std@@@std@@YAPAU?$pair@PAVRigidBody@@H@0@AAU10@U?$integral_constant@_N$0A@@0@@Z ; std::_Addressof<std::pair<RigidBody *,int> >
PUBLIC	??$_Addressof@D@std@@YAPADAADU?$integral_constant@_N$0A@@0@@Z ; std::_Addressof<char>
PUBLIC	??$_Insert@V?$_Vector_iterator@V?$_Vector_val@U?$_Simple_types@PAVEntity@@@std@@@std@@@std@@@?$vector@PAVEntity@@V?$allocator@PAVEntity@@@std@@@std@@QAEXV?$_Vector_const_iterator@V?$_Vector_val@U?$_Simple_types@PAVEntity@@@std@@@std@@@1@V?$_Vector_iterator@V?$_Vector_val@U?$_Simple_types@PAVEntity@@@std@@@std@@@1@1Uforward_iterator_tag@1@@Z ; std::vector<Entity *,std::allocator<Entity *> >::_Insert<std::_Vector_iterator<std::_Vector_val<std::_Simple_types<Entity *> > > >
PUBLIC	??$_Iter_cat@V?$_Vector_iterator@V?$_Vector_val@U?$_Simple_types@PAVEntity@@@std@@@std@@@std@@@std@@YA?AUrandom_access_iterator_tag@0@ABV?$_Vector_iterator@V?$_Vector_val@U?$_Simple_types@PAVEntity@@@std@@@std@@@0@@Z ; std::_Iter_cat<std::_Vector_iterator<std::_Vector_val<std::_Simple_types<Entity *> > > >
PUBLIC	??$?0V?$basic_string@DU?$char_traits@D@std@@V?$allocator@D@2@@std@@@?$allocator@U_Container_proxy@std@@@std@@QAE@ABV?$allocator@V?$basic_string@DU?$char_traits@D@std@@V?$allocator@D@2@@std@@@1@@Z ; std::allocator<std::_Container_proxy>::allocator<std::_Container_proxy><std::basic_string<char,std::char_traits<char>,std::allocator<char> > >
PUBLIC	??$?0PAVEntity@@@?$allocator@U_Container_proxy@std@@@std@@QAE@ABV?$allocator@PAVEntity@@@1@@Z ; std::allocator<std::_Container_proxy>::allocator<std::_Container_proxy><Entity *>
PUBLIC	??$?0PAVEntityComponent@@@?$allocator@U_Container_proxy@std@@@std@@QAE@ABV?$allocator@PAVEntityComponent@@@1@@Z ; std::allocator<std::_Container_proxy>::allocator<std::_Container_proxy><EntityComponent *>
PUBLIC	??$?0U?$pair@PAVRigidBody@@H@std@@@?$allocator@U_Container_proxy@std@@@std@@QAE@ABV?$allocator@U?$pair@PAVRigidBody@@H@std@@@1@@Z ; std::allocator<std::_Container_proxy>::allocator<std::_Container_proxy><std::pair<RigidBody *,int> >
PUBLIC	??$?0D@?$allocator@U_Container_proxy@std@@@std@@QAE@ABV?$allocator@D@1@@Z ; std::allocator<std::_Container_proxy>::allocator<std::_Container_proxy><char>
PUBLIC	??Y?$_Vector_const_iterator@V?$_Vector_val@U?$_Simple_types@PAVEntity@@@std@@@std@@@std@@QAEAAV01@H@Z ; std::_Vector_const_iterator<std::_Vector_val<std::_Simple_types<Entity *> > >::operator+=
PUBLIC	??0_Sentry_base@?$basic_ostream@DU?$char_traits@D@std@@@std@@QAE@AAV12@@Z ; std::basic_ostream<char,std::char_traits<char> >::_Sentry_base::_Sentry_base
PUBLIC	??1_Sentry_base@?$basic_ostream@DU?$char_traits@D@std@@@std@@QAE@XZ ; std::basic_ostream<char,std::char_traits<char> >::_Sentry_base::~_Sentry_base
PUBLIC	??0?$allocator@PAVEntityComponent@@@std@@QAE@ABV01@@Z ; std::allocator<EntityComponent *>::allocator<EntityComponent *>
PUBLIC	??0?$allocator@PAVEntity@@@std@@QAE@ABV01@@Z	; std::allocator<Entity *>::allocator<Entity *>
PUBLIC	??Y?$_Vector_iterator@V?$_Vector_val@U?$_Simple_types@PAVEntity@@@std@@@std@@@std@@QAEAAV01@H@Z ; std::_Vector_iterator<std::_Vector_val<std::_Simple_types<Entity *> > >::operator+=
PUBLIC	??0?$allocator@U?$pair@PAVRigidBody@@H@std@@@std@@QAE@ABV01@@Z ; std::allocator<std::pair<RigidBody *,int> >::allocator<std::pair<RigidBody *,int> >
PUBLIC	??0?$_String_val@U?$_Simple_types@D@std@@@std@@QAE@XZ ; std::_String_val<std::_Simple_types<char> >::_String_val<std::_Simple_types<char> >
PUBLIC	??0sentry@?$basic_ostream@DU?$char_traits@D@std@@@std@@QAE@AAV12@@Z ; std::basic_ostream<char,std::char_traits<char> >::sentry::sentry
PUBLIC	??1sentry@?$basic_ostream@DU?$char_traits@D@std@@@std@@QAE@XZ ; std::basic_ostream<char,std::char_traits<char> >::sentry::~sentry
PUBLIC	??Bsentry@?$basic_ostream@DU?$char_traits@D@std@@@std@@QBE_NXZ ; std::basic_ostream<char,std::char_traits<char> >::sentry::operator bool
PUBLIC	??0?$_Wrap_alloc@V?$allocator@PAVEntity@@@std@@@std@@QAE@ABV?$allocator@PAVEntity@@@1@@Z ; std::_Wrap_alloc<std::allocator<Entity *> >::_Wrap_alloc<std::allocator<Entity *> >
PUBLIC	??0?$_Vector_val@U?$_Simple_types@PAVEntity@@@std@@@std@@QAE@XZ ; std::_Vector_val<std::_Simple_types<Entity *> >::_Vector_val<std::_Simple_types<Entity *> >
PUBLIC	??H?$_Vector_iterator@V?$_Vector_val@U?$_Simple_types@PAVEntity@@@std@@@std@@@std@@QBE?AV01@H@Z ; std::_Vector_iterator<std::_Vector_val<std::_Simple_types<Entity *> > >::operator+
PUBLIC	??0?$_Wrap_alloc@V?$allocator@PAVEntityComponent@@@std@@@std@@QAE@ABV?$allocator@PAVEntityComponent@@@1@@Z ; std::_Wrap_alloc<std::allocator<EntityComponent *> >::_Wrap_alloc<std::allocator<EntityComponent *> >
PUBLIC	??0?$_Vector_val@U?$_Simple_types@PAVEntityComponent@@@std@@@std@@QAE@XZ ; std::_Vector_val<std::_Simple_types<EntityComponent *> >::_Vector_val<std::_Simple_types<EntityComponent *> >
PUBLIC	??B?$function@$$A6AXPAVRigidBody@@@Z@std@@QBE_NXZ ; std::function<void __cdecl(RigidBody *)>::operator bool
PUBLIC	??0?$_Wrap_alloc@V?$allocator@U?$pair@PAVRigidBody@@H@std@@@std@@@std@@QAE@ABV?$allocator@U?$pair@PAVRigidBody@@H@std@@@1@@Z ; std::_Wrap_alloc<std::allocator<std::pair<RigidBody *,int> > >::_Wrap_alloc<std::allocator<std::pair<RigidBody *,int> > >
PUBLIC	??0?$_Vector_val@U?$_Simple_types@U?$pair@PAVRigidBody@@H@std@@@std@@@std@@QAE@XZ ; std::_Vector_val<std::_Simple_types<std::pair<RigidBody *,int> > >::_Vector_val<std::_Simple_types<std::pair<RigidBody *,int> > >
PUBLIC	??0?$_Iterator012@Urandom_access_iterator_tag@std@@PAVEntity@@HPBQAV3@ABQAV3@U_Iterator_base12@2@@std@@QAE@ABU01@@Z ; std::_Iterator012<std::random_access_iterator_tag,Entity *,int,Entity * const *,Entity * const &,std::_Iterator_base12>::_Iterator012<std::random_access_iterator_tag,Entity *,int,Entity * const *,Entity * const &,std::_Iterator_base12>
PUBLIC	??0?$_Vector_const_iterator@V?$_Vector_val@U?$_Simple_types@PAVEntity@@@std@@@std@@@std@@QAE@ABV01@@Z ; std::_Vector_const_iterator<std::_Vector_val<std::_Simple_types<Entity *> > >::_Vector_const_iterator<std::_Vector_val<std::_Simple_types<Entity *> > >
PUBLIC	??0?$_Vector_iterator@V?$_Vector_val@U?$_Simple_types@PAVEntity@@@std@@@std@@@std@@QAE@ABV01@@Z ; std::_Vector_iterator<std::_Vector_val<std::_Simple_types<Entity *> > >::_Vector_iterator<std::_Vector_val<std::_Simple_types<Entity *> > >
PUBLIC	??$_Destroy_range@U?$_Wrap_alloc@V?$allocator@V?$basic_string@DU?$char_traits@D@std@@V?$allocator@D@2@@std@@@std@@@std@@@std@@YAXPAV?$basic_string@DU?$char_traits@D@std@@V?$allocator@D@2@@0@0AAU?$_Wrap_alloc@V?$allocator@V?$basic_string@DU?$char_traits@D@std@@V?$allocator@D@2@@std@@@std@@@0@@Z ; std::_Destroy_range<std::_Wrap_alloc<std::allocator<std::basic_string<char,std::char_traits<char>,std::allocator<char> > > > >
PUBLIC	??$?0U?$_Wrap_alloc@V?$allocator@V?$basic_string@DU?$char_traits@D@std@@V?$allocator@D@2@@std@@@std@@@std@@@?$_Wrap_alloc@V?$allocator@U_Container_proxy@std@@@std@@@std@@QAE@AAU?$_Wrap_alloc@V?$allocator@V?$basic_string@DU?$char_traits@D@std@@V?$allocator@D@2@@std@@@std@@@1@@Z ; std::_Wrap_alloc<std::allocator<std::_Container_proxy> >::_Wrap_alloc<std::allocator<std::_Container_proxy> ><std::_Wrap_alloc<std::allocator<std::basic_string<char,std::char_traits<char>,std::allocator<char> > > > >
PUBLIC	??$_Destroy_range@U?$_Wrap_alloc@V?$allocator@PAVEntityComponent@@@std@@@std@@@std@@YAXPAPAVEntityComponent@@0AAU?$_Wrap_alloc@V?$allocator@PAVEntityComponent@@@std@@@0@@Z ; std::_Destroy_range<std::_Wrap_alloc<std::allocator<EntityComponent *> > >
PUBLIC	??$_Umove@PAPAVEntityComponent@@@?$vector@PAVEntityComponent@@V?$allocator@PAVEntityComponent@@@std@@@std@@IAEPAPAVEntityComponent@@PAPAV2@00@Z ; std::vector<EntityComponent *,std::allocator<EntityComponent *> >::_Umove<EntityComponent * *>
PUBLIC	??$_Destroy_range@U?$_Wrap_alloc@V?$allocator@PAVEntity@@@std@@@std@@@std@@YAXPAPAVEntity@@0AAU?$_Wrap_alloc@V?$allocator@PAVEntity@@@std@@@0@@Z ; std::_Destroy_range<std::_Wrap_alloc<std::allocator<Entity *> > >
PUBLIC	??$_Umove@PAPAVEntity@@@?$vector@PAVEntity@@V?$allocator@PAVEntity@@@std@@@std@@IAEPAPAVEntity@@PAPAV2@00@Z ; std::vector<Entity *,std::allocator<Entity *> >::_Umove<Entity * *>
PUBLIC	??$?0U?$_Wrap_alloc@V?$allocator@PAVEntity@@@std@@@std@@@?$_Wrap_alloc@V?$allocator@U_Container_proxy@std@@@std@@@std@@QAE@AAU?$_Wrap_alloc@V?$allocator@PAVEntity@@@std@@@1@@Z ; std::_Wrap_alloc<std::allocator<std::_Container_proxy> >::_Wrap_alloc<std::allocator<std::_Container_proxy> ><std::_Wrap_alloc<std::allocator<Entity *> > >
PUBLIC	??$?0U?$_Wrap_alloc@V?$allocator@PAVEntityComponent@@@std@@@std@@@?$_Wrap_alloc@V?$allocator@U_Container_proxy@std@@@std@@@std@@QAE@AAU?$_Wrap_alloc@V?$allocator@PAVEntityComponent@@@std@@@1@@Z ; std::_Wrap_alloc<std::allocator<std::_Container_proxy> >::_Wrap_alloc<std::allocator<std::_Container_proxy> ><std::_Wrap_alloc<std::allocator<EntityComponent *> > >
PUBLIC	??$_Destroy_range@U?$_Wrap_alloc@V?$allocator@U?$pair@PAVRigidBody@@H@std@@@std@@@std@@@std@@YAXPAU?$pair@PAVRigidBody@@H@0@0AAU?$_Wrap_alloc@V?$allocator@U?$pair@PAVRigidBody@@H@std@@@std@@@0@@Z ; std::_Destroy_range<std::_Wrap_alloc<std::allocator<std::pair<RigidBody *,int> > > >
PUBLIC	??$?0U?$_Wrap_alloc@V?$allocator@U?$pair@PAVRigidBody@@H@std@@@std@@@std@@@?$_Wrap_alloc@V?$allocator@U_Container_proxy@std@@@std@@@std@@QAE@AAU?$_Wrap_alloc@V?$allocator@U?$pair@PAVRigidBody@@H@std@@@std@@@1@@Z ; std::_Wrap_alloc<std::allocator<std::_Container_proxy> >::_Wrap_alloc<std::allocator<std::_Container_proxy> ><std::_Wrap_alloc<std::allocator<std::pair<RigidBody *,int> > > >
PUBLIC	??$?0U?$_Wrap_alloc@V?$allocator@D@std@@@std@@@?$_Wrap_alloc@V?$allocator@U_Container_proxy@std@@@std@@@std@@QAE@AAU?$_Wrap_alloc@V?$allocator@D@std@@@1@@Z ; std::_Wrap_alloc<std::allocator<std::_Container_proxy> >::_Wrap_alloc<std::allocator<std::_Container_proxy> ><std::_Wrap_alloc<std::allocator<char> > >
PUBLIC	??$construct@U_Container_proxy@std@@U12@@?$_Wrap_alloc@V?$allocator@U_Container_proxy@std@@@std@@@std@@QAEXPAU_Container_proxy@1@$$QAU21@@Z ; std::_Wrap_alloc<std::allocator<std::_Container_proxy> >::construct<std::_Container_proxy,std::_Container_proxy>
PUBLIC	??$destroy@U_Container_proxy@std@@@?$_Wrap_alloc@V?$allocator@U_Container_proxy@std@@@std@@@std@@QAEXPAU_Container_proxy@1@@Z ; std::_Wrap_alloc<std::allocator<std::_Container_proxy> >::destroy<std::_Container_proxy>
PUBLIC	??$construct@PADAAPAD@?$_Wrap_alloc@V?$allocator@D@std@@@std@@QAEXPAPADAAPAD@Z ; std::_Wrap_alloc<std::allocator<char> >::construct<char *,char * &>
PUBLIC	??$_Debug_pointer_if@$$CBD@std@@YAX_NPBDPB_WI@Z	; std::_Debug_pointer_if<char const >
PUBLIC	??$destroy@PAD@?$_Wrap_alloc@V?$allocator@D@std@@@std@@QAEXPAPAD@Z ; std::_Wrap_alloc<std::allocator<char> >::destroy<char *>
PUBLIC	??$?0ABV?$allocator@D@std@@$$V@?$_Compressed_pair@U?$_Wrap_alloc@V?$allocator@D@std@@@std@@V?$_String_val@U?$_Simple_types@D@std@@@2@$00@std@@QAE@U_One_then_variadic_args_t@1@ABV?$allocator@D@1@@Z ; std::_Compressed_pair<std::_Wrap_alloc<std::allocator<char> >,std::_String_val<std::_Simple_types<char> >,1>::_Compressed_pair<std::_Wrap_alloc<std::allocator<char> >,std::_String_val<std::_Simple_types<char> >,1><std::allocator<char> const &>
PUBLIC	??$?0ABV?$allocator@PAVEntity@@@std@@$$V@?$_Compressed_pair@U?$_Wrap_alloc@V?$allocator@PAVEntity@@@std@@@std@@V?$_Vector_val@U?$_Simple_types@PAVEntity@@@std@@@2@$00@std@@QAE@U_One_then_variadic_args_t@1@ABV?$allocator@PAVEntity@@@1@@Z ; std::_Compressed_pair<std::_Wrap_alloc<std::allocator<Entity *> >,std::_Vector_val<std::_Simple_types<Entity *> >,1>::_Compressed_pair<std::_Wrap_alloc<std::allocator<Entity *> >,std::_Vector_val<std::_Simple_types<Entity *> >,1><std::allocator<Entity *> const &>
PUBLIC	??$?0V?$allocator@PAVEntity@@@std@@$$V@?$_Compressed_pair@U?$_Wrap_alloc@V?$allocator@PAVEntity@@@std@@@std@@V?$_Vector_val@U?$_Simple_types@PAVEntity@@@std@@@2@$00@std@@QAE@U_One_then_variadic_args_t@1@$$QAV?$allocator@PAVEntity@@@1@@Z ; std::_Compressed_pair<std::_Wrap_alloc<std::allocator<Entity *> >,std::_Vector_val<std::_Simple_types<Entity *> >,1>::_Compressed_pair<std::_Wrap_alloc<std::allocator<Entity *> >,std::_Vector_val<std::_Simple_types<Entity *> >,1><std::allocator<Entity *> >
PUBLIC	??$move@AAV?$allocator@PAVEntity@@@std@@@std@@YA$$QAV?$allocator@PAVEntity@@@0@AAV10@@Z ; std::move<std::allocator<Entity *> &>
PUBLIC	??$?0ABV?$allocator@PAVEntityComponent@@@std@@$$V@?$_Compressed_pair@U?$_Wrap_alloc@V?$allocator@PAVEntityComponent@@@std@@@std@@V?$_Vector_val@U?$_Simple_types@PAVEntityComponent@@@std@@@2@$00@std@@QAE@U_One_then_variadic_args_t@1@ABV?$allocator@PAVEntityComponent@@@1@@Z ; std::_Compressed_pair<std::_Wrap_alloc<std::allocator<EntityComponent *> >,std::_Vector_val<std::_Simple_types<EntityComponent *> >,1>::_Compressed_pair<std::_Wrap_alloc<std::allocator<EntityComponent *> >,std::_Vector_val<std::_Simple_types<EntityComponent *> >,1><std::allocator<EntityComponent *> const &>
PUBLIC	??$?0V?$allocator@PAVEntityComponent@@@std@@$$V@?$_Compressed_pair@U?$_Wrap_alloc@V?$allocator@PAVEntityComponent@@@std@@@std@@V?$_Vector_val@U?$_Simple_types@PAVEntityComponent@@@std@@@2@$00@std@@QAE@U_One_then_variadic_args_t@1@$$QAV?$allocator@PAVEntityComponent@@@1@@Z ; std::_Compressed_pair<std::_Wrap_alloc<std::allocator<EntityComponent *> >,std::_Vector_val<std::_Simple_types<EntityComponent *> >,1>::_Compressed_pair<std::_Wrap_alloc<std::allocator<EntityComponent *> >,std::_Vector_val<std::_Simple_types<EntityComponent *> >,1><std::allocator<EntityComponent *> >
PUBLIC	??$move@AAV?$allocator@PAVEntityComponent@@@std@@@std@@YA$$QAV?$allocator@PAVEntityComponent@@@0@AAV10@@Z ; std::move<std::allocator<EntityComponent *> &>
PUBLIC	??$addressof@V?$basic_string@DU?$char_traits@D@std@@V?$allocator@D@2@@std@@@std@@YAPAV?$basic_string@DU?$char_traits@D@std@@V?$allocator@D@2@@0@AAV10@@Z ; std::addressof<std::basic_string<char,std::char_traits<char>,std::allocator<char> > >
PUBLIC	??$?0ABV?$allocator@U?$pair@PAVRigidBody@@H@std@@@std@@$$V@?$_Compressed_pair@U?$_Wrap_alloc@V?$allocator@U?$pair@PAVRigidBody@@H@std@@@std@@@std@@V?$_Vector_val@U?$_Simple_types@U?$pair@PAVRigidBody@@H@std@@@std@@@2@$00@std@@QAE@U_One_then_variadic_args_t@1@ABV?$allocator@U?$pair@PAVRigidBody@@H@std@@@1@@Z ; std::_Compressed_pair<std::_Wrap_alloc<std::allocator<std::pair<RigidBody *,int> > >,std::_Vector_val<std::_Simple_types<std::pair<RigidBody *,int> > >,1>::_Compressed_pair<std::_Wrap_alloc<std::allocator<std::pair<RigidBody *,int> > >,std::_Vector_val<std::_Simple_types<std::pair<RigidBody *,int> > >,1><std::allocator<std::pair<RigidBody *,int> > const &>
PUBLIC	??$_Debug_pointer@$$CBD@std@@YAXPBDPB_WI@Z	; std::_Debug_pointer<char const >
PUBLIC	??$forward@V?$vector@PAVEntityComponent@@V?$allocator@PAVEntityComponent@@@std@@@std@@@std@@YA$$QAV?$vector@PAVEntityComponent@@V?$allocator@PAVEntityComponent@@@std@@@0@AAV10@@Z ; std::forward<std::vector<EntityComponent *,std::allocator<EntityComponent *> > >
PUBLIC	??$move@AAU?$_Wrap_alloc@V?$allocator@PAVEntityComponent@@@std@@@std@@@std@@YA$$QAU?$_Wrap_alloc@V?$allocator@PAVEntityComponent@@@std@@@0@AAU10@@Z ; std::move<std::_Wrap_alloc<std::allocator<EntityComponent *> > &>
PUBLIC	??$construct@PAVEntityComponent@@ABQAV1@@?$_Wrap_alloc@V?$allocator@PAVEntityComponent@@@std@@@std@@QAEXPAPAVEntityComponent@@ABQAV2@@Z ; std::_Wrap_alloc<std::allocator<EntityComponent *> >::construct<EntityComponent *,EntityComponent * const &>
PUBLIC	??$construct@PAVEntityComponent@@AAPAV1@@?$_Wrap_alloc@V?$allocator@PAVEntityComponent@@@std@@@std@@QAEXPAPAVEntityComponent@@AAPAV2@@Z ; std::_Wrap_alloc<std::allocator<EntityComponent *> >::construct<EntityComponent *,EntityComponent * &>
PUBLIC	??$addressof@QAVEntityComponent@@@std@@YAPBQAVEntityComponent@@ABQAV1@@Z ; std::addressof<EntityComponent * const>
PUBLIC	??$forward@V?$vector@PAVEntity@@V?$allocator@PAVEntity@@@std@@@std@@@std@@YA$$QAV?$vector@PAVEntity@@V?$allocator@PAVEntity@@@std@@@0@AAV10@@Z ; std::forward<std::vector<Entity *,std::allocator<Entity *> > >
PUBLIC	??$move@AAU?$_Wrap_alloc@V?$allocator@PAVEntity@@@std@@@std@@@std@@YA$$QAU?$_Wrap_alloc@V?$allocator@PAVEntity@@@std@@@0@AAU10@@Z ; std::move<std::_Wrap_alloc<std::allocator<Entity *> > &>
PUBLIC	??$construct@PAVEntity@@ABQAV1@@?$_Wrap_alloc@V?$allocator@PAVEntity@@@std@@@std@@QAEXPAPAVEntity@@ABQAV2@@Z ; std::_Wrap_alloc<std::allocator<Entity *> >::construct<Entity *,Entity * const &>
PUBLIC	??$construct@PAVEntity@@AAPAV1@@?$_Wrap_alloc@V?$allocator@PAVEntity@@@std@@@std@@QAEXPAPAVEntity@@AAPAV2@@Z ; std::_Wrap_alloc<std::allocator<Entity *> >::construct<Entity *,Entity * &>
PUBLIC	??$addressof@QAVEntity@@@std@@YAPBQAVEntity@@ABQAV1@@Z ; std::addressof<Entity * const>
PUBLIC	??$addressof@U?$pair@PAVRigidBody@@H@std@@@std@@YAPAU?$pair@PAVRigidBody@@H@0@AAU10@@Z ; std::addressof<std::pair<RigidBody *,int> >
PUBLIC	??$forward@PAVRigidBody@@@std@@YA$$QAPAVRigidBody@@AAPAV1@@Z ; std::forward<RigidBody *>
PUBLIC	??$addressof@D@std@@YAPADAAD@Z			; std::addressof<char>
PUBLIC	??$insert@V?$_Vector_iterator@V?$_Vector_val@U?$_Simple_types@PAVEntity@@@std@@@std@@@std@@@?$vector@PAVEntity@@V?$allocator@PAVEntity@@@std@@@std@@QAE?AV?$_Vector_iterator@V?$_Vector_val@U?$_Simple_types@PAVEntity@@@std@@@std@@@1@V?$_Vector_const_iterator@V?$_Vector_val@U?$_Simple_types@PAVEntity@@@std@@@std@@@1@V21@1@Z ; std::vector<Entity *,std::allocator<Entity *> >::insert<std::_Vector_iterator<std::_Vector_val<std::_Simple_types<Entity *> > > >
PUBLIC	??$?9$$A6AXPAVRigidBody@@@Z@std@@YA_NABV?$function@$$A6AXPAVRigidBody@@@Z@0@$$T@Z ; std::operator!=<void __cdecl(RigidBody *)>
PUBLIC	??$endl@DU?$char_traits@D@std@@@std@@YAAAV?$basic_ostream@DU?$char_traits@D@std@@@0@AAV10@@Z ; std::endl<char,std::char_traits<char> >
PUBLIC	??$?6DU?$char_traits@D@std@@V?$allocator@D@1@@std@@YAAAV?$basic_ostream@DU?$char_traits@D@std@@@0@AAV10@ABV?$basic_string@DU?$char_traits@D@std@@V?$allocator@D@2@@0@@Z ; std::operator<<<char,std::char_traits<char>,std::allocator<char> >
PUBLIC	??$?6U?$char_traits@D@std@@@std@@YAAAV?$basic_ostream@DU?$char_traits@D@std@@@0@AAV10@PBD@Z ; std::operator<<<std::char_traits<char> >
PUBLIC	??$?8DU?$char_traits@D@std@@V?$allocator@D@1@@std@@YA_NABV?$basic_string@DU?$char_traits@D@std@@V?$allocator@D@2@@0@PBD@Z ; std::operator==<char,std::char_traits<char>,std::allocator<char> >
PUBLIC	??$?8DU?$char_traits@D@std@@V?$allocator@D@1@@std@@YA_NABV?$basic_string@DU?$char_traits@D@std@@V?$allocator@D@2@@0@0@Z ; std::operator==<char,std::char_traits<char>,std::allocator<char> >
PUBLIC	??$?0$03@?$Matrix4@M@@QAE@ABV?$Matrix@M$03@@@Z	; Matrix4<float>::Matrix4<float><4>
PUBLIC	??$__vcrt_va_start_verify_argument_type@QBD@@YAXXZ ; __vcrt_va_start_verify_argument_type<char const * const>
PUBLIC	?max_size@?$allocator@D@std@@QBEIXZ		; std::allocator<char>::max_size
PUBLIC	?max_size@?$allocator@PAVEntityComponent@@@std@@QBEIXZ ; std::allocator<EntityComponent *>::max_size
PUBLIC	?max_size@?$allocator@PAVEntity@@@std@@QBEIXZ	; std::allocator<Entity *>::max_size
PUBLIC	?max_size@?$allocator_traits@V?$allocator@D@std@@@std@@SAIABV?$allocator@D@2@@Z ; std::allocator_traits<std::allocator<char> >::max_size
PUBLIC	?allocate@?$allocator@PAVEntityComponent@@@std@@QAEPAPAVEntityComponent@@I@Z ; std::allocator<EntityComponent *>::allocate
PUBLIC	?allocate@?$allocator@PAVEntity@@@std@@QAEPAPAVEntity@@I@Z ; std::allocator<Entity *>::allocate
PUBLIC	?max_size@?$allocator_traits@V?$allocator@PAVEntity@@@std@@@std@@SAIABV?$allocator@PAVEntity@@@2@@Z ; std::allocator_traits<std::allocator<Entity *> >::max_size
PUBLIC	?_Get_first@?$_Compressed_pair@U?$_Wrap_alloc@V?$allocator@PAVEntity@@@std@@@std@@V?$_Vector_val@U?$_Simple_types@PAVEntity@@@std@@@2@$00@std@@QBEABU?$_Wrap_alloc@V?$allocator@PAVEntity@@@std@@@2@XZ ; std::_Compressed_pair<std::_Wrap_alloc<std::allocator<Entity *> >,std::_Vector_val<std::_Simple_types<Entity *> >,1>::_Get_first
PUBLIC	?max_size@?$allocator_traits@V?$allocator@PAVEntityComponent@@@std@@@std@@SAIABV?$allocator@PAVEntityComponent@@@2@@Z ; std::allocator_traits<std::allocator<EntityComponent *> >::max_size
PUBLIC	?_Get_first@?$_Compressed_pair@U?$_Wrap_alloc@V?$allocator@PAVEntityComponent@@@std@@@std@@V?$_Vector_val@U?$_Simple_types@PAVEntityComponent@@@std@@@2@$00@std@@QBEABU?$_Wrap_alloc@V?$allocator@PAVEntityComponent@@@std@@@2@XZ ; std::_Compressed_pair<std::_Wrap_alloc<std::allocator<EntityComponent *> >,std::_Vector_val<std::_Simple_types<EntityComponent *> >,1>::_Get_first
PUBLIC	?_Getspace@?$_Func_class@XPAVRigidBody@@@std@@ABEPBXXZ ; std::_Func_class<void,RigidBody *>::_Getspace
PUBLIC	?deallocate@?$allocator@U_Container_proxy@std@@@std@@QAEXPAU_Container_proxy@2@I@Z ; std::allocator<std::_Container_proxy>::deallocate
PUBLIC	?allocate@?$allocator@U_Container_proxy@std@@@std@@QAEPAU_Container_proxy@2@I@Z ; std::allocator<std::_Container_proxy>::allocate
PUBLIC	?max_size@?$basic_string@DU?$char_traits@D@std@@V?$allocator@D@2@@std@@QBEIXZ ; std::basic_string<char,std::char_traits<char>,std::allocator<char> >::max_size
PUBLIC	?_Copy@?$basic_string@DU?$char_traits@D@std@@V?$allocator@D@2@@std@@QAEXII@Z ; std::basic_string<char,std::char_traits<char>,std::allocator<char> >::_Copy
PUBLIC	?_Myproxy@?$_String_alloc@U?$_String_base_types@DV?$allocator@D@std@@@std@@@std@@QAEAAPAU_Container_proxy@2@XZ ; std::_String_alloc<std::_String_base_types<char,std::allocator<char> > >::_Myproxy
PUBLIC	?_Orphan_all@?$_String_alloc@U?$_String_base_types@DV?$allocator@D@std@@@std@@@std@@QAEXXZ ; std::_String_alloc<std::_String_base_types<char,std::allocator<char> > >::_Orphan_all
PUBLIC	?allocate@?$_Wrap_alloc@V?$allocator@D@std@@@std@@QAEPADI@Z ; std::_Wrap_alloc<std::allocator<char> >::allocate
PUBLIC	?max_size@?$_Wrap_alloc@V?$allocator@D@std@@@std@@QBEIU_Nil@2@@Z ; std::_Wrap_alloc<std::allocator<char> >::max_size
PUBLIC	?_Get_second@?$_Compressed_pair@U?$_Wrap_alloc@V?$allocator@D@std@@@std@@V?$_String_val@U?$_Simple_types@D@std@@@2@$00@std@@QAEAAV?$_String_val@U?$_Simple_types@D@std@@@2@XZ ; std::_Compressed_pair<std::_Wrap_alloc<std::allocator<char> >,std::_String_val<std::_Simple_types<char> >,1>::_Get_second
PUBLIC	?_Get_second@?$_Compressed_pair@U?$_Wrap_alloc@V?$allocator@D@std@@@std@@V?$_String_val@U?$_Simple_types@D@std@@@2@$00@std@@QBEABV?$_String_val@U?$_Simple_types@D@std@@@2@XZ ; std::_Compressed_pair<std::_Wrap_alloc<std::allocator<char> >,std::_String_val<std::_Simple_types<char> >,1>::_Get_second
PUBLIC	?deallocate@?$allocator@V?$basic_string@DU?$char_traits@D@std@@V?$allocator@D@2@@std@@@std@@QAEXPAV?$basic_string@DU?$char_traits@D@std@@V?$allocator@D@2@@2@I@Z ; std::allocator<std::basic_string<char,std::char_traits<char>,std::allocator<char> > >::deallocate
PUBLIC	?_Myproxy@?$_Vector_alloc@U?$_Vec_base_types@V?$basic_string@DU?$char_traits@D@std@@V?$allocator@D@2@@std@@V?$allocator@V?$basic_string@DU?$char_traits@D@std@@V?$allocator@D@2@@std@@@2@@std@@@std@@QAEAAPAU_Container_proxy@2@XZ ; std::_Vector_alloc<std::_Vec_base_types<std::basic_string<char,std::char_traits<char>,std::allocator<char> >,std::allocator<std::basic_string<char,std::char_traits<char>,std::allocator<char> > > > >::_Myproxy
PUBLIC	?_Get_second@?$_Compressed_pair@U?$_Wrap_alloc@V?$allocator@V?$basic_string@DU?$char_traits@D@std@@V?$allocator@D@2@@std@@@std@@@std@@V?$_Vector_val@U?$_Simple_types@V?$basic_string@DU?$char_traits@D@std@@V?$allocator@D@2@@std@@@std@@@2@$00@std@@QBEABV?$_Vector_val@U?$_Simple_types@V?$basic_string@DU?$char_traits@D@std@@V?$allocator@D@2@@std@@@std@@@2@XZ ; std::_Compressed_pair<std::_Wrap_alloc<std::allocator<std::basic_string<char,std::char_traits<char>,std::allocator<char> > > >,std::_Vector_val<std::_Simple_types<std::basic_string<char,std::char_traits<char>,std::allocator<char> > > >,1>::_Get_second
PUBLIC	?deallocate@?$allocator@PAVEntityComponent@@@std@@QAEXPAPAVEntityComponent@@I@Z ; std::allocator<EntityComponent *>::deallocate
PUBLIC	?capacity@?$vector@PAVEntityComponent@@V?$allocator@PAVEntityComponent@@@std@@@std@@QBEIXZ ; std::vector<EntityComponent *,std::allocator<EntityComponent *> >::capacity
PUBLIC	?deallocate@?$allocator@PAVEntity@@@std@@QAEXPAPAVEntity@@I@Z ; std::allocator<Entity *>::deallocate
PUBLIC	?capacity@?$vector@PAVEntity@@V?$allocator@PAVEntity@@@std@@@std@@QBEIXZ ; std::vector<Entity *,std::allocator<Entity *> >::capacity
PUBLIC	?_Myproxy@?$_Vector_alloc@U?$_Vec_base_types@PAVEntity@@V?$allocator@PAVEntity@@@std@@@std@@@std@@QAEAAPAU_Container_proxy@2@XZ ; std::_Vector_alloc<std::_Vec_base_types<Entity *,std::allocator<Entity *> > >::_Myproxy
PUBLIC	?_Getal@?$_Vector_alloc@U?$_Vec_base_types@PAVEntity@@V?$allocator@PAVEntity@@@std@@@std@@@std@@QBEABU?$_Wrap_alloc@V?$allocator@PAVEntity@@@std@@@2@XZ ; std::_Vector_alloc<std::_Vec_base_types<Entity *,std::allocator<Entity *> > >::_Getal
PUBLIC	?_Myend@?$_Vector_alloc@U?$_Vec_base_types@PAVEntity@@V?$allocator@PAVEntity@@@std@@@std@@@std@@QBEABQAPAVEntity@@XZ ; std::_Vector_alloc<std::_Vec_base_types<Entity *,std::allocator<Entity *> > >::_Myend
PUBLIC	?allocate@?$_Wrap_alloc@V?$allocator@PAVEntity@@@std@@@std@@QAEPAPAVEntity@@I@Z ; std::_Wrap_alloc<std::allocator<Entity *> >::allocate
PUBLIC	?max_size@?$_Wrap_alloc@V?$allocator@PAVEntity@@@std@@@std@@QBEIU_Nil@2@@Z ; std::_Wrap_alloc<std::allocator<Entity *> >::max_size
PUBLIC	?_Get_second@?$_Compressed_pair@U?$_Wrap_alloc@V?$allocator@PAVEntity@@@std@@@std@@V?$_Vector_val@U?$_Simple_types@PAVEntity@@@std@@@2@$00@std@@QBEABV?$_Vector_val@U?$_Simple_types@PAVEntity@@@std@@@2@XZ ; std::_Compressed_pair<std::_Wrap_alloc<std::allocator<Entity *> >,std::_Vector_val<std::_Simple_types<Entity *> >,1>::_Get_second
PUBLIC	?_Myproxy@?$_Vector_alloc@U?$_Vec_base_types@PAVEntityComponent@@V?$allocator@PAVEntityComponent@@@std@@@std@@@std@@QAEAAPAU_Container_proxy@2@XZ ; std::_Vector_alloc<std::_Vec_base_types<EntityComponent *,std::allocator<EntityComponent *> > >::_Myproxy
PUBLIC	?_Getal@?$_Vector_alloc@U?$_Vec_base_types@PAVEntityComponent@@V?$allocator@PAVEntityComponent@@@std@@@std@@@std@@QBEABU?$_Wrap_alloc@V?$allocator@PAVEntityComponent@@@std@@@2@XZ ; std::_Vector_alloc<std::_Vec_base_types<EntityComponent *,std::allocator<EntityComponent *> > >::_Getal
PUBLIC	?_Myend@?$_Vector_alloc@U?$_Vec_base_types@PAVEntityComponent@@V?$allocator@PAVEntityComponent@@@std@@@std@@@std@@QBEABQAPAVEntityComponent@@XZ ; std::_Vector_alloc<std::_Vec_base_types<EntityComponent *,std::allocator<EntityComponent *> > >::_Myend
PUBLIC	?allocate@?$_Wrap_alloc@V?$allocator@PAVEntityComponent@@@std@@@std@@QAEPAPAVEntityComponent@@I@Z ; std::_Wrap_alloc<std::allocator<EntityComponent *> >::allocate
PUBLIC	?max_size@?$_Wrap_alloc@V?$allocator@PAVEntityComponent@@@std@@@std@@QBEIU_Nil@2@@Z ; std::_Wrap_alloc<std::allocator<EntityComponent *> >::max_size
PUBLIC	?_Get_second@?$_Compressed_pair@U?$_Wrap_alloc@V?$allocator@PAVEntityComponent@@@std@@@std@@V?$_Vector_val@U?$_Simple_types@PAVEntityComponent@@@std@@@2@$00@std@@QBEABV?$_Vector_val@U?$_Simple_types@PAVEntityComponent@@@std@@@2@XZ ; std::_Compressed_pair<std::_Wrap_alloc<std::allocator<EntityComponent *> >,std::_Vector_val<std::_Simple_types<EntityComponent *> >,1>::_Get_second
PUBLIC	?deallocate@?$allocator@U?$pair@PAVRigidBody@@H@std@@@std@@QAEXPAU?$pair@PAVRigidBody@@H@2@I@Z ; std::allocator<std::pair<RigidBody *,int> >::deallocate
PUBLIC	?_Myproxy@?$_Vector_alloc@U?$_Vec_base_types@U?$pair@PAVRigidBody@@H@std@@V?$allocator@U?$pair@PAVRigidBody@@H@std@@@2@@std@@@std@@QAEAAPAU_Container_proxy@2@XZ ; std::_Vector_alloc<std::_Vec_base_types<std::pair<RigidBody *,int>,std::allocator<std::pair<RigidBody *,int> > > >::_Myproxy
PUBLIC	?_Local@?$_Func_class@XPAVRigidBody@@@std@@ABE_NXZ ; std::_Func_class<void,RigidBody *>::_Local
PUBLIC	?allocate@?$_Wrap_alloc@V?$allocator@U_Container_proxy@std@@@std@@@std@@QAEPAU_Container_proxy@2@I@Z ; std::_Wrap_alloc<std::allocator<std::_Container_proxy> >::allocate
PUBLIC	?deallocate@?$_Wrap_alloc@V?$allocator@U_Container_proxy@std@@@std@@@std@@QAEXPAU_Container_proxy@2@I@Z ; std::_Wrap_alloc<std::allocator<std::_Container_proxy> >::deallocate
PUBLIC	??0?$_Iterator012@Urandom_access_iterator_tag@std@@PAVEntity@@HPBQAV3@ABQAV3@U_Iterator_base12@2@@std@@QAE@XZ ; std::_Iterator012<std::random_access_iterator_tag,Entity *,int,Entity * const *,Entity * const &,std::_Iterator_base12>::_Iterator012<std::random_access_iterator_tag,Entity *,int,Entity * const *,Entity * const &,std::_Iterator_base12>
PUBLIC	??0?$_Iterator012@Urandom_access_iterator_tag@std@@PAVEntityComponent@@HPBQAV3@ABQAV3@U_Iterator_base12@2@@std@@QAE@XZ ; std::_Iterator012<std::random_access_iterator_tag,EntityComponent *,int,EntityComponent * const *,EntityComponent * const &,std::_Iterator_base12>::_Iterator012<std::random_access_iterator_tag,EntityComponent *,int,EntityComponent * const *,EntityComponent * const &,std::_Iterator_base12>
PUBLIC	??0?$_Iterator012@Urandom_access_iterator_tag@std@@U?$pair@PAVRigidBody@@H@2@HPBU32@ABU32@U_Iterator_base12@2@@std@@QAE@XZ ; std::_Iterator012<std::random_access_iterator_tag,std::pair<RigidBody *,int>,int,std::pair<RigidBody *,int> const *,std::pair<RigidBody *,int> const &,std::_Iterator_base12>::_Iterator012<std::random_access_iterator_tag,std::pair<RigidBody *,int>,int,std::pair<RigidBody *,int> const *,std::pair<RigidBody *,int> const &,std::_Iterator_base12>
PUBLIC	?erase@?$basic_string@DU?$char_traits@D@std@@V?$allocator@D@2@@std@@QAEAAV12@I@Z ; std::basic_string<char,std::char_traits<char>,std::allocator<char> >::erase
PUBLIC	?erase@?$basic_string@DU?$char_traits@D@std@@V?$allocator@D@2@@std@@QAEAAV12@II@Z ; std::basic_string<char,std::char_traits<char>,std::allocator<char> >::erase
PUBLIC	?_Eos@?$basic_string@DU?$char_traits@D@std@@V?$allocator@D@2@@std@@QAEXI@Z ; std::basic_string<char,std::char_traits<char>,std::allocator<char> >::_Eos
PUBLIC	?_Grow@?$basic_string@DU?$char_traits@D@std@@V?$allocator@D@2@@std@@QAE_NI_N@Z ; std::basic_string<char,std::char_traits<char>,std::allocator<char> >::_Grow
PUBLIC	?_Inside@?$basic_string@DU?$char_traits@D@std@@V?$allocator@D@2@@std@@QAE_NPBD@Z ; std::basic_string<char,std::char_traits<char>,std::allocator<char> >::_Inside
PUBLIC	?_Xlen@?$basic_string@DU?$char_traits@D@std@@V?$allocator@D@2@@std@@QBEXXZ ; std::basic_string<char,std::char_traits<char>,std::allocator<char> >::_Xlen
PUBLIC	?_Alloc_proxy@?$_String_alloc@U?$_String_base_types@DV?$allocator@D@std@@@std@@@std@@QAEXXZ ; std::_String_alloc<std::_String_base_types<char,std::allocator<char> > >::_Alloc_proxy
PUBLIC	?_Free_proxy@?$_String_alloc@U?$_String_base_types@DV?$allocator@D@std@@@std@@@std@@QAEXXZ ; std::_String_alloc<std::_String_base_types<char,std::allocator<char> > >::_Free_proxy
PUBLIC	?_Get_data@?$_String_alloc@U?$_String_base_types@DV?$allocator@D@std@@@std@@@std@@QAEAAV?$_String_val@U?$_Simple_types@D@std@@@2@XZ ; std::_String_alloc<std::_String_base_types<char,std::allocator<char> > >::_Get_data
PUBLIC	?_Get_data@?$_String_alloc@U?$_String_base_types@DV?$allocator@D@std@@@std@@@std@@QBEABV?$_String_val@U?$_Simple_types@D@std@@@2@XZ ; std::_String_alloc<std::_String_base_types<char,std::allocator<char> > >::_Get_data
PUBLIC	?_Bx@?$_String_alloc@U?$_String_base_types@DV?$allocator@D@std@@@std@@@std@@QAEAAT_Bxty@?$_String_val@U?$_Simple_types@D@std@@@2@XZ ; std::_String_alloc<std::_String_base_types<char,std::allocator<char> > >::_Bx
PUBLIC	?_Myres@?$_String_alloc@U?$_String_base_types@DV?$allocator@D@std@@@std@@@std@@QAEAAIXZ ; std::_String_alloc<std::_String_base_types<char,std::allocator<char> > >::_Myres
PUBLIC	??0?$_Wrap_alloc@V?$allocator@D@std@@@std@@QAE@ABV?$allocator@D@1@@Z ; std::_Wrap_alloc<std::allocator<char> >::_Wrap_alloc<std::allocator<char> >
PUBLIC	?deallocate@?$_Wrap_alloc@V?$allocator@D@std@@@std@@QAEXPADI@Z ; std::_Wrap_alloc<std::allocator<char> >::deallocate
PUBLIC	?_Myptr@?$_String_val@U?$_Simple_types@D@std@@@std@@QAEPADXZ ; std::_String_val<std::_Simple_types<char> >::_Myptr
PUBLIC	?_Myptr@?$_String_val@U?$_Simple_types@D@std@@@std@@QBEPBDXZ ; std::_String_val<std::_Simple_types<char> >::_Myptr
PUBLIC	?_Get_first@?$_Compressed_pair@U?$_Wrap_alloc@V?$allocator@D@std@@@std@@V?$_String_val@U?$_Simple_types@D@std@@@2@$00@std@@QAEAAU?$_Wrap_alloc@V?$allocator@D@std@@@2@XZ ; std::_Compressed_pair<std::_Wrap_alloc<std::allocator<char> >,std::_String_val<std::_Simple_types<char> >,1>::_Get_first
PUBLIC	?_Get_first@?$_Compressed_pair@U?$_Wrap_alloc@V?$allocator@D@std@@@std@@V?$_String_val@U?$_Simple_types@D@std@@@2@$00@std@@QBEABU?$_Wrap_alloc@V?$allocator@D@std@@@2@XZ ; std::_Compressed_pair<std::_Wrap_alloc<std::allocator<char> >,std::_String_val<std::_Simple_types<char> >,1>::_Get_first
PUBLIC	?_Destroy@?$vector@V?$basic_string@DU?$char_traits@D@std@@V?$allocator@D@2@@std@@V?$allocator@V?$basic_string@DU?$char_traits@D@std@@V?$allocator@D@2@@std@@@2@@std@@IAEXPAV?$basic_string@DU?$char_traits@D@std@@V?$allocator@D@2@@2@0@Z ; std::vector<std::basic_string<char,std::char_traits<char>,std::allocator<char> >,std::allocator<std::basic_string<char,std::char_traits<char>,std::allocator<char> > > >::_Destroy
PUBLIC	?_Free_proxy@?$_Vector_alloc@U?$_Vec_base_types@V?$basic_string@DU?$char_traits@D@std@@V?$allocator@D@2@@std@@V?$allocator@V?$basic_string@DU?$char_traits@D@std@@V?$allocator@D@2@@std@@@2@@std@@@std@@QAEXXZ ; std::_Vector_alloc<std::_Vec_base_types<std::basic_string<char,std::char_traits<char>,std::allocator<char> >,std::allocator<std::basic_string<char,std::char_traits<char>,std::allocator<char> > > > >::_Free_proxy
PUBLIC	?_Orphan_all@?$_Vector_alloc@U?$_Vec_base_types@V?$basic_string@DU?$char_traits@D@std@@V?$allocator@D@2@@std@@V?$allocator@V?$basic_string@DU?$char_traits@D@std@@V?$allocator@D@2@@std@@@2@@std@@@std@@QAEXXZ ; std::_Vector_alloc<std::_Vec_base_types<std::basic_string<char,std::char_traits<char>,std::allocator<char> >,std::allocator<std::basic_string<char,std::char_traits<char>,std::allocator<char> > > > >::_Orphan_all
PUBLIC	?_Get_data@?$_Vector_alloc@U?$_Vec_base_types@V?$basic_string@DU?$char_traits@D@std@@V?$allocator@D@2@@std@@V?$allocator@V?$basic_string@DU?$char_traits@D@std@@V?$allocator@D@2@@std@@@2@@std@@@std@@QBEABV?$_Vector_val@U?$_Simple_types@V?$basic_string@DU?$char_traits@D@std@@V?$allocator@D@2@@std@@@std@@@2@XZ ; std::_Vector_alloc<std::_Vec_base_types<std::basic_string<char,std::char_traits<char>,std::allocator<char> >,std::allocator<std::basic_string<char,std::char_traits<char>,std::allocator<char> > > > >::_Get_data
PUBLIC	?deallocate@?$_Wrap_alloc@V?$allocator@V?$basic_string@DU?$char_traits@D@std@@V?$allocator@D@2@@std@@@std@@@std@@QAEXPAV?$basic_string@DU?$char_traits@D@std@@V?$allocator@D@2@@2@I@Z ; std::_Wrap_alloc<std::allocator<std::basic_string<char,std::char_traits<char>,std::allocator<char> > > >::deallocate
PUBLIC	?_Get_first@?$_Compressed_pair@U?$_Wrap_alloc@V?$allocator@V?$basic_string@DU?$char_traits@D@std@@V?$allocator@D@2@@std@@@std@@@std@@V?$_Vector_val@U?$_Simple_types@V?$basic_string@DU?$char_traits@D@std@@V?$allocator@D@2@@std@@@std@@@2@$00@std@@QAEAAU?$_Wrap_alloc@V?$allocator@V?$basic_string@DU?$char_traits@D@std@@V?$allocator@D@2@@std@@@std@@@2@XZ ; std::_Compressed_pair<std::_Wrap_alloc<std::allocator<std::basic_string<char,std::char_traits<char>,std::allocator<char> > > >,std::_Vector_val<std::_Simple_types<std::basic_string<char,std::char_traits<char>,std::allocator<char> > > >,1>::_Get_first
PUBLIC	?_Get_second@?$_Compressed_pair@U?$_Wrap_alloc@V?$allocator@V?$basic_string@DU?$char_traits@D@std@@V?$allocator@D@2@@std@@@std@@@std@@V?$_Vector_val@U?$_Simple_types@V?$basic_string@DU?$char_traits@D@std@@V?$allocator@D@2@@std@@@std@@@2@$00@std@@QAEAAV?$_Vector_val@U?$_Simple_types@V?$basic_string@DU?$char_traits@D@std@@V?$allocator@D@2@@std@@@std@@@2@XZ ; std::_Compressed_pair<std::_Wrap_alloc<std::allocator<std::basic_string<char,std::char_traits<char>,std::allocator<char> > > >,std::_Vector_val<std::_Simple_types<std::basic_string<char,std::char_traits<char>,std::allocator<char> > > >,1>::_Get_second
PUBLIC	?_Unused_capacity@?$vector@PAVEntityComponent@@V?$allocator@PAVEntityComponent@@@std@@@std@@QBEIXZ ; std::vector<EntityComponent *,std::allocator<EntityComponent *> >::_Unused_capacity
PUBLIC	?max_size@?$vector@PAVEntityComponent@@V?$allocator@PAVEntityComponent@@@std@@@std@@QBEIXZ ; std::vector<EntityComponent *,std::allocator<EntityComponent *> >::max_size
PUBLIC	?_Destroy@?$vector@PAVEntityComponent@@V?$allocator@PAVEntityComponent@@@std@@@std@@IAEXPAPAVEntityComponent@@0@Z ; std::vector<EntityComponent *,std::allocator<EntityComponent *> >::_Destroy
PUBLIC	?_Grow_to@?$vector@PAVEntityComponent@@V?$allocator@PAVEntityComponent@@@std@@@std@@IBEII@Z ; std::vector<EntityComponent *,std::allocator<EntityComponent *> >::_Grow_to
PUBLIC	?_Reallocate@?$vector@PAVEntityComponent@@V?$allocator@PAVEntityComponent@@@std@@@std@@IAEXI@Z ; std::vector<EntityComponent *,std::allocator<EntityComponent *> >::_Reallocate
PUBLIC	?_Xlen@?$vector@PAVEntityComponent@@V?$allocator@PAVEntityComponent@@@std@@@std@@IBEXXZ ; std::vector<EntityComponent *,std::allocator<EntityComponent *> >::_Xlen
PUBLIC	?_Unused_capacity@?$vector@PAVEntity@@V?$allocator@PAVEntity@@@std@@@std@@QBEIXZ ; std::vector<Entity *,std::allocator<Entity *> >::_Unused_capacity
PUBLIC	?max_size@?$vector@PAVEntity@@V?$allocator@PAVEntity@@@std@@@std@@QBEIXZ ; std::vector<Entity *,std::allocator<Entity *> >::max_size
PUBLIC	?_Destroy@?$vector@PAVEntity@@V?$allocator@PAVEntity@@@std@@@std@@IAEXPAPAVEntity@@0@Z ; std::vector<Entity *,std::allocator<Entity *> >::_Destroy
PUBLIC	?_Grow_to@?$vector@PAVEntity@@V?$allocator@PAVEntity@@@std@@@std@@IBEII@Z ; std::vector<Entity *,std::allocator<Entity *> >::_Grow_to
PUBLIC	?_Reallocate@?$vector@PAVEntity@@V?$allocator@PAVEntity@@@std@@@std@@IAEXI@Z ; std::vector<Entity *,std::allocator<Entity *> >::_Reallocate
PUBLIC	?_Xlen@?$vector@PAVEntity@@V?$allocator@PAVEntity@@@std@@@std@@IBEXXZ ; std::vector<Entity *,std::allocator<Entity *> >::_Xlen
PUBLIC	?_Alloc_proxy@?$_Vector_alloc@U?$_Vec_base_types@PAVEntity@@V?$allocator@PAVEntity@@@std@@@std@@@std@@QAEXXZ ; std::_Vector_alloc<std::_Vec_base_types<Entity *,std::allocator<Entity *> > >::_Alloc_proxy
PUBLIC	?_Free_proxy@?$_Vector_alloc@U?$_Vec_base_types@PAVEntity@@V?$allocator@PAVEntity@@@std@@@std@@@std@@QAEXXZ ; std::_Vector_alloc<std::_Vec_base_types<Entity *,std::allocator<Entity *> > >::_Free_proxy
PUBLIC	?_Getpfirst@?$_Vector_alloc@U?$_Vec_base_types@PAVEntity@@V?$allocator@PAVEntity@@@std@@@std@@@std@@QBEPAPAU_Iterator_base12@2@XZ ; std::_Vector_alloc<std::_Vec_base_types<Entity *,std::allocator<Entity *> > >::_Getpfirst
PUBLIC	?_Orphan_all@?$_Vector_alloc@U?$_Vec_base_types@PAVEntity@@V?$allocator@PAVEntity@@@std@@@std@@@std@@QAEXXZ ; std::_Vector_alloc<std::_Vec_base_types<Entity *,std::allocator<Entity *> > >::_Orphan_all
PUBLIC	?_Swap_all@?$_Vector_alloc@U?$_Vec_base_types@PAVEntity@@V?$allocator@PAVEntity@@@std@@@std@@@std@@QAEXAAV12@@Z ; std::_Vector_alloc<std::_Vec_base_types<Entity *,std::allocator<Entity *> > >::_Swap_all
PUBLIC	?_Get_data@?$_Vector_alloc@U?$_Vec_base_types@PAVEntity@@V?$allocator@PAVEntity@@@std@@@std@@@std@@QBEABV?$_Vector_val@U?$_Simple_types@PAVEntity@@@std@@@2@XZ ; std::_Vector_alloc<std::_Vec_base_types<Entity *,std::allocator<Entity *> > >::_Get_data
PUBLIC	?deallocate@?$_Wrap_alloc@V?$allocator@PAVEntity@@@std@@@std@@QAEXPAPAVEntity@@I@Z ; std::_Wrap_alloc<std::allocator<Entity *> >::deallocate
PUBLIC	??0?$_Vector_const_iterator@V?$_Vector_val@U?$_Simple_types@PAVEntity@@@std@@@std@@@std@@QAE@PAPAVEntity@@PBU_Container_base12@1@@Z ; std::_Vector_const_iterator<std::_Vector_val<std::_Simple_types<Entity *> > >::_Vector_const_iterator<std::_Vector_val<std::_Simple_types<Entity *> > >
PUBLIC	?_Get_first@?$_Compressed_pair@U?$_Wrap_alloc@V?$allocator@PAVEntity@@@std@@@std@@V?$_Vector_val@U?$_Simple_types@PAVEntity@@@std@@@2@$00@std@@QAEAAU?$_Wrap_alloc@V?$allocator@PAVEntity@@@std@@@2@XZ ; std::_Compressed_pair<std::_Wrap_alloc<std::allocator<Entity *> >,std::_Vector_val<std::_Simple_types<Entity *> >,1>::_Get_first
PUBLIC	?_Get_second@?$_Compressed_pair@U?$_Wrap_alloc@V?$allocator@PAVEntity@@@std@@@std@@V?$_Vector_val@U?$_Simple_types@PAVEntity@@@std@@@2@$00@std@@QAEAAV?$_Vector_val@U?$_Simple_types@PAVEntity@@@std@@@2@XZ ; std::_Compressed_pair<std::_Wrap_alloc<std::allocator<Entity *> >,std::_Vector_val<std::_Simple_types<Entity *> >,1>::_Get_second
PUBLIC	?_Alloc_proxy@?$_Vector_alloc@U?$_Vec_base_types@PAVEntityComponent@@V?$allocator@PAVEntityComponent@@@std@@@std@@@std@@QAEXXZ ; std::_Vector_alloc<std::_Vec_base_types<EntityComponent *,std::allocator<EntityComponent *> > >::_Alloc_proxy
PUBLIC	?_Free_proxy@?$_Vector_alloc@U?$_Vec_base_types@PAVEntityComponent@@V?$allocator@PAVEntityComponent@@@std@@@std@@@std@@QAEXXZ ; std::_Vector_alloc<std::_Vec_base_types<EntityComponent *,std::allocator<EntityComponent *> > >::_Free_proxy
PUBLIC	?_Getpfirst@?$_Vector_alloc@U?$_Vec_base_types@PAVEntityComponent@@V?$allocator@PAVEntityComponent@@@std@@@std@@@std@@QBEPAPAU_Iterator_base12@2@XZ ; std::_Vector_alloc<std::_Vec_base_types<EntityComponent *,std::allocator<EntityComponent *> > >::_Getpfirst
PUBLIC	?_Orphan_all@?$_Vector_alloc@U?$_Vec_base_types@PAVEntityComponent@@V?$allocator@PAVEntityComponent@@@std@@@std@@@std@@QAEXXZ ; std::_Vector_alloc<std::_Vec_base_types<EntityComponent *,std::allocator<EntityComponent *> > >::_Orphan_all
PUBLIC	?_Swap_all@?$_Vector_alloc@U?$_Vec_base_types@PAVEntityComponent@@V?$allocator@PAVEntityComponent@@@std@@@std@@@std@@QAEXAAV12@@Z ; std::_Vector_alloc<std::_Vec_base_types<EntityComponent *,std::allocator<EntityComponent *> > >::_Swap_all
PUBLIC	?_Get_data@?$_Vector_alloc@U?$_Vec_base_types@PAVEntityComponent@@V?$allocator@PAVEntityComponent@@@std@@@std@@@std@@QBEABV?$_Vector_val@U?$_Simple_types@PAVEntityComponent@@@std@@@2@XZ ; std::_Vector_alloc<std::_Vec_base_types<EntityComponent *,std::allocator<EntityComponent *> > >::_Get_data
PUBLIC	?deallocate@?$_Wrap_alloc@V?$allocator@PAVEntityComponent@@@std@@@std@@QAEXPAPAVEntityComponent@@I@Z ; std::_Wrap_alloc<std::allocator<EntityComponent *> >::deallocate
PUBLIC	??0?$_Vector_const_iterator@V?$_Vector_val@U?$_Simple_types@PAVEntityComponent@@@std@@@std@@@std@@QAE@PAPAVEntityComponent@@PBU_Container_base12@1@@Z ; std::_Vector_const_iterator<std::_Vector_val<std::_Simple_types<EntityComponent *> > >::_Vector_const_iterator<std::_Vector_val<std::_Simple_types<EntityComponent *> > >
PUBLIC	?_Compat@?$_Vector_const_iterator@V?$_Vector_val@U?$_Simple_types@PAVEntityComponent@@@std@@@std@@@std@@QBEXABV12@@Z ; std::_Vector_const_iterator<std::_Vector_val<std::_Simple_types<EntityComponent *> > >::_Compat
PUBLIC	?_Get_first@?$_Compressed_pair@U?$_Wrap_alloc@V?$allocator@PAVEntityComponent@@@std@@@std@@V?$_Vector_val@U?$_Simple_types@PAVEntityComponent@@@std@@@2@$00@std@@QAEAAU?$_Wrap_alloc@V?$allocator@PAVEntityComponent@@@std@@@2@XZ ; std::_Compressed_pair<std::_Wrap_alloc<std::allocator<EntityComponent *> >,std::_Vector_val<std::_Simple_types<EntityComponent *> >,1>::_Get_first
PUBLIC	?_Get_second@?$_Compressed_pair@U?$_Wrap_alloc@V?$allocator@PAVEntityComponent@@@std@@@std@@V?$_Vector_val@U?$_Simple_types@PAVEntityComponent@@@std@@@2@$00@std@@QAEAAV?$_Vector_val@U?$_Simple_types@PAVEntityComponent@@@std@@@2@XZ ; std::_Compressed_pair<std::_Wrap_alloc<std::allocator<EntityComponent *> >,std::_Vector_val<std::_Simple_types<EntityComponent *> >,1>::_Get_second
PUBLIC	?_Destroy@?$vector@U?$pair@PAVRigidBody@@H@std@@V?$allocator@U?$pair@PAVRigidBody@@H@std@@@2@@std@@IAEXPAU?$pair@PAVRigidBody@@H@2@0@Z ; std::vector<std::pair<RigidBody *,int>,std::allocator<std::pair<RigidBody *,int> > >::_Destroy
PUBLIC	?_Alloc_proxy@?$_Vector_alloc@U?$_Vec_base_types@U?$pair@PAVRigidBody@@H@std@@V?$allocator@U?$pair@PAVRigidBody@@H@std@@@2@@std@@@std@@QAEXXZ ; std::_Vector_alloc<std::_Vec_base_types<std::pair<RigidBody *,int>,std::allocator<std::pair<RigidBody *,int> > > >::_Alloc_proxy
PUBLIC	?_Free_proxy@?$_Vector_alloc@U?$_Vec_base_types@U?$pair@PAVRigidBody@@H@std@@V?$allocator@U?$pair@PAVRigidBody@@H@std@@@2@@std@@@std@@QAEXXZ ; std::_Vector_alloc<std::_Vec_base_types<std::pair<RigidBody *,int>,std::allocator<std::pair<RigidBody *,int> > > >::_Free_proxy
PUBLIC	?_Orphan_all@?$_Vector_alloc@U?$_Vec_base_types@U?$pair@PAVRigidBody@@H@std@@V?$allocator@U?$pair@PAVRigidBody@@H@std@@@2@@std@@@std@@QAEXXZ ; std::_Vector_alloc<std::_Vec_base_types<std::pair<RigidBody *,int>,std::allocator<std::pair<RigidBody *,int> > > >::_Orphan_all
PUBLIC	?deallocate@?$_Wrap_alloc@V?$allocator@U?$pair@PAVRigidBody@@H@std@@@std@@@std@@QAEXPAU?$pair@PAVRigidBody@@H@2@I@Z ; std::_Wrap_alloc<std::allocator<std::pair<RigidBody *,int> > >::deallocate
PUBLIC	??0?$_Vector_const_iterator@V?$_Vector_val@U?$_Simple_types@U?$pair@PAVRigidBody@@H@std@@@std@@@std@@@std@@QAE@PAU?$pair@PAVRigidBody@@H@1@PBU_Container_base12@1@@Z ; std::_Vector_const_iterator<std::_Vector_val<std::_Simple_types<std::pair<RigidBody *,int> > > >::_Vector_const_iterator<std::_Vector_val<std::_Simple_types<std::pair<RigidBody *,int> > > >
PUBLIC	?_Compat@?$_Vector_const_iterator@V?$_Vector_val@U?$_Simple_types@U?$pair@PAVRigidBody@@H@std@@@std@@@std@@@std@@QBEXABV12@@Z ; std::_Vector_const_iterator<std::_Vector_val<std::_Simple_types<std::pair<RigidBody *,int> > > >::_Compat
PUBLIC	?_Get_first@?$_Compressed_pair@U?$_Wrap_alloc@V?$allocator@U?$pair@PAVRigidBody@@H@std@@@std@@@std@@V?$_Vector_val@U?$_Simple_types@U?$pair@PAVRigidBody@@H@std@@@std@@@2@$00@std@@QAEAAU?$_Wrap_alloc@V?$allocator@U?$pair@PAVRigidBody@@H@std@@@std@@@2@XZ ; std::_Compressed_pair<std::_Wrap_alloc<std::allocator<std::pair<RigidBody *,int> > >,std::_Vector_val<std::_Simple_types<std::pair<RigidBody *,int> > >,1>::_Get_first
PUBLIC	?_Get_second@?$_Compressed_pair@U?$_Wrap_alloc@V?$allocator@U?$pair@PAVRigidBody@@H@std@@@std@@@std@@V?$_Vector_val@U?$_Simple_types@U?$pair@PAVRigidBody@@H@std@@@std@@@2@$00@std@@QAEAAV?$_Vector_val@U?$_Simple_types@U?$pair@PAVRigidBody@@H@std@@@std@@@2@XZ ; std::_Compressed_pair<std::_Wrap_alloc<std::allocator<std::pair<RigidBody *,int> > >,std::_Vector_val<std::_Simple_types<std::pair<RigidBody *,int> > >,1>::_Get_second
PUBLIC	?_Tidy@?$_Func_class@XPAVRigidBody@@@std@@IAEXXZ ; std::_Func_class<void,RigidBody *>::_Tidy
PUBLIC	?_Set@?$_Func_class@XPAVRigidBody@@@std@@AAEXPAV?$_Func_base@XPAVRigidBody@@@2@@Z ; std::_Func_class<void,RigidBody *>::_Set
PUBLIC	??1?$_Vector_val@U?$_Simple_types@V?$basic_string@DU?$char_traits@D@std@@V?$allocator@D@2@@std@@@std@@@std@@QAE@XZ ; std::_Vector_val<std::_Simple_types<std::basic_string<char,std::char_traits<char>,std::allocator<char> > > >::~_Vector_val<std::_Simple_types<std::basic_string<char,std::char_traits<char>,std::allocator<char> > > >
PUBLIC	??1?$_Vector_val@U?$_Simple_types@PAVEntity@@@std@@@std@@QAE@XZ ; std::_Vector_val<std::_Simple_types<Entity *> >::~_Vector_val<std::_Simple_types<Entity *> >
PUBLIC	??1?$_Vector_val@U?$_Simple_types@PAVEntityComponent@@@std@@@std@@QAE@XZ ; std::_Vector_val<std::_Simple_types<EntityComponent *> >::~_Vector_val<std::_Simple_types<EntityComponent *> >
PUBLIC	??1?$_Vector_val@U?$_Simple_types@U?$pair@PAVRigidBody@@H@std@@@std@@@std@@QAE@XZ ; std::_Vector_val<std::_Simple_types<std::pair<RigidBody *,int> > >::~_Vector_val<std::_Simple_types<std::pair<RigidBody *,int> > >
PUBLIC	??1?$_Compressed_pair@U?$_Wrap_alloc@V?$allocator@V?$basic_string@DU?$char_traits@D@std@@V?$allocator@D@2@@std@@@std@@@std@@V?$_Vector_val@U?$_Simple_types@V?$basic_string@DU?$char_traits@D@std@@V?$allocator@D@2@@std@@@std@@@2@$00@std@@QAE@XZ ; std::_Compressed_pair<std::_Wrap_alloc<std::allocator<std::basic_string<char,std::char_traits<char>,std::allocator<char> > > >,std::_Vector_val<std::_Simple_types<std::basic_string<char,std::char_traits<char>,std::allocator<char> > > >,1>::~_Compressed_pair<std::_Wrap_alloc<std::allocator<std::basic_string<char,std::char_traits<char>,std::allocator<char> > > >,std::_Vector_val<std::_Simple_types<std::basic_string<char,std::char_traits<char>,std::allocator<char> > > >,1>
PUBLIC	??1?$_Compressed_pair@U?$_Wrap_alloc@V?$allocator@PAVEntity@@@std@@@std@@V?$_Vector_val@U?$_Simple_types@PAVEntity@@@std@@@2@$00@std@@QAE@XZ ; std::_Compressed_pair<std::_Wrap_alloc<std::allocator<Entity *> >,std::_Vector_val<std::_Simple_types<Entity *> >,1>::~_Compressed_pair<std::_Wrap_alloc<std::allocator<Entity *> >,std::_Vector_val<std::_Simple_types<Entity *> >,1>
PUBLIC	??1?$_Compressed_pair@U?$_Wrap_alloc@V?$allocator@PAVEntityComponent@@@std@@@std@@V?$_Vector_val@U?$_Simple_types@PAVEntityComponent@@@std@@@2@$00@std@@QAE@XZ ; std::_Compressed_pair<std::_Wrap_alloc<std::allocator<EntityComponent *> >,std::_Vector_val<std::_Simple_types<EntityComponent *> >,1>::~_Compressed_pair<std::_Wrap_alloc<std::allocator<EntityComponent *> >,std::_Vector_val<std::_Simple_types<EntityComponent *> >,1>
PUBLIC	??1?$_Compressed_pair@U?$_Wrap_alloc@V?$allocator@U?$pair@PAVRigidBody@@H@std@@@std@@@std@@V?$_Vector_val@U?$_Simple_types@U?$pair@PAVRigidBody@@H@std@@@std@@@2@$00@std@@QAE@XZ ; std::_Compressed_pair<std::_Wrap_alloc<std::allocator<std::pair<RigidBody *,int> > >,std::_Vector_val<std::_Simple_types<std::pair<RigidBody *,int> > >,1>::~_Compressed_pair<std::_Wrap_alloc<std::allocator<std::pair<RigidBody *,int> > >,std::_Vector_val<std::_Simple_types<std::pair<RigidBody *,int> > >,1>
PUBLIC	??0?$allocator@D@std@@QAE@XZ			; std::allocator<char>::allocator<char>
PUBLIC	??0?$allocator@D@std@@QAE@ABV01@@Z		; std::allocator<char>::allocator<char>
PUBLIC	?deallocate@?$allocator@D@std@@QAEXPADI@Z	; std::allocator<char>::deallocate
PUBLIC	?allocate@?$allocator@D@std@@QAEPADI@Z		; std::allocator<char>::allocate
PUBLIC	?assign@?$basic_string@DU?$char_traits@D@std@@V?$allocator@D@2@@std@@QAEAAV12@ABV12@II@Z ; std::basic_string<char,std::char_traits<char>,std::allocator<char> >::assign
PUBLIC	?assign@?$basic_string@DU?$char_traits@D@std@@V?$allocator@D@2@@std@@QAEAAV12@PBDI@Z ; std::basic_string<char,std::char_traits<char>,std::allocator<char> >::assign
PUBLIC	?assign@?$basic_string@DU?$char_traits@D@std@@V?$allocator@D@2@@std@@QAEAAV12@PBD@Z ; std::basic_string<char,std::char_traits<char>,std::allocator<char> >::assign
PUBLIC	?compare@?$basic_string@DU?$char_traits@D@std@@V?$allocator@D@2@@std@@QBEHIIPBDI@Z ; std::basic_string<char,std::char_traits<char>,std::allocator<char> >::compare
PUBLIC	?_Tidy@?$basic_string@DU?$char_traits@D@std@@V?$allocator@D@2@@std@@QAEX_NI@Z ; std::basic_string<char,std::char_traits<char>,std::allocator<char> >::_Tidy
PUBLIC	?_Xran@?$basic_string@DU?$char_traits@D@std@@V?$allocator@D@2@@std@@QBEXXZ ; std::basic_string<char,std::char_traits<char>,std::allocator<char> >::_Xran
PUBLIC	?_Myptr@?$_String_alloc@U?$_String_base_types@DV?$allocator@D@std@@@std@@@std@@QAEPADXZ ; std::_String_alloc<std::_String_base_types<char,std::allocator<char> > >::_Myptr
PUBLIC	?_Myptr@?$_String_alloc@U?$_String_base_types@DV?$allocator@D@std@@@std@@@std@@QBEPBDXZ ; std::_String_alloc<std::_String_base_types<char,std::allocator<char> > >::_Myptr
PUBLIC	??0?$_String_alloc@U?$_String_base_types@DV?$allocator@D@std@@@std@@@std@@QAE@ABV?$allocator@D@1@@Z ; std::_String_alloc<std::_String_base_types<char,std::allocator<char> > >::_String_alloc<std::_String_base_types<char,std::allocator<char> > >
PUBLIC	??1?$_String_alloc@U?$_String_base_types@DV?$allocator@D@std@@@std@@@std@@QAE@XZ ; std::_String_alloc<std::_String_base_types<char,std::allocator<char> > >::~_String_alloc<std::_String_base_types<char,std::allocator<char> > >
PUBLIC	?_Getal@?$_String_alloc@U?$_String_base_types@DV?$allocator@D@std@@@std@@@std@@QAEAAU?$_Wrap_alloc@V?$allocator@D@std@@@2@XZ ; std::_String_alloc<std::_String_base_types<char,std::allocator<char> > >::_Getal
PUBLIC	?_Getal@?$_String_alloc@U?$_String_base_types@DV?$allocator@D@std@@@std@@@std@@QBEABU?$_Wrap_alloc@V?$allocator@D@std@@@2@XZ ; std::_String_alloc<std::_String_base_types<char,std::allocator<char> > >::_Getal
PUBLIC	?_Mysize@?$_String_alloc@U?$_String_base_types@DV?$allocator@D@std@@@std@@@std@@QAEAAIXZ ; std::_String_alloc<std::_String_base_types<char,std::allocator<char> > >::_Mysize
PUBLIC	?_Mysize@?$_String_alloc@U?$_String_base_types@DV?$allocator@D@std@@@std@@@std@@QBEABIXZ ; std::_String_alloc<std::_String_base_types<char,std::allocator<char> > >::_Mysize
PUBLIC	??0?$Vector3@M@@QAE@MMM@Z			; Vector3<float>::Vector3<float>
PUBLIC	??0?$Vector@M$02@@QAE@XZ			; Vector<float,3>::Vector<float,3>
PUBLIC	??0?$Vector@M$03@@QAE@XZ			; Vector<float,4>::Vector<float,4>
PUBLIC	??A?$Matrix@M$03@@QAEPAMH@Z			; Matrix<float,4>::operator[]
PUBLIC	?_Tidy@?$vector@V?$basic_string@DU?$char_traits@D@std@@V?$allocator@D@2@@std@@V?$allocator@V?$basic_string@DU?$char_traits@D@std@@V?$allocator@D@2@@std@@@2@@std@@IAEXXZ ; std::vector<std::basic_string<char,std::char_traits<char>,std::allocator<char> >,std::allocator<std::basic_string<char,std::char_traits<char>,std::allocator<char> > > >::_Tidy
PUBLIC	??1?$_Vector_alloc@U?$_Vec_base_types@V?$basic_string@DU?$char_traits@D@std@@V?$allocator@D@2@@std@@V?$allocator@V?$basic_string@DU?$char_traits@D@std@@V?$allocator@D@2@@std@@@2@@std@@@std@@QAE@XZ ; std::_Vector_alloc<std::_Vec_base_types<std::basic_string<char,std::char_traits<char>,std::allocator<char> >,std::allocator<std::basic_string<char,std::char_traits<char>,std::allocator<char> > > > >::~_Vector_alloc<std::_Vec_base_types<std::basic_string<char,std::char_traits<char>,std::allocator<char> >,std::allocator<std::basic_string<char,std::char_traits<char>,std::allocator<char> > > > >
PUBLIC	?_Getal@?$_Vector_alloc@U?$_Vec_base_types@V?$basic_string@DU?$char_traits@D@std@@V?$allocator@D@2@@std@@V?$allocator@V?$basic_string@DU?$char_traits@D@std@@V?$allocator@D@2@@std@@@2@@std@@@std@@QAEAAU?$_Wrap_alloc@V?$allocator@V?$basic_string@DU?$char_traits@D@std@@V?$allocator@D@2@@std@@@std@@@2@XZ ; std::_Vector_alloc<std::_Vec_base_types<std::basic_string<char,std::char_traits<char>,std::allocator<char> >,std::allocator<std::basic_string<char,std::char_traits<char>,std::allocator<char> > > > >::_Getal
PUBLIC	?_Get_data@?$_Vector_alloc@U?$_Vec_base_types@V?$basic_string@DU?$char_traits@D@std@@V?$allocator@D@2@@std@@V?$allocator@V?$basic_string@DU?$char_traits@D@std@@V?$allocator@D@2@@std@@@2@@std@@@std@@QAEAAV?$_Vector_val@U?$_Simple_types@V?$basic_string@DU?$char_traits@D@std@@V?$allocator@D@2@@std@@@std@@@2@XZ ; std::_Vector_alloc<std::_Vec_base_types<std::basic_string<char,std::char_traits<char>,std::allocator<char> >,std::allocator<std::basic_string<char,std::char_traits<char>,std::allocator<char> > > > >::_Get_data
PUBLIC	?_Myfirst@?$_Vector_alloc@U?$_Vec_base_types@V?$basic_string@DU?$char_traits@D@std@@V?$allocator@D@2@@std@@V?$allocator@V?$basic_string@DU?$char_traits@D@std@@V?$allocator@D@2@@std@@@2@@std@@@std@@QAEAAPAV?$basic_string@DU?$char_traits@D@std@@V?$allocator@D@2@@2@XZ ; std::_Vector_alloc<std::_Vec_base_types<std::basic_string<char,std::char_traits<char>,std::allocator<char> >,std::allocator<std::basic_string<char,std::char_traits<char>,std::allocator<char> > > > >::_Myfirst
PUBLIC	?_Myfirst@?$_Vector_alloc@U?$_Vec_base_types@V?$basic_string@DU?$char_traits@D@std@@V?$allocator@D@2@@std@@V?$allocator@V?$basic_string@DU?$char_traits@D@std@@V?$allocator@D@2@@std@@@2@@std@@@std@@QBEABQAV?$basic_string@DU?$char_traits@D@std@@V?$allocator@D@2@@2@XZ ; std::_Vector_alloc<std::_Vec_base_types<std::basic_string<char,std::char_traits<char>,std::allocator<char> >,std::allocator<std::basic_string<char,std::char_traits<char>,std::allocator<char> > > > >::_Myfirst
PUBLIC	?_Mylast@?$_Vector_alloc@U?$_Vec_base_types@V?$basic_string@DU?$char_traits@D@std@@V?$allocator@D@2@@std@@V?$allocator@V?$basic_string@DU?$char_traits@D@std@@V?$allocator@D@2@@std@@@2@@std@@@std@@QAEAAPAV?$basic_string@DU?$char_traits@D@std@@V?$allocator@D@2@@2@XZ ; std::_Vector_alloc<std::_Vec_base_types<std::basic_string<char,std::char_traits<char>,std::allocator<char> >,std::allocator<std::basic_string<char,std::char_traits<char>,std::allocator<char> > > > >::_Mylast
PUBLIC	?_Mylast@?$_Vector_alloc@U?$_Vec_base_types@V?$basic_string@DU?$char_traits@D@std@@V?$allocator@D@2@@std@@V?$allocator@V?$basic_string@DU?$char_traits@D@std@@V?$allocator@D@2@@std@@@2@@std@@@std@@QBEABQAV?$basic_string@DU?$char_traits@D@std@@V?$allocator@D@2@@2@XZ ; std::_Vector_alloc<std::_Vec_base_types<std::basic_string<char,std::char_traits<char>,std::allocator<char> >,std::allocator<std::basic_string<char,std::char_traits<char>,std::allocator<char> > > > >::_Mylast
PUBLIC	?_Myend@?$_Vector_alloc@U?$_Vec_base_types@V?$basic_string@DU?$char_traits@D@std@@V?$allocator@D@2@@std@@V?$allocator@V?$basic_string@DU?$char_traits@D@std@@V?$allocator@D@2@@std@@@2@@std@@@std@@QAEAAPAV?$basic_string@DU?$char_traits@D@std@@V?$allocator@D@2@@2@XZ ; std::_Vector_alloc<std::_Vec_base_types<std::basic_string<char,std::char_traits<char>,std::allocator<char> >,std::allocator<std::basic_string<char,std::char_traits<char>,std::allocator<char> > > > >::_Myend
PUBLIC	??0?$allocator@PAVEntityComponent@@@std@@QAE@XZ	; std::allocator<EntityComponent *>::allocator<EntityComponent *>
PUBLIC	?_Assign_rv@?$vector@PAVEntityComponent@@V?$allocator@PAVEntityComponent@@@std@@@std@@QAEX$$QAV12@U?$integral_constant@_N$00@2@@Z ; std::vector<EntityComponent *,std::allocator<EntityComponent *> >::_Assign_rv
PUBLIC	?_Inside@?$vector@PAVEntityComponent@@V?$allocator@PAVEntityComponent@@@std@@@std@@IBE_NPBQAVEntityComponent@@@Z ; std::vector<EntityComponent *,std::allocator<EntityComponent *> >::_Inside
PUBLIC	?_Reserve@?$vector@PAVEntityComponent@@V?$allocator@PAVEntityComponent@@@std@@@std@@IAEXI@Z ; std::vector<EntityComponent *,std::allocator<EntityComponent *> >::_Reserve
PUBLIC	?_Tidy@?$vector@PAVEntityComponent@@V?$allocator@PAVEntityComponent@@@std@@@std@@IAEXXZ ; std::vector<EntityComponent *,std::allocator<EntityComponent *> >::_Tidy
PUBLIC	?_Xran@?$vector@PAVEntityComponent@@V?$allocator@PAVEntityComponent@@@std@@@std@@IBEXXZ ; std::vector<EntityComponent *,std::allocator<EntityComponent *> >::_Xran
PUBLIC	?_Orphan_range@?$vector@PAVEntityComponent@@V?$allocator@PAVEntityComponent@@@std@@@std@@IBEXPAPAVEntityComponent@@0@Z ; std::vector<EntityComponent *,std::allocator<EntityComponent *> >::_Orphan_range
PUBLIC	??0?$allocator@PAVEntity@@@std@@QAE@XZ		; std::allocator<Entity *>::allocator<Entity *>
PUBLIC	?_Assign_rv@?$vector@PAVEntity@@V?$allocator@PAVEntity@@@std@@@std@@QAEX$$QAV12@U?$integral_constant@_N$00@2@@Z ; std::vector<Entity *,std::allocator<Entity *> >::_Assign_rv
PUBLIC	?_Inside@?$vector@PAVEntity@@V?$allocator@PAVEntity@@@std@@@std@@IBE_NPBQAVEntity@@@Z ; std::vector<Entity *,std::allocator<Entity *> >::_Inside
PUBLIC	?_Reserve@?$vector@PAVEntity@@V?$allocator@PAVEntity@@@std@@@std@@IAEXI@Z ; std::vector<Entity *,std::allocator<Entity *> >::_Reserve
PUBLIC	?_Tidy@?$vector@PAVEntity@@V?$allocator@PAVEntity@@@std@@@std@@IAEXXZ ; std::vector<Entity *,std::allocator<Entity *> >::_Tidy
PUBLIC	?_Orphan_range@?$vector@PAVEntity@@V?$allocator@PAVEntity@@@std@@@std@@IBEXPAPAVEntity@@0@Z ; std::vector<Entity *,std::allocator<Entity *> >::_Orphan_range
PUBLIC	??0?$_Vector_alloc@U?$_Vec_base_types@PAVEntity@@V?$allocator@PAVEntity@@@std@@@std@@@std@@QAE@ABV?$allocator@PAVEntity@@@1@@Z ; std::_Vector_alloc<std::_Vec_base_types<Entity *,std::allocator<Entity *> > >::_Vector_alloc<std::_Vec_base_types<Entity *,std::allocator<Entity *> > >
PUBLIC	??0?$_Vector_alloc@U?$_Vec_base_types@PAVEntity@@V?$allocator@PAVEntity@@@std@@@std@@@std@@QAE@$$QAV?$allocator@PAVEntity@@@1@@Z ; std::_Vector_alloc<std::_Vec_base_types<Entity *,std::allocator<Entity *> > >::_Vector_alloc<std::_Vec_base_types<Entity *,std::allocator<Entity *> > >
PUBLIC	??1?$_Vector_alloc@U?$_Vec_base_types@PAVEntity@@V?$allocator@PAVEntity@@@std@@@std@@@std@@QAE@XZ ; std::_Vector_alloc<std::_Vec_base_types<Entity *,std::allocator<Entity *> > >::~_Vector_alloc<std::_Vec_base_types<Entity *,std::allocator<Entity *> > >
PUBLIC	?_Getal@?$_Vector_alloc@U?$_Vec_base_types@PAVEntity@@V?$allocator@PAVEntity@@@std@@@std@@@std@@QAEAAU?$_Wrap_alloc@V?$allocator@PAVEntity@@@std@@@2@XZ ; std::_Vector_alloc<std::_Vec_base_types<Entity *,std::allocator<Entity *> > >::_Getal
PUBLIC	?_Get_data@?$_Vector_alloc@U?$_Vec_base_types@PAVEntity@@V?$allocator@PAVEntity@@@std@@@std@@@std@@QAEAAV?$_Vector_val@U?$_Simple_types@PAVEntity@@@std@@@2@XZ ; std::_Vector_alloc<std::_Vec_base_types<Entity *,std::allocator<Entity *> > >::_Get_data
PUBLIC	?_Myfirst@?$_Vector_alloc@U?$_Vec_base_types@PAVEntity@@V?$allocator@PAVEntity@@@std@@@std@@@std@@QAEAAPAPAVEntity@@XZ ; std::_Vector_alloc<std::_Vec_base_types<Entity *,std::allocator<Entity *> > >::_Myfirst
PUBLIC	?_Myfirst@?$_Vector_alloc@U?$_Vec_base_types@PAVEntity@@V?$allocator@PAVEntity@@@std@@@std@@@std@@QBEABQAPAVEntity@@XZ ; std::_Vector_alloc<std::_Vec_base_types<Entity *,std::allocator<Entity *> > >::_Myfirst
PUBLIC	?_Mylast@?$_Vector_alloc@U?$_Vec_base_types@PAVEntity@@V?$allocator@PAVEntity@@@std@@@std@@@std@@QAEAAPAPAVEntity@@XZ ; std::_Vector_alloc<std::_Vec_base_types<Entity *,std::allocator<Entity *> > >::_Mylast
PUBLIC	?_Mylast@?$_Vector_alloc@U?$_Vec_base_types@PAVEntity@@V?$allocator@PAVEntity@@@std@@@std@@@std@@QBEABQAPAVEntity@@XZ ; std::_Vector_alloc<std::_Vec_base_types<Entity *,std::allocator<Entity *> > >::_Mylast
PUBLIC	?_Myend@?$_Vector_alloc@U?$_Vec_base_types@PAVEntity@@V?$allocator@PAVEntity@@@std@@@std@@@std@@QAEAAPAPAVEntity@@XZ ; std::_Vector_alloc<std::_Vec_base_types<Entity *,std::allocator<Entity *> > >::_Myend
PUBLIC	??0?$_Vector_iterator@V?$_Vector_val@U?$_Simple_types@PAVEntity@@@std@@@std@@@std@@QAE@PAPAVEntity@@PBU_Container_base12@1@@Z ; std::_Vector_iterator<std::_Vector_val<std::_Simple_types<Entity *> > >::_Vector_iterator<std::_Vector_val<std::_Simple_types<Entity *> > >
PUBLIC	??0?$_Vector_alloc@U?$_Vec_base_types@PAVEntityComponent@@V?$allocator@PAVEntityComponent@@@std@@@std@@@std@@QAE@ABV?$allocator@PAVEntityComponent@@@1@@Z ; std::_Vector_alloc<std::_Vec_base_types<EntityComponent *,std::allocator<EntityComponent *> > >::_Vector_alloc<std::_Vec_base_types<EntityComponent *,std::allocator<EntityComponent *> > >
PUBLIC	??0?$_Vector_alloc@U?$_Vec_base_types@PAVEntityComponent@@V?$allocator@PAVEntityComponent@@@std@@@std@@@std@@QAE@$$QAV?$allocator@PAVEntityComponent@@@1@@Z ; std::_Vector_alloc<std::_Vec_base_types<EntityComponent *,std::allocator<EntityComponent *> > >::_Vector_alloc<std::_Vec_base_types<EntityComponent *,std::allocator<EntityComponent *> > >
PUBLIC	??1?$_Vector_alloc@U?$_Vec_base_types@PAVEntityComponent@@V?$allocator@PAVEntityComponent@@@std@@@std@@@std@@QAE@XZ ; std::_Vector_alloc<std::_Vec_base_types<EntityComponent *,std::allocator<EntityComponent *> > >::~_Vector_alloc<std::_Vec_base_types<EntityComponent *,std::allocator<EntityComponent *> > >
PUBLIC	?_Getal@?$_Vector_alloc@U?$_Vec_base_types@PAVEntityComponent@@V?$allocator@PAVEntityComponent@@@std@@@std@@@std@@QAEAAU?$_Wrap_alloc@V?$allocator@PAVEntityComponent@@@std@@@2@XZ ; std::_Vector_alloc<std::_Vec_base_types<EntityComponent *,std::allocator<EntityComponent *> > >::_Getal
PUBLIC	?_Get_data@?$_Vector_alloc@U?$_Vec_base_types@PAVEntityComponent@@V?$allocator@PAVEntityComponent@@@std@@@std@@@std@@QAEAAV?$_Vector_val@U?$_Simple_types@PAVEntityComponent@@@std@@@2@XZ ; std::_Vector_alloc<std::_Vec_base_types<EntityComponent *,std::allocator<EntityComponent *> > >::_Get_data
PUBLIC	?_Myfirst@?$_Vector_alloc@U?$_Vec_base_types@PAVEntityComponent@@V?$allocator@PAVEntityComponent@@@std@@@std@@@std@@QAEAAPAPAVEntityComponent@@XZ ; std::_Vector_alloc<std::_Vec_base_types<EntityComponent *,std::allocator<EntityComponent *> > >::_Myfirst
PUBLIC	?_Myfirst@?$_Vector_alloc@U?$_Vec_base_types@PAVEntityComponent@@V?$allocator@PAVEntityComponent@@@std@@@std@@@std@@QBEABQAPAVEntityComponent@@XZ ; std::_Vector_alloc<std::_Vec_base_types<EntityComponent *,std::allocator<EntityComponent *> > >::_Myfirst
PUBLIC	?_Mylast@?$_Vector_alloc@U?$_Vec_base_types@PAVEntityComponent@@V?$allocator@PAVEntityComponent@@@std@@@std@@@std@@QAEAAPAPAVEntityComponent@@XZ ; std::_Vector_alloc<std::_Vec_base_types<EntityComponent *,std::allocator<EntityComponent *> > >::_Mylast
PUBLIC	?_Mylast@?$_Vector_alloc@U?$_Vec_base_types@PAVEntityComponent@@V?$allocator@PAVEntityComponent@@@std@@@std@@@std@@QBEABQAPAVEntityComponent@@XZ ; std::_Vector_alloc<std::_Vec_base_types<EntityComponent *,std::allocator<EntityComponent *> > >::_Mylast
PUBLIC	?_Myend@?$_Vector_alloc@U?$_Vec_base_types@PAVEntityComponent@@V?$allocator@PAVEntityComponent@@@std@@@std@@@std@@QAEAAPAPAVEntityComponent@@XZ ; std::_Vector_alloc<std::_Vec_base_types<EntityComponent *,std::allocator<EntityComponent *> > >::_Myend
PUBLIC	??0?$_Vector_iterator@V?$_Vector_val@U?$_Simple_types@PAVEntityComponent@@@std@@@std@@@std@@QAE@PAPAVEntityComponent@@PBU_Container_base12@1@@Z ; std::_Vector_iterator<std::_Vector_val<std::_Simple_types<EntityComponent *> > >::_Vector_iterator<std::_Vector_val<std::_Simple_types<EntityComponent *> > >
PUBLIC	??D?$_Vector_const_iterator@V?$_Vector_val@U?$_Simple_types@PAVEntityComponent@@@std@@@std@@@std@@QBEABQAVEntityComponent@@XZ ; std::_Vector_const_iterator<std::_Vector_val<std::_Simple_types<EntityComponent *> > >::operator*
PUBLIC	??E?$_Vector_const_iterator@V?$_Vector_val@U?$_Simple_types@PAVEntityComponent@@@std@@@std@@@std@@QAEAAV01@XZ ; std::_Vector_const_iterator<std::_Vector_val<std::_Simple_types<EntityComponent *> > >::operator++
PUBLIC	??8?$_Vector_const_iterator@V?$_Vector_val@U?$_Simple_types@PAVEntityComponent@@@std@@@std@@@std@@QBE_NABV01@@Z ; std::_Vector_const_iterator<std::_Vector_val<std::_Simple_types<EntityComponent *> > >::operator==
PUBLIC	??0?$allocator@U?$pair@PAVRigidBody@@H@std@@@std@@QAE@XZ ; std::allocator<std::pair<RigidBody *,int> >::allocator<std::pair<RigidBody *,int> >
PUBLIC	?_Tidy@?$vector@U?$pair@PAVRigidBody@@H@std@@V?$allocator@U?$pair@PAVRigidBody@@H@std@@@2@@std@@IAEXXZ ; std::vector<std::pair<RigidBody *,int>,std::allocator<std::pair<RigidBody *,int> > >::_Tidy
PUBLIC	??0?$_Vector_alloc@U?$_Vec_base_types@U?$pair@PAVRigidBody@@H@std@@V?$allocator@U?$pair@PAVRigidBody@@H@std@@@2@@std@@@std@@QAE@ABV?$allocator@U?$pair@PAVRigidBody@@H@std@@@1@@Z ; std::_Vector_alloc<std::_Vec_base_types<std::pair<RigidBody *,int>,std::allocator<std::pair<RigidBody *,int> > > >::_Vector_alloc<std::_Vec_base_types<std::pair<RigidBody *,int>,std::allocator<std::pair<RigidBody *,int> > > >
PUBLIC	??1?$_Vector_alloc@U?$_Vec_base_types@U?$pair@PAVRigidBody@@H@std@@V?$allocator@U?$pair@PAVRigidBody@@H@std@@@2@@std@@@std@@QAE@XZ ; std::_Vector_alloc<std::_Vec_base_types<std::pair<RigidBody *,int>,std::allocator<std::pair<RigidBody *,int> > > >::~_Vector_alloc<std::_Vec_base_types<std::pair<RigidBody *,int>,std::allocator<std::pair<RigidBody *,int> > > >
PUBLIC	?_Getal@?$_Vector_alloc@U?$_Vec_base_types@U?$pair@PAVRigidBody@@H@std@@V?$allocator@U?$pair@PAVRigidBody@@H@std@@@2@@std@@@std@@QAEAAU?$_Wrap_alloc@V?$allocator@U?$pair@PAVRigidBody@@H@std@@@std@@@2@XZ ; std::_Vector_alloc<std::_Vec_base_types<std::pair<RigidBody *,int>,std::allocator<std::pair<RigidBody *,int> > > >::_Getal
PUBLIC	?_Get_data@?$_Vector_alloc@U?$_Vec_base_types@U?$pair@PAVRigidBody@@H@std@@V?$allocator@U?$pair@PAVRigidBody@@H@std@@@2@@std@@@std@@QAEAAV?$_Vector_val@U?$_Simple_types@U?$pair@PAVRigidBody@@H@std@@@std@@@2@XZ ; std::_Vector_alloc<std::_Vec_base_types<std::pair<RigidBody *,int>,std::allocator<std::pair<RigidBody *,int> > > >::_Get_data
PUBLIC	?_Myfirst@?$_Vector_alloc@U?$_Vec_base_types@U?$pair@PAVRigidBody@@H@std@@V?$allocator@U?$pair@PAVRigidBody@@H@std@@@2@@std@@@std@@QAEAAPAU?$pair@PAVRigidBody@@H@2@XZ ; std::_Vector_alloc<std::_Vec_base_types<std::pair<RigidBody *,int>,std::allocator<std::pair<RigidBody *,int> > > >::_Myfirst
PUBLIC	?_Mylast@?$_Vector_alloc@U?$_Vec_base_types@U?$pair@PAVRigidBody@@H@std@@V?$allocator@U?$pair@PAVRigidBody@@H@std@@@2@@std@@@std@@QAEAAPAU?$pair@PAVRigidBody@@H@2@XZ ; std::_Vector_alloc<std::_Vec_base_types<std::pair<RigidBody *,int>,std::allocator<std::pair<RigidBody *,int> > > >::_Mylast
PUBLIC	?_Myend@?$_Vector_alloc@U?$_Vec_base_types@U?$pair@PAVRigidBody@@H@std@@V?$allocator@U?$pair@PAVRigidBody@@H@std@@@2@@std@@@std@@QAEAAPAU?$pair@PAVRigidBody@@H@2@XZ ; std::_Vector_alloc<std::_Vec_base_types<std::pair<RigidBody *,int>,std::allocator<std::pair<RigidBody *,int> > > >::_Myend
PUBLIC	??0?$_Vector_iterator@V?$_Vector_val@U?$_Simple_types@U?$pair@PAVRigidBody@@H@std@@@std@@@std@@@std@@QAE@PAU?$pair@PAVRigidBody@@H@1@PBU_Container_base12@1@@Z ; std::_Vector_iterator<std::_Vector_val<std::_Simple_types<std::pair<RigidBody *,int> > > >::_Vector_iterator<std::_Vector_val<std::_Simple_types<std::pair<RigidBody *,int> > > >
PUBLIC	??D?$_Vector_const_iterator@V?$_Vector_val@U?$_Simple_types@U?$pair@PAVRigidBody@@H@std@@@std@@@std@@@std@@QBEABU?$pair@PAVRigidBody@@H@1@XZ ; std::_Vector_const_iterator<std::_Vector_val<std::_Simple_types<std::pair<RigidBody *,int> > > >::operator*
PUBLIC	??E?$_Vector_const_iterator@V?$_Vector_val@U?$_Simple_types@U?$pair@PAVRigidBody@@H@std@@@std@@@std@@@std@@QAEAAV01@XZ ; std::_Vector_const_iterator<std::_Vector_val<std::_Simple_types<std::pair<RigidBody *,int> > > >::operator++
PUBLIC	??8?$_Vector_const_iterator@V?$_Vector_val@U?$_Simple_types@U?$pair@PAVRigidBody@@H@std@@@std@@@std@@@std@@QBE_NABV01@@Z ; std::_Vector_const_iterator<std::_Vector_val<std::_Simple_types<std::pair<RigidBody *,int> > > >::operator==
PUBLIC	??0?$_Func_class@XPAVRigidBody@@@std@@QAE@XZ	; std::_Func_class<void,RigidBody *>::_Func_class<void,RigidBody *>
PUBLIC	??1?$_Func_class@XPAVRigidBody@@@std@@QAE@XZ	; std::_Func_class<void,RigidBody *>::~_Func_class<void,RigidBody *>
PUBLIC	?_Empty@?$_Func_class@XPAVRigidBody@@@std@@IBE_NXZ ; std::_Func_class<void,RigidBody *>::_Empty
PUBLIC	?_Getimpl@?$_Func_class@XPAVRigidBody@@@std@@ABEPAV?$_Func_base@XPAVRigidBody@@@2@XZ ; std::_Func_class<void,RigidBody *>::_Getimpl
PUBLIC	??0?$basic_string@DU?$char_traits@D@std@@V?$allocator@D@2@@std@@QAE@PBD@Z ; std::basic_string<char,std::char_traits<char>,std::allocator<char> >::basic_string<char,std::char_traits<char>,std::allocator<char> >
PUBLIC	??1?$basic_string@DU?$char_traits@D@std@@V?$allocator@D@2@@std@@QAE@XZ ; std::basic_string<char,std::char_traits<char>,std::allocator<char> >::~basic_string<char,std::char_traits<char>,std::allocator<char> >
PUBLIC	?c_str@?$basic_string@DU?$char_traits@D@std@@V?$allocator@D@2@@std@@QBEPBDXZ ; std::basic_string<char,std::char_traits<char>,std::allocator<char> >::c_str
PUBLIC	?size@?$basic_string@DU?$char_traits@D@std@@V?$allocator@D@2@@std@@QBEIXZ ; std::basic_string<char,std::char_traits<char>,std::allocator<char> >::size
PUBLIC	?compare@?$basic_string@DU?$char_traits@D@std@@V?$allocator@D@2@@std@@QBEHABV12@@Z ; std::basic_string<char,std::char_traits<char>,std::allocator<char> >::compare
PUBLIC	?compare@?$basic_string@DU?$char_traits@D@std@@V?$allocator@D@2@@std@@QBEHPBD@Z ; std::basic_string<char,std::char_traits<char>,std::allocator<char> >::compare
PUBLIC	??0?$Vector3@M@@QAE@XZ				; Vector3<float>::Vector3<float>
PUBLIC	?GetX@?$Vector3@M@@QBEMXZ			; Vector3<float>::GetX
PUBLIC	?GetY@?$Vector3@M@@QBEMXZ			; Vector3<float>::GetY
PUBLIC	?GetZ@?$Vector3@M@@QBEMXZ			; Vector3<float>::GetZ
PUBLIC	?GetBT@?$Vector3@M@@QBE?AVbtVector3@@XZ		; Vector3<float>::GetBT
PUBLIC	?GetFT@?$Vector3@M@@SA?AV1@ABVbtVector3@@@Z	; Vector3<float>::GetFT
PUBLIC	??A?$Vector@M$02@@QAEAAMI@Z			; Vector<float,3>::operator[]
PUBLIC	??A?$Vector@M$02@@QBEMI@Z			; Vector<float,3>::operator[]
PUBLIC	??0?$Vector4@M@@QAE@XZ				; Vector4<float>::Vector4<float>
PUBLIC	?GetX@?$Vector4@M@@QBEMXZ			; Vector4<float>::GetX
PUBLIC	?GetY@?$Vector4@M@@QBEMXZ			; Vector4<float>::GetY
PUBLIC	?GetZ@?$Vector4@M@@QBEMXZ			; Vector4<float>::GetZ
PUBLIC	?GetW@?$Vector4@M@@QBEMXZ			; Vector4<float>::GetW
PUBLIC	??0?$Matrix4@M@@QAE@XZ				; Matrix4<float>::Matrix4<float>
PUBLIC	??A?$Vector@M$03@@QAEAAMI@Z			; Vector<float,4>::operator[]
PUBLIC	??A?$Vector@M$03@@QBEMI@Z			; Vector<float,4>::operator[]
PUBLIC	?InitIdentity@?$Matrix@M$03@@QAE?AV1@XZ		; Matrix<float,4>::InitIdentity
PUBLIC	??A?$Matrix@M$03@@QBEPBMH@Z			; Matrix<float,4>::operator[]
PUBLIC	??1?$vector@V?$basic_string@DU?$char_traits@D@std@@V?$allocator@D@2@@std@@V?$allocator@V?$basic_string@DU?$char_traits@D@std@@V?$allocator@D@2@@std@@@2@@std@@QAE@XZ ; std::vector<std::basic_string<char,std::char_traits<char>,std::allocator<char> >,std::allocator<std::basic_string<char,std::char_traits<char>,std::allocator<char> > > >::~vector<std::basic_string<char,std::char_traits<char>,std::allocator<char> >,std::allocator<std::basic_string<char,std::char_traits<char>,std::allocator<char> > > >
PUBLIC	?size@?$vector@V?$basic_string@DU?$char_traits@D@std@@V?$allocator@D@2@@std@@V?$allocator@V?$basic_string@DU?$char_traits@D@std@@V?$allocator@D@2@@std@@@2@@std@@QBEIXZ ; std::vector<std::basic_string<char,std::char_traits<char>,std::allocator<char> >,std::allocator<std::basic_string<char,std::char_traits<char>,std::allocator<char> > > >::size
PUBLIC	??A?$vector@V?$basic_string@DU?$char_traits@D@std@@V?$allocator@D@2@@std@@V?$allocator@V?$basic_string@DU?$char_traits@D@std@@V?$allocator@D@2@@std@@@2@@std@@QAEAAV?$basic_string@DU?$char_traits@D@std@@V?$allocator@D@2@@1@I@Z ; std::vector<std::basic_string<char,std::char_traits<char>,std::allocator<char> >,std::allocator<std::basic_string<char,std::char_traits<char>,std::allocator<char> > > >::operator[]
PUBLIC	??0?$vector@PAVEntityComponent@@V?$allocator@PAVEntityComponent@@@std@@@std@@QAE@XZ ; std::vector<EntityComponent *,std::allocator<EntityComponent *> >::vector<EntityComponent *,std::allocator<EntityComponent *> >
PUBLIC	??0?$vector@PAVEntityComponent@@V?$allocator@PAVEntityComponent@@@std@@@std@@QAE@$$QAV01@@Z ; std::vector<EntityComponent *,std::allocator<EntityComponent *> >::vector<EntityComponent *,std::allocator<EntityComponent *> >
PUBLIC	??1?$vector@PAVEntityComponent@@V?$allocator@PAVEntityComponent@@@std@@@std@@QAE@XZ ; std::vector<EntityComponent *,std::allocator<EntityComponent *> >::~vector<EntityComponent *,std::allocator<EntityComponent *> >
PUBLIC	?begin@?$vector@PAVEntityComponent@@V?$allocator@PAVEntityComponent@@@std@@@std@@QAE?AV?$_Vector_iterator@V?$_Vector_val@U?$_Simple_types@PAVEntityComponent@@@std@@@std@@@2@XZ ; std::vector<EntityComponent *,std::allocator<EntityComponent *> >::begin
PUBLIC	?end@?$vector@PAVEntityComponent@@V?$allocator@PAVEntityComponent@@@std@@@std@@QAE?AV?$_Vector_iterator@V?$_Vector_val@U?$_Simple_types@PAVEntityComponent@@@std@@@std@@@2@XZ ; std::vector<EntityComponent *,std::allocator<EntityComponent *> >::end
PUBLIC	?size@?$vector@PAVEntityComponent@@V?$allocator@PAVEntityComponent@@@std@@@std@@QBEIXZ ; std::vector<EntityComponent *,std::allocator<EntityComponent *> >::size
PUBLIC	?at@?$vector@PAVEntityComponent@@V?$allocator@PAVEntityComponent@@@std@@@std@@QAEAAPAVEntityComponent@@I@Z ; std::vector<EntityComponent *,std::allocator<EntityComponent *> >::at
PUBLIC	??A?$vector@PAVEntityComponent@@V?$allocator@PAVEntityComponent@@@std@@@std@@QBEABQAVEntityComponent@@I@Z ; std::vector<EntityComponent *,std::allocator<EntityComponent *> >::operator[]
PUBLIC	??A?$vector@PAVEntityComponent@@V?$allocator@PAVEntityComponent@@@std@@@std@@QAEAAPAVEntityComponent@@I@Z ; std::vector<EntityComponent *,std::allocator<EntityComponent *> >::operator[]
PUBLIC	?push_back@?$vector@PAVEntityComponent@@V?$allocator@PAVEntityComponent@@@std@@@std@@QAEXABQAVEntityComponent@@@Z ; std::vector<EntityComponent *,std::allocator<EntityComponent *> >::push_back
PUBLIC	??0?$vector@PAVEntity@@V?$allocator@PAVEntity@@@std@@@std@@QAE@XZ ; std::vector<Entity *,std::allocator<Entity *> >::vector<Entity *,std::allocator<Entity *> >
PUBLIC	??0?$vector@PAVEntity@@V?$allocator@PAVEntity@@@std@@@std@@QAE@$$QAV01@@Z ; std::vector<Entity *,std::allocator<Entity *> >::vector<Entity *,std::allocator<Entity *> >
PUBLIC	??1?$vector@PAVEntity@@V?$allocator@PAVEntity@@@std@@@std@@QAE@XZ ; std::vector<Entity *,std::allocator<Entity *> >::~vector<Entity *,std::allocator<Entity *> >
PUBLIC	?begin@?$vector@PAVEntity@@V?$allocator@PAVEntity@@@std@@@std@@QAE?AV?$_Vector_iterator@V?$_Vector_val@U?$_Simple_types@PAVEntity@@@std@@@std@@@2@XZ ; std::vector<Entity *,std::allocator<Entity *> >::begin
PUBLIC	?end@?$vector@PAVEntity@@V?$allocator@PAVEntity@@@std@@@std@@QAE?AV?$_Vector_iterator@V?$_Vector_val@U?$_Simple_types@PAVEntity@@@std@@@std@@@2@XZ ; std::vector<Entity *,std::allocator<Entity *> >::end
PUBLIC	?size@?$vector@PAVEntity@@V?$allocator@PAVEntity@@@std@@@std@@QBEIXZ ; std::vector<Entity *,std::allocator<Entity *> >::size
PUBLIC	??A?$vector@PAVEntity@@V?$allocator@PAVEntity@@@std@@@std@@QBEABQAVEntity@@I@Z ; std::vector<Entity *,std::allocator<Entity *> >::operator[]
PUBLIC	??A?$vector@PAVEntity@@V?$allocator@PAVEntity@@@std@@@std@@QAEAAPAVEntity@@I@Z ; std::vector<Entity *,std::allocator<Entity *> >::operator[]
PUBLIC	?push_back@?$vector@PAVEntity@@V?$allocator@PAVEntity@@@std@@@std@@QAEXABQAVEntity@@@Z ; std::vector<Entity *,std::allocator<Entity *> >::push_back
PUBLIC	??D?$_Vector_iterator@V?$_Vector_val@U?$_Simple_types@PAVEntityComponent@@@std@@@std@@@std@@QBEAAPAVEntityComponent@@XZ ; std::_Vector_iterator<std::_Vector_val<std::_Simple_types<EntityComponent *> > >::operator*
PUBLIC	??E?$_Vector_iterator@V?$_Vector_val@U?$_Simple_types@PAVEntityComponent@@@std@@@std@@@std@@QAEAAV01@XZ ; std::_Vector_iterator<std::_Vector_val<std::_Simple_types<EntityComponent *> > >::operator++
PUBLIC	??9?$_Vector_const_iterator@V?$_Vector_val@U?$_Simple_types@PAVEntityComponent@@@std@@@std@@@std@@QBE_NABV01@@Z ; std::_Vector_const_iterator<std::_Vector_val<std::_Simple_types<EntityComponent *> > >::operator!=
PUBLIC	??0?$function@$$A6AXPAVRigidBody@@@Z@std@@QAE@XZ ; std::function<void __cdecl(RigidBody *)>::function<void __cdecl(RigidBody *)>
PUBLIC	??1?$function@$$A6AXPAVRigidBody@@@Z@std@@QAE@XZ ; std::function<void __cdecl(RigidBody *)>::~function<void __cdecl(RigidBody *)>
PUBLIC	??0?$vector@U?$pair@PAVRigidBody@@H@std@@V?$allocator@U?$pair@PAVRigidBody@@H@std@@@2@@std@@QAE@XZ ; std::vector<std::pair<RigidBody *,int>,std::allocator<std::pair<RigidBody *,int> > >::vector<std::pair<RigidBody *,int>,std::allocator<std::pair<RigidBody *,int> > >
PUBLIC	??1?$vector@U?$pair@PAVRigidBody@@H@std@@V?$allocator@U?$pair@PAVRigidBody@@H@std@@@2@@std@@QAE@XZ ; std::vector<std::pair<RigidBody *,int>,std::allocator<std::pair<RigidBody *,int> > >::~vector<std::pair<RigidBody *,int>,std::allocator<std::pair<RigidBody *,int> > >
PUBLIC	?begin@?$vector@U?$pair@PAVRigidBody@@H@std@@V?$allocator@U?$pair@PAVRigidBody@@H@std@@@2@@std@@QAE?AV?$_Vector_iterator@V?$_Vector_val@U?$_Simple_types@U?$pair@PAVRigidBody@@H@std@@@std@@@std@@@2@XZ ; std::vector<std::pair<RigidBody *,int>,std::allocator<std::pair<RigidBody *,int> > >::begin
PUBLIC	?end@?$vector@U?$pair@PAVRigidBody@@H@std@@V?$allocator@U?$pair@PAVRigidBody@@H@std@@@2@@std@@QAE?AV?$_Vector_iterator@V?$_Vector_val@U?$_Simple_types@U?$pair@PAVRigidBody@@H@std@@@std@@@std@@@2@XZ ; std::vector<std::pair<RigidBody *,int>,std::allocator<std::pair<RigidBody *,int> > >::end
PUBLIC	??D?$_Vector_iterator@V?$_Vector_val@U?$_Simple_types@U?$pair@PAVRigidBody@@H@std@@@std@@@std@@@std@@QBEAAU?$pair@PAVRigidBody@@H@1@XZ ; std::_Vector_iterator<std::_Vector_val<std::_Simple_types<std::pair<RigidBody *,int> > > >::operator*
PUBLIC	??E?$_Vector_iterator@V?$_Vector_val@U?$_Simple_types@U?$pair@PAVRigidBody@@H@std@@@std@@@std@@@std@@QAEAAV01@XZ ; std::_Vector_iterator<std::_Vector_val<std::_Simple_types<std::pair<RigidBody *,int> > > >::operator++
PUBLIC	??9?$_Vector_const_iterator@V?$_Vector_val@U?$_Simple_types@U?$pair@PAVRigidBody@@H@std@@@std@@@std@@@std@@QBE_NABV01@@Z ; std::_Vector_const_iterator<std::_Vector_val<std::_Simple_types<std::pair<RigidBody *,int> > > >::operator!=
PUBLIC	??R?$_Func_class@XPAVRigidBody@@@std@@QBEXPAVRigidBody@@@Z ; std::_Func_class<void,RigidBody *>::operator()
PUBLIC	?__empty_global_delete@@YAXPAXI@Z		; __empty_global_delete
PUBLIC	?__empty_global_delete@@YAXPAX@Z		; __empty_global_delete
PUBLIC	??1?$_Iterator012@Urandom_access_iterator_tag@std@@PAVEntityComponent@@HPBQAV3@ABQAV3@U_Iterator_base12@2@@std@@QAE@XZ ; std::_Iterator012<std::random_access_iterator_tag,EntityComponent *,int,EntityComponent * const *,EntityComponent * const &,std::_Iterator_base12>::~_Iterator012<std::random_access_iterator_tag,EntityComponent *,int,EntityComponent * const *,EntityComponent * const &,std::_Iterator_base12>
PUBLIC	??1?$_Vector_const_iterator@V?$_Vector_val@U?$_Simple_types@PAVEntityComponent@@@std@@@std@@@std@@QAE@XZ ; std::_Vector_const_iterator<std::_Vector_val<std::_Simple_types<EntityComponent *> > >::~_Vector_const_iterator<std::_Vector_val<std::_Simple_types<EntityComponent *> > >
PUBLIC	??1?$_Vector_iterator@V?$_Vector_val@U?$_Simple_types@PAVEntityComponent@@@std@@@std@@@std@@QAE@XZ ; std::_Vector_iterator<std::_Vector_val<std::_Simple_types<EntityComponent *> > >::~_Vector_iterator<std::_Vector_val<std::_Simple_types<EntityComponent *> > >
PUBLIC	?GetComponentsByType@Entity@@QAE?AV?$vector@PAVEntityComponent@@V?$allocator@PAVEntityComponent@@@std@@@std@@ABV?$basic_string@DU?$char_traits@D@std@@V?$allocator@D@2@@3@@Z ; Entity::GetComponentsByType
PUBLIC	??1?$_Iterator012@Urandom_access_iterator_tag@std@@PAVEntity@@HPBQAV3@ABQAV3@U_Iterator_base12@2@@std@@QAE@XZ ; std::_Iterator012<std::random_access_iterator_tag,Entity *,int,Entity * const *,Entity * const &,std::_Iterator_base12>::~_Iterator012<std::random_access_iterator_tag,Entity *,int,Entity * const *,Entity * const &,std::_Iterator_base12>
PUBLIC	??0?$_Iterator012@Urandom_access_iterator_tag@std@@PAVEntity@@HPBQAV3@ABQAV3@U_Iterator_base12@2@@std@@QAE@$$QAU01@@Z ; std::_Iterator012<std::random_access_iterator_tag,Entity *,int,Entity * const *,Entity * const &,std::_Iterator_base12>::_Iterator012<std::random_access_iterator_tag,Entity *,int,Entity * const *,Entity * const &,std::_Iterator_base12>
PUBLIC	??1?$_Vector_const_iterator@V?$_Vector_val@U?$_Simple_types@PAVEntity@@@std@@@std@@@std@@QAE@XZ ; std::_Vector_const_iterator<std::_Vector_val<std::_Simple_types<Entity *> > >::~_Vector_const_iterator<std::_Vector_val<std::_Simple_types<Entity *> > >
PUBLIC	??0?$_Vector_const_iterator@V?$_Vector_val@U?$_Simple_types@PAVEntity@@@std@@@std@@@std@@QAE@$$QAV01@@Z ; std::_Vector_const_iterator<std::_Vector_val<std::_Simple_types<Entity *> > >::_Vector_const_iterator<std::_Vector_val<std::_Simple_types<Entity *> > >
PUBLIC	??1?$_Vector_iterator@V?$_Vector_val@U?$_Simple_types@PAVEntity@@@std@@@std@@@std@@QAE@XZ ; std::_Vector_iterator<std::_Vector_val<std::_Simple_types<Entity *> > >::~_Vector_iterator<std::_Vector_val<std::_Simple_types<Entity *> > >
PUBLIC	?GetAllAttached@Entity@@QAE?AV?$vector@PAVEntity@@V?$allocator@PAVEntity@@@std@@@std@@XZ ; Entity::GetAllAttached
PUBLIC	?SetEngine@Entity@@QAEXPAVCoreEngine@@@Z	; Entity::SetEngine
PUBLIC	?PostRender@Entity@@ABEXABVShader@@ABVRenderingEngine@@ABVCamera@@@Z ; Entity::PostRender
PUBLIC	?Render@Entity@@ABEXABVShader@@ABVRenderingEngine@@ABVCamera@@@Z ; Entity::Render
PUBLIC	?Update@Entity@@AAEXM@Z				; Entity::Update
PUBLIC	?ProcessInput@Entity@@AAEXABVInput@@M@Z		; Entity::ProcessInput
PUBLIC	?Init@Entity@@AAEXXZ				; Entity::Init
PUBLIC	?PostRenderAll@Entity@@QBEXABVShader@@ABVRenderingEngine@@ABVCamera@@@Z ; Entity::PostRenderAll
PUBLIC	?RenderAll@Entity@@QBEXABVShader@@ABVRenderingEngine@@ABVCamera@@@Z ; Entity::RenderAll
PUBLIC	?UpdateAll@Entity@@QAEXM@Z			; Entity::UpdateAll
PUBLIC	?ProcessInputAll@Entity@@QAEXABVInput@@M@Z	; Entity::ProcessInputAll
PUBLIC	?InitAll@Entity@@QAEXXZ				; Entity::InitAll
PUBLIC	?AddComponents@Entity@@QAEPAV1@V?$vector@PAVEntityComponent@@V?$allocator@PAVEntityComponent@@@std@@@std@@@Z ; Entity::AddComponents
PUBLIC	?AddComponent@Entity@@QAEPAV1@PAVEntityComponent@@@Z ; Entity::AddComponent
PUBLIC	?AddChild@Entity@@QAEPAV1@PAV1@@Z		; Entity::AddChild
PUBLIC	??1Entity@@UAE@XZ				; Entity::~Entity
PUBLIC	??0Entity@@QAE@ABVVector3f@@ABVQuaternion@@M@Z	; Entity::Entity
PUBLIC	??1?$_Iterator012@Urandom_access_iterator_tag@std@@U?$pair@PAVRigidBody@@H@2@HPBU32@ABU32@U_Iterator_base12@2@@std@@QAE@XZ ; std::_Iterator012<std::random_access_iterator_tag,std::pair<RigidBody *,int>,int,std::pair<RigidBody *,int> const *,std::pair<RigidBody *,int> const &,std::_Iterator_base12>::~_Iterator012<std::random_access_iterator_tag,std::pair<RigidBody *,int>,int,std::pair<RigidBody *,int> const *,std::pair<RigidBody *,int> const &,std::_Iterator_base12>
PUBLIC	??1?$_Vector_const_iterator@V?$_Vector_val@U?$_Simple_types@U?$pair@PAVRigidBody@@H@std@@@std@@@std@@@std@@QAE@XZ ; std::_Vector_const_iterator<std::_Vector_val<std::_Simple_types<std::pair<RigidBody *,int> > > >::~_Vector_const_iterator<std::_Vector_val<std::_Simple_types<std::pair<RigidBody *,int> > > >
PUBLIC	??1?$_Vector_iterator@V?$_Vector_val@U?$_Simple_types@U?$pair@PAVRigidBody@@H@std@@@std@@@std@@@std@@QAE@XZ ; std::_Vector_iterator<std::_Vector_val<std::_Simple_types<std::pair<RigidBody *,int> > > >::~_Vector_iterator<std::_Vector_val<std::_Simple_types<std::pair<RigidBody *,int> > > >
PUBLIC	??_GRigidBody@@UAEPAXI@Z			; RigidBody::`scalar deleting destructor'
PUBLIC	?GetBody@RigidBody@@QAEPAVbtRigidBody@@XZ	; RigidBody::GetBody
PUBLIC	?Exit@RigidBody@@QAEXXZ				; RigidBody::Exit
PUBLIC	?Stay@RigidBody@@QAEXXZ				; RigidBody::Stay
PUBLIC	?Update@RigidBody@@UAEXM@Z			; RigidBody::Update
PUBLIC	?Init@RigidBody@@UAEXXZ				; RigidBody::Init
PUBLIC	?DataDeploy@RigidBody@@UAEXPAVXMLElement@tinyxml2@@@Z ; RigidBody::DataDeploy
PUBLIC	??1RigidBody@@UAE@XZ				; RigidBody::~RigidBody
PUBLIC	??0RigidBody@@QAE@PAVbtCollisionShape@@M_NVVector3f@@@Z ; RigidBody::RigidBody
PUBLIC	?__ClassType__@RigidBody@@UAE?AV?$basic_string@DU?$char_traits@D@std@@V?$allocator@D@2@@std@@XZ ; RigidBody::__ClassType__
PUBLIC	?SetSimulation@CoreEngine@@QAEX_N@Z		; CoreEngine::SetSimulation
PUBLIC	?GetCoreEngine@CoreEngine@@SAPAV1@XZ		; CoreEngine::GetCoreEngine
PUBLIC	?GetPhysicsEngine@CoreEngine@@QAEPAVPhysicsEngine@@XZ ; CoreEngine::GetPhysicsEngine
PUBLIC	?GetWorld@PhysicsEngine@@QAEPAVbtDiscreteDynamicsWorld@@XZ ; PhysicsEngine::GetWorld
PUBLIC	??1?$_String_val@U?$_Simple_types@D@std@@@std@@QAE@XZ ; std::_String_val<std::_Simple_types<char> >::~_String_val<std::_Simple_types<char> >
PUBLIC	??1?$_Compressed_pair@U?$_Wrap_alloc@V?$allocator@D@std@@@std@@V?$_String_val@U?$_Simple_types@D@std@@@2@$00@std@@QAE@XZ ; std::_Compressed_pair<std::_Wrap_alloc<std::allocator<char> >,std::_String_val<std::_Simple_types<char> >,1>::~_Compressed_pair<std::_Wrap_alloc<std::allocator<char> >,std::_String_val<std::_Simple_types<char> >,1>
PUBLIC	??_GEntityComponent@@UAEPAXI@Z			; EntityComponent::`scalar deleting destructor'
PUBLIC	?SetParent@EntityComponent@@UAEXPAVEntity@@@Z	; EntityComponent::SetParent
PUBLIC	?GetTransform@EntityComponent@@QAEPAVTransform@@XZ ; EntityComponent::GetTransform
PUBLIC	?AddToEngine@EntityComponent@@UAEXPAVCoreEngine@@@Z ; EntityComponent::AddToEngine
PUBLIC	?DataDeploy@EntityComponent@@UAEXPAVXMLElement@tinyxml2@@@Z ; EntityComponent::DataDeploy
PUBLIC	?PostRender@EntityComponent@@UBEXABVShader@@ABVRenderingEngine@@ABVCamera@@@Z ; EntityComponent::PostRender
PUBLIC	?Render@EntityComponent@@UBEXABVShader@@ABVRenderingEngine@@ABVCamera@@@Z ; EntityComponent::Render
PUBLIC	?Update@EntityComponent@@UAEXM@Z		; EntityComponent::Update
PUBLIC	?ProcessInput@EntityComponent@@UAEXABVInput@@M@Z ; EntityComponent::ProcessInput
PUBLIC	?Init@EntityComponent@@UAEXXZ			; EntityComponent::Init
PUBLIC	?_GetClassName_@EntityComponent@@UAE?AV?$basic_string@DU?$char_traits@D@std@@V?$allocator@D@2@@std@@XZ ; EntityComponent::_GetClassName_
PUBLIC	??1EntityComponent@@UAE@XZ			; EntityComponent::~EntityComponent
PUBLIC	??0EntityComponent@@QAE@XZ			; EntityComponent::EntityComponent
PUBLIC	?__ClassType__@EntityComponent@@UAE?AV?$basic_string@DU?$char_traits@D@std@@V?$allocator@D@2@@std@@XZ ; EntityComponent::__ClassType__
PUBLIC	??_GEntity@@UAEPAXI@Z				; Entity::`scalar deleting destructor'
PUBLIC	?SetParent@Entity@@QAEXPAV1@@Z			; Entity::SetParent
PUBLIC	?GetTransform@Entity@@QAEPAVTransform@@XZ	; Entity::GetTransform
PUBLIC	?SetParent@Transform@@QAEXPAV1@@Z		; Transform::SetParent
PUBLIC	?SetRot@Transform@@QAEXABVQuaternion@@@Z	; Transform::SetRot
PUBLIC	?SetPos@Transform@@QAEXABVVector3f@@@Z		; Transform::SetPos
PUBLIC	?GetBT@Transform@@QAE?AVbtTransform@@XZ		; Transform::GetBT
PUBLIC	?GetScale@Transform@@QBEMXZ			; Transform::GetScale
PUBLIC	?GetRot@Transform@@QAEPAVQuaternion@@XZ		; Transform::GetRot
PUBLIC	?GetPos@Transform@@QAEPAVVector3f@@XZ		; Transform::GetPos
PUBLIC	??0Transform@@QAE@ABVVector3f@@ABVQuaternion@@M@Z ; Transform::Transform
PUBLIC	?GetFT@Quaternion@@SA?AV1@ABVbtQuaternion@@@Z	; Quaternion::GetFT
PUBLIC	?GetBT@Quaternion@@QBE?AVbtQuaternion@@XZ	; Quaternion::GetBT
PUBLIC	??0Quaternion@@QAE@MMMM@Z			; Quaternion::Quaternion
PUBLIC	??0Vector3f@@QAE@ABV?$Vector3@M@@@Z		; Vector3f::Vector3f
PUBLIC	??0Vector3f@@QAE@MMM@Z				; Vector3f::Vector3f
PUBLIC	?_Deallocate@std@@YAXPAXII@Z			; std::_Deallocate
PUBLIC	?_Allocate@std@@YAPAXII_N@Z			; std::_Allocate
PUBLIC	?_Swap_all@_Container_base12@std@@QAEXAAU12@@Z	; std::_Container_base12::_Swap_all
PUBLIC	?_Orphan_all@_Container_base12@std@@QAEXXZ	; std::_Container_base12::_Orphan_all
PUBLIC	?_Orphan_me@_Iterator_base12@std@@QAEXXZ	; std::_Iterator_base12::_Orphan_me
PUBLIC	?_Getpnext@_Iterator_base12@std@@QAEPAPAU12@XZ	; std::_Iterator_base12::_Getpnext
PUBLIC	?_Getcont@_Iterator_base12@std@@QBEPBU_Container_base12@2@XZ ; std::_Iterator_base12::_Getcont
PUBLIC	?_Clrcont@_Iterator_base12@std@@QAEXXZ		; std::_Iterator_base12::_Clrcont
PUBLIC	?_Adopt@_Iterator_base12@std@@QAEXPBU_Container_base12@2@@Z ; std::_Iterator_base12::_Adopt
PUBLIC	??1_Iterator_base12@std@@QAE@XZ			; std::_Iterator_base12::~_Iterator_base12
PUBLIC	??4_Iterator_base12@std@@QAEAAU01@ABU01@@Z	; std::_Iterator_base12::operator=
PUBLIC	??0_Iterator_base12@std@@QAE@ABU01@@Z		; std::_Iterator_base12::_Iterator_base12
PUBLIC	??0_Iterator_base12@std@@QAE@XZ			; std::_Iterator_base12::_Iterator_base12
PUBLIC	?_Getpfirst@_Container_base12@std@@QBEPAPAU_Iterator_base12@2@XZ ; std::_Container_base12::_Getpfirst
PUBLIC	??1_Container_base12@std@@QAE@XZ		; std::_Container_base12::~_Container_base12
PUBLIC	??0_Container_base12@std@@QAE@XZ		; std::_Container_base12::_Container_base12
PUBLIC	??0_Container_proxy@std@@QAE@XZ			; std::_Container_proxy::_Container_proxy
PUBLIC	?eof@?$char_traits@D@std@@SAHXZ			; std::char_traits<char>::eof
PUBLIC	?eq_int_type@?$char_traits@D@std@@SA_NABH0@Z	; std::char_traits<char>::eq_int_type
PUBLIC	?assign@?$char_traits@D@std@@SAXAADABD@Z	; std::char_traits<char>::assign
PUBLIC	?move@?$char_traits@D@std@@SAPADPADPBDI@Z	; std::char_traits<char>::move
PUBLIC	?copy@?$char_traits@D@std@@SAPADPADPBDI@Z	; std::char_traits<char>::copy
PUBLIC	?length@?$char_traits@D@std@@SAIPBD@Z		; std::char_traits<char>::length
PUBLIC	?compare@?$char_traits@D@std@@SAHPBD0I@Z	; std::char_traits<char>::compare
PUBLIC	?getMotionState@btRigidBody@@QAEPAVbtMotionState@@XZ ; btRigidBody::getMotionState
PUBLIC	??0btRigidBodyConstructionInfo@btRigidBody@@QAE@MPAVbtMotionState@@PAVbtCollisionShape@@ABVbtVector3@@@Z ; btRigidBody::btRigidBodyConstructionInfo::btRigidBodyConstructionInfo
PUBLIC	??0btMotionState@@QAE@XZ			; btMotionState::btMotionState
PUBLIC	??1btDefaultMotionState@@UAE@XZ			; btDefaultMotionState::~btDefaultMotionState
PUBLIC	??_GbtDefaultMotionState@@UAEPAXI@Z		; btDefaultMotionState::`scalar deleting destructor'
PUBLIC	?setWorldTransform@btDefaultMotionState@@UAEXABVbtTransform@@@Z ; btDefaultMotionState::setWorldTransform
PUBLIC	?getWorldTransform@btDefaultMotionState@@UBEXAAVbtTransform@@@Z ; btDefaultMotionState::getWorldTransform
PUBLIC	??0btDefaultMotionState@@QAE@ABVbtTransform@@0@Z ; btDefaultMotionState::btDefaultMotionState
PUBLIC	??3btDefaultMotionState@@SAXPAX@Z		; btDefaultMotionState::operator delete
PUBLIC	??2btDefaultMotionState@@SAPAXI@Z		; btDefaultMotionState::operator new
PUBLIC	??3btBvhTriangleMeshShape@@SAXPAX@Z		; btBvhTriangleMeshShape::operator delete
PUBLIC	??2btBvhTriangleMeshShape@@SAPAXI@Z		; btBvhTriangleMeshShape::operator new
PUBLIC	??3btConvexTriangleMeshShape@@SAXPAX@Z		; btConvexTriangleMeshShape::operator delete
PUBLIC	??2btConvexTriangleMeshShape@@SAPAXI@Z		; btConvexTriangleMeshShape::operator new
PUBLIC	??3btCylinderShape@@SAXPAX@Z			; btCylinderShape::operator delete
PUBLIC	??2btCylinderShape@@SAPAXI@Z			; btCylinderShape::operator new
PUBLIC	??3btCapsuleShape@@SAXPAX@Z			; btCapsuleShape::operator delete
PUBLIC	??2btCapsuleShape@@SAPAXI@Z			; btCapsuleShape::operator new
PUBLIC	??1btSphereShape@@UAE@XZ			; btSphereShape::~btSphereShape
PUBLIC	??_GbtSphereShape@@UAEPAXI@Z			; btSphereShape::`scalar deleting destructor'
PUBLIC	?getMargin@btSphereShape@@UBEMXZ		; btSphereShape::getMargin
PUBLIC	?setMargin@btSphereShape@@UAEXM@Z		; btSphereShape::setMargin
PUBLIC	?getName@btSphereShape@@UBEPBDXZ		; btSphereShape::getName
PUBLIC	?getRadius@btSphereShape@@QBEMXZ		; btSphereShape::getRadius
PUBLIC	??0btSphereShape@@QAE@M@Z			; btSphereShape::btSphereShape
PUBLIC	??3btSphereShape@@SAXPAX@Z			; btSphereShape::operator delete
PUBLIC	??2btSphereShape@@SAPAXI@Z			; btSphereShape::operator new
PUBLIC	??3btBoxShape@@SAXPAX@Z				; btBoxShape::operator delete
PUBLIC	??2btBoxShape@@SAPAXI@Z				; btBoxShape::operator new
PUBLIC	?serialize@btConvexInternalShape@@UBEPBDPAXPAVbtSerializer@@@Z ; btConvexInternalShape::serialize
PUBLIC	?calculateSerializeBufferSize@btConvexInternalShape@@UBEHXZ ; btConvexInternalShape::calculateSerializeBufferSize
PUBLIC	??_GbtConvexInternalShape@@UAEPAXI@Z		; btConvexInternalShape::`scalar deleting destructor'
PUBLIC	?getPreferredPenetrationDirection@btConvexInternalShape@@UBEXHAAVbtVector3@@@Z ; btConvexInternalShape::getPreferredPenetrationDirection
PUBLIC	?getNumPreferredPenetrationDirections@btConvexInternalShape@@UBEHXZ ; btConvexInternalShape::getNumPreferredPenetrationDirections
PUBLIC	?getMargin@btConvexInternalShape@@UBEMXZ	; btConvexInternalShape::getMargin
PUBLIC	?setMargin@btConvexInternalShape@@UAEXM@Z	; btConvexInternalShape::setMargin
PUBLIC	?getLocalScaling@btConvexInternalShape@@UBEABVbtVector3@@XZ ; btConvexInternalShape::getLocalScaling
PUBLIC	?getAabb@btConvexInternalShape@@UBEXABVbtTransform@@AAVbtVector3@@1@Z ; btConvexInternalShape::getAabb
PUBLIC	??1btConvexInternalShape@@UAE@XZ		; btConvexInternalShape::~btConvexInternalShape
PUBLIC	??3btConvexInternalShape@@SAXPAX@Z		; btConvexInternalShape::operator delete
PUBLIC	?getAnisotropicRollingFrictionDirection@btCollisionShape@@UBE?AVbtVector3@@XZ ; btCollisionShape::getAnisotropicRollingFrictionDirection
PUBLIC	?setUserPointer@btCollisionObject@@QAEXPAX@Z	; btCollisionObject::setUserPointer
PUBLIC	?setCollisionFlags@btCollisionObject@@QAEXH@Z	; btCollisionObject::setCollisionFlags
PUBLIC	?getCollisionFlags@btCollisionObject@@QBEHXZ	; btCollisionObject::getCollisionFlags
PUBLIC	??3btCollisionObject@@SAXPAX@Z			; btCollisionObject::operator delete
PUBLIC	??2btCollisionObject@@SAPAXI@Z			; btCollisionObject::operator new
PUBLIC	??2@YAPAXIPAX@Z					; operator new
PUBLIC	??_GbtMotionState@@UAEPAXI@Z			; btMotionState::`scalar deleting destructor'
PUBLIC	??1btMotionState@@UAE@XZ			; btMotionState::~btMotionState
PUBLIC	??DbtTransform@@QBE?AV0@ABV0@@Z			; btTransform::operator*
PUBLIC	?getIdentity@btTransform@@SAABV1@XZ		; btTransform::getIdentity
PUBLIC	?inverse@btTransform@@QBE?AV1@XZ		; btTransform::inverse
PUBLIC	?setIdentity@btTransform@@QAEXXZ		; btTransform::setIdentity
PUBLIC	?getRotation@btTransform@@QBE?AVbtQuaternion@@XZ ; btTransform::getRotation
PUBLIC	?getOrigin@btTransform@@QAEAAVbtVector3@@XZ	; btTransform::getOrigin
PUBLIC	??RbtTransform@@QBE?AVbtVector3@@ABV1@@Z	; btTransform::operator()
PUBLIC	??4btTransform@@QAEAAV0@ABV0@@Z			; btTransform::operator=
PUBLIC	??0btTransform@@QAE@ABV0@@Z			; btTransform::btTransform
PUBLIC	??0btTransform@@QAE@ABVbtMatrix3x3@@ABVbtVector3@@@Z ; btTransform::btTransform
PUBLIC	??0btTransform@@QAE@ABVbtQuaternion@@ABVbtVector3@@@Z ; btTransform::btTransform
PUBLIC	??0btTransform@@QAE@XZ				; btTransform::btTransform
PUBLIC	??D@YA?AVbtMatrix3x3@@ABV0@0@Z			; operator*
PUBLIC	??D@YA?AVbtVector3@@ABVbtMatrix3x3@@ABV0@@Z	; operator*
PUBLIC	?transpose@btMatrix3x3@@QBE?AV1@XZ		; btMatrix3x3::transpose
PUBLIC	??_H@YGXPAXIIP6EPAX0@Z@Z			; `vector constructor iterator'
PUBLIC	?tdotz@btMatrix3x3@@QBEMABVbtVector3@@@Z	; btMatrix3x3::tdotz
PUBLIC	?tdoty@btMatrix3x3@@QBEMABVbtVector3@@@Z	; btMatrix3x3::tdoty
PUBLIC	?tdotx@btMatrix3x3@@QBEMABVbtVector3@@@Z	; btMatrix3x3::tdotx
PUBLIC	?getRotation@btMatrix3x3@@QBEXAAVbtQuaternion@@@Z ; btMatrix3x3::getRotation
PUBLIC	?getIdentity@btMatrix3x3@@SAABV1@XZ		; btMatrix3x3::getIdentity
PUBLIC	?setIdentity@btMatrix3x3@@QAEXXZ		; btMatrix3x3::setIdentity
PUBLIC	?setRotation@btMatrix3x3@@QAEXABVbtQuaternion@@@Z ; btMatrix3x3::setRotation
PUBLIC	?setValue@btMatrix3x3@@QAEXABM00000000@Z	; btMatrix3x3::setValue
PUBLIC	??AbtMatrix3x3@@QBEABVbtVector3@@H@Z		; btMatrix3x3::operator[]
PUBLIC	??4btMatrix3x3@@QAEAAV0@ABV0@@Z			; btMatrix3x3::operator=
PUBLIC	??0btMatrix3x3@@QAE@ABV0@@Z			; btMatrix3x3::btMatrix3x3
PUBLIC	??0btMatrix3x3@@QAE@ABM00000000@Z		; btMatrix3x3::btMatrix3x3
PUBLIC	??0btMatrix3x3@@QAE@ABVbtQuaternion@@@Z		; btMatrix3x3::btMatrix3x3
PUBLIC	??0btMatrix3x3@@QAE@XZ				; btMatrix3x3::btMatrix3x3
PUBLIC	?getW@btQuaternion@@QBEABMXZ			; btQuaternion::getW
PUBLIC	?length2@btQuaternion@@QBEMXZ			; btQuaternion::length2
PUBLIC	?dot@btQuaternion@@QBEMABV1@@Z			; btQuaternion::dot
PUBLIC	??0btQuaternion@@QAE@ABM000@Z			; btQuaternion::btQuaternion
PUBLIC	??0btQuaternion@@QAE@XZ				; btQuaternion::btQuaternion
PUBLIC	??0btQuadWord@@QAE@ABM000@Z			; btQuadWord::btQuadWord
PUBLIC	??0btQuadWord@@QAE@XZ				; btQuadWord::btQuadWord
PUBLIC	?setValue@btQuadWord@@QAEXABM000@Z		; btQuadWord::setValue
PUBLIC	?w@btQuadWord@@QBEABMXZ				; btQuadWord::w
PUBLIC	?z@btQuadWord@@QBEABMXZ				; btQuadWord::z
PUBLIC	?y@btQuadWord@@QBEABMXZ				; btQuadWord::y
PUBLIC	?x@btQuadWord@@QBEABMXZ				; btQuadWord::x
PUBLIC	?getZ@btQuadWord@@QBEABMXZ			; btQuadWord::getZ
PUBLIC	?getY@btQuadWord@@QBEABMXZ			; btQuadWord::getY
PUBLIC	?getX@btQuadWord@@QBEABMXZ			; btQuadWord::getX
PUBLIC	?serializeFloat@btVector3@@QBEXAAUbtVector3FloatData@@@Z ; btVector3::serializeFloat
PUBLIC	??G@YA?AVbtVector3@@ABV0@@Z			; operator-
PUBLIC	??H@YA?AVbtVector3@@ABV0@0@Z			; operator+
PUBLIC	?dot3@btVector3@@QBE?AV1@ABV1@00@Z		; btVector3::dot3
PUBLIC	?setValue@btVector3@@QAEXABM00@Z		; btVector3::setValue
PUBLIC	??9btVector3@@QBE_NABV0@@Z			; btVector3::operator!=
PUBLIC	??8btVector3@@QBE_NABV0@@Z			; btVector3::operator==
PUBLIC	??BbtVector3@@QBEPBMXZ				; btVector3::operator float const *
PUBLIC	?z@btVector3@@QBEABMXZ				; btVector3::z
PUBLIC	?y@btVector3@@QBEABMXZ				; btVector3::y
PUBLIC	?x@btVector3@@QBEABMXZ				; btVector3::x
PUBLIC	?setX@btVector3@@QAEXM@Z			; btVector3::setX
PUBLIC	?getZ@btVector3@@QBEABMXZ			; btVector3::getZ
PUBLIC	?getY@btVector3@@QBEABMXZ			; btVector3::getY
PUBLIC	?getX@btVector3@@QBEABMXZ			; btVector3::getX
PUBLIC	?dot@btVector3@@QBEMABV1@@Z			; btVector3::dot
PUBLIC	??0btVector3@@QAE@ABM00@Z			; btVector3::btVector3
PUBLIC	??0btVector3@@QAE@XZ				; btVector3::btVector3
PUBLIC	?btSqrt@@YAMM@Z					; btSqrt
PUBLIC	_printf
PUBLIC	__vfprintf_l
PUBLIC	___local_stdio_printf_options
PUBLIC	_sqrtf
PUBLIC	__real@00000000
PUBLIC	__real@0000000000000000
PUBLIC	__real@37a7c5ac
PUBLIC	__real@3ba3d70a
PUBLIC	__real@3c000000
PUBLIC	__real@3c23d70a
PUBLIC	__real@3c888889
PUBLIC	__real@3c8efa35
PUBLIC	__real@3dcccccd
PUBLIC	__real@3e000000
PUBLIC	__real@3e4ccccd
PUBLIC	__real@3e800000
PUBLIC	__real@3ecccccd
PUBLIC	__real@3f000000
PUBLIC	__real@3f333333
PUBLIC	__real@3f3504f3
PUBLIC	__real@3f4ccccd
PUBLIC	__real@3f800000
PUBLIC	__real@3fc90fdb
PUBLIC	__real@3ff0000000000000
PUBLIC	__real@40000000
PUBLIC	__real@400921fb54442d18
PUBLIC	__real@403de44e
PUBLIC	__real@40400000
PUBLIC	__real@40490fdb
PUBLIC	__real@4066800000000000
PUBLIC	__real@40800000
PUBLIC	__real@408f400000000000
PUBLIC	__real@40c90fdb
PUBLIC	__real@41000000
PUBLIC	__real@41200000
PUBLIC	__real@41f00000
PUBLIC	__real@42a00000
PUBLIC	__real@42c80000
PUBLIC	__real@43160000
PUBLIC	__real@437f0000
PUBLIC	__real@43800000
PUBLIC	__real@447a0000
PUBLIC	__real@46180000
PUBLIC	__real@46180400
PUBLIC	__real@461c0000
PUBLIC	__real@461c0400
PUBLIC	__real@461c0800
PUBLIC	__real@461c0c00
PUBLIC	__real@47012f00
PUBLIC	__real@bf800000
PUBLIC	__real@bfc90fdb
PUBLIC	__real@c0000000
PUBLIC	__real@c0490fdb
PUBLIC	__xmm@41f00000000000000000000000000000
PUBLIC	__xmm@80000000800000008000000080000000
EXTRN	??_EbtDefaultMotionState@@UAEPAXI@Z:PROC	; btDefaultMotionState::`vector deleting destructor'
EXTRN	??_EEntity@@UAEPAXI@Z:PROC			; Entity::`vector deleting destructor'
EXTRN	??_EEntityComponent@@UAEPAXI@Z:PROC		; EntityComponent::`vector deleting destructor'
EXTRN	??_EbtMotionState@@UAEPAXI@Z:PROC		; btMotionState::`vector deleting destructor'
EXTRN	??_ERigidBody@@UAEPAXI@Z:PROC			; RigidBody::`vector deleting destructor'
EXTRN	??_EbtSphereShape@@UAEPAXI@Z:PROC		; btSphereShape::`vector deleting destructor'
EXTRN	??_EbtConvexInternalShape@@UAEPAXI@Z:PROC	; btConvexInternalShape::`vector deleting destructor'
EXTRN	?__global_delete@@YAXPAXI@Z:PROC		; __global_delete
EXTRN	@_RTC_CheckStackVars@8:PROC
EXTRN	__CxxThrowException@8:PROC
EXTRN	__RTC_CheckEsp:PROC
EXTRN	___CxxFrameHandler3:PROC
EXTRN	__chkstk:PROC
EXTRN	__ftol2_sse:PROC
EXTRN	__ltod3:PROC
EXTRN	_memset:PROC
EXTRN	___security_cookie:DWORD
EXTRN	__fltused:DWORD
EXTRN	__tls_array:DWORD
EXTRN	__tls_index:DWORD
;	COMDAT __xmm@80000000800000008000000080000000
CONST	SEGMENT
__xmm@80000000800000008000000080000000 DB 00H, 00H, 00H, 080H, 00H, 00H, 00H
	DB	080H, 00H, 00H, 00H, 080H, 00H, 00H, 00H, 080H
CONST	ENDS
;	COMDAT __xmm@41f00000000000000000000000000000
CONST	SEGMENT
__xmm@41f00000000000000000000000000000 DB 00H, 00H, 00H, 00H, 00H, 00H, 00H
	DB	00H, 00H, 00H, 00H, 00H, 00H, 00H, 0f0H, 'A'
CONST	ENDS
;	COMDAT __real@c0490fdb
CONST	SEGMENT
__real@c0490fdb DD 0c0490fdbr			; -3.14159
CONST	ENDS
;	COMDAT __real@c0000000
CONST	SEGMENT
__real@c0000000 DD 0c0000000r			; -2
CONST	ENDS
;	COMDAT __real@bfc90fdb
CONST	SEGMENT
__real@bfc90fdb DD 0bfc90fdbr			; -1.5708
CONST	ENDS
;	COMDAT __real@bf800000
CONST	SEGMENT
__real@bf800000 DD 0bf800000r			; -1
CONST	ENDS
;	COMDAT __real@47012f00
CONST	SEGMENT
__real@47012f00 DD 047012f00r			; 33071
CONST	ENDS
;	COMDAT __real@461c0c00
CONST	SEGMENT
__real@461c0c00 DD 0461c0c00r			; 9987
CONST	ENDS
;	COMDAT __real@461c0800
CONST	SEGMENT
__real@461c0800 DD 0461c0800r			; 9986
CONST	ENDS
;	COMDAT __real@461c0400
CONST	SEGMENT
__real@461c0400 DD 0461c0400r			; 9985
CONST	ENDS
;	COMDAT __real@461c0000
CONST	SEGMENT
__real@461c0000 DD 0461c0000r			; 9984
CONST	ENDS
;	COMDAT __real@46180400
CONST	SEGMENT
__real@46180400 DD 046180400r			; 9729
CONST	ENDS
;	COMDAT __real@46180000
CONST	SEGMENT
__real@46180000 DD 046180000r			; 9728
CONST	ENDS
;	COMDAT __real@447a0000
CONST	SEGMENT
__real@447a0000 DD 0447a0000r			; 1000
CONST	ENDS
;	COMDAT __real@43800000
CONST	SEGMENT
__real@43800000 DD 043800000r			; 256
CONST	ENDS
;	COMDAT __real@437f0000
CONST	SEGMENT
__real@437f0000 DD 0437f0000r			; 255
CONST	ENDS
;	COMDAT __real@43160000
CONST	SEGMENT
__real@43160000 DD 043160000r			; 150
CONST	ENDS
;	COMDAT __real@42c80000
CONST	SEGMENT
__real@42c80000 DD 042c80000r			; 100
CONST	ENDS
;	COMDAT __real@42a00000
CONST	SEGMENT
__real@42a00000 DD 042a00000r			; 80
CONST	ENDS
;	COMDAT __real@41f00000
CONST	SEGMENT
__real@41f00000 DD 041f00000r			; 30
CONST	ENDS
;	COMDAT __real@41200000
CONST	SEGMENT
__real@41200000 DD 041200000r			; 10
CONST	ENDS
;	COMDAT __real@41000000
CONST	SEGMENT
__real@41000000 DD 041000000r			; 8
CONST	ENDS
;	COMDAT __real@40c90fdb
CONST	SEGMENT
__real@40c90fdb DD 040c90fdbr			; 6.28319
CONST	ENDS
;	COMDAT __real@408f400000000000
CONST	SEGMENT
__real@408f400000000000 DQ 0408f400000000000r	; 1000
CONST	ENDS
;	COMDAT __real@40800000
CONST	SEGMENT
__real@40800000 DD 040800000r			; 4
CONST	ENDS
;	COMDAT __real@4066800000000000
CONST	SEGMENT
__real@4066800000000000 DQ 04066800000000000r	; 180
CONST	ENDS
;	COMDAT __real@40490fdb
CONST	SEGMENT
__real@40490fdb DD 040490fdbr			; 3.14159
CONST	ENDS
;	COMDAT __real@40400000
CONST	SEGMENT
__real@40400000 DD 040400000r			; 3
CONST	ENDS
;	COMDAT __real@403de44e
CONST	SEGMENT
__real@403de44e DD 0403de44er			; 2.96706
CONST	ENDS
;	COMDAT __real@400921fb54442d18
CONST	SEGMENT
__real@400921fb54442d18 DQ 0400921fb54442d18r	; 3.14159
CONST	ENDS
;	COMDAT __real@40000000
CONST	SEGMENT
__real@40000000 DD 040000000r			; 2
CONST	ENDS
;	COMDAT __real@3ff0000000000000
CONST	SEGMENT
__real@3ff0000000000000 DQ 03ff0000000000000r	; 1
CONST	ENDS
;	COMDAT __real@3fc90fdb
CONST	SEGMENT
__real@3fc90fdb DD 03fc90fdbr			; 1.5708
CONST	ENDS
;	COMDAT __real@3f800000
CONST	SEGMENT
__real@3f800000 DD 03f800000r			; 1
CONST	ENDS
;	COMDAT __real@3f4ccccd
CONST	SEGMENT
__real@3f4ccccd DD 03f4ccccdr			; 0.8
CONST	ENDS
;	COMDAT __real@3f3504f3
CONST	SEGMENT
__real@3f3504f3 DD 03f3504f3r			; 0.707107
CONST	ENDS
;	COMDAT __real@3f333333
CONST	SEGMENT
__real@3f333333 DD 03f333333r			; 0.7
CONST	ENDS
;	COMDAT __real@3f000000
CONST	SEGMENT
__real@3f000000 DD 03f000000r			; 0.5
CONST	ENDS
;	COMDAT __real@3ecccccd
CONST	SEGMENT
__real@3ecccccd DD 03ecccccdr			; 0.4
CONST	ENDS
;	COMDAT __real@3e800000
CONST	SEGMENT
__real@3e800000 DD 03e800000r			; 0.25
CONST	ENDS
;	COMDAT __real@3e4ccccd
CONST	SEGMENT
__real@3e4ccccd DD 03e4ccccdr			; 0.2
CONST	ENDS
;	COMDAT __real@3e000000
CONST	SEGMENT
__real@3e000000 DD 03e000000r			; 0.125
CONST	ENDS
;	COMDAT __real@3dcccccd
CONST	SEGMENT
__real@3dcccccd DD 03dcccccdr			; 0.1
CONST	ENDS
;	COMDAT __real@3c8efa35
CONST	SEGMENT
__real@3c8efa35 DD 03c8efa35r			; 0.0174533
CONST	ENDS
;	COMDAT __real@3c888889
CONST	SEGMENT
__real@3c888889 DD 03c888889r			; 0.0166667
CONST	ENDS
;	COMDAT __real@3c23d70a
CONST	SEGMENT
__real@3c23d70a DD 03c23d70ar			; 0.01
CONST	ENDS
;	COMDAT __real@3c000000
CONST	SEGMENT
__real@3c000000 DD 03c000000r			; 0.0078125
CONST	ENDS
;	COMDAT __real@3ba3d70a
CONST	SEGMENT
__real@3ba3d70a DD 03ba3d70ar			; 0.005
CONST	ENDS
;	COMDAT __real@37a7c5ac
CONST	SEGMENT
__real@37a7c5ac DD 037a7c5acr			; 2e-05
CONST	ENDS
;	COMDAT __real@0000000000000000
CONST	SEGMENT
__real@0000000000000000 DQ 00000000000000000r	; 0
CONST	ENDS
;	COMDAT __real@00000000
CONST	SEGMENT
__real@00000000 DD 000000000r			; 0
CONST	ENDS
;	COMDAT xdata$x
xdata$x	SEGMENT
__ehfuncinfo$?getIdentity@btMatrix3x3@@SAABV1@XZ DD 019930522H
	DD	01H
	DD	FLAT:__unwindtable$?getIdentity@btMatrix3x3@@SAABV1@XZ
	DD	2 DUP(00H)
	DD	2 DUP(00H)
	DD	00H
	DD	01H
__unwindtable$?getIdentity@btMatrix3x3@@SAABV1@XZ DD 0ffffffffH
	DD	FLAT:__unwindfunclet$?getIdentity@btMatrix3x3@@SAABV1@XZ$0
xdata$x	ENDS
;	COMDAT xdata$x
xdata$x	SEGMENT
__ehfuncinfo$?getIdentity@btTransform@@SAABV1@XZ DD 019930522H
	DD	01H
	DD	FLAT:__unwindtable$?getIdentity@btTransform@@SAABV1@XZ
	DD	2 DUP(00H)
	DD	2 DUP(00H)
	DD	00H
	DD	01H
__unwindtable$?getIdentity@btTransform@@SAABV1@XZ DD 0ffffffffH
	DD	FLAT:__unwindfunclet$?getIdentity@btTransform@@SAABV1@XZ$0
xdata$x	ENDS
;	COMDAT xdata$x
xdata$x	SEGMENT
__ehfuncinfo$??3btCollisionObject@@SAXPAX@Z DD 019930522H
	DD	00H
	DD	00H
	DD	2 DUP(00H)
	DD	2 DUP(00H)
	DD	00H
	DD	05H
xdata$x	ENDS
;	COMDAT xdata$x
xdata$x	SEGMENT
__ehfuncinfo$??3btConvexInternalShape@@SAXPAX@Z DD 019930522H
	DD	00H
	DD	00H
	DD	2 DUP(00H)
	DD	2 DUP(00H)
	DD	00H
	DD	05H
xdata$x	ENDS
;	COMDAT xdata$x
xdata$x	SEGMENT
__ehfuncinfo$??3btBoxShape@@SAXPAX@Z DD 019930522H
	DD	00H
	DD	00H
	DD	2 DUP(00H)
	DD	2 DUP(00H)
	DD	00H
	DD	05H
xdata$x	ENDS
;	COMDAT xdata$x
xdata$x	SEGMENT
__ehfuncinfo$??3btSphereShape@@SAXPAX@Z DD 019930522H
	DD	00H
	DD	00H
	DD	2 DUP(00H)
	DD	2 DUP(00H)
	DD	00H
	DD	05H
xdata$x	ENDS
;	COMDAT xdata$x
xdata$x	SEGMENT
__ehfuncinfo$??0btSphereShape@@QAE@M@Z DD 019930522H
	DD	01H
	DD	FLAT:__unwindtable$??0btSphereShape@@QAE@M@Z
	DD	2 DUP(00H)
	DD	2 DUP(00H)
	DD	00H
	DD	01H
__unwindtable$??0btSphereShape@@QAE@M@Z DD 0ffffffffH
	DD	FLAT:__unwindfunclet$??0btSphereShape@@QAE@M@Z$0
xdata$x	ENDS
;	COMDAT xdata$x
xdata$x	SEGMENT
__ehfuncinfo$??3btCapsuleShape@@SAXPAX@Z DD 019930522H
	DD	00H
	DD	00H
	DD	2 DUP(00H)
	DD	2 DUP(00H)
	DD	00H
	DD	05H
xdata$x	ENDS
;	COMDAT xdata$x
xdata$x	SEGMENT
__ehfuncinfo$??3btCylinderShape@@SAXPAX@Z DD 019930522H
	DD	00H
	DD	00H
	DD	2 DUP(00H)
	DD	2 DUP(00H)
	DD	00H
	DD	05H
xdata$x	ENDS
;	COMDAT xdata$x
xdata$x	SEGMENT
__ehfuncinfo$??3btConvexTriangleMeshShape@@SAXPAX@Z DD 019930522H
	DD	00H
	DD	00H
	DD	2 DUP(00H)
	DD	2 DUP(00H)
	DD	00H
	DD	05H
xdata$x	ENDS
;	COMDAT xdata$x
xdata$x	SEGMENT
__ehfuncinfo$??3btBvhTriangleMeshShape@@SAXPAX@Z DD 019930522H
	DD	00H
	DD	00H
	DD	2 DUP(00H)
	DD	2 DUP(00H)
	DD	00H
	DD	05H
xdata$x	ENDS
;	COMDAT xdata$x
xdata$x	SEGMENT
__ehfuncinfo$??3btDefaultMotionState@@SAXPAX@Z DD 019930522H
	DD	00H
	DD	00H
	DD	2 DUP(00H)
	DD	2 DUP(00H)
	DD	00H
	DD	05H
xdata$x	ENDS
;	COMDAT xdata$x
xdata$x	SEGMENT
__ehfuncinfo$??0btDefaultMotionState@@QAE@ABVbtTransform@@0@Z DD 019930522H
	DD	01H
	DD	FLAT:__unwindtable$??0btDefaultMotionState@@QAE@ABVbtTransform@@0@Z
	DD	2 DUP(00H)
	DD	2 DUP(00H)
	DD	00H
	DD	01H
__unwindtable$??0btDefaultMotionState@@QAE@ABVbtTransform@@0@Z DD 0ffffffffH
	DD	FLAT:__unwindfunclet$??0btDefaultMotionState@@QAE@ABVbtTransform@@0@Z$0
xdata$x	ENDS
;	COMDAT xdata$x
xdata$x	SEGMENT
__ehfuncinfo$??1_Container_base12@std@@QAE@XZ DD 019930522H
	DD	00H
	DD	00H
	DD	2 DUP(00H)
	DD	2 DUP(00H)
	DD	00H
	DD	05H
xdata$x	ENDS
;	COMDAT xdata$x
xdata$x	SEGMENT
__ehfuncinfo$??4_Iterator_base12@std@@QAEAAU01@ABU01@@Z DD 019930522H
	DD	01H
	DD	FLAT:__unwindtable$??4_Iterator_base12@std@@QAEAAU01@ABU01@@Z
	DD	2 DUP(00H)
	DD	2 DUP(00H)
	DD	00H
	DD	01H
__unwindtable$??4_Iterator_base12@std@@QAEAAU01@ABU01@@Z DD 0ffffffffH
	DD	FLAT:__unwindfunclet$??4_Iterator_base12@std@@QAEAAU01@ABU01@@Z$0
xdata$x	ENDS
;	COMDAT xdata$x
xdata$x	SEGMENT
__ehfuncinfo$??1_Iterator_base12@std@@QAE@XZ DD 019930522H
	DD	00H
	DD	00H
	DD	2 DUP(00H)
	DD	2 DUP(00H)
	DD	00H
	DD	05H
xdata$x	ENDS
;	COMDAT xdata$x
xdata$x	SEGMENT
__ehfuncinfo$?_Adopt@_Iterator_base12@std@@QAEXPBU_Container_base12@2@@Z DD 019930522H
	DD	02H
	DD	FLAT:__unwindtable$?_Adopt@_Iterator_base12@std@@QAEXPBU_Container_base12@2@@Z
	DD	2 DUP(00H)
	DD	2 DUP(00H)
	DD	00H
	DD	01H
__unwindtable$?_Adopt@_Iterator_base12@std@@QAEXPBU_Container_base12@2@@Z DD 0ffffffffH
	DD	FLAT:__unwindfunclet$?_Adopt@_Iterator_base12@std@@QAEXPBU_Container_base12@2@@Z$0
	DD	0ffffffffH
	DD	FLAT:__unwindfunclet$?_Adopt@_Iterator_base12@std@@QAEXPBU_Container_base12@2@@Z$1
xdata$x	ENDS
;	COMDAT xdata$x
xdata$x	SEGMENT
__ehfuncinfo$??0RigidBody@@QAE@PAVbtCollisionShape@@M_NVVector3f@@@Z DD 019930522H
	DD	05H
	DD	FLAT:__unwindtable$??0RigidBody@@QAE@PAVbtCollisionShape@@M_NVVector3f@@@Z
	DD	2 DUP(00H)
	DD	2 DUP(00H)
	DD	00H
	DD	01H
__unwindtable$??0RigidBody@@QAE@PAVbtCollisionShape@@M_NVVector3f@@@Z DD 0ffffffffH
	DD	FLAT:__unwindfunclet$??0RigidBody@@QAE@PAVbtCollisionShape@@M_NVVector3f@@@Z$0
	DD	00H
	DD	FLAT:__unwindfunclet$??0RigidBody@@QAE@PAVbtCollisionShape@@M_NVVector3f@@@Z$1
	DD	01H
	DD	FLAT:__unwindfunclet$??0RigidBody@@QAE@PAVbtCollisionShape@@M_NVVector3f@@@Z$2
	DD	02H
	DD	FLAT:__unwindfunclet$??0RigidBody@@QAE@PAVbtCollisionShape@@M_NVVector3f@@@Z$3
	DD	03H
	DD	FLAT:__unwindfunclet$??0RigidBody@@QAE@PAVbtCollisionShape@@M_NVVector3f@@@Z$4
xdata$x	ENDS
;	COMDAT xdata$x
xdata$x	SEGMENT
__ehfuncinfo$??1RigidBody@@UAE@XZ DD 019930522H
	DD	00H
	DD	00H
	DD	2 DUP(00H)
	DD	2 DUP(00H)
	DD	00H
	DD	05H
xdata$x	ENDS
;	COMDAT xdata$x
xdata$x	SEGMENT
__ehfuncinfo$?DataDeploy@RigidBody@@UAEXPAVXMLElement@tinyxml2@@@Z DD 019930522H
	DD	0eH
	DD	FLAT:__unwindtable$?DataDeploy@RigidBody@@UAEXPAVXMLElement@tinyxml2@@@Z
	DD	2 DUP(00H)
	DD	2 DUP(00H)
	DD	00H
	DD	01H
	ORG $+4
__unwindtable$?DataDeploy@RigidBody@@UAEXPAVXMLElement@tinyxml2@@@Z DD 0ffffffffH
	DD	FLAT:__unwindfunclet$?DataDeploy@RigidBody@@UAEXPAVXMLElement@tinyxml2@@@Z$0
	DD	00H
	DD	FLAT:__unwindfunclet$?DataDeploy@RigidBody@@UAEXPAVXMLElement@tinyxml2@@@Z$1
	DD	01H
	DD	FLAT:__unwindfunclet$?DataDeploy@RigidBody@@UAEXPAVXMLElement@tinyxml2@@@Z$2
	DD	00H
	DD	FLAT:__unwindfunclet$?DataDeploy@RigidBody@@UAEXPAVXMLElement@tinyxml2@@@Z$2
	DD	00H
	DD	FLAT:__unwindfunclet$?DataDeploy@RigidBody@@UAEXPAVXMLElement@tinyxml2@@@Z$3
	DD	04H
	DD	FLAT:__unwindfunclet$?DataDeploy@RigidBody@@UAEXPAVXMLElement@tinyxml2@@@Z$4
	DD	00H
	DD	FLAT:__unwindfunclet$?DataDeploy@RigidBody@@UAEXPAVXMLElement@tinyxml2@@@Z$4
	DD	00H
	DD	FLAT:__unwindfunclet$?DataDeploy@RigidBody@@UAEXPAVXMLElement@tinyxml2@@@Z$5
	DD	00H
	DD	FLAT:__unwindfunclet$?DataDeploy@RigidBody@@UAEXPAVXMLElement@tinyxml2@@@Z$7
	DD	00H
	DD	FLAT:__unwindfunclet$?DataDeploy@RigidBody@@UAEXPAVXMLElement@tinyxml2@@@Z$8
	DD	09H
	DD	FLAT:__unwindfunclet$?DataDeploy@RigidBody@@UAEXPAVXMLElement@tinyxml2@@@Z$9
	DD	00H
	DD	FLAT:__unwindfunclet$?DataDeploy@RigidBody@@UAEXPAVXMLElement@tinyxml2@@@Z$9
	DD	0bH
	DD	FLAT:__unwindfunclet$?DataDeploy@RigidBody@@UAEXPAVXMLElement@tinyxml2@@@Z$10
	DD	00H
	DD	FLAT:__unwindfunclet$?DataDeploy@RigidBody@@UAEXPAVXMLElement@tinyxml2@@@Z$11
xdata$x	ENDS
;	COMDAT xdata$x
xdata$x	SEGMENT
__ehfuncinfo$?Init@RigidBody@@UAEXXZ DD 019930522H
	DD	02H
	DD	FLAT:__unwindtable$?Init@RigidBody@@UAEXXZ
	DD	2 DUP(00H)
	DD	2 DUP(00H)
	DD	00H
	DD	01H
__unwindtable$?Init@RigidBody@@UAEXXZ DD 0ffffffffH
	DD	FLAT:__unwindfunclet$?Init@RigidBody@@UAEXXZ$0
	DD	0ffffffffH
	DD	FLAT:__unwindfunclet$?Init@RigidBody@@UAEXXZ$1
xdata$x	ENDS
;	COMDAT xdata$x
xdata$x	SEGMENT
__ehfuncinfo$?Stay@RigidBody@@QAEXXZ DD 019930522H
	DD	02H
	DD	FLAT:__unwindtable$?Stay@RigidBody@@QAEXXZ
	DD	2 DUP(00H)
	DD	2 DUP(00H)
	DD	00H
	DD	01H
__unwindtable$?Stay@RigidBody@@QAEXXZ DD 0ffffffffH
	DD	FLAT:__unwindfunclet$?Stay@RigidBody@@QAEXXZ$0
	DD	00H
	DD	FLAT:__unwindfunclet$?Stay@RigidBody@@QAEXXZ$1
xdata$x	ENDS
;	COMDAT xdata$x
xdata$x	SEGMENT
__ehfuncinfo$?Exit@RigidBody@@QAEXXZ DD 019930522H
	DD	02H
	DD	FLAT:__unwindtable$?Exit@RigidBody@@QAEXXZ
	DD	2 DUP(00H)
	DD	2 DUP(00H)
	DD	00H
	DD	01H
__unwindtable$?Exit@RigidBody@@QAEXXZ DD 0ffffffffH
	DD	FLAT:__unwindfunclet$?Exit@RigidBody@@QAEXXZ$0
	DD	00H
	DD	FLAT:__unwindfunclet$?Exit@RigidBody@@QAEXXZ$1
xdata$x	ENDS
xdata$x	SEGMENT
__ehfuncinfo$?GetComponentsByType@Entity@@QAE?AV?$vector@PAVEntityComponent@@V?$allocator@PAVEntityComponent@@@std@@@std@@ABV?$basic_string@DU?$char_traits@D@std@@V?$allocator@D@2@@3@@Z DD 019930522H
	DD	04H
	DD	FLAT:__unwindtable$?GetComponentsByType@Entity@@QAE?AV?$vector@PAVEntityComponent@@V?$allocator@PAVEntityComponent@@@std@@@std@@ABV?$basic_string@DU?$char_traits@D@std@@V?$allocator@D@2@@3@@Z
	DD	2 DUP(00H)
	DD	2 DUP(00H)
	DD	00H
	DD	01H
__unwindtable$?GetComponentsByType@Entity@@QAE?AV?$vector@PAVEntityComponent@@V?$allocator@PAVEntityComponent@@@std@@@std@@ABV?$basic_string@DU?$char_traits@D@std@@V?$allocator@D@2@@3@@Z DD 0ffffffffH
	DD	FLAT:__unwindfunclet$?GetComponentsByType@Entity@@QAE?AV?$vector@PAVEntityComponent@@V?$allocator@PAVEntityComponent@@@std@@@std@@ABV?$basic_string@DU?$char_traits@D@std@@V?$allocator@D@2@@3@@Z$0
	DD	00H
	DD	FLAT:__unwindfunclet$?GetComponentsByType@Entity@@QAE?AV?$vector@PAVEntityComponent@@V?$allocator@PAVEntityComponent@@@std@@@std@@ABV?$basic_string@DU?$char_traits@D@std@@V?$allocator@D@2@@3@@Z$1
	DD	01H
	DD	FLAT:__unwindfunclet$?GetComponentsByType@Entity@@QAE?AV?$vector@PAVEntityComponent@@V?$allocator@PAVEntityComponent@@@std@@@std@@ABV?$basic_string@DU?$char_traits@D@std@@V?$allocator@D@2@@3@@Z$2
	DD	02H
	DD	FLAT:__unwindfunclet$?GetComponentsByType@Entity@@QAE?AV?$vector@PAVEntityComponent@@V?$allocator@PAVEntityComponent@@@std@@@std@@ABV?$basic_string@DU?$char_traits@D@std@@V?$allocator@D@2@@3@@Z$3
__ehfuncinfo$?GetAllAttached@Entity@@QAE?AV?$vector@PAVEntity@@V?$allocator@PAVEntity@@@std@@@std@@XZ DD 019930522H
	DD	06H
	DD	FLAT:__unwindtable$?GetAllAttached@Entity@@QAE?AV?$vector@PAVEntity@@V?$allocator@PAVEntity@@@std@@@std@@XZ
	DD	2 DUP(00H)
	DD	2 DUP(00H)
	DD	00H
	DD	01H
__unwindtable$?GetAllAttached@Entity@@QAE?AV?$vector@PAVEntity@@V?$allocator@PAVEntity@@@std@@@std@@XZ DD 0ffffffffH
	DD	FLAT:__unwindfunclet$?GetAllAttached@Entity@@QAE?AV?$vector@PAVEntity@@V?$allocator@PAVEntity@@@std@@@std@@XZ$0
	DD	00H
	DD	FLAT:__unwindfunclet$?GetAllAttached@Entity@@QAE?AV?$vector@PAVEntity@@V?$allocator@PAVEntity@@@std@@@std@@XZ$1
	DD	01H
	DD	FLAT:__unwindfunclet$?GetAllAttached@Entity@@QAE?AV?$vector@PAVEntity@@V?$allocator@PAVEntity@@@std@@@std@@XZ$2
	DD	02H
	DD	FLAT:__unwindfunclet$?GetAllAttached@Entity@@QAE?AV?$vector@PAVEntity@@V?$allocator@PAVEntity@@@std@@@std@@XZ$3
	DD	03H
	DD	FLAT:__unwindfunclet$?GetAllAttached@Entity@@QAE?AV?$vector@PAVEntity@@V?$allocator@PAVEntity@@@std@@@std@@XZ$4
	DD	01H
	DD	FLAT:__unwindfunclet$?GetAllAttached@Entity@@QAE?AV?$vector@PAVEntity@@V?$allocator@PAVEntity@@@std@@@std@@XZ$4
__ehfuncinfo$?Init@Entity@@AAEXXZ DD 019930522H
	DD	02H
	DD	FLAT:__unwindtable$?Init@Entity@@AAEXXZ
	DD	2 DUP(00H)
	DD	2 DUP(00H)
	DD	00H
	DD	01H
__unwindtable$?Init@Entity@@AAEXXZ DD 0ffffffffH
	DD	FLAT:__unwindfunclet$?Init@Entity@@AAEXXZ$0
	DD	00H
	DD	FLAT:__unwindfunclet$?Init@Entity@@AAEXXZ$1
__ehfuncinfo$?AddComponents@Entity@@QAEPAV1@V?$vector@PAVEntityComponent@@V?$allocator@PAVEntityComponent@@@std@@@std@@@Z DD 019930522H
	DD	01H
	DD	FLAT:__unwindtable$?AddComponents@Entity@@QAEPAV1@V?$vector@PAVEntityComponent@@V?$allocator@PAVEntityComponent@@@std@@@std@@@Z
	DD	2 DUP(00H)
	DD	2 DUP(00H)
	DD	00H
	DD	01H
__unwindtable$?AddComponents@Entity@@QAEPAV1@V?$vector@PAVEntityComponent@@V?$allocator@PAVEntityComponent@@@std@@@std@@@Z DD 0ffffffffH
	DD	FLAT:__unwindfunclet$?AddComponents@Entity@@QAEPAV1@V?$vector@PAVEntityComponent@@V?$allocator@PAVEntityComponent@@@std@@@std@@@Z$0
__ehfuncinfo$??1Entity@@UAE@XZ DD 019930522H
	DD	00H
	DD	00H
	DD	2 DUP(00H)
	DD	2 DUP(00H)
	DD	00H
	DD	05H
__ehfuncinfo$??0Entity@@QAE@ABVVector3f@@ABVQuaternion@@M@Z DD 019930522H
	DD	03H
	DD	FLAT:__unwindtable$??0Entity@@QAE@ABVVector3f@@ABVQuaternion@@M@Z
	DD	2 DUP(00H)
	DD	2 DUP(00H)
	DD	00H
	DD	01H
__unwindtable$??0Entity@@QAE@ABVVector3f@@ABVQuaternion@@M@Z DD 0ffffffffH
	DD	FLAT:__unwindfunclet$??0Entity@@QAE@ABVVector3f@@ABVQuaternion@@M@Z$0
	DD	00H
	DD	FLAT:__unwindfunclet$??0Entity@@QAE@ABVVector3f@@ABVQuaternion@@M@Z$1
	DD	01H
	DD	FLAT:__unwindfunclet$??0Entity@@QAE@ABVVector3f@@ABVQuaternion@@M@Z$2
xdata$x	ENDS
;	COMDAT xdata$x
xdata$x	SEGMENT
__ehfuncinfo$?end@?$vector@U?$pair@PAVRigidBody@@H@std@@V?$allocator@U?$pair@PAVRigidBody@@H@std@@@2@@std@@QAE?AV?$_Vector_iterator@V?$_Vector_val@U?$_Simple_types@U?$pair@PAVRigidBody@@H@std@@@std@@@std@@@2@XZ DD 019930522H
	DD	00H
	DD	00H
	DD	2 DUP(00H)
	DD	2 DUP(00H)
	DD	00H
	DD	05H
xdata$x	ENDS
;	COMDAT xdata$x
xdata$x	SEGMENT
__ehfuncinfo$?begin@?$vector@U?$pair@PAVRigidBody@@H@std@@V?$allocator@U?$pair@PAVRigidBody@@H@std@@@2@@std@@QAE?AV?$_Vector_iterator@V?$_Vector_val@U?$_Simple_types@U?$pair@PAVRigidBody@@H@std@@@std@@@std@@@2@XZ DD 019930522H
	DD	00H
	DD	00H
	DD	2 DUP(00H)
	DD	2 DUP(00H)
	DD	00H
	DD	05H
xdata$x	ENDS
;	COMDAT xdata$x
xdata$x	SEGMENT
__ehfuncinfo$??1?$vector@U?$pair@PAVRigidBody@@H@std@@V?$allocator@U?$pair@PAVRigidBody@@H@std@@@2@@std@@QAE@XZ DD 019930522H
	DD	00H
	DD	00H
	DD	2 DUP(00H)
	DD	2 DUP(00H)
	DD	00H
	DD	05H
xdata$x	ENDS
;	COMDAT xdata$x
xdata$x	SEGMENT
__ehfuncinfo$??0?$vector@U?$pair@PAVRigidBody@@H@std@@V?$allocator@U?$pair@PAVRigidBody@@H@std@@@2@@std@@QAE@XZ DD 019930522H
	DD	00H
	DD	00H
	DD	2 DUP(00H)
	DD	2 DUP(00H)
	DD	00H
	DD	05H
xdata$x	ENDS
;	COMDAT xdata$x
xdata$x	SEGMENT
__ehfuncinfo$?end@?$vector@PAVEntity@@V?$allocator@PAVEntity@@@std@@@std@@QAE?AV?$_Vector_iterator@V?$_Vector_val@U?$_Simple_types@PAVEntity@@@std@@@std@@@2@XZ DD 019930522H
	DD	00H
	DD	00H
	DD	2 DUP(00H)
	DD	2 DUP(00H)
	DD	00H
	DD	05H
xdata$x	ENDS
;	COMDAT xdata$x
xdata$x	SEGMENT
__ehfuncinfo$?begin@?$vector@PAVEntity@@V?$allocator@PAVEntity@@@std@@@std@@QAE?AV?$_Vector_iterator@V?$_Vector_val@U?$_Simple_types@PAVEntity@@@std@@@std@@@2@XZ DD 019930522H
	DD	00H
	DD	00H
	DD	2 DUP(00H)
	DD	2 DUP(00H)
	DD	00H
	DD	05H
xdata$x	ENDS
;	COMDAT xdata$x
xdata$x	SEGMENT
__ehfuncinfo$??1?$vector@PAVEntity@@V?$allocator@PAVEntity@@@std@@@std@@QAE@XZ DD 019930522H
	DD	00H
	DD	00H
	DD	2 DUP(00H)
	DD	2 DUP(00H)
	DD	00H
	DD	05H
xdata$x	ENDS
;	COMDAT xdata$x
xdata$x	SEGMENT
__ehfuncinfo$??0?$vector@PAVEntity@@V?$allocator@PAVEntity@@@std@@@std@@QAE@$$QAV01@@Z DD 019930522H
	DD	00H
	DD	00H
	DD	2 DUP(00H)
	DD	2 DUP(00H)
	DD	00H
	DD	05H
xdata$x	ENDS
;	COMDAT xdata$x
xdata$x	SEGMENT
__ehfuncinfo$??0?$vector@PAVEntity@@V?$allocator@PAVEntity@@@std@@@std@@QAE@XZ DD 019930522H
	DD	00H
	DD	00H
	DD	2 DUP(00H)
	DD	2 DUP(00H)
	DD	00H
	DD	05H
xdata$x	ENDS
;	COMDAT xdata$x
xdata$x	SEGMENT
__ehfuncinfo$?end@?$vector@PAVEntityComponent@@V?$allocator@PAVEntityComponent@@@std@@@std@@QAE?AV?$_Vector_iterator@V?$_Vector_val@U?$_Simple_types@PAVEntityComponent@@@std@@@std@@@2@XZ DD 019930522H
	DD	00H
	DD	00H
	DD	2 DUP(00H)
	DD	2 DUP(00H)
	DD	00H
	DD	05H
xdata$x	ENDS
;	COMDAT xdata$x
xdata$x	SEGMENT
__ehfuncinfo$?begin@?$vector@PAVEntityComponent@@V?$allocator@PAVEntityComponent@@@std@@@std@@QAE?AV?$_Vector_iterator@V?$_Vector_val@U?$_Simple_types@PAVEntityComponent@@@std@@@std@@@2@XZ DD 019930522H
	DD	00H
	DD	00H
	DD	2 DUP(00H)
	DD	2 DUP(00H)
	DD	00H
	DD	05H
xdata$x	ENDS
;	COMDAT xdata$x
xdata$x	SEGMENT
__ehfuncinfo$??1?$vector@PAVEntityComponent@@V?$allocator@PAVEntityComponent@@@std@@@std@@QAE@XZ DD 019930522H
	DD	00H
	DD	00H
	DD	2 DUP(00H)
	DD	2 DUP(00H)
	DD	00H
	DD	05H
xdata$x	ENDS
;	COMDAT xdata$x
xdata$x	SEGMENT
__ehfuncinfo$??0?$vector@PAVEntityComponent@@V?$allocator@PAVEntityComponent@@@std@@@std@@QAE@$$QAV01@@Z DD 019930522H
	DD	00H
	DD	00H
	DD	2 DUP(00H)
	DD	2 DUP(00H)
	DD	00H
	DD	05H
xdata$x	ENDS
;	COMDAT xdata$x
xdata$x	SEGMENT
__ehfuncinfo$??0?$vector@PAVEntityComponent@@V?$allocator@PAVEntityComponent@@@std@@@std@@QAE@XZ DD 019930522H
	DD	00H
	DD	00H
	DD	2 DUP(00H)
	DD	2 DUP(00H)
	DD	00H
	DD	05H
xdata$x	ENDS
;	COMDAT xdata$x
xdata$x	SEGMENT
__ehfuncinfo$??1?$vector@V?$basic_string@DU?$char_traits@D@std@@V?$allocator@D@2@@std@@V?$allocator@V?$basic_string@DU?$char_traits@D@std@@V?$allocator@D@2@@std@@@2@@std@@QAE@XZ DD 019930522H
	DD	00H
	DD	00H
	DD	2 DUP(00H)
	DD	2 DUP(00H)
	DD	00H
	DD	05H
xdata$x	ENDS
;	COMDAT xdata$x
xdata$x	SEGMENT
__ehfuncinfo$?compare@?$basic_string@DU?$char_traits@D@std@@V?$allocator@D@2@@std@@QBEHABV12@@Z DD 019930522H
	DD	00H
	DD	00H
	DD	2 DUP(00H)
	DD	2 DUP(00H)
	DD	00H
	DD	05H
xdata$x	ENDS
;	COMDAT xdata$x
xdata$x	SEGMENT
__ehfuncinfo$?c_str@?$basic_string@DU?$char_traits@D@std@@V?$allocator@D@2@@std@@QBEPBDXZ DD 019930522H
	DD	00H
	DD	00H
	DD	2 DUP(00H)
	DD	2 DUP(00H)
	DD	00H
	DD	05H
xdata$x	ENDS
;	COMDAT xdata$x
xdata$x	SEGMENT
__ehfuncinfo$??1?$basic_string@DU?$char_traits@D@std@@V?$allocator@D@2@@std@@QAE@XZ DD 019930522H
	DD	00H
	DD	00H
	DD	2 DUP(00H)
	DD	2 DUP(00H)
	DD	00H
	DD	05H
xdata$x	ENDS
;	COMDAT xdata$x
xdata$x	SEGMENT
__ehfuncinfo$??0?$basic_string@DU?$char_traits@D@std@@V?$allocator@D@2@@std@@QAE@PBD@Z DD 019930522H
	DD	01H
	DD	FLAT:__unwindtable$??0?$basic_string@DU?$char_traits@D@std@@V?$allocator@D@2@@std@@QAE@PBD@Z
	DD	2 DUP(00H)
	DD	2 DUP(00H)
	DD	00H
	DD	01H
__unwindtable$??0?$basic_string@DU?$char_traits@D@std@@V?$allocator@D@2@@std@@QAE@PBD@Z DD 0ffffffffH
	DD	FLAT:__unwindfunclet$??0?$basic_string@DU?$char_traits@D@std@@V?$allocator@D@2@@std@@QAE@PBD@Z$0
xdata$x	ENDS
;	COMDAT xdata$x
xdata$x	SEGMENT
__ehfuncinfo$??1?$_Vector_alloc@U?$_Vec_base_types@U?$pair@PAVRigidBody@@H@std@@V?$allocator@U?$pair@PAVRigidBody@@H@std@@@2@@std@@@std@@QAE@XZ DD 019930522H
	DD	00H
	DD	00H
	DD	2 DUP(00H)
	DD	2 DUP(00H)
	DD	00H
	DD	05H
xdata$x	ENDS
;	COMDAT xdata$x
xdata$x	SEGMENT
__ehfuncinfo$??0?$_Vector_alloc@U?$_Vec_base_types@U?$pair@PAVRigidBody@@H@std@@V?$allocator@U?$pair@PAVRigidBody@@H@std@@@2@@std@@@std@@QAE@ABV?$allocator@U?$pair@PAVRigidBody@@H@std@@@1@@Z DD 019930522H
	DD	01H
	DD	FLAT:__unwindtable$??0?$_Vector_alloc@U?$_Vec_base_types@U?$pair@PAVRigidBody@@H@std@@V?$allocator@U?$pair@PAVRigidBody@@H@std@@@2@@std@@@std@@QAE@ABV?$allocator@U?$pair@PAVRigidBody@@H@std@@@1@@Z
	DD	2 DUP(00H)
	DD	2 DUP(00H)
	DD	00H
	DD	01H
__unwindtable$??0?$_Vector_alloc@U?$_Vec_base_types@U?$pair@PAVRigidBody@@H@std@@V?$allocator@U?$pair@PAVRigidBody@@H@std@@@2@@std@@@std@@QAE@ABV?$allocator@U?$pair@PAVRigidBody@@H@std@@@1@@Z DD 0ffffffffH
	DD	FLAT:__unwindfunclet$??0?$_Vector_alloc@U?$_Vec_base_types@U?$pair@PAVRigidBody@@H@std@@V?$allocator@U?$pair@PAVRigidBody@@H@std@@@2@@std@@@std@@QAE@ABV?$allocator@U?$pair@PAVRigidBody@@H@std@@@1@@Z$0
xdata$x	ENDS
;	COMDAT xdata$x
xdata$x	SEGMENT
__ehfuncinfo$??1?$_Vector_alloc@U?$_Vec_base_types@PAVEntityComponent@@V?$allocator@PAVEntityComponent@@@std@@@std@@@std@@QAE@XZ DD 019930522H
	DD	00H
	DD	00H
	DD	2 DUP(00H)
	DD	2 DUP(00H)
	DD	00H
	DD	05H
xdata$x	ENDS
;	COMDAT xdata$x
xdata$x	SEGMENT
__ehfuncinfo$??0?$_Vector_alloc@U?$_Vec_base_types@PAVEntityComponent@@V?$allocator@PAVEntityComponent@@@std@@@std@@@std@@QAE@$$QAV?$allocator@PAVEntityComponent@@@1@@Z DD 019930522H
	DD	01H
	DD	FLAT:__unwindtable$??0?$_Vector_alloc@U?$_Vec_base_types@PAVEntityComponent@@V?$allocator@PAVEntityComponent@@@std@@@std@@@std@@QAE@$$QAV?$allocator@PAVEntityComponent@@@1@@Z
	DD	2 DUP(00H)
	DD	2 DUP(00H)
	DD	00H
	DD	01H
__unwindtable$??0?$_Vector_alloc@U?$_Vec_base_types@PAVEntityComponent@@V?$allocator@PAVEntityComponent@@@std@@@std@@@std@@QAE@$$QAV?$allocator@PAVEntityComponent@@@1@@Z DD 0ffffffffH
	DD	FLAT:__unwindfunclet$??0?$_Vector_alloc@U?$_Vec_base_types@PAVEntityComponent@@V?$allocator@PAVEntityComponent@@@std@@@std@@@std@@QAE@$$QAV?$allocator@PAVEntityComponent@@@1@@Z$0
xdata$x	ENDS
;	COMDAT xdata$x
xdata$x	SEGMENT
__ehfuncinfo$??0?$_Vector_alloc@U?$_Vec_base_types@PAVEntityComponent@@V?$allocator@PAVEntityComponent@@@std@@@std@@@std@@QAE@ABV?$allocator@PAVEntityComponent@@@1@@Z DD 019930522H
	DD	01H
	DD	FLAT:__unwindtable$??0?$_Vector_alloc@U?$_Vec_base_types@PAVEntityComponent@@V?$allocator@PAVEntityComponent@@@std@@@std@@@std@@QAE@ABV?$allocator@PAVEntityComponent@@@1@@Z
	DD	2 DUP(00H)
	DD	2 DUP(00H)
	DD	00H
	DD	01H
__unwindtable$??0?$_Vector_alloc@U?$_Vec_base_types@PAVEntityComponent@@V?$allocator@PAVEntityComponent@@@std@@@std@@@std@@QAE@ABV?$allocator@PAVEntityComponent@@@1@@Z DD 0ffffffffH
	DD	FLAT:__unwindfunclet$??0?$_Vector_alloc@U?$_Vec_base_types@PAVEntityComponent@@V?$allocator@PAVEntityComponent@@@std@@@std@@@std@@QAE@ABV?$allocator@PAVEntityComponent@@@1@@Z$0
xdata$x	ENDS
;	COMDAT xdata$x
xdata$x	SEGMENT
__ehfuncinfo$??1?$_Vector_alloc@U?$_Vec_base_types@PAVEntity@@V?$allocator@PAVEntity@@@std@@@std@@@std@@QAE@XZ DD 019930522H
	DD	00H
	DD	00H
	DD	2 DUP(00H)
	DD	2 DUP(00H)
	DD	00H
	DD	05H
xdata$x	ENDS
;	COMDAT xdata$x
xdata$x	SEGMENT
__ehfuncinfo$??0?$_Vector_alloc@U?$_Vec_base_types@PAVEntity@@V?$allocator@PAVEntity@@@std@@@std@@@std@@QAE@$$QAV?$allocator@PAVEntity@@@1@@Z DD 019930522H
	DD	01H
	DD	FLAT:__unwindtable$??0?$_Vector_alloc@U?$_Vec_base_types@PAVEntity@@V?$allocator@PAVEntity@@@std@@@std@@@std@@QAE@$$QAV?$allocator@PAVEntity@@@1@@Z
	DD	2 DUP(00H)
	DD	2 DUP(00H)
	DD	00H
	DD	01H
__unwindtable$??0?$_Vector_alloc@U?$_Vec_base_types@PAVEntity@@V?$allocator@PAVEntity@@@std@@@std@@@std@@QAE@$$QAV?$allocator@PAVEntity@@@1@@Z DD 0ffffffffH
	DD	FLAT:__unwindfunclet$??0?$_Vector_alloc@U?$_Vec_base_types@PAVEntity@@V?$allocator@PAVEntity@@@std@@@std@@@std@@QAE@$$QAV?$allocator@PAVEntity@@@1@@Z$0
xdata$x	ENDS
;	COMDAT xdata$x
xdata$x	SEGMENT
__ehfuncinfo$??0?$_Vector_alloc@U?$_Vec_base_types@PAVEntity@@V?$allocator@PAVEntity@@@std@@@std@@@std@@QAE@ABV?$allocator@PAVEntity@@@1@@Z DD 019930522H
	DD	01H
	DD	FLAT:__unwindtable$??0?$_Vector_alloc@U?$_Vec_base_types@PAVEntity@@V?$allocator@PAVEntity@@@std@@@std@@@std@@QAE@ABV?$allocator@PAVEntity@@@1@@Z
	DD	2 DUP(00H)
	DD	2 DUP(00H)
	DD	00H
	DD	01H
__unwindtable$??0?$_Vector_alloc@U?$_Vec_base_types@PAVEntity@@V?$allocator@PAVEntity@@@std@@@std@@@std@@QAE@ABV?$allocator@PAVEntity@@@1@@Z DD 0ffffffffH
	DD	FLAT:__unwindfunclet$??0?$_Vector_alloc@U?$_Vec_base_types@PAVEntity@@V?$allocator@PAVEntity@@@std@@@std@@@std@@QAE@ABV?$allocator@PAVEntity@@@1@@Z$0
xdata$x	ENDS
;	COMDAT xdata$x
xdata$x	SEGMENT
__ehfuncinfo$?_Orphan_range@?$vector@PAVEntity@@V?$allocator@PAVEntity@@@std@@@std@@IBEXPAPAVEntity@@0@Z DD 019930522H
	DD	01H
	DD	FLAT:__unwindtable$?_Orphan_range@?$vector@PAVEntity@@V?$allocator@PAVEntity@@@std@@@std@@IBEXPAPAVEntity@@0@Z
	DD	2 DUP(00H)
	DD	2 DUP(00H)
	DD	00H
	DD	01H
__unwindtable$?_Orphan_range@?$vector@PAVEntity@@V?$allocator@PAVEntity@@@std@@@std@@IBEXPAPAVEntity@@0@Z DD 0ffffffffH
	DD	FLAT:__unwindfunclet$?_Orphan_range@?$vector@PAVEntity@@V?$allocator@PAVEntity@@@std@@@std@@IBEXPAPAVEntity@@0@Z$0
xdata$x	ENDS
;	COMDAT xdata$x
xdata$x	SEGMENT
__ehfuncinfo$?_Orphan_range@?$vector@PAVEntityComponent@@V?$allocator@PAVEntityComponent@@@std@@@std@@IBEXPAPAVEntityComponent@@0@Z DD 019930522H
	DD	01H
	DD	FLAT:__unwindtable$?_Orphan_range@?$vector@PAVEntityComponent@@V?$allocator@PAVEntityComponent@@@std@@@std@@IBEXPAPAVEntityComponent@@0@Z
	DD	2 DUP(00H)
	DD	2 DUP(00H)
	DD	00H
	DD	01H
__unwindtable$?_Orphan_range@?$vector@PAVEntityComponent@@V?$allocator@PAVEntityComponent@@@std@@@std@@IBEXPAPAVEntityComponent@@0@Z DD 0ffffffffH
	DD	FLAT:__unwindfunclet$?_Orphan_range@?$vector@PAVEntityComponent@@V?$allocator@PAVEntityComponent@@@std@@@std@@IBEXPAPAVEntityComponent@@0@Z$0
xdata$x	ENDS
;	COMDAT xdata$x
xdata$x	SEGMENT
__ehfuncinfo$??1?$_Vector_alloc@U?$_Vec_base_types@V?$basic_string@DU?$char_traits@D@std@@V?$allocator@D@2@@std@@V?$allocator@V?$basic_string@DU?$char_traits@D@std@@V?$allocator@D@2@@std@@@2@@std@@@std@@QAE@XZ DD 019930522H
	DD	00H
	DD	00H
	DD	2 DUP(00H)
	DD	2 DUP(00H)
	DD	00H
	DD	05H
xdata$x	ENDS
;	COMDAT xdata$x
xdata$x	SEGMENT
__ehfuncinfo$??1?$_String_alloc@U?$_String_base_types@DV?$allocator@D@std@@@std@@@std@@QAE@XZ DD 019930522H
	DD	00H
	DD	00H
	DD	2 DUP(00H)
	DD	2 DUP(00H)
	DD	00H
	DD	05H
xdata$x	ENDS
;	COMDAT xdata$x
xdata$x	SEGMENT
__ehfuncinfo$??0?$_String_alloc@U?$_String_base_types@DV?$allocator@D@std@@@std@@@std@@QAE@ABV?$allocator@D@1@@Z DD 019930522H
	DD	01H
	DD	FLAT:__unwindtable$??0?$_String_alloc@U?$_String_base_types@DV?$allocator@D@std@@@std@@@std@@QAE@ABV?$allocator@D@1@@Z
	DD	2 DUP(00H)
	DD	2 DUP(00H)
	DD	00H
	DD	01H
__unwindtable$??0?$_String_alloc@U?$_String_base_types@DV?$allocator@D@std@@@std@@@std@@QAE@ABV?$allocator@D@1@@Z DD 0ffffffffH
	DD	FLAT:__unwindfunclet$??0?$_String_alloc@U?$_String_base_types@DV?$allocator@D@std@@@std@@@std@@QAE@ABV?$allocator@D@1@@Z$0
xdata$x	ENDS
;	COMDAT xdata$x
xdata$x	SEGMENT
__ehfuncinfo$?_Tidy@?$_Func_class@XPAVRigidBody@@@std@@IAEXXZ DD 019930522H
	DD	00H
	DD	00H
	DD	2 DUP(00H)
	DD	2 DUP(00H)
	DD	00H
	DD	05H
xdata$x	ENDS
;	COMDAT xdata$x
xdata$x	SEGMENT
__ehfuncinfo$??0?$_Vector_const_iterator@V?$_Vector_val@U?$_Simple_types@U?$pair@PAVRigidBody@@H@std@@@std@@@std@@@std@@QAE@PAU?$pair@PAVRigidBody@@H@1@PBU_Container_base12@1@@Z DD 019930522H
	DD	01H
	DD	FLAT:__unwindtable$??0?$_Vector_const_iterator@V?$_Vector_val@U?$_Simple_types@U?$pair@PAVRigidBody@@H@std@@@std@@@std@@@std@@QAE@PAU?$pair@PAVRigidBody@@H@1@PBU_Container_base12@1@@Z
	DD	2 DUP(00H)
	DD	2 DUP(00H)
	DD	00H
	DD	01H
__unwindtable$??0?$_Vector_const_iterator@V?$_Vector_val@U?$_Simple_types@U?$pair@PAVRigidBody@@H@std@@@std@@@std@@@std@@QAE@PAU?$pair@PAVRigidBody@@H@1@PBU_Container_base12@1@@Z DD 0ffffffffH
	DD	FLAT:__unwindfunclet$??0?$_Vector_const_iterator@V?$_Vector_val@U?$_Simple_types@U?$pair@PAVRigidBody@@H@std@@@std@@@std@@@std@@QAE@PAU?$pair@PAVRigidBody@@H@1@PBU_Container_base12@1@@Z$0
xdata$x	ENDS
;	COMDAT xdata$x
xdata$x	SEGMENT
__ehfuncinfo$??0?$_Vector_const_iterator@V?$_Vector_val@U?$_Simple_types@PAVEntityComponent@@@std@@@std@@@std@@QAE@PAPAVEntityComponent@@PBU_Container_base12@1@@Z DD 019930522H
	DD	01H
	DD	FLAT:__unwindtable$??0?$_Vector_const_iterator@V?$_Vector_val@U?$_Simple_types@PAVEntityComponent@@@std@@@std@@@std@@QAE@PAPAVEntityComponent@@PBU_Container_base12@1@@Z
	DD	2 DUP(00H)
	DD	2 DUP(00H)
	DD	00H
	DD	01H
__unwindtable$??0?$_Vector_const_iterator@V?$_Vector_val@U?$_Simple_types@PAVEntityComponent@@@std@@@std@@@std@@QAE@PAPAVEntityComponent@@PBU_Container_base12@1@@Z DD 0ffffffffH
	DD	FLAT:__unwindfunclet$??0?$_Vector_const_iterator@V?$_Vector_val@U?$_Simple_types@PAVEntityComponent@@@std@@@std@@@std@@QAE@PAPAVEntityComponent@@PBU_Container_base12@1@@Z$0
xdata$x	ENDS
;	COMDAT xdata$x
xdata$x	SEGMENT
__ehfuncinfo$??0?$_Vector_const_iterator@V?$_Vector_val@U?$_Simple_types@PAVEntity@@@std@@@std@@@std@@QAE@PAPAVEntity@@PBU_Container_base12@1@@Z DD 019930522H
	DD	01H
	DD	FLAT:__unwindtable$??0?$_Vector_const_iterator@V?$_Vector_val@U?$_Simple_types@PAVEntity@@@std@@@std@@@std@@QAE@PAPAVEntity@@PBU_Container_base12@1@@Z
	DD	2 DUP(00H)
	DD	2 DUP(00H)
	DD	00H
	DD	01H
__unwindtable$??0?$_Vector_const_iterator@V?$_Vector_val@U?$_Simple_types@PAVEntity@@@std@@@std@@@std@@QAE@PAPAVEntity@@PBU_Container_base12@1@@Z DD 0ffffffffH
	DD	FLAT:__unwindfunclet$??0?$_Vector_const_iterator@V?$_Vector_val@U?$_Simple_types@PAVEntity@@@std@@@std@@@std@@QAE@PAPAVEntity@@PBU_Container_base12@1@@Z$0
xdata$x	ENDS
;	COMDAT xdata$x
xdata$x	SEGMENT
__ehfuncinfo$?_Reallocate@?$vector@PAVEntity@@V?$allocator@PAVEntity@@@std@@@std@@IAEXI@Z DD 019930522H
	DD	02H
	DD	FLAT:__unwindtable$?_Reallocate@?$vector@PAVEntity@@V?$allocator@PAVEntity@@@std@@@std@@IAEXI@Z
	DD	01H
	DD	FLAT:__tryblocktable$?_Reallocate@?$vector@PAVEntity@@V?$allocator@PAVEntity@@@std@@@std@@IAEXI@Z
	DD	2 DUP(00H)
	DD	00H
	DD	01H
__unwindtable$?_Reallocate@?$vector@PAVEntity@@V?$allocator@PAVEntity@@@std@@@std@@IAEXI@Z DD 0ffffffffH
	DD	00H
	DD	0ffffffffH
	DD	00H
__tryblocktable$?_Reallocate@?$vector@PAVEntity@@V?$allocator@PAVEntity@@@std@@@std@@IAEXI@Z DD 00H
	DD	00H
	DD	01H
	DD	01H
	DD	FLAT:__catchsym$?_Reallocate@?$vector@PAVEntity@@V?$allocator@PAVEntity@@@std@@@std@@IAEXI@Z$2
__catchsym$?_Reallocate@?$vector@PAVEntity@@V?$allocator@PAVEntity@@@std@@@std@@IAEXI@Z$2 DD 040H
	DD	00H
	DD	00H
	DD	FLAT:__catch$?_Reallocate@?$vector@PAVEntity@@V?$allocator@PAVEntity@@@std@@@std@@IAEXI@Z$0
xdata$x	ENDS
;	COMDAT xdata$x
xdata$x	SEGMENT
__ehfuncinfo$?_Reallocate@?$vector@PAVEntityComponent@@V?$allocator@PAVEntityComponent@@@std@@@std@@IAEXI@Z DD 019930522H
	DD	02H
	DD	FLAT:__unwindtable$?_Reallocate@?$vector@PAVEntityComponent@@V?$allocator@PAVEntityComponent@@@std@@@std@@IAEXI@Z
	DD	01H
	DD	FLAT:__tryblocktable$?_Reallocate@?$vector@PAVEntityComponent@@V?$allocator@PAVEntityComponent@@@std@@@std@@IAEXI@Z
	DD	2 DUP(00H)
	DD	00H
	DD	01H
__unwindtable$?_Reallocate@?$vector@PAVEntityComponent@@V?$allocator@PAVEntityComponent@@@std@@@std@@IAEXI@Z DD 0ffffffffH
	DD	00H
	DD	0ffffffffH
	DD	00H
__tryblocktable$?_Reallocate@?$vector@PAVEntityComponent@@V?$allocator@PAVEntityComponent@@@std@@@std@@IAEXI@Z DD 00H
	DD	00H
	DD	01H
	DD	01H
	DD	FLAT:__catchsym$?_Reallocate@?$vector@PAVEntityComponent@@V?$allocator@PAVEntityComponent@@@std@@@std@@IAEXI@Z$2
__catchsym$?_Reallocate@?$vector@PAVEntityComponent@@V?$allocator@PAVEntityComponent@@@std@@@std@@IAEXI@Z$2 DD 040H
	DD	00H
	DD	00H
	DD	FLAT:__catch$?_Reallocate@?$vector@PAVEntityComponent@@V?$allocator@PAVEntityComponent@@@std@@@std@@IAEXI@Z$0
xdata$x	ENDS
;	COMDAT xdata$x
xdata$x	SEGMENT
__ehfuncinfo$?_Copy@?$basic_string@DU?$char_traits@D@std@@V?$allocator@D@2@@std@@QAEXII@Z DD 019930522H
	DD	04H
	DD	FLAT:__unwindtable$?_Copy@?$basic_string@DU?$char_traits@D@std@@V?$allocator@D@2@@std@@QAEXII@Z
	DD	02H
	DD	FLAT:__tryblocktable$?_Copy@?$basic_string@DU?$char_traits@D@std@@V?$allocator@D@2@@std@@QAEXII@Z
	DD	2 DUP(00H)
	DD	00H
	DD	01H
__unwindtable$?_Copy@?$basic_string@DU?$char_traits@D@std@@V?$allocator@D@2@@std@@QAEXII@Z DD 0ffffffffH
	DD	00H
	DD	0ffffffffH
	DD	00H
	DD	01H
	DD	00H
	DD	01H
	DD	00H
__tryblocktable$?_Copy@?$basic_string@DU?$char_traits@D@std@@V?$allocator@D@2@@std@@QAEXII@Z DD 02H
	DD	02H
	DD	03H
	DD	01H
	DD	FLAT:__catchsym$?_Copy@?$basic_string@DU?$char_traits@D@std@@V?$allocator@D@2@@std@@QAEXII@Z$4
	DD	00H
	DD	00H
	DD	03H
	DD	01H
	DD	FLAT:__catchsym$?_Copy@?$basic_string@DU?$char_traits@D@std@@V?$allocator@D@2@@std@@QAEXII@Z$5
__catchsym$?_Copy@?$basic_string@DU?$char_traits@D@std@@V?$allocator@D@2@@std@@QAEXII@Z$4 DD 040H
	DD	00H
	DD	00H
	DD	FLAT:__catch$?_Copy@?$basic_string@DU?$char_traits@D@std@@V?$allocator@D@2@@std@@QAEXII@Z$1
__catchsym$?_Copy@?$basic_string@DU?$char_traits@D@std@@V?$allocator@D@2@@std@@QAEXII@Z$5 DD 040H
	DD	00H
	DD	00H
	DD	FLAT:__catch$?_Copy@?$basic_string@DU?$char_traits@D@std@@V?$allocator@D@2@@std@@QAEXII@Z$0
xdata$x	ENDS
;	COMDAT xdata$x
xdata$x	SEGMENT
__ehfuncinfo$??$?6U?$char_traits@D@std@@@std@@YAAAV?$basic_ostream@DU?$char_traits@D@std@@@0@AAV10@PBD@Z DD 019930522H
	DD	03H
	DD	FLAT:__unwindtable$??$?6U?$char_traits@D@std@@@std@@YAAAV?$basic_ostream@DU?$char_traits@D@std@@@0@AAV10@PBD@Z
	DD	01H
	DD	FLAT:__tryblocktable$??$?6U?$char_traits@D@std@@@std@@YAAAV?$basic_ostream@DU?$char_traits@D@std@@@0@AAV10@PBD@Z
	DD	2 DUP(00H)
	DD	00H
	DD	01H
__unwindtable$??$?6U?$char_traits@D@std@@@std@@YAAAV?$basic_ostream@DU?$char_traits@D@std@@@0@AAV10@PBD@Z DD 0ffffffffH
	DD	FLAT:__unwindfunclet$??$?6U?$char_traits@D@std@@@std@@YAAAV?$basic_ostream@DU?$char_traits@D@std@@@0@AAV10@PBD@Z$2
	DD	00H
	DD	00H
	DD	00H
	DD	00H
__tryblocktable$??$?6U?$char_traits@D@std@@@std@@YAAAV?$basic_ostream@DU?$char_traits@D@std@@@0@AAV10@PBD@Z DD 01H
	DD	01H
	DD	02H
	DD	01H
	DD	FLAT:__catchsym$??$?6U?$char_traits@D@std@@@std@@YAAAV?$basic_ostream@DU?$char_traits@D@std@@@0@AAV10@PBD@Z$3
__catchsym$??$?6U?$char_traits@D@std@@@std@@YAAAV?$basic_ostream@DU?$char_traits@D@std@@@0@AAV10@PBD@Z$3 DD 040H
	DD	00H
	DD	00H
	DD	FLAT:__catch$??$?6U?$char_traits@D@std@@@std@@YAAAV?$basic_ostream@DU?$char_traits@D@std@@@0@AAV10@PBD@Z$0
xdata$x	ENDS
;	COMDAT xdata$x
xdata$x	SEGMENT
__ehfuncinfo$??$?6DU?$char_traits@D@std@@V?$allocator@D@1@@std@@YAAAV?$basic_ostream@DU?$char_traits@D@std@@@0@AAV10@ABV?$basic_string@DU?$char_traits@D@std@@V?$allocator@D@2@@0@@Z DD 019930522H
	DD	03H
	DD	FLAT:__unwindtable$??$?6DU?$char_traits@D@std@@V?$allocator@D@1@@std@@YAAAV?$basic_ostream@DU?$char_traits@D@std@@@0@AAV10@ABV?$basic_string@DU?$char_traits@D@std@@V?$allocator@D@2@@0@@Z
	DD	01H
	DD	FLAT:__tryblocktable$??$?6DU?$char_traits@D@std@@V?$allocator@D@1@@std@@YAAAV?$basic_ostream@DU?$char_traits@D@std@@@0@AAV10@ABV?$basic_string@DU?$char_traits@D@std@@V?$allocator@D@2@@0@@Z
	DD	2 DUP(00H)
	DD	00H
	DD	01H
__unwindtable$??$?6DU?$char_traits@D@std@@V?$allocator@D@1@@std@@YAAAV?$basic_ostream@DU?$char_traits@D@std@@@0@AAV10@ABV?$basic_string@DU?$char_traits@D@std@@V?$allocator@D@2@@0@@Z DD 0ffffffffH
	DD	FLAT:__unwindfunclet$??$?6DU?$char_traits@D@std@@V?$allocator@D@1@@std@@YAAAV?$basic_ostream@DU?$char_traits@D@std@@@0@AAV10@ABV?$basic_string@DU?$char_traits@D@std@@V?$allocator@D@2@@0@@Z$2
	DD	00H
	DD	00H
	DD	00H
	DD	00H
__tryblocktable$??$?6DU?$char_traits@D@std@@V?$allocator@D@1@@std@@YAAAV?$basic_ostream@DU?$char_traits@D@std@@@0@AAV10@ABV?$basic_string@DU?$char_traits@D@std@@V?$allocator@D@2@@0@@Z DD 01H
	DD	01H
	DD	02H
	DD	01H
	DD	FLAT:__catchsym$??$?6DU?$char_traits@D@std@@V?$allocator@D@1@@std@@YAAAV?$basic_ostream@DU?$char_traits@D@std@@@0@AAV10@ABV?$basic_string@DU?$char_traits@D@std@@V?$allocator@D@2@@0@@Z$3
__catchsym$??$?6DU?$char_traits@D@std@@V?$allocator@D@1@@std@@YAAAV?$basic_ostream@DU?$char_traits@D@std@@@0@AAV10@ABV?$basic_string@DU?$char_traits@D@std@@V?$allocator@D@2@@0@@Z$3 DD 040H
	DD	00H
	DD	00H
	DD	FLAT:__catch$??$?6DU?$char_traits@D@std@@V?$allocator@D@1@@std@@YAAAV?$basic_ostream@DU?$char_traits@D@std@@@0@AAV10@ABV?$basic_string@DU?$char_traits@D@std@@V?$allocator@D@2@@0@@Z$0
xdata$x	ENDS
;	COMDAT xdata$x
xdata$x	SEGMENT
__ehfuncinfo$??$insert@V?$_Vector_iterator@V?$_Vector_val@U?$_Simple_types@PAVEntity@@@std@@@std@@@std@@@?$vector@PAVEntity@@V?$allocator@PAVEntity@@@std@@@std@@QAE?AV?$_Vector_iterator@V?$_Vector_val@U?$_Simple_types@PAVEntity@@@std@@@std@@@1@V?$_Vector_const_iterator@V?$_Vector_val@U?$_Simple_types@PAVEntity@@@std@@@std@@@1@V21@1@Z DD 019930522H
	DD	06H
	DD	FLAT:__unwindtable$??$insert@V?$_Vector_iterator@V?$_Vector_val@U?$_Simple_types@PAVEntity@@@std@@@std@@@std@@@?$vector@PAVEntity@@V?$allocator@PAVEntity@@@std@@@std@@QAE?AV?$_Vector_iterator@V?$_Vector_val@U?$_Simple_types@PAVEntity@@@std@@@std@@@1@V?$_Vector_const_iterator@V?$_Vector_val@U?$_Simple_types@PAVEntity@@@std@@@std@@@1@V21@1@Z
	DD	2 DUP(00H)
	DD	2 DUP(00H)
	DD	00H
	DD	01H
__unwindtable$??$insert@V?$_Vector_iterator@V?$_Vector_val@U?$_Simple_types@PAVEntity@@@std@@@std@@@std@@@?$vector@PAVEntity@@V?$allocator@PAVEntity@@@std@@@std@@QAE?AV?$_Vector_iterator@V?$_Vector_val@U?$_Simple_types@PAVEntity@@@std@@@std@@@1@V?$_Vector_const_iterator@V?$_Vector_val@U?$_Simple_types@PAVEntity@@@std@@@std@@@1@V21@1@Z DD 0ffffffffH
	DD	FLAT:__unwindfunclet$??$insert@V?$_Vector_iterator@V?$_Vector_val@U?$_Simple_types@PAVEntity@@@std@@@std@@@std@@@?$vector@PAVEntity@@V?$allocator@PAVEntity@@@std@@@std@@QAE?AV?$_Vector_iterator@V?$_Vector_val@U?$_Simple_types@PAVEntity@@@std@@@std@@@1@V?$_Vector_const_iterator@V?$_Vector_val@U?$_Simple_types@PAVEntity@@@std@@@std@@@1@V21@1@Z$0
	DD	00H
	DD	FLAT:__unwindfunclet$??$insert@V?$_Vector_iterator@V?$_Vector_val@U?$_Simple_types@PAVEntity@@@std@@@std@@@std@@@?$vector@PAVEntity@@V?$allocator@PAVEntity@@@std@@@std@@QAE?AV?$_Vector_iterator@V?$_Vector_val@U?$_Simple_types@PAVEntity@@@std@@@std@@@1@V?$_Vector_const_iterator@V?$_Vector_val@U?$_Simple_types@PAVEntity@@@std@@@std@@@1@V21@1@Z$1
	DD	01H
	DD	FLAT:__unwindfunclet$??$insert@V?$_Vector_iterator@V?$_Vector_val@U?$_Simple_types@PAVEntity@@@std@@@std@@@std@@@?$vector@PAVEntity@@V?$allocator@PAVEntity@@@std@@@std@@QAE?AV?$_Vector_iterator@V?$_Vector_val@U?$_Simple_types@PAVEntity@@@std@@@std@@@1@V?$_Vector_const_iterator@V?$_Vector_val@U?$_Simple_types@PAVEntity@@@std@@@std@@@1@V21@1@Z$2
	DD	02H
	DD	FLAT:__unwindfunclet$??$insert@V?$_Vector_iterator@V?$_Vector_val@U?$_Simple_types@PAVEntity@@@std@@@std@@@std@@@?$vector@PAVEntity@@V?$allocator@PAVEntity@@@std@@@std@@QAE?AV?$_Vector_iterator@V?$_Vector_val@U?$_Simple_types@PAVEntity@@@std@@@std@@@1@V?$_Vector_const_iterator@V?$_Vector_val@U?$_Simple_types@PAVEntity@@@std@@@std@@@1@V21@1@Z$3
	DD	03H
	DD	FLAT:__unwindfunclet$??$insert@V?$_Vector_iterator@V?$_Vector_val@U?$_Simple_types@PAVEntity@@@std@@@std@@@std@@@?$vector@PAVEntity@@V?$allocator@PAVEntity@@@std@@@std@@QAE?AV?$_Vector_iterator@V?$_Vector_val@U?$_Simple_types@PAVEntity@@@std@@@std@@@1@V?$_Vector_const_iterator@V?$_Vector_val@U?$_Simple_types@PAVEntity@@@std@@@std@@@1@V21@1@Z$4
	DD	02H
	DD	FLAT:__unwindfunclet$??$insert@V?$_Vector_iterator@V?$_Vector_val@U?$_Simple_types@PAVEntity@@@std@@@std@@@std@@@?$vector@PAVEntity@@V?$allocator@PAVEntity@@@std@@@std@@QAE?AV?$_Vector_iterator@V?$_Vector_val@U?$_Simple_types@PAVEntity@@@std@@@std@@@1@V?$_Vector_const_iterator@V?$_Vector_val@U?$_Simple_types@PAVEntity@@@std@@@std@@@1@V21@1@Z$6
xdata$x	ENDS
;	COMDAT xdata$x
xdata$x	SEGMENT
__ehfuncinfo$??H?$_Vector_iterator@V?$_Vector_val@U?$_Simple_types@PAVEntity@@@std@@@std@@@std@@QBE?AV01@H@Z DD 019930522H
	DD	01H
	DD	FLAT:__unwindtable$??H?$_Vector_iterator@V?$_Vector_val@U?$_Simple_types@PAVEntity@@@std@@@std@@@std@@QBE?AV01@H@Z
	DD	2 DUP(00H)
	DD	2 DUP(00H)
	DD	00H
	DD	01H
__unwindtable$??H?$_Vector_iterator@V?$_Vector_val@U?$_Simple_types@PAVEntity@@@std@@@std@@@std@@QBE?AV01@H@Z DD 0ffffffffH
	DD	FLAT:__unwindfunclet$??H?$_Vector_iterator@V?$_Vector_val@U?$_Simple_types@PAVEntity@@@std@@@std@@@std@@QBE?AV01@H@Z$0
xdata$x	ENDS
;	COMDAT xdata$x
xdata$x	SEGMENT
__ehfuncinfo$??1sentry@?$basic_ostream@DU?$char_traits@D@std@@@std@@QAE@XZ DD 019930522H
	DD	00H
	DD	00H
	DD	2 DUP(00H)
	DD	2 DUP(00H)
	DD	00H
	DD	05H
xdata$x	ENDS
;	COMDAT xdata$x
xdata$x	SEGMENT
__ehfuncinfo$??0sentry@?$basic_ostream@DU?$char_traits@D@std@@@std@@QAE@AAV12@@Z DD 019930522H
	DD	01H
	DD	FLAT:__unwindtable$??0sentry@?$basic_ostream@DU?$char_traits@D@std@@@std@@QAE@AAV12@@Z
	DD	2 DUP(00H)
	DD	2 DUP(00H)
	DD	00H
	DD	01H
__unwindtable$??0sentry@?$basic_ostream@DU?$char_traits@D@std@@@std@@QAE@AAV12@@Z DD 0ffffffffH
