; Listing generated by Microsoft (R) Optimizing Compiler Version 19.00.23506.0 

	TITLE	e:\fusion3d_work\engine\src\factory.cpp
	.686P
	.XMM
	include listing.inc
	.model	flat

INCLUDELIB OLDNAMES

PUBLIC	??_C@_1BNE@CAHGANCJ@?$AAs?$AAt?$AAd?$AA?3?$AA?3?$AA_?$AAT?$AAr?$AAe?$AAe?$AA_?$AAc?$AAo?$AAn?$AAs?$AAt?$AA_?$AAi?$AAt?$AAe?$AAr?$AAa?$AAt?$AAo?$AAr?$AA?$DM?$AAc?$AAl?$AAa?$AAs?$AAs?$AA?5@ ; `string'
;	COMDAT ??_C@_1BNE@CAHGANCJ@?$AAs?$AAt?$AAd?$AA?3?$AA?3?$AA_?$AAT?$AAr?$AAe?$AAe?$AA_?$AAc?$AAo?$AAn?$AAs?$AAt?$AA_?$AAi?$AAt?$AAe?$AAr?$AAa?$AAt?$AAo?$AAr?$AA?$DM?$AAc?$AAl?$AAa?$AAs?$AAs?$AA?5@
CONST	SEGMENT
??_C@_1BNE@CAHGANCJ@?$AAs?$AAt?$AAd?$AA?3?$AA?3?$AA_?$AAT?$AAr?$AAe?$AAe?$AA_?$AAc?$AAo?$AAn?$AAs?$AAt?$AA_?$AAi?$AAt?$AAe?$AAr?$AAa?$AAt?$AAo?$AAr?$AA?$DM?$AAc?$AAl?$AAa?$AAs?$AAs?$AA?5@ DB 's'
	DB	00H, 't', 00H, 'd', 00H, ':', 00H, ':', 00H, '_', 00H, 'T', 00H
	DB	'r', 00H, 'e', 00H, 'e', 00H, '_', 00H, 'c', 00H, 'o', 00H, 'n'
	DB	00H, 's', 00H, 't', 00H, '_', 00H, 'i', 00H, 't', 00H, 'e', 00H
	DB	'r', 00H, 'a', 00H, 't', 00H, 'o', 00H, 'r', 00H, '<', 00H, 'c'
	DB	00H, 'l', 00H, 'a', 00H, 's', 00H, 's', 00H, ' ', 00H, 's', 00H
	DB	't', 00H, 'd', 00H, ':', 00H, ':', 00H, '_', 00H, 'T', 00H, 'r'
	DB	00H, 'e', 00H, 'e', 00H, '_', 00H, 'v', 00H, 'a', 00H, 'l', 00H
	DB	'<', 00H, 's', 00H, 't', 00H, 'r', 00H, 'u', 00H, 'c', 00H, 't'
	DB	00H, ' ', 00H, 's', 00H, 't', 00H, 'd', 00H, ':', 00H, ':', 00H
	DB	'_', 00H, 'T', 00H, 'r', 00H, 'e', 00H, 'e', 00H, '_', 00H, 's'
	DB	00H, 'i', 00H, 'm', 00H, 'p', 00H, 'l', 00H, 'e', 00H, '_', 00H
	DB	't', 00H, 'y', 00H, 'p', 00H, 'e', 00H, 's', 00H, '<', 00H, 's'
	DB	00H, 't', 00H, 'r', 00H, 'u', 00H, 'c', 00H, 't', 00H, ' ', 00H
	DB	's', 00H, 't', 00H, 'd', 00H, ':', 00H, ':', 00H, 'p', 00H, 'a'
	DB	00H, 'i', 00H, 'r', 00H, '<', 00H, 'c', 00H, 'l', 00H, 'a', 00H
	DB	's', 00H, 's', 00H, ' ', 00H, 's', 00H, 't', 00H, 'd', 00H, ':'
	DB	00H, ':', 00H, 'b', 00H, 'a', 00H, 's', 00H, 'i', 00H, 'c', 00H
	DB	'_', 00H, 's', 00H, 't', 00H, 'r', 00H, 'i', 00H, 'n', 00H, 'g'
	DB	00H, '<', 00H, 'c', 00H, 'h', 00H, 'a', 00H, 'r', 00H, ',', 00H
	DB	's', 00H, 't', 00H, 'r', 00H, 'u', 00H, 'c', 00H, 't', 00H, ' '
	DB	00H, 's', 00H, 't', 00H, 'd', 00H, ':', 00H, ':', 00H, 'c', 00H
	DB	'h', 00H, 'a', 00H, 'r', 00H, '_', 00H, 't', 00H, 'r', 00H, 'a'
	DB	00H, 'i', 00H, 't', 00H, 's', 00H, '<', 00H, 'c', 00H, 'h', 00H
	DB	'a', 00H, 'r', 00H, '>', 00H, ',', 00H, 'c', 00H, 'l', 00H, 'a'
	DB	00H, 's', 00H, 's', 00H, ' ', 00H, 's', 00H, 't', 00H, 'd', 00H
	DB	':', 00H, ':', 00H, 'a', 00H, 'l', 00H, 'l', 00H, 'o', 00H, 'c'
	DB	00H, 'a', 00H, 't', 00H, 'o', 00H, 'r', 00H, '<', 00H, 'c', 00H
	DB	'h', 00H, 'a', 00H, 'r', 00H, '>', 00H, ' ', 00H, '>', 00H, ' '
	DB	00H, 'c', 00H, 'o', 00H, 'n', 00H, 's', 00H, 't', 00H, ' ', 00H
	DB	',', 00H, 'v', 00H, 'o', 00H, 'i', 00H, 'd', 00H, ' ', 00H, '*'
	DB	00H, ' ', 00H, '(', 00H, '_', 00H, '_', 00H, 'c', 00H, 'd', 00H
	DB	'e', 00H, 'c', 00H, 'l', 00H, '*', 00H, ')', 00H, '(', 00H, 'v'
	DB	00H, 'o', 00H, 'i', 00H, 'd', 00H, ')', 00H, '>', 00H, ' ', 00H
	DB	'>', 00H, ' ', 00H, '>', 00H, ' ', 00H, '>', 00H, ':', 00H, ':'
	DB	00H, 'o', 00H, 'p', 00H, 'e', 00H, 'r', 00H, 'a', 00H, 't', 00H
	DB	'o', 00H, 'r', 00H, ' ', 00H, '+', 00H, '+', 00H, 00H, 00H ; `string'
PUBLIC	??$?0U?$pair@$$CBV?$basic_string@DU?$char_traits@D@std@@V?$allocator@D@2@@std@@P6APAXXZ@std@@@?$allocator@U?$_Tree_node@U?$pair@$$CBV?$basic_string@DU?$char_traits@D@std@@V?$allocator@D@2@@std@@P6APAXXZ@std@@PAX@std@@@std@@QAE@ABV?$allocator@U?$pair@$$CBV?$basic_string@DU?$char_traits@D@std@@V?$allocator@D@2@@std@@P6APAXXZ@std@@@1@@Z ; std::allocator<std::_Tree_node<std::pair<std::basic_string<char,std::char_traits<char>,std::allocator<char> > const ,void * (__cdecl*)(void)>,void *> >::allocator<std::_Tree_node<std::pair<std::basic_string<char,std::char_traits<char>,std::allocator<char> > const ,void * (__cdecl*)(void)>,void *> ><std::pair<std::basic_string<char,std::char_traits<char>,std::allocator<char> > const ,void * (__cdecl*)(void)> >
PUBLIC	??$?0V?$allocator@U?$pair@$$CBV?$basic_string@DU?$char_traits@D@std@@V?$allocator@D@2@@std@@P6APAXXZ@std@@@std@@@?$_Wrap_alloc@V?$allocator@U?$_Tree_node@U?$pair@$$CBV?$basic_string@DU?$char_traits@D@std@@V?$allocator@D@2@@std@@P6APAXXZ@std@@PAX@std@@@std@@@std@@QAE@ABV?$allocator@U?$pair@$$CBV?$basic_string@DU?$char_traits@D@std@@V?$allocator@D@2@@std@@P6APAXXZ@std@@@1@@Z ; std::_Wrap_alloc<std::allocator<std::_Tree_node<std::pair<std::basic_string<char,std::char_traits<char>,std::allocator<char> > const ,void * (__cdecl*)(void)>,void *> > >::_Wrap_alloc<std::allocator<std::_Tree_node<std::pair<std::basic_string<char,std::char_traits<char>,std::allocator<char> > const ,void * (__cdecl*)(void)>,void *> > ><std::allocator<std::pair<std::basic_string<char,std::char_traits<char>,std::allocator<char> > const ,void * (__cdecl*)(void)> > >
PUBLIC	??0?$_Tree_val@U?$_Tree_simple_types@U?$pair@$$CBV?$basic_string@DU?$char_traits@D@std@@V?$allocator@D@2@@std@@P6APAXXZ@std@@@std@@@std@@QAE@XZ ; std::_Tree_val<std::_Tree_simple_types<std::pair<std::basic_string<char,std::char_traits<char>,std::allocator<char> > const ,void * (__cdecl*)(void)> > >::_Tree_val<std::_Tree_simple_types<std::pair<std::basic_string<char,std::char_traits<char>,std::allocator<char> > const ,void * (__cdecl*)(void)> > >
PUBLIC	??$?0ABV?$allocator@U?$pair@$$CBV?$basic_string@DU?$char_traits@D@std@@V?$allocator@D@2@@std@@P6APAXXZ@std@@@std@@$$V@?$_Compressed_pair@U?$_Wrap_alloc@V?$allocator@U?$_Tree_node@U?$pair@$$CBV?$basic_string@DU?$char_traits@D@std@@V?$allocator@D@2@@std@@P6APAXXZ@std@@PAX@std@@@std@@@std@@V?$_Tree_val@U?$_Tree_simple_types@U?$pair@$$CBV?$basic_string@DU?$char_traits@D@std@@V?$allocator@D@2@@std@@P6APAXXZ@std@@@std@@@2@$00@std@@QAE@U_One_then_variadic_args_t@1@ABV?$allocator@U?$pair@$$CBV?$basic_string@DU?$char_traits@D@std@@V?$allocator@D@2@@std@@P6APAXXZ@std@@@1@@Z ; std::_Compressed_pair<std::_Wrap_alloc<std::allocator<std::_Tree_node<std::pair<std::basic_string<char,std::char_traits<char>,std::allocator<char> > const ,void * (__cdecl*)(void)>,void *> > >,std::_Tree_val<std::_Tree_simple_types<std::pair<std::basic_string<char,std::char_traits<char>,std::allocator<char> > const ,void * (__cdecl*)(void)> > >,1>::_Compressed_pair<std::_Wrap_alloc<std::allocator<std::_Tree_node<std::pair<std::basic_string<char,std::char_traits<char>,std::allocator<char> > const ,void * (__cdecl*)(void)>,void *> > >,std::_Tree_val<std::_Tree_simple_types<std::pair<std::basic_string<char,std::char_traits<char>,std::allocator<char> > const ,void * (__cdecl*)(void)> > >,1><std::allocator<std::pair<std::basic_string<char,std::char_traits<char>,std::allocator<char> > const ,void * (__cdecl*)(void)> > const &>
PUBLIC	??$forward@ABV?$allocator@U?$pair@$$CBV?$basic_string@DU?$char_traits@D@std@@V?$allocator@D@2@@std@@P6APAXXZ@std@@@std@@@std@@YAABV?$allocator@U?$pair@$$CBV?$basic_string@DU?$char_traits@D@std@@V?$allocator@D@2@@std@@P6APAXXZ@std@@@0@ABV10@@Z ; std::forward<std::allocator<std::pair<std::basic_string<char,std::char_traits<char>,std::allocator<char> > const ,void * (__cdecl*)(void)> > const &>
PUBLIC	??$?0U?$_Tree_node@U?$pair@$$CBV?$basic_string@DU?$char_traits@D@std@@V?$allocator@D@2@@std@@P6APAXXZ@std@@PAX@std@@@?$allocator@U_Container_proxy@std@@@std@@QAE@ABV?$allocator@U?$_Tree_node@U?$pair@$$CBV?$basic_string@DU?$char_traits@D@std@@V?$allocator@D@2@@std@@P6APAXXZ@std@@PAX@std@@@1@@Z ; std::allocator<std::_Container_proxy>::allocator<std::_Container_proxy><std::_Tree_node<std::pair<std::basic_string<char,std::char_traits<char>,std::allocator<char> > const ,void * (__cdecl*)(void)>,void *> >
PUBLIC	??$?0ABU?$less@V?$basic_string@DU?$char_traits@D@std@@V?$allocator@D@2@@std@@@std@@U_One_then_variadic_args_t@1@ABV?$allocator@U?$pair@$$CBV?$basic_string@DU?$char_traits@D@std@@V?$allocator@D@2@@std@@P6APAXXZ@std@@@1@@?$_Compressed_pair@U?$less@V?$basic_string@DU?$char_traits@D@std@@V?$allocator@D@2@@std@@@std@@V?$_Compressed_pair@U?$_Wrap_alloc@V?$allocator@U?$_Tree_node@U?$pair@$$CBV?$basic_string@DU?$char_traits@D@std@@V?$allocator@D@2@@std@@P6APAXXZ@std@@PAX@std@@@std@@@std@@V?$_Tree_val@U?$_Tree_simple_types@U?$pair@$$CBV?$basic_string@DU?$char_traits@D@std@@V?$allocator@D@2@@std@@P6APAXXZ@std@@@std@@@2@$00@2@$00@std@@QAE@U_One_then_variadic_args_t@1@ABU?$less@V?$basic_string@DU?$char_traits@D@std@@V?$allocator@D@2@@std@@@1@$$QAU21@ABV?$allocator@U?$pair@$$CBV?$basic_string@DU?$char_traits@D@std@@V?$allocator@D@2@@std@@P6APAXXZ@std@@@1@@Z ; std::_Compressed_pair<std::less<std::basic_string<char,std::char_traits<char>,std::allocator<char> > >,std::_Compressed_pair<std::_Wrap_alloc<std::allocator<std::_Tree_node<std::pair<std::basic_string<char,std::char_traits<char>,std::allocator<char> > const ,void * (__cdecl*)(void)>,void *> > >,std::_Tree_val<std::_Tree_simple_types<std::pair<std::basic_string<char,std::char_traits<char>,std::allocator<char> > const ,void * (__cdecl*)(void)> > >,1>,1>::_Compressed_pair<std::less<std::basic_string<char,std::char_traits<char>,std::allocator<char> > >,std::_Compressed_pair<std::_Wrap_alloc<std::allocator<std::_Tree_node<std::pair<std::basic_string<char,std::char_traits<char>,std::allocator<char> > const ,void * (__cdecl*)(void)>,void *> > >,std::_Tree_val<std::_Tree_simple_types<std::pair<std::basic_string<char,std::char_traits<char>,std::allocator<char> > const ,void * (__cdecl*)(void)> > >,1>,1><std::less<std::basic_string<char,std::char_traits<char>,std::allocator<char> > > const &,std::_One_then_variadic_args_t,std::allocator<std::pair<std::basic_string<char,std::char_traits<char>,std::allocator<char> > const ,void * (__cdecl*)(void)> > const &>
PUBLIC	??$?0U?$_Wrap_alloc@V?$allocator@U?$_Tree_node@U?$pair@$$CBV?$basic_string@DU?$char_traits@D@std@@V?$allocator@D@2@@std@@P6APAXXZ@std@@PAX@std@@@std@@@std@@@?$_Wrap_alloc@V?$allocator@U_Container_proxy@std@@@std@@@std@@QAE@AAU?$_Wrap_alloc@V?$allocator@U?$_Tree_node@U?$pair@$$CBV?$basic_string@DU?$char_traits@D@std@@V?$allocator@D@2@@std@@P6APAXXZ@std@@PAX@std@@@std@@@1@@Z ; std::_Wrap_alloc<std::allocator<std::_Container_proxy> >::_Wrap_alloc<std::allocator<std::_Container_proxy> ><std::_Wrap_alloc<std::allocator<std::_Tree_node<std::pair<std::basic_string<char,std::char_traits<char>,std::allocator<char> > const ,void * (__cdecl*)(void)>,void *> > > >
PUBLIC	?_Getpfirst@?$_Tree_comp_alloc@V?$_Tmap_traits@V?$basic_string@DU?$char_traits@D@std@@V?$allocator@D@2@@std@@P6APAXXZU?$less@V?$basic_string@DU?$char_traits@D@std@@V?$allocator@D@2@@std@@@2@V?$allocator@U?$pair@$$CBV?$basic_string@DU?$char_traits@D@std@@V?$allocator@D@2@@std@@P6APAXXZ@std@@@2@$0A@@std@@@std@@QBEPAPAU_Iterator_base12@2@XZ ; std::_Tree_comp_alloc<std::_Tmap_traits<std::basic_string<char,std::char_traits<char>,std::allocator<char> >,void * (__cdecl*)(void),std::less<std::basic_string<char,std::char_traits<char>,std::allocator<char> > >,std::allocator<std::pair<std::basic_string<char,std::char_traits<char>,std::allocator<char> > const ,void * (__cdecl*)(void)> >,0> >::_Getpfirst
PUBLIC	?_Min@?$_Tree_val@U?$_Tree_simple_types@U?$pair@$$CBV?$basic_string@DU?$char_traits@D@std@@V?$allocator@D@2@@std@@P6APAXXZ@std@@@std@@@std@@SAPAU?$_Tree_node@U?$pair@$$CBV?$basic_string@DU?$char_traits@D@std@@V?$allocator@D@2@@std@@P6APAXXZ@std@@PAX@2@PAU32@@Z ; std::_Tree_val<std::_Tree_simple_types<std::pair<std::basic_string<char,std::char_traits<char>,std::allocator<char> > const ,void * (__cdecl*)(void)> > >::_Min
PUBLIC	??E?$_Tree_unchecked_const_iterator@V?$_Tree_val@U?$_Tree_simple_types@U?$pair@$$CBV?$basic_string@DU?$char_traits@D@std@@V?$allocator@D@2@@std@@P6APAXXZ@std@@@std@@@std@@U_Iterator_base12@2@@std@@QAEAAV01@XZ ; std::_Tree_unchecked_const_iterator<std::_Tree_val<std::_Tree_simple_types<std::pair<std::basic_string<char,std::char_traits<char>,std::allocator<char> > const ,void * (__cdecl*)(void)> > >,std::_Iterator_base12>::operator++
PUBLIC	?_Erase@?$_Tree@V?$_Tmap_traits@V?$basic_string@DU?$char_traits@D@std@@V?$allocator@D@2@@std@@P6APAXXZU?$less@V?$basic_string@DU?$char_traits@D@std@@V?$allocator@D@2@@std@@@2@V?$allocator@U?$pair@$$CBV?$basic_string@DU?$char_traits@D@std@@V?$allocator@D@2@@std@@P6APAXXZ@std@@@2@$0A@@std@@@std@@IAEXPAU?$_Tree_node@U?$pair@$$CBV?$basic_string@DU?$char_traits@D@std@@V?$allocator@D@2@@std@@P6APAXXZ@std@@PAX@2@@Z ; std::_Tree<std::_Tmap_traits<std::basic_string<char,std::char_traits<char>,std::allocator<char> >,void * (__cdecl*)(void),std::less<std::basic_string<char,std::char_traits<char>,std::allocator<char> > >,std::allocator<std::pair<std::basic_string<char,std::char_traits<char>,std::allocator<char> > const ,void * (__cdecl*)(void)> >,0> >::_Erase
PUBLIC	?_Orphan_ptr@?$_Tree@V?$_Tmap_traits@V?$basic_string@DU?$char_traits@D@std@@V?$allocator@D@2@@std@@P6APAXXZU?$less@V?$basic_string@DU?$char_traits@D@std@@V?$allocator@D@2@@std@@@2@V?$allocator@U?$pair@$$CBV?$basic_string@DU?$char_traits@D@std@@V?$allocator@D@2@@std@@P6APAXXZ@std@@@2@$0A@@std@@@std@@IAEXPAU?$_Tree_node@U?$pair@$$CBV?$basic_string@DU?$char_traits@D@std@@V?$allocator@D@2@@std@@P6APAXXZ@std@@PAX@2@@Z ; std::_Tree<std::_Tmap_traits<std::basic_string<char,std::char_traits<char>,std::allocator<char> >,void * (__cdecl*)(void),std::less<std::basic_string<char,std::char_traits<char>,std::allocator<char> > >,std::allocator<std::pair<std::basic_string<char,std::char_traits<char>,std::allocator<char> > const ,void * (__cdecl*)(void)> >,0> >::_Orphan_ptr
PUBLIC	?_Max@?$_Tree_comp_alloc@V?$_Tmap_traits@V?$basic_string@DU?$char_traits@D@std@@V?$allocator@D@2@@std@@P6APAXXZU?$less@V?$basic_string@DU?$char_traits@D@std@@V?$allocator@D@2@@std@@@2@V?$allocator@U?$pair@$$CBV?$basic_string@DU?$char_traits@D@std@@V?$allocator@D@2@@std@@P6APAXXZ@std@@@2@$0A@@std@@@std@@SAPAU?$_Tree_node@U?$pair@$$CBV?$basic_string@DU?$char_traits@D@std@@V?$allocator@D@2@@std@@P6APAXXZ@std@@PAX@2@PAU32@@Z ; std::_Tree_comp_alloc<std::_Tmap_traits<std::basic_string<char,std::char_traits<char>,std::allocator<char> >,void * (__cdecl*)(void),std::less<std::basic_string<char,std::char_traits<char>,std::allocator<char> > >,std::allocator<std::pair<std::basic_string<char,std::char_traits<char>,std::allocator<char> > const ,void * (__cdecl*)(void)> >,0> >::_Max
PUBLIC	?_Min@?$_Tree_comp_alloc@V?$_Tmap_traits@V?$basic_string@DU?$char_traits@D@std@@V?$allocator@D@2@@std@@P6APAXXZU?$less@V?$basic_string@DU?$char_traits@D@std@@V?$allocator@D@2@@std@@@2@V?$allocator@U?$pair@$$CBV?$basic_string@DU?$char_traits@D@std@@V?$allocator@D@2@@std@@P6APAXXZ@std@@@2@$0A@@std@@@std@@SAPAU?$_Tree_node@U?$pair@$$CBV?$basic_string@DU?$char_traits@D@std@@V?$allocator@D@2@@std@@P6APAXXZ@std@@PAX@2@PAU32@@Z ; std::_Tree_comp_alloc<std::_Tmap_traits<std::basic_string<char,std::char_traits<char>,std::allocator<char> >,void * (__cdecl*)(void),std::less<std::basic_string<char,std::char_traits<char>,std::allocator<char> > >,std::allocator<std::pair<std::basic_string<char,std::char_traits<char>,std::allocator<char> > const ,void * (__cdecl*)(void)> >,0> >::_Min
PUBLIC	?_Alloc_proxy@?$_Tree_comp_alloc@V?$_Tmap_traits@V?$basic_string@DU?$char_traits@D@std@@V?$allocator@D@2@@std@@P6APAXXZU?$less@V?$basic_string@DU?$char_traits@D@std@@V?$allocator@D@2@@std@@@2@V?$allocator@U?$pair@$$CBV?$basic_string@DU?$char_traits@D@std@@V?$allocator@D@2@@std@@P6APAXXZ@std@@@2@$0A@@std@@@std@@QAEXXZ ; std::_Tree_comp_alloc<std::_Tmap_traits<std::basic_string<char,std::char_traits<char>,std::allocator<char> >,void * (__cdecl*)(void),std::less<std::basic_string<char,std::char_traits<char>,std::allocator<char> > >,std::allocator<std::pair<std::basic_string<char,std::char_traits<char>,std::allocator<char> > const ,void * (__cdecl*)(void)> >,0> >::_Alloc_proxy
PUBLIC	?_Buyheadnode@?$_Tree_comp_alloc@V?$_Tmap_traits@V?$basic_string@DU?$char_traits@D@std@@V?$allocator@D@2@@std@@P6APAXXZU?$less@V?$basic_string@DU?$char_traits@D@std@@V?$allocator@D@2@@std@@@2@V?$allocator@U?$pair@$$CBV?$basic_string@DU?$char_traits@D@std@@V?$allocator@D@2@@std@@P6APAXXZ@std@@@2@$0A@@std@@@std@@QAEPAU?$_Tree_node@U?$pair@$$CBV?$basic_string@DU?$char_traits@D@std@@V?$allocator@D@2@@std@@P6APAXXZ@std@@PAX@2@XZ ; std::_Tree_comp_alloc<std::_Tmap_traits<std::basic_string<char,std::char_traits<char>,std::allocator<char> >,void * (__cdecl*)(void),std::less<std::basic_string<char,std::char_traits<char>,std::allocator<char> > >,std::allocator<std::pair<std::basic_string<char,std::char_traits<char>,std::allocator<char> > const ,void * (__cdecl*)(void)> >,0> >::_Buyheadnode
PUBLIC	??E?$_Tree_const_iterator@V?$_Tree_val@U?$_Tree_simple_types@U?$pair@$$CBV?$basic_string@DU?$char_traits@D@std@@V?$allocator@D@2@@std@@P6APAXXZ@std@@@std@@@std@@@std@@QAEAAV01@XZ ; std::_Tree_const_iterator<std::_Tree_val<std::_Tree_simple_types<std::pair<std::basic_string<char,std::char_traits<char>,std::allocator<char> > const ,void * (__cdecl*)(void)> > > >::operator++
PUBLIC	?erase@?$_Tree@V?$_Tmap_traits@V?$basic_string@DU?$char_traits@D@std@@V?$allocator@D@2@@std@@P6APAXXZU?$less@V?$basic_string@DU?$char_traits@D@std@@V?$allocator@D@2@@std@@@2@V?$allocator@U?$pair@$$CBV?$basic_string@DU?$char_traits@D@std@@V?$allocator@D@2@@std@@P6APAXXZ@std@@@2@$0A@@std@@@std@@QAE?AV?$_Tree_iterator@V?$_Tree_val@U?$_Tree_simple_types@U?$pair@$$CBV?$basic_string@DU?$char_traits@D@std@@V?$allocator@D@2@@std@@P6APAXXZ@std@@@std@@@std@@@2@V?$_Tree_const_iterator@V?$_Tree_val@U?$_Tree_simple_types@U?$pair@$$CBV?$basic_string@DU?$char_traits@D@std@@V?$allocator@D@2@@std@@P6APAXXZ@std@@@std@@@std@@@2@@Z ; std::_Tree<std::_Tmap_traits<std::basic_string<char,std::char_traits<char>,std::allocator<char> >,void * (__cdecl*)(void),std::less<std::basic_string<char,std::char_traits<char>,std::allocator<char> > >,std::allocator<std::pair<std::basic_string<char,std::char_traits<char>,std::allocator<char> > const ,void * (__cdecl*)(void)> >,0> >::erase
PUBLIC	?clear@?$_Tree@V?$_Tmap_traits@V?$basic_string@DU?$char_traits@D@std@@V?$allocator@D@2@@std@@P6APAXXZU?$less@V?$basic_string@DU?$char_traits@D@std@@V?$allocator@D@2@@std@@@2@V?$allocator@U?$pair@$$CBV?$basic_string@DU?$char_traits@D@std@@V?$allocator@D@2@@std@@P6APAXXZ@std@@@2@$0A@@std@@@std@@QAEXXZ ; std::_Tree<std::_Tmap_traits<std::basic_string<char,std::char_traits<char>,std::allocator<char> >,void * (__cdecl*)(void),std::less<std::basic_string<char,std::char_traits<char>,std::allocator<char> > >,std::allocator<std::pair<std::basic_string<char,std::char_traits<char>,std::allocator<char> > const ,void * (__cdecl*)(void)> >,0> >::clear
PUBLIC	?_Construct@?$_Tree_comp_alloc@V?$_Tmap_traits@V?$basic_string@DU?$char_traits@D@std@@V?$allocator@D@2@@std@@P6APAXXZU?$less@V?$basic_string@DU?$char_traits@D@std@@V?$allocator@D@2@@std@@@2@V?$allocator@U?$pair@$$CBV?$basic_string@DU?$char_traits@D@std@@V?$allocator@D@2@@std@@P6APAXXZ@std@@@2@$0A@@std@@@std@@QAEXXZ ; std::_Tree_comp_alloc<std::_Tmap_traits<std::basic_string<char,std::char_traits<char>,std::allocator<char> >,void * (__cdecl*)(void),std::less<std::basic_string<char,std::char_traits<char>,std::allocator<char> > >,std::allocator<std::pair<std::basic_string<char,std::char_traits<char>,std::allocator<char> > const ,void * (__cdecl*)(void)> >,0> >::_Construct
PUBLIC	?_Myproxy@?$_Tree_comp_alloc@V?$_Tmap_traits@V?$basic_string@DU?$char_traits@D@std@@V?$allocator@D@2@@std@@P6APAXXZU?$less@V?$basic_string@DU?$char_traits@D@std@@V?$allocator@D@2@@std@@@2@V?$allocator@U?$pair@$$CBV?$basic_string@DU?$char_traits@D@std@@V?$allocator@D@2@@std@@P6APAXXZ@std@@@2@$0A@@std@@@std@@QAEAAPAU_Container_proxy@2@XZ ; std::_Tree_comp_alloc<std::_Tmap_traits<std::basic_string<char,std::char_traits<char>,std::allocator<char> >,void * (__cdecl*)(void),std::less<std::basic_string<char,std::char_traits<char>,std::allocator<char> > >,std::allocator<std::pair<std::basic_string<char,std::char_traits<char>,std::allocator<char> > const ,void * (__cdecl*)(void)> >,0> >::_Myproxy
PUBLIC	?_Orphan_all@?$_Tree_comp_alloc@V?$_Tmap_traits@V?$basic_string@DU?$char_traits@D@std@@V?$allocator@D@2@@std@@P6APAXXZU?$less@V?$basic_string@DU?$char_traits@D@std@@V?$allocator@D@2@@std@@@2@V?$allocator@U?$pair@$$CBV?$basic_string@DU?$char_traits@D@std@@V?$allocator@D@2@@std@@P6APAXXZ@std@@@2@$0A@@std@@@std@@QAEXXZ ; std::_Tree_comp_alloc<std::_Tmap_traits<std::basic_string<char,std::char_traits<char>,std::allocator<char> >,void * (__cdecl*)(void),std::less<std::basic_string<char,std::char_traits<char>,std::allocator<char> > >,std::allocator<std::pair<std::basic_string<char,std::char_traits<char>,std::allocator<char> > const ,void * (__cdecl*)(void)> >,0> >::_Orphan_all
PUBLIC	??E?$_Tree_const_iterator@V?$_Tree_val@U?$_Tree_simple_types@U?$pair@$$CBV?$basic_string@DU?$char_traits@D@std@@V?$allocator@D@2@@std@@P6APAXXZ@std@@@std@@@std@@@std@@QAE?AV01@H@Z ; std::_Tree_const_iterator<std::_Tree_val<std::_Tree_simple_types<std::pair<std::basic_string<char,std::char_traits<char>,std::allocator<char> > const ,void * (__cdecl*)(void)> > > >::operator++
PUBLIC	??9?$_Tree_const_iterator@V?$_Tree_val@U?$_Tree_simple_types@U?$pair@$$CBV?$basic_string@DU?$char_traits@D@std@@V?$allocator@D@2@@std@@P6APAXXZ@std@@@std@@@std@@@std@@QBE_NABV01@@Z ; std::_Tree_const_iterator<std::_Tree_val<std::_Tree_simple_types<std::pair<std::basic_string<char,std::char_traits<char>,std::allocator<char> > const ,void * (__cdecl*)(void)> > > >::operator!=
PUBLIC	?erase@?$_Tree@V?$_Tmap_traits@V?$basic_string@DU?$char_traits@D@std@@V?$allocator@D@2@@std@@P6APAXXZU?$less@V?$basic_string@DU?$char_traits@D@std@@V?$allocator@D@2@@std@@@2@V?$allocator@U?$pair@$$CBV?$basic_string@DU?$char_traits@D@std@@V?$allocator@D@2@@std@@P6APAXXZ@std@@@2@$0A@@std@@@std@@QAE?AV?$_Tree_iterator@V?$_Tree_val@U?$_Tree_simple_types@U?$pair@$$CBV?$basic_string@DU?$char_traits@D@std@@V?$allocator@D@2@@std@@P6APAXXZ@std@@@std@@@std@@@2@V?$_Tree_const_iterator@V?$_Tree_val@U?$_Tree_simple_types@U?$pair@$$CBV?$basic_string@DU?$char_traits@D@std@@V?$allocator@D@2@@std@@P6APAXXZ@std@@@std@@@std@@@2@0@Z ; std::_Tree<std::_Tmap_traits<std::basic_string<char,std::char_traits<char>,std::allocator<char> >,void * (__cdecl*)(void),std::less<std::basic_string<char,std::char_traits<char>,std::allocator<char> > >,std::allocator<std::pair<std::basic_string<char,std::char_traits<char>,std::allocator<char> > const ,void * (__cdecl*)(void)> >,0> >::erase
PUBLIC	??0?$_Tree_comp_alloc@V?$_Tmap_traits@V?$basic_string@DU?$char_traits@D@std@@V?$allocator@D@2@@std@@P6APAXXZU?$less@V?$basic_string@DU?$char_traits@D@std@@V?$allocator@D@2@@std@@@2@V?$allocator@U?$pair@$$CBV?$basic_string@DU?$char_traits@D@std@@V?$allocator@D@2@@std@@P6APAXXZ@std@@@2@$0A@@std@@@std@@QAE@ABU?$less@V?$basic_string@DU?$char_traits@D@std@@V?$allocator@D@2@@std@@@1@ABV?$allocator@U?$pair@$$CBV?$basic_string@DU?$char_traits@D@std@@V?$allocator@D@2@@std@@P6APAXXZ@std@@@1@@Z ; std::_Tree_comp_alloc<std::_Tmap_traits<std::basic_string<char,std::char_traits<char>,std::allocator<char> >,void * (__cdecl*)(void),std::less<std::basic_string<char,std::char_traits<char>,std::allocator<char> > >,std::allocator<std::pair<std::basic_string<char,std::char_traits<char>,std::allocator<char> > const ,void * (__cdecl*)(void)> >,0> >::_Tree_comp_alloc<std::_Tmap_traits<std::basic_string<char,std::char_traits<char>,std::allocator<char> >,void * (__cdecl*)(void),std::less<std::basic_string<char,std::char_traits<char>,std::allocator<char> > >,std::allocator<std::pair<std::basic_string<char,std::char_traits<char>,std::allocator<char> > const ,void * (__cdecl*)(void)> >,0> >
PUBLIC	?_Free_proxy@?$_Tree_comp_alloc@V?$_Tmap_traits@V?$basic_string@DU?$char_traits@D@std@@V?$allocator@D@2@@std@@P6APAXXZU?$less@V?$basic_string@DU?$char_traits@D@std@@V?$allocator@D@2@@std@@@2@V?$allocator@U?$pair@$$CBV?$basic_string@DU?$char_traits@D@std@@V?$allocator@D@2@@std@@P6APAXXZ@std@@@2@$0A@@std@@@std@@QAEXXZ ; std::_Tree_comp_alloc<std::_Tmap_traits<std::basic_string<char,std::char_traits<char>,std::allocator<char> >,void * (__cdecl*)(void),std::less<std::basic_string<char,std::char_traits<char>,std::allocator<char> > >,std::allocator<std::pair<std::basic_string<char,std::char_traits<char>,std::allocator<char> > const ,void * (__cdecl*)(void)> >,0> >::_Free_proxy
PUBLIC	?_Freeheadnode@?$_Tree_comp_alloc@V?$_Tmap_traits@V?$basic_string@DU?$char_traits@D@std@@V?$allocator@D@2@@std@@P6APAXXZU?$less@V?$basic_string@DU?$char_traits@D@std@@V?$allocator@D@2@@std@@@2@V?$allocator@U?$pair@$$CBV?$basic_string@DU?$char_traits@D@std@@V?$allocator@D@2@@std@@P6APAXXZ@std@@@2@$0A@@std@@@std@@QAEXPAU?$_Tree_node@U?$pair@$$CBV?$basic_string@DU?$char_traits@D@std@@V?$allocator@D@2@@std@@P6APAXXZ@std@@PAX@2@@Z ; std::_Tree_comp_alloc<std::_Tmap_traits<std::basic_string<char,std::char_traits<char>,std::allocator<char> >,void * (__cdecl*)(void),std::less<std::basic_string<char,std::char_traits<char>,std::allocator<char> > >,std::allocator<std::pair<std::basic_string<char,std::char_traits<char>,std::allocator<char> > const ,void * (__cdecl*)(void)> >,0> >::_Freeheadnode
PUBLIC	??1?$_Tree_val@U?$_Tree_simple_types@U?$pair@$$CBV?$basic_string@DU?$char_traits@D@std@@V?$allocator@D@2@@std@@P6APAXXZ@std@@@std@@@std@@QAE@XZ ; std::_Tree_val<std::_Tree_simple_types<std::pair<std::basic_string<char,std::char_traits<char>,std::allocator<char> > const ,void * (__cdecl*)(void)> > >::~_Tree_val<std::_Tree_simple_types<std::pair<std::basic_string<char,std::char_traits<char>,std::allocator<char> > const ,void * (__cdecl*)(void)> > >
PUBLIC	??1?$_Compressed_pair@U?$_Wrap_alloc@V?$allocator@U?$_Tree_node@U?$pair@$$CBV?$basic_string@DU?$char_traits@D@std@@V?$allocator@D@2@@std@@P6APAXXZ@std@@PAX@std@@@std@@@std@@V?$_Tree_val@U?$_Tree_simple_types@U?$pair@$$CBV?$basic_string@DU?$char_traits@D@std@@V?$allocator@D@2@@std@@P6APAXXZ@std@@@std@@@2@$00@std@@QAE@XZ ; std::_Compressed_pair<std::_Wrap_alloc<std::allocator<std::_Tree_node<std::pair<std::basic_string<char,std::char_traits<char>,std::allocator<char> > const ,void * (__cdecl*)(void)>,void *> > >,std::_Tree_val<std::_Tree_simple_types<std::pair<std::basic_string<char,std::char_traits<char>,std::allocator<char> > const ,void * (__cdecl*)(void)> > >,1>::~_Compressed_pair<std::_Wrap_alloc<std::allocator<std::_Tree_node<std::pair<std::basic_string<char,std::char_traits<char>,std::allocator<char> > const ,void * (__cdecl*)(void)>,void *> > >,std::_Tree_val<std::_Tree_simple_types<std::pair<std::basic_string<char,std::char_traits<char>,std::allocator<char> > const ,void * (__cdecl*)(void)> > >,1>
PUBLIC	??1?$_Compressed_pair@U?$less@V?$basic_string@DU?$char_traits@D@std@@V?$allocator@D@2@@std@@@std@@V?$_Compressed_pair@U?$_Wrap_alloc@V?$allocator@U?$_Tree_node@U?$pair@$$CBV?$basic_string@DU?$char_traits@D@std@@V?$allocator@D@2@@std@@P6APAXXZ@std@@PAX@std@@@std@@@std@@V?$_Tree_val@U?$_Tree_simple_types@U?$pair@$$CBV?$basic_string@DU?$char_traits@D@std@@V?$allocator@D@2@@std@@P6APAXXZ@std@@@std@@@2@$00@2@$00@std@@QAE@XZ ; std::_Compressed_pair<std::less<std::basic_string<char,std::char_traits<char>,std::allocator<char> > >,std::_Compressed_pair<std::_Wrap_alloc<std::allocator<std::_Tree_node<std::pair<std::basic_string<char,std::char_traits<char>,std::allocator<char> > const ,void * (__cdecl*)(void)>,void *> > >,std::_Tree_val<std::_Tree_simple_types<std::pair<std::basic_string<char,std::char_traits<char>,std::allocator<char> > const ,void * (__cdecl*)(void)> > >,1>,1>::~_Compressed_pair<std::less<std::basic_string<char,std::char_traits<char>,std::allocator<char> > >,std::_Compressed_pair<std::_Wrap_alloc<std::allocator<std::_Tree_node<std::pair<std::basic_string<char,std::char_traits<char>,std::allocator<char> > const ,void * (__cdecl*)(void)>,void *> > >,std::_Tree_val<std::_Tree_simple_types<std::pair<std::basic_string<char,std::char_traits<char>,std::allocator<char> > const ,void * (__cdecl*)(void)> > >,1>,1>
PUBLIC	??0?$allocator@U?$pair@$$CBV?$basic_string@DU?$char_traits@D@std@@V?$allocator@D@2@@std@@P6APAXXZ@std@@@std@@QAE@XZ ; std::allocator<std::pair<std::basic_string<char,std::char_traits<char>,std::allocator<char> > const ,void * (__cdecl*)(void)> >::allocator<std::pair<std::basic_string<char,std::char_traits<char>,std::allocator<char> > const ,void * (__cdecl*)(void)> >
PUBLIC	??0?$_Tree@V?$_Tmap_traits@V?$basic_string@DU?$char_traits@D@std@@V?$allocator@D@2@@std@@P6APAXXZU?$less@V?$basic_string@DU?$char_traits@D@std@@V?$allocator@D@2@@std@@@2@V?$allocator@U?$pair@$$CBV?$basic_string@DU?$char_traits@D@std@@V?$allocator@D@2@@std@@P6APAXXZ@std@@@2@$0A@@std@@@std@@QAE@ABU?$less@V?$basic_string@DU?$char_traits@D@std@@V?$allocator@D@2@@std@@@1@ABV?$allocator@U?$pair@$$CBV?$basic_string@DU?$char_traits@D@std@@V?$allocator@D@2@@std@@P6APAXXZ@std@@@1@@Z ; std::_Tree<std::_Tmap_traits<std::basic_string<char,std::char_traits<char>,std::allocator<char> >,void * (__cdecl*)(void),std::less<std::basic_string<char,std::char_traits<char>,std::allocator<char> > >,std::allocator<std::pair<std::basic_string<char,std::char_traits<char>,std::allocator<char> > const ,void * (__cdecl*)(void)> >,0> >::_Tree<std::_Tmap_traits<std::basic_string<char,std::char_traits<char>,std::allocator<char> >,void * (__cdecl*)(void),std::less<std::basic_string<char,std::char_traits<char>,std::allocator<char> > >,std::allocator<std::pair<std::basic_string<char,std::char_traits<char>,std::allocator<char> > const ,void * (__cdecl*)(void)> >,0> >
PUBLIC	?_Tidy@?$_Tree@V?$_Tmap_traits@V?$basic_string@DU?$char_traits@D@std@@V?$allocator@D@2@@std@@P6APAXXZU?$less@V?$basic_string@DU?$char_traits@D@std@@V?$allocator@D@2@@std@@@2@V?$allocator@U?$pair@$$CBV?$basic_string@DU?$char_traits@D@std@@V?$allocator@D@2@@std@@P6APAXXZ@std@@@2@$0A@@std@@@std@@IAEXXZ ; std::_Tree<std::_Tmap_traits<std::basic_string<char,std::char_traits<char>,std::allocator<char> >,void * (__cdecl*)(void),std::less<std::basic_string<char,std::char_traits<char>,std::allocator<char> > >,std::allocator<std::pair<std::basic_string<char,std::char_traits<char>,std::allocator<char> > const ,void * (__cdecl*)(void)> >,0> >::_Tidy
PUBLIC	??1?$_Tree_comp_alloc@V?$_Tmap_traits@V?$basic_string@DU?$char_traits@D@std@@V?$allocator@D@2@@std@@P6APAXXZU?$less@V?$basic_string@DU?$char_traits@D@std@@V?$allocator@D@2@@std@@@2@V?$allocator@U?$pair@$$CBV?$basic_string@DU?$char_traits@D@std@@V?$allocator@D@2@@std@@P6APAXXZ@std@@@2@$0A@@std@@@std@@QAE@XZ ; std::_Tree_comp_alloc<std::_Tmap_traits<std::basic_string<char,std::char_traits<char>,std::allocator<char> >,void * (__cdecl*)(void),std::less<std::basic_string<char,std::char_traits<char>,std::allocator<char> > >,std::allocator<std::pair<std::basic_string<char,std::char_traits<char>,std::allocator<char> > const ,void * (__cdecl*)(void)> >,0> >::~_Tree_comp_alloc<std::_Tmap_traits<std::basic_string<char,std::char_traits<char>,std::allocator<char> >,void * (__cdecl*)(void),std::less<std::basic_string<char,std::char_traits<char>,std::allocator<char> > >,std::allocator<std::pair<std::basic_string<char,std::char_traits<char>,std::allocator<char> > const ,void * (__cdecl*)(void)> >,0> >
PUBLIC	??0?$map@V?$basic_string@DU?$char_traits@D@std@@V?$allocator@D@2@@std@@P6APAXXZU?$less@V?$basic_string@DU?$char_traits@D@std@@V?$allocator@D@2@@std@@@2@V?$allocator@U?$pair@$$CBV?$basic_string@DU?$char_traits@D@std@@V?$allocator@D@2@@std@@P6APAXXZ@std@@@2@@std@@QAE@XZ ; std::map<std::basic_string<char,std::char_traits<char>,std::allocator<char> >,void * (__cdecl*)(void),std::less<std::basic_string<char,std::char_traits<char>,std::allocator<char> > >,std::allocator<std::pair<std::basic_string<char,std::char_traits<char>,std::allocator<char> > const ,void * (__cdecl*)(void)> > >::map<std::basic_string<char,std::char_traits<char>,std::allocator<char> >,void * (__cdecl*)(void),std::less<std::basic_string<char,std::char_traits<char>,std::allocator<char> > >,std::allocator<std::pair<std::basic_string<char,std::char_traits<char>,std::allocator<char> > const ,void * (__cdecl*)(void)> > >
PUBLIC	??1?$_Tree@V?$_Tmap_traits@V?$basic_string@DU?$char_traits@D@std@@V?$allocator@D@2@@std@@P6APAXXZU?$less@V?$basic_string@DU?$char_traits@D@std@@V?$allocator@D@2@@std@@@2@V?$allocator@U?$pair@$$CBV?$basic_string@DU?$char_traits@D@std@@V?$allocator@D@2@@std@@P6APAXXZ@std@@@2@$0A@@std@@@std@@QAE@XZ ; std::_Tree<std::_Tmap_traits<std::basic_string<char,std::char_traits<char>,std::allocator<char> >,void * (__cdecl*)(void),std::less<std::basic_string<char,std::char_traits<char>,std::allocator<char> > >,std::allocator<std::pair<std::basic_string<char,std::char_traits<char>,std::allocator<char> > const ,void * (__cdecl*)(void)> >,0> >::~_Tree<std::_Tmap_traits<std::basic_string<char,std::char_traits<char>,std::allocator<char> >,void * (__cdecl*)(void),std::less<std::basic_string<char,std::char_traits<char>,std::allocator<char> > >,std::allocator<std::pair<std::basic_string<char,std::char_traits<char>,std::allocator<char> > const ,void * (__cdecl*)(void)> >,0> >
PUBLIC	?end@?$_Tree@V?$_Tmap_traits@V?$basic_string@DU?$char_traits@D@std@@V?$allocator@D@2@@std@@P6APAXXZU?$less@V?$basic_string@DU?$char_traits@D@std@@V?$allocator@D@2@@std@@@2@V?$allocator@U?$pair@$$CBV?$basic_string@DU?$char_traits@D@std@@V?$allocator@D@2@@std@@P6APAXXZ@std@@@2@$0A@@std@@@std@@QAE?AV?$_Tree_iterator@V?$_Tree_val@U?$_Tree_simple_types@U?$pair@$$CBV?$basic_string@DU?$char_traits@D@std@@V?$allocator@D@2@@std@@P6APAXXZ@std@@@std@@@std@@@2@XZ ; std::_Tree<std::_Tmap_traits<std::basic_string<char,std::char_traits<char>,std::allocator<char> >,void * (__cdecl*)(void),std::less<std::basic_string<char,std::char_traits<char>,std::allocator<char> > >,std::allocator<std::pair<std::basic_string<char,std::char_traits<char>,std::allocator<char> > const ,void * (__cdecl*)(void)> >,0> >::end
PUBLIC	??1?$map@V?$basic_string@DU?$char_traits@D@std@@V?$allocator@D@2@@std@@P6APAXXZU?$less@V?$basic_string@DU?$char_traits@D@std@@V?$allocator@D@2@@std@@@2@V?$allocator@U?$pair@$$CBV?$basic_string@DU?$char_traits@D@std@@V?$allocator@D@2@@std@@P6APAXXZ@std@@@2@@std@@QAE@XZ ; std::map<std::basic_string<char,std::char_traits<char>,std::allocator<char> >,void * (__cdecl*)(void),std::less<std::basic_string<char,std::char_traits<char>,std::allocator<char> > >,std::allocator<std::pair<std::basic_string<char,std::char_traits<char>,std::allocator<char> > const ,void * (__cdecl*)(void)> > >::~map<std::basic_string<char,std::char_traits<char>,std::allocator<char> >,void * (__cdecl*)(void),std::less<std::basic_string<char,std::char_traits<char>,std::allocator<char> > >,std::allocator<std::pair<std::basic_string<char,std::char_traits<char>,std::allocator<char> > const ,void * (__cdecl*)(void)> > >
PUBLIC	??1factory@@QAE@XZ				; factory::~factory
PUBLIC	??0factory@@QAE@XZ				; factory::factory
PUBLIC	?g_factory@@3Ufactory@@A			; g_factory
?g_factory@@3Ufactory@@A DB 0cH DUP (?)			; g_factory
_BSS	ENDS
;	COMDAT xdata$x
xdata$x	SEGMENT
__ehfuncinfo$?end@?$_Tree@V?$_Tmap_traits@V?$basic_string@DU?$char_traits@D@std@@V?$allocator@D@2@@std@@P6APAXXZU?$less@V?$basic_string@DU?$char_traits@D@std@@V?$allocator@D@2@@std@@@2@V?$allocator@U?$pair@$$CBV?$basic_string@DU?$char_traits@D@std@@V?$allocator@D@2@@std@@P6APAXXZ@std@@@2@$0A@@std@@@std@@QAE?AV?$_Tree_iterator@V?$_Tree_val@U?$_Tree_simple_types@U?$pair@$$CBV?$basic_string@DU?$char_traits@D@std@@V?$allocator@D@2@@std@@P6APAXXZ@std@@@std@@@std@@@2@XZ DD 019930522H
	DD	00H
	DD	00H
	DD	2 DUP(00H)
	DD	2 DUP(00H)
	DD	00H
	DD	05H
xdata$x	ENDS
;	COMDAT xdata$x
xdata$x	SEGMENT
__ehfuncinfo$??1?$_Tree@V?$_Tmap_traits@V?$basic_string@DU?$char_traits@D@std@@V?$allocator@D@2@@std@@P6APAXXZU?$less@V?$basic_string@DU?$char_traits@D@std@@V?$allocator@D@2@@std@@@2@V?$allocator@U?$pair@$$CBV?$basic_string@DU?$char_traits@D@std@@V?$allocator@D@2@@std@@P6APAXXZ@std@@@2@$0A@@std@@@std@@QAE@XZ DD 019930522H
	DD	00H
	DD	00H
	DD	2 DUP(00H)
	DD	2 DUP(00H)
	DD	00H
	DD	05H
xdata$x	ENDS
;	COMDAT xdata$x
xdata$x	SEGMENT
__ehfuncinfo$??1?$_Tree_comp_alloc@V?$_Tmap_traits@V?$basic_string@DU?$char_traits@D@std@@V?$allocator@D@2@@std@@P6APAXXZU?$less@V?$basic_string@DU?$char_traits@D@std@@V?$allocator@D@2@@std@@@2@V?$allocator@U?$pair@$$CBV?$basic_string@DU?$char_traits@D@std@@V?$allocator@D@2@@std@@P6APAXXZ@std@@@2@$0A@@std@@@std@@QAE@XZ DD 019930522H
	DD	00H
	DD	00H
	DD	2 DUP(00H)
	DD	2 DUP(00H)
	DD	00H
	DD	05H
xdata$x	ENDS
;	COMDAT xdata$x
xdata$x	SEGMENT
__ehfuncinfo$?_Tidy@?$_Tree@V?$_Tmap_traits@V?$basic_string@DU?$char_traits@D@std@@V?$allocator@D@2@@std@@P6APAXXZU?$less@V?$basic_string@DU?$char_traits@D@std@@V?$allocator@D@2@@std@@@2@V?$allocator@U?$pair@$$CBV?$basic_string@DU?$char_traits@D@std@@V?$allocator@D@2@@std@@P6APAXXZ@std@@@2@$0A@@std@@@std@@IAEXXZ DD 019930522H
	DD	04H
	DD	FLAT:__unwindtable$?_Tidy@?$_Tree@V?$_Tmap_traits@V?$basic_string@DU?$char_traits@D@std@@V?$allocator@D@2@@std@@P6APAXXZU?$less@V?$basic_string@DU?$char_traits@D@std@@V?$allocator@D@2@@std@@@2@V?$allocator@U?$pair@$$CBV?$basic_string@DU?$char_traits@D@std@@V?$allocator@D@2@@std@@P6APAXXZ@std@@@2@$0A@@std@@@std@@IAEXXZ
	DD	2 DUP(00H)
	DD	2 DUP(00H)
	DD	00H
	DD	01H
__unwindtable$?_Tidy@?$_Tree@V?$_Tmap_traits@V?$basic_string@DU?$char_traits@D@std@@V?$allocator@D@2@@std@@P6APAXXZU?$less@V?$basic_string@DU?$char_traits@D@std@@V?$allocator@D@2@@std@@@2@V?$allocator@U?$pair@$$CBV?$basic_string@DU?$char_traits@D@std@@V?$allocator@D@2@@std@@P6APAXXZ@std@@@2@$0A@@std@@@std@@IAEXXZ DD 0ffffffffH
	DD	FLAT:__unwindfunclet$?_Tidy@?$_Tree@V?$_Tmap_traits@V?$basic_string@DU?$char_traits@D@std@@V?$allocator@D@2@@std@@P6APAXXZU?$less@V?$basic_string@DU?$char_traits@D@std@@V?$allocator@D@2@@std@@@2@V?$allocator@U?$pair@$$CBV?$basic_string@DU?$char_traits@D@std@@V?$allocator@D@2@@std@@P6APAXXZ@std@@@2@$0A@@std@@@std@@IAEXXZ$0
	DD	00H
	DD	FLAT:__unwindfunclet$?_Tidy@?$_Tree@V?$_Tmap_traits@V?$basic_string@DU?$char_traits@D@std@@V?$allocator@D@2@@std@@P6APAXXZU?$less@V?$basic_string@DU?$char_traits@D@std@@V?$allocator@D@2@@std@@@2@V?$allocator@U?$pair@$$CBV?$basic_string@DU?$char_traits@D@std@@V?$allocator@D@2@@std@@P6APAXXZ@std@@@2@$0A@@std@@@std@@IAEXXZ$1
	DD	01H
	DD	FLAT:__unwindfunclet$?_Tidy@?$_Tree@V?$_Tmap_traits@V?$basic_string@DU?$char_traits@D@std@@V?$allocator@D@2@@std@@P6APAXXZU?$less@V?$basic_string@DU?$char_traits@D@std@@V?$allocator@D@2@@std@@@2@V?$allocator@U?$pair@$$CBV?$basic_string@DU?$char_traits@D@std@@V?$allocator@D@2@@std@@P6APAXXZ@std@@@2@$0A@@std@@@std@@IAEXXZ$2
	DD	00H
	DD	FLAT:__unwindfunclet$?_Tidy@?$_Tree@V?$_Tmap_traits@V?$basic_string@DU?$char_traits@D@std@@V?$allocator@D@2@@std@@P6APAXXZU?$less@V?$basic_string@DU?$char_traits@D@std@@V?$allocator@D@2@@std@@@2@V?$allocator@U?$pair@$$CBV?$basic_string@DU?$char_traits@D@std@@V?$allocator@D@2@@std@@P6APAXXZ@std@@@2@$0A@@std@@@std@@IAEXXZ$2
xdata$x	ENDS
;	COMDAT xdata$x
xdata$x	SEGMENT
__ehfuncinfo$??0?$_Tree_comp_alloc@V?$_Tmap_traits@V?$basic_string@DU?$char_traits@D@std@@V?$allocator@D@2@@std@@P6APAXXZU?$less@V?$basic_string@DU?$char_traits@D@std@@V?$allocator@D@2@@std@@@2@V?$allocator@U?$pair@$$CBV?$basic_string@DU?$char_traits@D@std@@V?$allocator@D@2@@std@@P6APAXXZ@std@@@2@$0A@@std@@@std@@QAE@ABU?$less@V?$basic_string@DU?$char_traits@D@std@@V?$allocator@D@2@@std@@@1@ABV?$allocator@U?$pair@$$CBV?$basic_string@DU?$char_traits@D@std@@V?$allocator@D@2@@std@@P6APAXXZ@std@@@1@@Z DD 019930522H
	DD	01H
	DD	FLAT:__unwindtable$??0?$_Tree_comp_alloc@V?$_Tmap_traits@V?$basic_string@DU?$char_traits@D@std@@V?$allocator@D@2@@std@@P6APAXXZU?$less@V?$basic_string@DU?$char_traits@D@std@@V?$allocator@D@2@@std@@@2@V?$allocator@U?$pair@$$CBV?$basic_string@DU?$char_traits@D@std@@V?$allocator@D@2@@std@@P6APAXXZ@std@@@2@$0A@@std@@@std@@QAE@ABU?$less@V?$basic_string@DU?$char_traits@D@std@@V?$allocator@D@2@@std@@@1@ABV?$allocator@U?$pair@$$CBV?$basic_string@DU?$char_traits@D@std@@V?$allocator@D@2@@std@@P6APAXXZ@std@@@1@@Z
	DD	2 DUP(00H)
	DD	2 DUP(00H)
	DD	00H
	DD	01H
__unwindtable$??0?$_Tree_comp_alloc@V?$_Tmap_traits@V?$basic_string@DU?$char_traits@D@std@@V?$allocator@D@2@@std@@P6APAXXZU?$less@V?$basic_string@DU?$char_traits@D@std@@V?$allocator@D@2@@std@@@2@V?$allocator@U?$pair@$$CBV?$basic_string@DU?$char_traits@D@std@@V?$allocator@D@2@@std@@P6APAXXZ@std@@@2@$0A@@std@@@std@@QAE@ABU?$less@V?$basic_string@DU?$char_traits@D@std@@V?$allocator@D@2@@std@@@1@ABV?$allocator@U?$pair@$$CBV?$basic_string@DU?$char_traits@D@std@@V?$allocator@D@2@@std@@P6APAXXZ@std@@@1@@Z DD 0ffffffffH
	DD	FLAT:__unwindfunclet$??0?$_Tree_comp_alloc@V?$_Tmap_traits@V?$basic_string@DU?$char_traits@D@std@@V?$allocator@D@2@@std@@P6APAXXZU?$less@V?$basic_string@DU?$char_traits@D@std@@V?$allocator@D@2@@std@@@2@V?$allocator@U?$pair@$$CBV?$basic_string@DU?$char_traits@D@std@@V?$allocator@D@2@@std@@P6APAXXZ@std@@@2@$0A@@std@@@std@@QAE@ABU?$less@V?$basic_string@DU?$char_traits@D@std@@V?$allocator@D@2@@std@@@1@ABV?$allocator@U?$pair@$$CBV?$basic_string@DU?$char_traits@D@std@@V?$allocator@D@2@@std@@P6APAXXZ@std@@@1@@Z$0
xdata$x	ENDS
;	COMDAT xdata$x
xdata$x	SEGMENT
__ehfuncinfo$?erase@?$_Tree@V?$_Tmap_traits@V?$basic_string@DU?$char_traits@D@std@@V?$allocator@D@2@@std@@P6APAXXZU?$less@V?$basic_string@DU?$char_traits@D@std@@V?$allocator@D@2@@std@@@2@V?$allocator@U?$pair@$$CBV?$basic_string@DU?$char_traits@D@std@@V?$allocator@D@2@@std@@P6APAXXZ@std@@@2@$0A@@std@@@std@@QAE?AV?$_Tree_iterator@V?$_Tree_val@U?$_Tree_simple_types@U?$pair@$$CBV?$basic_string@DU?$char_traits@D@std@@V?$allocator@D@2@@std@@P6APAXXZ@std@@@std@@@std@@@2@V?$_Tree_const_iterator@V?$_Tree_val@U?$_Tree_simple_types@U?$pair@$$CBV?$basic_string@DU?$char_traits@D@std@@V?$allocator@D@2@@std@@P6APAXXZ@std@@@std@@@std@@@2@0@Z DD 019930522H
	DD	04H
	DD	FLAT:__unwindtable$?erase@?$_Tree@V?$_Tmap_traits@V?$basic_string@DU?$char_traits@D@std@@V?$allocator@D@2@@std@@P6APAXXZU?$less@V?$basic_string@DU?$char_traits@D@std@@V?$allocator@D@2@@std@@@2@V?$allocator@U?$pair@$$CBV?$basic_string@DU?$char_traits@D@std@@V?$allocator@D@2@@std@@P6APAXXZ@std@@@2@$0A@@std@@@std@@QAE?AV?$_Tree_iterator@V?$_Tree_val@U?$_Tree_simple_types@U?$pair@$$CBV?$basic_string@DU?$char_traits@D@std@@V?$allocator@D@2@@std@@P6APAXXZ@std@@@std@@@std@@@2@V?$_Tree_const_iterator@V?$_Tree_val@U?$_Tree_simple_types@U?$pair@$$CBV?$basic_string@DU?$char_traits@D@std@@V?$allocator@D@2@@std@@P6APAXXZ@std@@@std@@@std@@@2@0@Z
	DD	2 DUP(00H)
	DD	2 DUP(00H)
	DD	00H
	DD	01H
__unwindtable$?erase@?$_Tree@V?$_Tmap_traits@V?$basic_string@DU?$char_traits@D@std@@V?$allocator@D@2@@std@@P6APAXXZU?$less@V?$basic_string@DU?$char_traits@D@std@@V?$allocator@D@2@@std@@@2@V?$allocator@U?$pair@$$CBV?$basic_string@DU?$char_traits@D@std@@V?$allocator@D@2@@std@@P6APAXXZ@std@@@2@$0A@@std@@@std@@QAE?AV?$_Tree_iterator@V?$_Tree_val@U?$_Tree_simple_types@U?$pair@$$CBV?$basic_string@DU?$char_traits@D@std@@V?$allocator@D@2@@std@@P6APAXXZ@std@@@std@@@std@@@2@V?$_Tree_const_iterator@V?$_Tree_val@U?$_Tree_simple_types@U?$pair@$$CBV?$basic_string@DU?$char_traits@D@std@@V?$allocator@D@2@@std@@P6APAXXZ@std@@@std@@@std@@@2@0@Z DD 0ffffffffH
	DD	FLAT:__unwindfunclet$?erase@?$_Tree@V?$_Tmap_traits@V?$basic_string@DU?$char_traits@D@std@@V?$allocator@D@2@@std@@P6APAXXZU?$less@V?$basic_string@DU?$char_traits@D@std@@V?$allocator@D@2@@std@@@2@V?$allocator@U?$pair@$$CBV?$basic_string@DU?$char_traits@D@std@@V?$allocator@D@2@@std@@P6APAXXZ@std@@@2@$0A@@std@@@std@@QAE?AV?$_Tree_iterator@V?$_Tree_val@U?$_Tree_simple_types@U?$pair@$$CBV?$basic_string@DU?$char_traits@D@std@@V?$allocator@D@2@@std@@P6APAXXZ@std@@@std@@@std@@@2@V?$_Tree_const_iterator@V?$_Tree_val@U?$_Tree_simple_types@U?$pair@$$CBV?$basic_string@DU?$char_traits@D@std@@V?$allocator@D@2@@std@@P6APAXXZ@std@@@std@@@std@@@2@0@Z$0
	DD	00H
	DD	FLAT:__unwindfunclet$?erase@?$_Tree@V?$_Tmap_traits@V?$basic_string@DU?$char_traits@D@std@@V?$allocator@D@2@@std@@P6APAXXZU?$less@V?$basic_string@DU?$char_traits@D@std@@V?$allocator@D@2@@std@@@2@V?$allocator@U?$pair@$$CBV?$basic_string@DU?$char_traits@D@std@@V?$allocator@D@2@@std@@P6APAXXZ@std@@@2@$0A@@std@@@std@@QAE?AV?$_Tree_iterator@V?$_Tree_val@U?$_Tree_simple_types@U?$pair@$$CBV?$basic_string@DU?$char_traits@D@std@@V?$allocator@D@2@@std@@P6APAXXZ@std@@@std@@@std@@@2@V?$_Tree_const_iterator@V?$_Tree_val@U?$_Tree_simple_types@U?$pair@$$CBV?$basic_string@DU?$char_traits@D@std@@V?$allocator@D@2@@std@@P6APAXXZ@std@@@std@@@std@@@2@0@Z$1
	DD	01H
	DD	FLAT:__unwindfunclet$?erase@?$_Tree@V?$_Tmap_traits@V?$basic_string@DU?$char_traits@D@std@@V?$allocator@D@2@@std@@P6APAXXZU?$less@V?$basic_string@DU?$char_traits@D@std@@V?$allocator@D@2@@std@@@2@V?$allocator@U?$pair@$$CBV?$basic_string@DU?$char_traits@D@std@@V?$allocator@D@2@@std@@P6APAXXZ@std@@@2@$0A@@std@@@std@@QAE?AV?$_Tree_iterator@V?$_Tree_val@U?$_Tree_simple_types@U?$pair@$$CBV?$basic_string@DU?$char_traits@D@std@@V?$allocator@D@2@@std@@P6APAXXZ@std@@@std@@@std@@@2@V?$_Tree_const_iterator@V?$_Tree_val@U?$_Tree_simple_types@U?$pair@$$CBV?$basic_string@DU?$char_traits@D@std@@V?$allocator@D@2@@std@@P6APAXXZ@std@@@std@@@std@@@2@0@Z$2
	DD	02H
	DD	FLAT:__unwindfunclet$?erase@?$_Tree@V?$_Tmap_traits@V?$basic_string@DU?$char_traits@D@std@@V?$allocator@D@2@@std@@P6APAXXZU?$less@V?$basic_string@DU?$char_traits@D@std@@V?$allocator@D@2@@std@@@2@V?$allocator@U?$pair@$$CBV?$basic_string@DU?$char_traits@D@std@@V?$allocator@D@2@@std@@P6APAXXZ@std@@@2@$0A@@std@@@std@@QAE?AV?$_Tree_iterator@V?$_Tree_val@U?$_Tree_simple_types@U?$pair@$$CBV?$basic_string@DU?$char_traits@D@std@@V?$allocator@D@2@@std@@P6APAXXZ@std@@@std@@@std@@@2@V?$_Tree_const_iterator@V?$_Tree_val@U?$_Tree_simple_types@U?$pair@$$CBV?$basic_string@DU?$char_traits@D@std@@V?$allocator@D@2@@std@@P6APAXXZ@std@@@std@@@std@@@2@0@Z$3
xdata$x	ENDS
;	COMDAT xdata$x
xdata$x	SEGMENT
__ehfuncinfo$??E?$_Tree_const_iterator@V?$_Tree_val@U?$_Tree_simple_types@U?$pair@$$CBV?$basic_string@DU?$char_traits@D@std@@V?$allocator@D@2@@std@@P6APAXXZ@std@@@std@@@std@@@std@@QAE?AV01@H@Z DD 019930522H
	DD	01H
	DD	FLAT:__unwindtable$??E?$_Tree_const_iterator@V?$_Tree_val@U?$_Tree_simple_types@U?$pair@$$CBV?$basic_string@DU?$char_traits@D@std@@V?$allocator@D@2@@std@@P6APAXXZ@std@@@std@@@std@@@std@@QAE?AV01@H@Z
	DD	2 DUP(00H)
	DD	2 DUP(00H)
	DD	00H
	DD	01H
__unwindtable$??E?$_Tree_const_iterator@V?$_Tree_val@U?$_Tree_simple_types@U?$pair@$$CBV?$basic_string@DU?$char_traits@D@std@@V?$allocator@D@2@@std@@P6APAXXZ@std@@@std@@@std@@@std@@QAE?AV01@H@Z DD 0ffffffffH
	DD	FLAT:__unwindfunclet$??E?$_Tree_const_iterator@V?$_Tree_val@U?$_Tree_simple_types@U?$pair@$$CBV?$basic_string@DU?$char_traits@D@std@@V?$allocator@D@2@@std@@P6APAXXZ@std@@@std@@@std@@@std@@QAE?AV01@H@Z$0
xdata$x	ENDS
;	COMDAT xdata$x
xdata$x	SEGMENT
__ehfuncinfo$?_Construct@?$_Tree_comp_alloc@V?$_Tmap_traits@V?$basic_string@DU?$char_traits@D@std@@V?$allocator@D@2@@std@@P6APAXXZU?$less@V?$basic_string@DU?$char_traits@D@std@@V?$allocator@D@2@@std@@@2@V?$allocator@U?$pair@$$CBV?$basic_string@DU?$char_traits@D@std@@V?$allocator@D@2@@std@@P6APAXXZ@std@@@2@$0A@@std@@@std@@QAEXXZ DD 019930522H
	DD	02H
	DD	FLAT:__unwindtable$?_Construct@?$_Tree_comp_alloc@V?$_Tmap_traits@V?$basic_string@DU?$char_traits@D@std@@V?$allocator@D@2@@std@@P6APAXXZU?$less@V?$basic_string@DU?$char_traits@D@std@@V?$allocator@D@2@@std@@@2@V?$allocator@U?$pair@$$CBV?$basic_string@DU?$char_traits@D@std@@V?$allocator@D@2@@std@@P6APAXXZ@std@@@2@$0A@@std@@@std@@QAEXXZ
	DD	01H
	DD	FLAT:__tryblocktable$?_Construct@?$_Tree_comp_alloc@V?$_Tmap_traits@V?$basic_string@DU?$char_traits@D@std@@V?$allocator@D@2@@std@@P6APAXXZU?$less@V?$basic_string@DU?$char_traits@D@std@@V?$allocator@D@2@@std@@@2@V?$allocator@U?$pair@$$CBV?$basic_string@DU?$char_traits@D@std@@V?$allocator@D@2@@std@@P6APAXXZ@std@@@2@$0A@@std@@@std@@QAEXXZ
	DD	2 DUP(00H)
	DD	00H
	DD	01H
__unwindtable$?_Construct@?$_Tree_comp_alloc@V?$_Tmap_traits@V?$basic_string@DU?$char_traits@D@std@@V?$allocator@D@2@@std@@P6APAXXZU?$less@V?$basic_string@DU?$char_traits@D@std@@V?$allocator@D@2@@std@@@2@V?$allocator@U?$pair@$$CBV?$basic_string@DU?$char_traits@D@std@@V?$allocator@D@2@@std@@P6APAXXZ@std@@@2@$0A@@std@@@std@@QAEXXZ DD 0ffffffffH
	DD	00H
	DD	0ffffffffH
	DD	00H
__tryblocktable$?_Construct@?$_Tree_comp_alloc@V?$_Tmap_traits@V?$basic_string@DU?$char_traits@D@std@@V?$allocator@D@2@@std@@P6APAXXZU?$less@V?$basic_string@DU?$char_traits@D@std@@V?$allocator@D@2@@std@@@2@V?$allocator@U?$pair@$$CBV?$basic_string@DU?$char_traits@D@std@@V?$allocator@D@2@@std@@P6APAXXZ@std@@@2@$0A@@std@@@std@@QAEXXZ DD 00H
	DD	00H
	DD	01H
	DD	01H
	DD	FLAT:__catchsym$?_Construct@?$_Tree_comp_alloc@V?$_Tmap_traits@V?$basic_string@DU?$char_traits@D@std@@V?$allocator@D@2@@std@@P6APAXXZU?$less@V?$basic_string@DU?$char_traits@D@std@@V?$allocator@D@2@@std@@@2@V?$allocator@U?$pair@$$CBV?$basic_string@DU?$char_traits@D@std@@V?$allocator@D@2@@std@@P6APAXXZ@std@@@2@$0A@@std@@@std@@QAEXXZ$2
__catchsym$?_Construct@?$_Tree_comp_alloc@V?$_Tmap_traits@V?$basic_string@DU?$char_traits@D@std@@V?$allocator@D@2@@std@@P6APAXXZU?$less@V?$basic_string@DU?$char_traits@D@std@@V?$allocator@D@2@@std@@@2@V?$allocator@U?$pair@$$CBV?$basic_string@DU?$char_traits@D@std@@V?$allocator@D@2@@std@@P6APAXXZ@std@@@2@$0A@@std@@@std@@QAEXXZ$2 DD 040H
	DD	00H
	DD	00H
	DD	FLAT:__catch$?_Construct@?$_Tree_comp_alloc@V?$_Tmap_traits@V?$basic_string@DU?$char_traits@D@std@@V?$allocator@D@2@@std@@P6APAXXZU?$less@V?$basic_string@DU?$char_traits@D@std@@V?$allocator@D@2@@std@@@2@V?$allocator@U?$pair@$$CBV?$basic_string@DU?$char_traits@D@std@@V?$allocator@D@2@@std@@P6APAXXZ@std@@@2@$0A@@std@@@std@@QAEXXZ$0
xdata$x	ENDS
;	COMDAT xdata$x
xdata$x	SEGMENT
__ehfuncinfo$?clear@?$_Tree@V?$_Tmap_traits@V?$basic_string@DU?$char_traits@D@std@@V?$allocator@D@2@@std@@P6APAXXZU?$less@V?$basic_string@DU?$char_traits@D@std@@V?$allocator@D@2@@std@@@2@V?$allocator@U?$pair@$$CBV?$basic_string@DU?$char_traits@D@std@@V?$allocator@D@2@@std@@P6APAXXZ@std@@@2@$0A@@std@@@std@@QAEXXZ DD 019930522H
	DD	00H
	DD	00H
	DD	2 DUP(00H)
	DD	2 DUP(00H)
	DD	00H
	DD	05H
xdata$x	ENDS
;	COMDAT xdata$x
xdata$x	SEGMENT
__ehfuncinfo$?erase@?$_Tree@V?$_Tmap_traits@V?$basic_string@DU?$char_traits@D@std@@V?$allocator@D@2@@std@@P6APAXXZU?$less@V?$basic_string@DU?$char_traits@D@std@@V?$allocator@D@2@@std@@@2@V?$allocator@U?$pair@$$CBV?$basic_string@DU?$char_traits@D@std@@V?$allocator@D@2@@std@@P6APAXXZ@std@@@2@$0A@@std@@@std@@QAE?AV?$_Tree_iterator@V?$_Tree_val@U?$_Tree_simple_types@U?$pair@$$CBV?$basic_string@DU?$char_traits@D@std@@V?$allocator@D@2@@std@@P6APAXXZ@std@@@std@@@std@@@2@V?$_Tree_const_iterator@V?$_Tree_val@U?$_Tree_simple_types@U?$pair@$$CBV?$basic_string@DU?$char_traits@D@std@@V?$allocator@D@2@@std@@P6APAXXZ@std@@@std@@@std@@@2@@Z DD 019930522H
	DD	01H
	DD	FLAT:__unwindtable$?erase@?$_Tree@V?$_Tmap_traits@V?$basic_string@DU?$char_traits@D@std@@V?$allocator@D@2@@std@@P6APAXXZU?$less@V?$basic_string@DU?$char_traits@D@std@@V?$allocator@D@2@@std@@@2@V?$allocator@U?$pair@$$CBV?$basic_string@DU?$char_traits@D@std@@V?$allocator@D@2@@std@@P6APAXXZ@std@@@2@$0A@@std@@@std@@QAE?AV?$_Tree_iterator@V?$_Tree_val@U?$_Tree_simple_types@U?$pair@$$CBV?$basic_string@DU?$char_traits@D@std@@V?$allocator@D@2@@std@@P6APAXXZ@std@@@std@@@std@@@2@V?$_Tree_const_iterator@V?$_Tree_val@U?$_Tree_simple_types@U?$pair@$$CBV?$basic_string@DU?$char_traits@D@std@@V?$allocator@D@2@@std@@P6APAXXZ@std@@@std@@@std@@@2@@Z
	DD	2 DUP(00H)
	DD	2 DUP(00H)
	DD	00H
	DD	01H
__unwindtable$?erase@?$_Tree@V?$_Tmap_traits@V?$basic_string@DU?$char_traits@D@std@@V?$allocator@D@2@@std@@P6APAXXZU?$less@V?$basic_string@DU?$char_traits@D@std@@V?$allocator@D@2@@std@@@2@V?$allocator@U?$pair@$$CBV?$basic_string@DU?$char_traits@D@std@@V?$allocator@D@2@@std@@P6APAXXZ@std@@@2@$0A@@std@@@std@@QAE?AV?$_Tree_iterator@V?$_Tree_val@U?$_Tree_simple_types@U?$pair@$$CBV?$basic_string@DU?$char_traits@D@std@@V?$allocator@D@2@@std@@P6APAXXZ@std@@@std@@@std@@@2@V?$_Tree_const_iterator@V?$_Tree_val@U?$_Tree_simple_types@U?$pair@$$CBV?$basic_string@DU?$char_traits@D@std@@V?$allocator@D@2@@std@@P6APAXXZ@std@@@std@@@std@@@2@@Z DD 0ffffffffH
	DD	FLAT:__unwindfunclet$?erase@?$_Tree@V?$_Tmap_traits@V?$basic_string@DU?$char_traits@D@std@@V?$allocator@D@2@@std@@P6APAXXZU?$less@V?$basic_string@DU?$char_traits@D@std@@V?$allocator@D@2@@std@@@2@V?$allocator@U?$pair@$$CBV?$basic_string@DU?$char_traits@D@std@@V?$allocator@D@2@@std@@P6APAXXZ@std@@@2@$0A@@std@@@std@@QAE?AV?$_Tree_iterator@V?$_Tree_val@U?$_Tree_simple_types@U?$pair@$$CBV?$basic_string@DU?$char_traits@D@std@@V?$allocator@D@2@@std@@P6APAXXZ@std@@@std@@@std@@@2@V?$_Tree_const_iterator@V?$_Tree_val@U?$_Tree_simple_types@U?$pair@$$CBV?$basic_string@DU?$char_traits@D@std@@V?$allocator@D@2@@std@@P6APAXXZ@std@@@std@@@std@@@2@@Z$0
xdata$x	ENDS
;	COMDAT xdata$x
xdata$x	SEGMENT
__ehfuncinfo$?_Buyheadnode@?$_Tree_comp_alloc@V?$_Tmap_traits@V?$basic_string@DU?$char_traits@D@std@@V?$allocator@D@2@@std@@P6APAXXZU?$less@V?$basic_string@DU?$char_traits@D@std@@V?$allocator@D@2@@std@@@2@V?$allocator@U?$pair@$$CBV?$basic_string@DU?$char_traits@D@std@@V?$allocator@D@2@@std@@P6APAXXZ@std@@@2@$0A@@std@@@std@@QAEPAU?$_Tree_node@U?$pair@$$CBV?$basic_string@DU?$char_traits@D@std@@V?$allocator@D@2@@std@@P6APAXXZ@std@@PAX@2@XZ DD 019930522H
	DD	02H
	DD	FLAT:__unwindtable$?_Buyheadnode@?$_Tree_comp_alloc@V?$_Tmap_traits@V?$basic_string@DU?$char_traits@D@std@@V?$allocator@D@2@@std@@P6APAXXZU?$less@V?$basic_string@DU?$char_traits@D@std@@V?$allocator@D@2@@std@@@2@V?$allocator@U?$pair@$$CBV?$basic_string@DU?$char_traits@D@std@@V?$allocator@D@2@@std@@P6APAXXZ@std@@@2@$0A@@std@@@std@@QAEPAU?$_Tree_node@U?$pair@$$CBV?$basic_string@DU?$char_traits@D@std@@V?$allocator@D@2@@std@@P6APAXXZ@std@@PAX@2@XZ
	DD	01H
	DD	FLAT:__tryblocktable$?_Buyheadnode@?$_Tree_comp_alloc@V?$_Tmap_traits@V?$basic_string@DU?$char_traits@D@std@@V?$allocator@D@2@@std@@P6APAXXZU?$less@V?$basic_string@DU?$char_traits@D@std@@V?$allocator@D@2@@std@@@2@V?$allocator@U?$pair@$$CBV?$basic_string@DU?$char_traits@D@std@@V?$allocator@D@2@@std@@P6APAXXZ@std@@@2@$0A@@std@@@std@@QAEPAU?$_Tree_node@U?$pair@$$CBV?$basic_string@DU?$char_traits@D@std@@V?$allocator@D@2@@std@@P6APAXXZ@std@@PAX@2@XZ
	DD	2 DUP(00H)
	DD	00H
	DD	01H
__unwindtable$?_Buyheadnode@?$_Tree_comp_alloc@V?$_Tmap_traits@V?$basic_string@DU?$char_traits@D@std@@V?$allocator@D@2@@std@@P6APAXXZU?$less@V?$basic_string@DU?$char_traits@D@std@@V?$allocator@D@2@@std@@@2@V?$allocator@U?$pair@$$CBV?$basic_string@DU?$char_traits@D@std@@V?$allocator@D@2@@std@@P6APAXXZ@std@@@2@$0A@@std@@@std@@QAEPAU?$_Tree_node@U?$pair@$$CBV?$basic_string@DU?$char_traits@D@std@@V?$allocator@D@2@@std@@P6APAXXZ@std@@PAX@2@XZ DD 0ffffffffH
	DD	00H
	DD	0ffffffffH
	DD	00H
__tryblocktable$?_Buyheadnode@?$_Tree_comp_alloc@V?$_Tmap_traits@V?$basic_string@DU?$char_traits@D@std@@V?$allocator@D@2@@std@@P6APAXXZU?$less@V?$basic_string@DU?$char_traits@D@std@@V?$allocator@D@2@@std@@@2@V?$allocator@U?$pair@$$CBV?$basic_string@DU?$char_traits@D@std@@V?$allocator@D@2@@std@@P6APAXXZ@std@@@2@$0A@@std@@@std@@QAEPAU?$_Tree_node@U?$pair@$$CBV?$basic_string@DU?$char_traits@D@std@@V?$allocator@D@2@@std@@P6APAXXZ@std@@PAX@2@XZ DD 00H
	DD	00H
	DD	01H
	DD	01H
	DD	FLAT:__catchsym$?_Buyheadnode@?$_Tree_comp_alloc@V?$_Tmap_traits@V?$basic_string@DU?$char_traits@D@std@@V?$allocator@D@2@@std@@P6APAXXZU?$less@V?$basic_string@DU?$char_traits@D@std@@V?$allocator@D@2@@std@@@2@V?$allocator@U?$pair@$$CBV?$basic_string@DU?$char_traits@D@std@@V?$allocator@D@2@@std@@P6APAXXZ@std@@@2@$0A@@std@@@std@@QAEPAU?$_Tree_node@U?$pair@$$CBV?$basic_string@DU?$char_traits@D@std@@V?$allocator@D@2@@std@@P6APAXXZ@std@@PAX@2@XZ$2
__catchsym$?_Buyheadnode@?$_Tree_comp_alloc@V?$_Tmap_traits@V?$basic_string@DU?$char_traits@D@std@@V?$allocator@D@2@@std@@P6APAXXZU?$less@V?$basic_string@DU?$char_traits@D@std@@V?$allocator@D@2@@std@@@2@V?$allocator@U?$pair@$$CBV?$basic_string@DU?$char_traits@D@std@@V?$allocator@D@2@@std@@P6APAXXZ@std@@@2@$0A@@std@@@std@@QAEPAU?$_Tree_node@U?$pair@$$CBV?$basic_string@DU?$char_traits@D@std@@V?$allocator@D@2@@std@@P6APAXXZ@std@@PAX@2@XZ$2 DD 040H
	DD	00H
	DD	00H
	DD	FLAT:__catch$?_Buyheadnode@?$_Tree_comp_alloc@V?$_Tmap_traits@V?$basic_string@DU?$char_traits@D@std@@V?$allocator@D@2@@std@@P6APAXXZU?$less@V?$basic_string@DU?$char_traits@D@std@@V?$allocator@D@2@@std@@@2@V?$allocator@U?$pair@$$CBV?$basic_string@DU?$char_traits@D@std@@V?$allocator@D@2@@std@@P6APAXXZ@std@@@2@$0A@@std@@@std@@QAEPAU?$_Tree_node@U?$pair@$$CBV?$basic_string@DU?$char_traits@D@std@@V?$allocator@D@2@@std@@P6APAXXZ@std@@PAX@2@XZ$0
xdata$x	ENDS
;	COMDAT xdata$x
xdata$x	SEGMENT
__ehfuncinfo$?_Orphan_ptr@?$_Tree@V?$_Tmap_traits@V?$basic_string@DU?$char_traits@D@std@@V?$allocator@D@2@@std@@P6APAXXZU?$less@V?$basic_string@DU?$char_traits@D@std@@V?$allocator@D@2@@std@@@2@V?$allocator@U?$pair@$$CBV?$basic_string@DU?$char_traits@D@std@@V?$allocator@D@2@@std@@P6APAXXZ@std@@@2@$0A@@std@@@std@@IAEXPAU?$_Tree_node@U?$pair@$$CBV?$basic_string@DU?$char_traits@D@std@@V?$allocator@D@2@@std@@P6APAXXZ@std@@PAX@2@@Z DD 019930522H
	DD	01H
	DD	FLAT:__unwindtable$?_Orphan_ptr@?$_Tree@V?$_Tmap_traits@V?$basic_string@DU?$char_traits@D@std@@V?$allocator@D@2@@std@@P6APAXXZU?$less@V?$basic_string@DU?$char_traits@D@std@@V?$allocator@D@2@@std@@@2@V?$allocator@U?$pair@$$CBV?$basic_string@DU?$char_traits@D@std@@V?$allocator@D@2@@std@@P6APAXXZ@std@@@2@$0A@@std@@@std@@IAEXPAU?$_Tree_node@U?$pair@$$CBV?$basic_string@DU?$char_traits@D@std@@V?$allocator@D@2@@std@@P6APAXXZ@std@@PAX@2@@Z
	DD	2 DUP(00H)
	DD	2 DUP(00H)
	DD	00H
	DD	01H
__unwindtable$?_Orphan_ptr@?$_Tree@V?$_Tmap_traits@V?$basic_string@DU?$char_traits@D@std@@V?$allocator@D@2@@std@@P6APAXXZU?$less@V?$basic_string@DU?$char_traits@D@std@@V?$allocator@D@2@@std@@@2@V?$allocator@U?$pair@$$CBV?$basic_string@DU?$char_traits@D@std@@V?$allocator@D@2@@std@@P6APAXXZ@std@@@2@$0A@@std@@@std@@IAEXPAU?$_Tree_node@U?$pair@$$CBV?$basic_string@DU?$char_traits@D@std@@V?$allocator@D@2@@std@@P6APAXXZ@std@@PAX@2@@Z DD 0ffffffffH
	DD	FLAT:__unwindfunclet$?_Orphan_ptr@?$_Tree@V?$_Tmap_traits@V?$basic_string@DU?$char_traits@D@std@@V?$allocator@D@2@@std@@P6APAXXZU?$less@V?$basic_string@DU?$char_traits@D@std@@V?$allocator@D@2@@std@@@2@V?$allocator@U?$pair@$$CBV?$basic_string@DU?$char_traits@D@std@@V?$allocator@D@2@@std@@P6APAXXZ@std@@@2@$0A@@std@@@std@@IAEXPAU?$_Tree_node@U?$pair@$$CBV?$basic_string@DU?$char_traits@D@std@@V?$allocator@D@2@@std@@P6APAXXZ@std@@PAX@2@@Z$0
?g_factory$initializer$@@3P6AXXZA DD FLAT:??__Eg_factory@@YAXXZ ; g_factory$initializer$
; Function compile flags: /Odtp /RTCsu
; File e:\fusion3d_work\engine\src\factory.cpp
;	COMDAT ??__Eg_factory@@YAXXZ
text$di	SEGMENT
??__Eg_factory@@YAXXZ PROC				; `dynamic initializer for 'g_factory'', COMDAT

; 3    : factory g_factory;

  00000	55		 push	 ebp
  00001	8b ec		 mov	 ebp, esp
  00003	b9 00 00 00 00	 mov	 ecx, OFFSET ?g_factory@@3Ufactory@@A ; g_factory
  00008	e8 00 00 00 00	 call	 ??0factory@@QAE@XZ
  0000d	68 00 00 00 00	 push	 OFFSET ??__Fg_factory@@YAXXZ ; `dynamic atexit destructor for 'g_factory''
  00012	e8 00 00 00 00	 call	 _atexit
  00017	83 c4 04	 add	 esp, 4
  0001a	3b ec		 cmp	 ebp, esp
  0001c	e8 00 00 00 00	 call	 __RTC_CheckEsp
  00021	5d		 pop	 ebp
  00022	c3		 ret	 0
??__Eg_factory@@YAXXZ ENDP				; `dynamic initializer for 'g_factory''
text$di	ENDS
; Function compile flags: /Odtp /RTCsu
;	COMDAT ??__Fg_factory@@YAXXZ
text$yd	SEGMENT
??__Fg_factory@@YAXXZ PROC				; `dynamic atexit destructor for 'g_factory'', COMDAT
  00000	55		 push	 ebp
  00001	8b ec		 mov	 ebp, esp
  00003	b9 00 00 00 00	 mov	 ecx, OFFSET ?g_factory@@3Ufactory@@A ; g_factory
  00008	e8 00 00 00 00	 call	 ??1factory@@QAE@XZ
  0000d	3b ec		 cmp	 ebp, esp
  0000f	e8 00 00 00 00	 call	 __RTC_CheckEsp
  00014	5d		 pop	 ebp
  00015	c3		 ret	 0
??__Fg_factory@@YAXXZ ENDP				; `dynamic atexit destructor for 'g_factory''
text$yd	ENDS
; Function compile flags: /Odtp /RTCsu
;	COMDAT ??0factory@@QAE@XZ
_TEXT	SEGMENT
_this$ = -4						; size = 4
??0factory@@QAE@XZ PROC					; factory::factory, COMDAT
; _this$ = ecx
  00000	55		 push	 ebp
  00001	8b ec		 mov	 ebp, esp
  00003	51		 push	 ecx
  00004	c7 45 fc cc cc
	cc cc		 mov	 DWORD PTR [ebp-4], -858993460 ; ccccccccH
  0000b	89 4d fc	 mov	 DWORD PTR _this$[ebp], ecx
  0000e	8b 4d fc	 mov	 ecx, DWORD PTR _this$[ebp]
  00011	e8 00 00 00 00	 call	 ??0?$map@V?$basic_string@DU?$char_traits@D@std@@V?$allocator@D@2@@std@@P6APAXXZU?$less@V?$basic_string@DU?$char_traits@D@std@@V?$allocator@D@2@@std@@@2@V?$allocator@U?$pair@$$CBV?$basic_string@DU?$char_traits@D@std@@V?$allocator@D@2@@std@@P6APAXXZ@std@@@2@@std@@QAE@XZ ; std::map<std::basic_string<char,std::char_traits<char>,std::allocator<char> >,void * (__cdecl*)(void),std::less<std::basic_string<char,std::char_traits<char>,std::allocator<char> > >,std::allocator<std::pair<std::basic_string<char,std::char_traits<char>,std::allocator<char> > const ,void * (__cdecl*)(void)> > >::map<std::basic_string<char,std::char_traits<char>,std::allocator<char> >,void * (__cdecl*)(void),std::less<std::basic_string<char,std::char_traits<char>,std::allocator<char> > >,std::allocator<std::pair<std::basic_string<char,std::char_traits<char>,std::allocator<char> > const ,void * (__cdecl*)(void)> > >
  00016	8b 45 fc	 mov	 eax, DWORD PTR _this$[ebp]
  00019	83 c4 04	 add	 esp, 4
  0001c	3b ec		 cmp	 ebp, esp
  0001e	e8 00 00 00 00	 call	 __RTC_CheckEsp
  00023	8b e5		 mov	 esp, ebp
  00025	5d		 pop	 ebp
  00026	c3		 ret	 0
??0factory@@QAE@XZ ENDP					; factory::factory
_TEXT	ENDS
; Function compile flags: /Odtp /RTCsu
;	COMDAT ??1factory@@QAE@XZ
_TEXT	SEGMENT
_this$ = -4						; size = 4
??1factory@@QAE@XZ PROC					; factory::~factory, COMDAT
; _this$ = ecx
  00000	55		 push	 ebp
  00001	8b ec		 mov	 ebp, esp
  00003	51		 push	 ecx
  00004	c7 45 fc cc cc
	cc cc		 mov	 DWORD PTR [ebp-4], -858993460 ; ccccccccH
  0000b	89 4d fc	 mov	 DWORD PTR _this$[ebp], ecx
  0000e	8b 4d fc	 mov	 ecx, DWORD PTR _this$[ebp]
  00011	e8 00 00 00 00	 call	 ??1?$map@V?$basic_string@DU?$char_traits@D@std@@V?$allocator@D@2@@std@@P6APAXXZU?$less@V?$basic_string@DU?$char_traits@D@std@@V?$allocator@D@2@@std@@@2@V?$allocator@U?$pair@$$CBV?$basic_string@DU?$char_traits@D@std@@V?$allocator@D@2@@std@@P6APAXXZ@std@@@2@@std@@QAE@XZ
  00016	83 c4 04	 add	 esp, 4
  00019	3b ec		 cmp	 ebp, esp
  0001b	e8 00 00 00 00	 call	 __RTC_CheckEsp
  00020	8b e5		 mov	 esp, ebp
  00022	5d		 pop	 ebp
  00023	c3		 ret	 0
??1factory@@QAE@XZ ENDP					; factory::~factory
_TEXT	ENDS
; Function compile flags: /Odtp /RTCsu
;	COMDAT ??1?$map@V?$basic_string@DU?$char_traits@D@std@@V?$allocator@D@2@@std@@P6APAXXZU?$less@V?$basic_string@DU?$char_traits@D@std@@V?$allocator@D@2@@std@@@2@V?$allocator@U?$pair@$$CBV?$basic_string@DU?$char_traits@D@std@@V?$allocator@D@2@@std@@P6APAXXZ@std@@@2@@std@@QAE@XZ
_TEXT	SEGMENT
_this$ = -4						; size = 4
??1?$map@V?$basic_string@DU?$char_traits@D@std@@V?$allocator@D@2@@std@@P6APAXXZU?$less@V?$basic_string@DU?$char_traits@D@std@@V?$allocator@D@2@@std@@@2@V?$allocator@U?$pair@$$CBV?$basic_string@DU?$char_traits@D@std@@V?$allocator@D@2@@std@@P6APAXXZ@std@@@2@@std@@QAE@XZ PROC ; std::map<std::basic_string<char,std::char_traits<char>,std::allocator<char> >,void * (__cdecl*)(void),std::less<std::basic_string<char,std::char_traits<char>,std::allocator<char> > >,std::allocator<std::pair<std::basic_string<char,std::char_traits<char>,std::allocator<char> > const ,void * (__cdecl*)(void)> > >::~map<std::basic_string<char,std::char_traits<char>,std::allocator<char> >,void * (__cdecl*)(void),std::less<std::basic_string<char,std::char_traits<char>,std::allocator<char> > >,std::allocator<std::pair<std::basic_string<char,std::char_traits<char>,std::allocator<char> > const ,void * (__cdecl*)(void)> > >, COMDAT
; _this$ = ecx
  00000	55		 push	 ebp
  00001	8b ec		 mov	 ebp, esp
  00003	51		 push	 ecx
  00004	c7 45 fc cc cc
	cc cc		 mov	 DWORD PTR [ebp-4], -858993460 ; ccccccccH
  0000b	89 4d fc	 mov	 DWORD PTR _this$[ebp], ecx
  0000e	8b 4d fc	 mov	 ecx, DWORD PTR _this$[ebp]
  00011	e8 00 00 00 00	 call	 ??1?$_Tree@V?$_Tmap_traits@V?$basic_string@DU?$char_traits@D@std@@V?$allocator@D@2@@std@@P6APAXXZU?$less@V?$basic_string@DU?$char_traits@D@std@@V?$allocator@D@2@@std@@@2@V?$allocator@U?$pair@$$CBV?$basic_string@DU?$char_traits@D@std@@V?$allocator@D@2@@std@@P6APAXXZ@std@@@2@$0A@@std@@@std@@QAE@XZ ; std::_Tree<std::_Tmap_traits<std::basic_string<char,std::char_traits<char>,std::allocator<char> >,void * (__cdecl*)(void),std::less<std::basic_string<char,std::char_traits<char>,std::allocator<char> > >,std::allocator<std::pair<std::basic_string<char,std::char_traits<char>,std::allocator<char> > const ,void * (__cdecl*)(void)> >,0> >::~_Tree<std::_Tmap_traits<std::basic_string<char,std::char_traits<char>,std::allocator<char> >,void * (__cdecl*)(void),std::less<std::basic_string<char,std::char_traits<char>,std::allocator<char> > >,std::allocator<std::pair<std::basic_string<char,std::char_traits<char>,std::allocator<char> > const ,void * (__cdecl*)(void)> >,0> >
  00016	83 c4 04	 add	 esp, 4
  00019	3b ec		 cmp	 ebp, esp
  0001b	e8 00 00 00 00	 call	 __RTC_CheckEsp
  00020	8b e5		 mov	 esp, ebp
  00022	5d		 pop	 ebp
  00023	c3		 ret	 0
??1?$map@V?$basic_string@DU?$char_traits@D@std@@V?$allocator@D@2@@std@@P6APAXXZU?$less@V?$basic_string@DU?$char_traits@D@std@@V?$allocator@D@2@@std@@@2@V?$allocator@U?$pair@$$CBV?$basic_string@DU?$char_traits@D@std@@V?$allocator@D@2@@std@@P6APAXXZ@std@@@2@@std@@QAE@XZ ENDP ; std::map<std::basic_string<char,std::char_traits<char>,std::allocator<char> >,void * (__cdecl*)(void),std::less<std::basic_string<char,std::char_traits<char>,std::allocator<char> > >,std::allocator<std::pair<std::basic_string<char,std::char_traits<char>,std::allocator<char> > const ,void * (__cdecl*)(void)> > >::~map<std::basic_string<char,std::char_traits<char>,std::allocator<char> >,void * (__cdecl*)(void),std::less<std::basic_string<char,std::char_traits<char>,std::allocator<char> > >,std::allocator<std::pair<std::basic_string<char,std::char_traits<char>,std::allocator<char> > const ,void * (__cdecl*)(void)> > >
_TEXT	ENDS
; Function compile flags: /Odtp /RTCsu
; File c:\program files (x86)\microsoft visual studio 14.0\vc\include\xtree
;	COMDAT ?end@?$_Tree@V?$_Tmap_traits@V?$basic_string@DU?$char_traits@D@std@@V?$allocator@D@2@@std@@P6APAXXZU?$less@V?$basic_string@DU?$char_traits@D@std@@V?$allocator@D@2@@std@@@2@V?$allocator@U?$pair@$$CBV?$basic_string@DU?$char_traits@D@std@@V?$allocator@D@2@@std@@P6APAXXZ@std@@@2@$0A@@std@@@std@@QAE?AV?$_Tree_iterator@V?$_Tree_val@U?$_Tree_simple_types@U?$pair@$$CBV?$basic_string@DU?$char_traits@D@std@@V?$allocator@D@2@@std@@P6APAXXZ@std@@@std@@@std@@@2@XZ
_TEXT	SEGMENT
_this$ = -16						; size = 4
__$EHRec$ = -12						; size = 12
___$ReturnUdt$ = 8					; size = 4
?end@?$_Tree@V?$_Tmap_traits@V?$basic_string@DU?$char_traits@D@std@@V?$allocator@D@2@@std@@P6APAXXZU?$less@V?$basic_string@DU?$char_traits@D@std@@V?$allocator@D@2@@std@@@2@V?$allocator@U?$pair@$$CBV?$basic_string@DU?$char_traits@D@std@@V?$allocator@D@2@@std@@P6APAXXZ@std@@@2@$0A@@std@@@std@@QAE?AV?$_Tree_iterator@V?$_Tree_val@U?$_Tree_simple_types@U?$pair@$$CBV?$basic_string@DU?$char_traits@D@std@@V?$allocator@D@2@@std@@P6APAXXZ@std@@@std@@@std@@@2@XZ PROC ; std::_Tree<std::_Tmap_traits<std::basic_string<char,std::char_traits<char>,std::allocator<char> >,void * (__cdecl*)(void),std::less<std::basic_string<char,std::char_traits<char>,std::allocator<char> > >,std::allocator<std::pair<std::basic_string<char,std::char_traits<char>,std::allocator<char> > const ,void * (__cdecl*)(void)> >,0> >::end, COMDAT
; _this$ = ecx

; 1156 : 		{	// return iterator for end of mutable sequence

  00000	55		 push	 ebp
  00001	8b ec		 mov	 ebp, esp
  00003	6a ff		 push	 -1
  00005	68 00 00 00 00	 push	 __ehhandler$?end@?$_Tree@V?$_Tmap_traits@V?$basic_string@DU?$char_traits@D@std@@V?$allocator@D@2@@std@@P6APAXXZU?$less@V?$basic_string@DU?$char_traits@D@std@@V?$allocator@D@2@@std@@@2@V?$allocator@U?$pair@$$CBV?$basic_string@DU?$char_traits@D@std@@V?$allocator@D@2@@std@@P6APAXXZ@std@@@2@$0A@@std@@@std@@QAE?AV?$_Tree_iterator@V?$_Tree_val@U?$_Tree_simple_types@U?$pair@$$CBV?$basic_string@DU?$char_traits@D@std@@V?$allocator@D@2@@std@@P6APAXXZ@std@@@std@@@std@@@2@XZ
  0000a	64 a1 00 00 00
	00		 mov	 eax, DWORD PTR fs:0
  00010	50		 push	 eax
  00011	51		 push	 ecx
  00012	c7 45 f0 cc cc
	cc cc		 mov	 DWORD PTR [ebp-16], -858993460 ; ccccccccH
  00019	a1 00 00 00 00	 mov	 eax, DWORD PTR ___security_cookie
  0001e	33 c5		 xor	 eax, ebp
  00020	50		 push	 eax
  00021	8d 45 f4	 lea	 eax, DWORD PTR __$EHRec$[ebp]
  00024	64 a3 00 00 00
	00		 mov	 DWORD PTR fs:0, eax
  0002a	89 4d f0	 mov	 DWORD PTR _this$[ebp], ecx

; 1157 : 		return (iterator(this->_Myhead(), &this->_Get_data()));

  0002d	8b 4d f0	 mov	 ecx, DWORD PTR _this$[ebp]
  00030	e8 00 00 00 00	 call	 ?_Get_data@?$_Tree_comp_alloc@V?$_Tmap_traits@V?$basic_string@DU?$char_traits@D@std@@V?$allocator@D@2@@std@@P6APAXXZU?$less@V?$basic_string@DU?$char_traits@D@std@@V?$allocator@D@2@@std@@@2@V?$allocator@U?$pair@$$CBV?$basic_string@DU?$char_traits@D@std@@V?$allocator@D@2@@std@@P6APAXXZ@std@@@2@$0A@@std@@@std@@QAEAAV?$_Tree_val@U?$_Tree_simple_types@U?$pair@$$CBV?$basic_string@DU?$char_traits@D@std@@V?$allocator@D@2@@std@@P6APAXXZ@std@@@std@@@2@XZ ; std::_Tree_comp_alloc<std::_Tmap_traits<std::basic_string<char,std::char_traits<char>,std::allocator<char> >,void * (__cdecl*)(void),std::less<std::basic_string<char,std::char_traits<char>,std::allocator<char> > >,std::allocator<std::pair<std::basic_string<char,std::char_traits<char>,std::allocator<char> > const ,void * (__cdecl*)(void)> >,0> >::_Get_data
  00035	50		 push	 eax
  00036	8b 4d f0	 mov	 ecx, DWORD PTR _this$[ebp]
  00039	e8 00 00 00 00	 call	 ?_Myhead@?$_Tree_comp_alloc@V?$_Tmap_traits@V?$basic_string@DU?$char_traits@D@std@@V?$allocator@D@2@@std@@P6APAXXZU?$less@V?$basic_string@DU?$char_traits@D@std@@V?$allocator@D@2@@std@@@2@V?$allocator@U?$pair@$$CBV?$basic_string@DU?$char_traits@D@std@@V?$allocator@D@2@@std@@P6APAXXZ@std@@@2@$0A@@std@@@std@@QAEAAPAU?$_Tree_node@U?$pair@$$CBV?$basic_string@DU?$char_traits@D@std@@V?$allocator@D@2@@std@@P6APAXXZ@std@@PAX@2@XZ ; std::_Tree_comp_alloc<std::_Tmap_traits<std::basic_string<char,std::char_traits<char>,std::allocator<char> >,void * (__cdecl*)(void),std::less<std::basic_string<char,std::char_traits<char>,std::allocator<char> > >,std::allocator<std::pair<std::basic_string<char,std::char_traits<char>,std::allocator<char> > const ,void * (__cdecl*)(void)> >,0> >::_Myhead
  0003e	8b 00		 mov	 eax, DWORD PTR [eax]
  00040	50		 push	 eax
  00041	8b 4d 08	 mov	 ecx, DWORD PTR ___$ReturnUdt$[ebp]
  00044	e8 00 00 00 00	 call	 ??0?$_Tree_iterator@V?$_Tree_val@U?$_Tree_simple_types@U?$pair@$$CBV?$basic_string@DU?$char_traits@D@std@@V?$allocator@D@2@@std@@P6APAXXZ@std@@@std@@@std@@@std@@QAE@PAU?$_Tree_node@U?$pair@$$CBV?$basic_string@DU?$char_traits@D@std@@V?$allocator@D@2@@std@@P6APAXXZ@std@@PAX@1@PBV?$_Tree_val@U?$_Tree_simple_types@U?$pair@$$CBV?$basic_string@DU?$char_traits@D@std@@V?$allocator@D@2@@std@@P6APAXXZ@std@@@std@@@1@@Z ; std::_Tree_iterator<std::_Tree_val<std::_Tree_simple_types<std::pair<std::basic_string<char,std::char_traits<char>,std::allocator<char> > const ,void * (__cdecl*)(void)> > > >::_Tree_iterator<std::_Tree_val<std::_Tree_simple_types<std::pair<std::basic_string<char,std::char_traits<char>,std::allocator<char> > const ,void * (__cdecl*)(void)> > > >
  00049	8b 45 08	 mov	 eax, DWORD PTR ___$ReturnUdt$[ebp]

; 1158 : 		}

  0004c	8b 4d f4	 mov	 ecx, DWORD PTR __$EHRec$[ebp]
  0004f	64 89 0d 00 00
	00 00		 mov	 DWORD PTR fs:0, ecx
  00056	59		 pop	 ecx
  00057	83 c4 10	 add	 esp, 16			; 00000010H
  0005a	3b ec		 cmp	 ebp, esp
  0005c	e8 00 00 00 00	 call	 __RTC_CheckEsp
  00061	8b e5		 mov	 esp, ebp
  00063	5d		 pop	 ebp
  00064	c2 04 00	 ret	 4
_TEXT	ENDS
;	COMDAT text$x
text$x	SEGMENT
__ehhandler$?end@?$_Tree@V?$_Tmap_traits@V?$basic_string@DU?$char_traits@D@std@@V?$allocator@D@2@@std@@P6APAXXZU?$less@V?$basic_string@DU?$char_traits@D@std@@V?$allocator@D@2@@std@@@2@V?$allocator@U?$pair@$$CBV?$basic_string@DU?$char_traits@D@std@@V?$allocator@D@2@@std@@P6APAXXZ@std@@@2@$0A@@std@@@std@@QAE?AV?$_Tree_iterator@V?$_Tree_val@U?$_Tree_simple_types@U?$pair@$$CBV?$basic_string@DU?$char_traits@D@std@@V?$allocator@D@2@@std@@P6APAXXZ@std@@@std@@@std@@@2@XZ:
  00000	8b 54 24 08	 mov	 edx, DWORD PTR [esp+8]
  00004	8d 42 0c	 lea	 eax, DWORD PTR [edx+12]
  00007	8b 4a f8	 mov	 ecx, DWORD PTR [edx-8]
  0000a	33 c8		 xor	 ecx, eax
  0000c	e8 00 00 00 00	 call	 @__security_check_cookie@4
  00011	b8 00 00 00 00	 mov	 eax, OFFSET __ehfuncinfo$?end@?$_Tree@V?$_Tmap_traits@V?$basic_string@DU?$char_traits@D@std@@V?$allocator@D@2@@std@@P6APAXXZU?$less@V?$basic_string@DU?$char_traits@D@std@@V?$allocator@D@2@@std@@@2@V?$allocator@U?$pair@$$CBV?$basic_string@DU?$char_traits@D@std@@V?$allocator@D@2@@std@@P6APAXXZ@std@@@2@$0A@@std@@@std@@QAE?AV?$_Tree_iterator@V?$_Tree_val@U?$_Tree_simple_types@U?$pair@$$CBV?$basic_string@DU?$char_traits@D@std@@V?$allocator@D@2@@std@@P6APAXXZ@std@@@std@@@std@@@2@XZ
  00016	e9 00 00 00 00	 jmp	 ___CxxFrameHandler3
text$x	ENDS
?end@?$_Tree@V?$_Tmap_traits@V?$basic_string@DU?$char_traits@D@std@@V?$allocator@D@2@@std@@P6APAXXZU?$less@V?$basic_string@DU?$char_traits@D@std@@V?$allocator@D@2@@std@@@2@V?$allocator@U?$pair@$$CBV?$basic_string@DU?$char_traits@D@std@@V?$allocator@D@2@@std@@P6APAXXZ@std@@@2@$0A@@std@@@std@@QAE?AV?$_Tree_iterator@V?$_Tree_val@U?$_Tree_simple_types@U?$pair@$$CBV?$basic_string@DU?$char_traits@D@std@@V?$allocator@D@2@@std@@P6APAXXZ@std@@@std@@@std@@@2@XZ ENDP ; std::_Tree<std::_Tmap_traits<std::basic_string<char,std::char_traits<char>,std::allocator<char> >,void * (__cdecl*)(void),std::less<std::basic_string<char,std::char_traits<char>,std::allocator<char> > >,std::allocator<std::pair<std::basic_string<char,std::char_traits<char>,std::allocator<char> > const ,void * (__cdecl*)(void)> >,0> >::end
; Function compile flags: /Odtp /RTCsu
; File c:\program files (x86)\microsoft visual studio 14.0\vc\include\xtree
;	COMDAT ??1?$_Tree@V?$_Tmap_traits@V?$basic_string@DU?$char_traits@D@std@@V?$allocator@D@2@@std@@P6APAXXZU?$less@V?$basic_string@DU?$char_traits@D@std@@V?$allocator@D@2@@std@@@2@V?$allocator@U?$pair@$$CBV?$basic_string@DU?$char_traits@D@std@@V?$allocator@D@2@@std@@P6APAXXZ@std@@@2@$0A@@std@@@std@@QAE@XZ
_TEXT	SEGMENT
_this$ = -16						; size = 4
__$EHRec$ = -12						; size = 12
??1?$_Tree@V?$_Tmap_traits@V?$basic_string@DU?$char_traits@D@std@@V?$allocator@D@2@@std@@P6APAXXZU?$less@V?$basic_string@DU?$char_traits@D@std@@V?$allocator@D@2@@std@@@2@V?$allocator@U?$pair@$$CBV?$basic_string@DU?$char_traits@D@std@@V?$allocator@D@2@@std@@P6APAXXZ@std@@@2@$0A@@std@@@std@@QAE@XZ PROC ; std::_Tree<std::_Tmap_traits<std::basic_string<char,std::char_traits<char>,std::allocator<char> >,void * (__cdecl*)(void),std::less<std::basic_string<char,std::char_traits<char>,std::allocator<char> > >,std::allocator<std::pair<std::basic_string<char,std::char_traits<char>,std::allocator<char> > const ,void * (__cdecl*)(void)> >,0> >::~_Tree<std::_Tmap_traits<std::basic_string<char,std::char_traits<char>,std::allocator<char> >,void * (__cdecl*)(void),std::less<std::basic_string<char,std::char_traits<char>,std::allocator<char> > >,std::allocator<std::pair<std::basic_string<char,std::char_traits<char>,std::allocator<char> > const ,void * (__cdecl*)(void)> >,0> >, COMDAT
; _this$ = ecx

; 1126 : 		{	// destroy tree

  00000	55		 push	 ebp
  00001	8b ec		 mov	 ebp, esp
  00003	6a ff		 push	 -1
  00005	68 00 00 00 00	 push	 __ehhandler$??1?$_Tree@V?$_Tmap_traits@V?$basic_string@DU?$char_traits@D@std@@V?$allocator@D@2@@std@@P6APAXXZU?$less@V?$basic_string@DU?$char_traits@D@std@@V?$allocator@D@2@@std@@@2@V?$allocator@U?$pair@$$CBV?$basic_string@DU?$char_traits@D@std@@V?$allocator@D@2@@std@@P6APAXXZ@std@@@2@$0A@@std@@@std@@QAE@XZ
  0000a	64 a1 00 00 00
	00		 mov	 eax, DWORD PTR fs:0
  00010	50		 push	 eax
  00011	51		 push	 ecx
  00012	c7 45 f0 cc cc
	cc cc		 mov	 DWORD PTR [ebp-16], -858993460 ; ccccccccH
  00019	a1 00 00 00 00	 mov	 eax, DWORD PTR ___security_cookie
  0001e	33 c5		 xor	 eax, ebp
  00020	50		 push	 eax
  00021	8d 45 f4	 lea	 eax, DWORD PTR __$EHRec$[ebp]
  00024	64 a3 00 00 00
	00		 mov	 DWORD PTR fs:0, eax
  0002a	89 4d f0	 mov	 DWORD PTR _this$[ebp], ecx

; 1127 : 		_Tidy();

  0002d	8b 4d f0	 mov	 ecx, DWORD PTR _this$[ebp]
  00030	e8 00 00 00 00	 call	 ?_Tidy@?$_Tree@V?$_Tmap_traits@V?$basic_string@DU?$char_traits@D@std@@V?$allocator@D@2@@std@@P6APAXXZU?$less@V?$basic_string@DU?$char_traits@D@std@@V?$allocator@D@2@@std@@@2@V?$allocator@U?$pair@$$CBV?$basic_string@DU?$char_traits@D@std@@V?$allocator@D@2@@std@@P6APAXXZ@std@@@2@$0A@@std@@@std@@IAEXXZ ; std::_Tree<std::_Tmap_traits<std::basic_string<char,std::char_traits<char>,std::allocator<char> >,void * (__cdecl*)(void),std::less<std::basic_string<char,std::char_traits<char>,std::allocator<char> > >,std::allocator<std::pair<std::basic_string<char,std::char_traits<char>,std::allocator<char> > const ,void * (__cdecl*)(void)> >,0> >::_Tidy

; 1128 : 		}

  00035	8b 4d f0	 mov	 ecx, DWORD PTR _this$[ebp]
  00038	e8 00 00 00 00	 call	 ??1?$_Tree_comp_alloc@V?$_Tmap_traits@V?$basic_string@DU?$char_traits@D@std@@V?$allocator@D@2@@std@@P6APAXXZU?$less@V?$basic_string@DU?$char_traits@D@std@@V?$allocator@D@2@@std@@@2@V?$allocator@U?$pair@$$CBV?$basic_string@DU?$char_traits@D@std@@V?$allocator@D@2@@std@@P6APAXXZ@std@@@2@$0A@@std@@@std@@QAE@XZ ; std::_Tree_comp_alloc<std::_Tmap_traits<std::basic_string<char,std::char_traits<char>,std::allocator<char> >,void * (__cdecl*)(void),std::less<std::basic_string<char,std::char_traits<char>,std::allocator<char> > >,std::allocator<std::pair<std::basic_string<char,std::char_traits<char>,std::allocator<char> > const ,void * (__cdecl*)(void)> >,0> >::~_Tree_comp_alloc<std::_Tmap_traits<std::basic_string<char,std::char_traits<char>,std::allocator<char> >,void * (__cdecl*)(void),std::less<std::basic_string<char,std::char_traits<char>,std::allocator<char> > >,std::allocator<std::pair<std::basic_string<char,std::char_traits<char>,std::allocator<char> > const ,void * (__cdecl*)(void)> >,0> >
  0003d	8b 4d f4	 mov	 ecx, DWORD PTR __$EHRec$[ebp]
  00040	64 89 0d 00 00
	00 00		 mov	 DWORD PTR fs:0, ecx
  00047	59		 pop	 ecx
  00048	83 c4 10	 add	 esp, 16			; 00000010H
  0004b	3b ec		 cmp	 ebp, esp
  0004d	e8 00 00 00 00	 call	 __RTC_CheckEsp
  00052	8b e5		 mov	 esp, ebp
  00054	5d		 pop	 ebp
  00055	c3		 ret	 0
_TEXT	ENDS
;	COMDAT text$x
text$x	SEGMENT
__ehhandler$??1?$_Tree@V?$_Tmap_traits@V?$basic_string@DU?$char_traits@D@std@@V?$allocator@D@2@@std@@P6APAXXZU?$less@V?$basic_string@DU?$char_traits@D@std@@V?$allocator@D@2@@std@@@2@V?$allocator@U?$pair@$$CBV?$basic_string@DU?$char_traits@D@std@@V?$allocator@D@2@@std@@P6APAXXZ@std@@@2@$0A@@std@@@std@@QAE@XZ:
  00000	8b 54 24 08	 mov	 edx, DWORD PTR [esp+8]
  00004	8d 42 0c	 lea	 eax, DWORD PTR [edx+12]
  00007	8b 4a f8	 mov	 ecx, DWORD PTR [edx-8]
  0000a	33 c8		 xor	 ecx, eax
  0000c	e8 00 00 00 00	 call	 @__security_check_cookie@4
  00011	b8 00 00 00 00	 mov	 eax, OFFSET __ehfuncinfo$??1?$_Tree@V?$_Tmap_traits@V?$basic_string@DU?$char_traits@D@std@@V?$allocator@D@2@@std@@P6APAXXZU?$less@V?$basic_string@DU?$char_traits@D@std@@V?$allocator@D@2@@std@@@2@V?$allocator@U?$pair@$$CBV?$basic_string@DU?$char_traits@D@std@@V?$allocator@D@2@@std@@P6APAXXZ@std@@@2@$0A@@std@@@std@@QAE@XZ
  00016	e9 00 00 00 00	 jmp	 ___CxxFrameHandler3
text$x	ENDS
??1?$_Tree@V?$_Tmap_traits@V?$basic_string@DU?$char_traits@D@std@@V?$allocator@D@2@@std@@P6APAXXZU?$less@V?$basic_string@DU?$char_traits@D@std@@V?$allocator@D@2@@std@@@2@V?$allocator@U?$pair@$$CBV?$basic_string@DU?$char_traits@D@std@@V?$allocator@D@2@@std@@P6APAXXZ@std@@@2@$0A@@std@@@std@@QAE@XZ ENDP ; std::_Tree<std::_Tmap_traits<std::basic_string<char,std::char_traits<char>,std::allocator<char> >,void * (__cdecl*)(void),std::less<std::basic_string<char,std::char_traits<char>,std::allocator<char> > >,std::allocator<std::pair<std::basic_string<char,std::char_traits<char>,std::allocator<char> > const ,void * (__cdecl*)(void)> >,0> >::~_Tree<std::_Tmap_traits<std::basic_string<char,std::char_traits<char>,std::allocator<char> >,void * (__cdecl*)(void),std::less<std::basic_string<char,std::char_traits<char>,std::allocator<char> > >,std::allocator<std::pair<std::basic_string<char,std::char_traits<char>,std::allocator<char> > const ,void * (__cdecl*)(void)> >,0> >
; Function compile flags: /Odtp /RTCsu
; File c:\program files (x86)\microsoft visual studio 14.0\vc\include\map
;	COMDAT ??0?$map@V?$basic_string@DU?$char_traits@D@std@@V?$allocator@D@2@@std@@P6APAXXZU?$less@V?$basic_string@DU?$char_traits@D@std@@V?$allocator@D@2@@std@@@2@V?$allocator@U?$pair@$$CBV?$basic_string@DU?$char_traits@D@std@@V?$allocator@D@2@@std@@P6APAXXZ@std@@@2@@std@@QAE@XZ
_TEXT	SEGMENT
$T1 = -6						; size = 1
$T2 = -5						; size = 1
_this$ = -4						; size = 4
??0?$map@V?$basic_string@DU?$char_traits@D@std@@V?$allocator@D@2@@std@@P6APAXXZU?$less@V?$basic_string@DU?$char_traits@D@std@@V?$allocator@D@2@@std@@@2@V?$allocator@U?$pair@$$CBV?$basic_string@DU?$char_traits@D@std@@V?$allocator@D@2@@std@@P6APAXXZ@std@@@2@@std@@QAE@XZ PROC ; std::map<std::basic_string<char,std::char_traits<char>,std::allocator<char> >,void * (__cdecl*)(void),std::less<std::basic_string<char,std::char_traits<char>,std::allocator<char> > >,std::allocator<std::pair<std::basic_string<char,std::char_traits<char>,std::allocator<char> > const ,void * (__cdecl*)(void)> > >::map<std::basic_string<char,std::char_traits<char>,std::allocator<char> >,void * (__cdecl*)(void),std::less<std::basic_string<char,std::char_traits<char>,std::allocator<char> > >,std::allocator<std::pair<std::basic_string<char,std::char_traits<char>,std::allocator<char> > const ,void * (__cdecl*)(void)> > >, COMDAT
; _this$ = ecx

; 100  : 		{	// construct empty map from defaults

  00000	55		 push	 ebp
  00001	8b ec		 mov	 ebp, esp
  00003	83 ec 08	 sub	 esp, 8
  00006	c7 45 f8 cc cc
	cc cc		 mov	 DWORD PTR [ebp-8], -858993460 ; ccccccccH
  0000d	c7 45 fc cc cc
	cc cc		 mov	 DWORD PTR [ebp-4], -858993460 ; ccccccccH
  00014	89 4d fc	 mov	 DWORD PTR _this$[ebp], ecx

; 99   : 		: _Mybase(key_compare(), allocator_type())

  00017	8d 4d fb	 lea	 ecx, DWORD PTR $T2[ebp]
  0001a	e8 00 00 00 00	 call	 ??0?$allocator@U?$pair@$$CBV?$basic_string@DU?$char_traits@D@std@@V?$allocator@D@2@@std@@P6APAXXZ@std@@@std@@QAE@XZ ; std::allocator<std::pair<std::basic_string<char,std::char_traits<char>,std::allocator<char> > const ,void * (__cdecl*)(void)> >::allocator<std::pair<std::basic_string<char,std::char_traits<char>,std::allocator<char> > const ,void * (__cdecl*)(void)> >
  0001f	50		 push	 eax
  00020	8d 45 fa	 lea	 eax, DWORD PTR $T1[ebp]
  00023	50		 push	 eax
  00024	8b 4d fc	 mov	 ecx, DWORD PTR _this$[ebp]
  00027	e8 00 00 00 00	 call	 ??0?$_Tree@V?$_Tmap_traits@V?$basic_string@DU?$char_traits@D@std@@V?$allocator@D@2@@std@@P6APAXXZU?$less@V?$basic_string@DU?$char_traits@D@std@@V?$allocator@D@2@@std@@@2@V?$allocator@U?$pair@$$CBV?$basic_string@DU?$char_traits@D@std@@V?$allocator@D@2@@std@@P6APAXXZ@std@@@2@$0A@@std@@@std@@QAE@ABU?$less@V?$basic_string@DU?$char_traits@D@std@@V?$allocator@D@2@@std@@@1@ABV?$allocator@U?$pair@$$CBV?$basic_string@DU?$char_traits@D@std@@V?$allocator@D@2@@std@@P6APAXXZ@std@@@1@@Z ; std::_Tree<std::_Tmap_traits<std::basic_string<char,std::char_traits<char>,std::allocator<char> >,void * (__cdecl*)(void),std::less<std::basic_string<char,std::char_traits<char>,std::allocator<char> > >,std::allocator<std::pair<std::basic_string<char,std::char_traits<char>,std::allocator<char> > const ,void * (__cdecl*)(void)> >,0> >::_Tree<std::_Tmap_traits<std::basic_string<char,std::char_traits<char>,std::allocator<char> >,void * (__cdecl*)(void),std::less<std::basic_string<char,std::char_traits<char>,std::allocator<char> > >,std::allocator<std::pair<std::basic_string<char,std::char_traits<char>,std::allocator<char> > const ,void * (__cdecl*)(void)> >,0> >

; 101  : 		}

  0002c	8b 45 fc	 mov	 eax, DWORD PTR _this$[ebp]
  0002f	83 c4 08	 add	 esp, 8
  00032	3b ec		 cmp	 ebp, esp
  00034	e8 00 00 00 00	 call	 __RTC_CheckEsp
  00039	8b e5		 mov	 esp, ebp
  0003b	5d		 pop	 ebp
  0003c	c3		 ret	 0
??0?$map@V?$basic_string@DU?$char_traits@D@std@@V?$allocator@D@2@@std@@P6APAXXZU?$less@V?$basic_string@DU?$char_traits@D@std@@V?$allocator@D@2@@std@@@2@V?$allocator@U?$pair@$$CBV?$basic_string@DU?$char_traits@D@std@@V?$allocator@D@2@@std@@P6APAXXZ@std@@@2@@std@@QAE@XZ ENDP ; std::map<std::basic_string<char,std::char_traits<char>,std::allocator<char> >,void * (__cdecl*)(void),std::less<std::basic_string<char,std::char_traits<char>,std::allocator<char> > >,std::allocator<std::pair<std::basic_string<char,std::char_traits<char>,std::allocator<char> > const ,void * (__cdecl*)(void)> > >::map<std::basic_string<char,std::char_traits<char>,std::allocator<char> >,void * (__cdecl*)(void),std::less<std::basic_string<char,std::char_traits<char>,std::allocator<char> > >,std::allocator<std::pair<std::basic_string<char,std::char_traits<char>,std::allocator<char> > const ,void * (__cdecl*)(void)> > >
_TEXT	ENDS
; Function compile flags: /Odtp /RTCsu
; File c:\program files (x86)\microsoft visual studio 14.0\vc\include\xtree
;	COMDAT ??1?$_Tree_comp_alloc@V?$_Tmap_traits@V?$basic_string@DU?$char_traits@D@std@@V?$allocator@D@2@@std@@P6APAXXZU?$less@V?$basic_string@DU?$char_traits@D@std@@V?$allocator@D@2@@std@@@2@V?$allocator@U?$pair@$$CBV?$basic_string@DU?$char_traits@D@std@@V?$allocator@D@2@@std@@P6APAXXZ@std@@@2@$0A@@std@@@std@@QAE@XZ
_TEXT	SEGMENT
_this$ = -16						; size = 4
__$EHRec$ = -12						; size = 12
??1?$_Tree_comp_alloc@V?$_Tmap_traits@V?$basic_string@DU?$char_traits@D@std@@V?$allocator@D@2@@std@@P6APAXXZU?$less@V?$basic_string@DU?$char_traits@D@std@@V?$allocator@D@2@@std@@@2@V?$allocator@U?$pair@$$CBV?$basic_string@DU?$char_traits@D@std@@V?$allocator@D@2@@std@@P6APAXXZ@std@@@2@$0A@@std@@@std@@QAE@XZ PROC ; std::_Tree_comp_alloc<std::_Tmap_traits<std::basic_string<char,std::char_traits<char>,std::allocator<char> >,void * (__cdecl*)(void),std::less<std::basic_string<char,std::char_traits<char>,std::allocator<char> > >,std::allocator<std::pair<std::basic_string<char,std::char_traits<char>,std::allocator<char> > const ,void * (__cdecl*)(void)> >,0> >::~_Tree_comp_alloc<std::_Tmap_traits<std::basic_string<char,std::char_traits<char>,std::allocator<char> >,void * (__cdecl*)(void),std::less<std::basic_string<char,std::char_traits<char>,std::allocator<char> > >,std::allocator<std::pair<std::basic_string<char,std::char_traits<char>,std::allocator<char> > const ,void * (__cdecl*)(void)> >,0> >, COMDAT
; _this$ = ecx

; 753  : 		{	// destroy head node, proxy

  00000	55		 push	 ebp
  00001	8b ec		 mov	 ebp, esp
  00003	6a ff		 push	 -1
  00005	68 00 00 00 00	 push	 __ehhandler$??1?$_Tree_comp_alloc@V?$_Tmap_traits@V?$basic_string@DU?$char_traits@D@std@@V?$allocator@D@2@@std@@P6APAXXZU?$less@V?$basic_string@DU?$char_traits@D@std@@V?$allocator@D@2@@std@@@2@V?$allocator@U?$pair@$$CBV?$basic_string@DU?$char_traits@D@std@@V?$allocator@D@2@@std@@P6APAXXZ@std@@@2@$0A@@std@@@std@@QAE@XZ
  0000a	64 a1 00 00 00
	00		 mov	 eax, DWORD PTR fs:0
  00010	50		 push	 eax
  00011	51		 push	 ecx
  00012	c7 45 f0 cc cc
	cc cc		 mov	 DWORD PTR [ebp-16], -858993460 ; ccccccccH
  00019	a1 00 00 00 00	 mov	 eax, DWORD PTR ___security_cookie
  0001e	33 c5		 xor	 eax, ebp
  00020	50		 push	 eax
  00021	8d 45 f4	 lea	 eax, DWORD PTR __$EHRec$[ebp]
  00024	64 a3 00 00 00
	00		 mov	 DWORD PTR fs:0, eax
  0002a	89 4d f0	 mov	 DWORD PTR _this$[ebp], ecx

; 754  : 		_Freeheadnode(_Myhead());

  0002d	8b 4d f0	 mov	 ecx, DWORD PTR _this$[ebp]
  00030	e8 00 00 00 00	 call	 ?_Myhead@?$_Tree_comp_alloc@V?$_Tmap_traits@V?$basic_string@DU?$char_traits@D@std@@V?$allocator@D@2@@std@@P6APAXXZU?$less@V?$basic_string@DU?$char_traits@D@std@@V?$allocator@D@2@@std@@@2@V?$allocator@U?$pair@$$CBV?$basic_string@DU?$char_traits@D@std@@V?$allocator@D@2@@std@@P6APAXXZ@std@@@2@$0A@@std@@@std@@QAEAAPAU?$_Tree_node@U?$pair@$$CBV?$basic_string@DU?$char_traits@D@std@@V?$allocator@D@2@@std@@P6APAXXZ@std@@PAX@2@XZ ; std::_Tree_comp_alloc<std::_Tmap_traits<std::basic_string<char,std::char_traits<char>,std::allocator<char> >,void * (__cdecl*)(void),std::less<std::basic_string<char,std::char_traits<char>,std::allocator<char> > >,std::allocator<std::pair<std::basic_string<char,std::char_traits<char>,std::allocator<char> > const ,void * (__cdecl*)(void)> >,0> >::_Myhead
  00035	8b 00		 mov	 eax, DWORD PTR [eax]
  00037	50		 push	 eax
  00038	8b 4d f0	 mov	 ecx, DWORD PTR _this$[ebp]
  0003b	e8 00 00 00 00	 call	 ?_Freeheadnode@?$_Tree_comp_alloc@V?$_Tmap_traits@V?$basic_string@DU?$char_traits@D@std@@V?$allocator@D@2@@std@@P6APAXXZU?$less@V?$basic_string@DU?$char_traits@D@std@@V?$allocator@D@2@@std@@@2@V?$allocator@U?$pair@$$CBV?$basic_string@DU?$char_traits@D@std@@V?$allocator@D@2@@std@@P6APAXXZ@std@@@2@$0A@@std@@@std@@QAEXPAU?$_Tree_node@U?$pair@$$CBV?$basic_string@DU?$char_traits@D@std@@V?$allocator@D@2@@std@@P6APAXXZ@std@@PAX@2@@Z ; std::_Tree_comp_alloc<std::_Tmap_traits<std::basic_string<char,std::char_traits<char>,std::allocator<char> >,void * (__cdecl*)(void),std::less<std::basic_string<char,std::char_traits<char>,std::allocator<char> > >,std::allocator<std::pair<std::basic_string<char,std::char_traits<char>,std::allocator<char> > const ,void * (__cdecl*)(void)> >,0> >::_Freeheadnode

; 755  : 		_Free_proxy();

  00040	8b 4d f0	 mov	 ecx, DWORD PTR _this$[ebp]
  00043	e8 00 00 00 00	 call	 ?_Free_proxy@?$_Tree_comp_alloc@V?$_Tmap_traits@V?$basic_string@DU?$char_traits@D@std@@V?$allocator@D@2@@std@@P6APAXXZU?$less@V?$basic_string@DU?$char_traits@D@std@@V?$allocator@D@2@@std@@@2@V?$allocator@U?$pair@$$CBV?$basic_string@DU?$char_traits@D@std@@V?$allocator@D@2@@std@@P6APAXXZ@std@@@2@$0A@@std@@@std@@QAEXXZ ; std::_Tree_comp_alloc<std::_Tmap_traits<std::basic_string<char,std::char_traits<char>,std::allocator<char> >,void * (__cdecl*)(void),std::less<std::basic_string<char,std::char_traits<char>,std::allocator<char> > >,std::allocator<std::pair<std::basic_string<char,std::char_traits<char>,std::allocator<char> > const ,void * (__cdecl*)(void)> >,0> >::_Free_proxy

; 756  : 		}

  00048	8b 4d f0	 mov	 ecx, DWORD PTR _this$[ebp]
  0004b	e8 00 00 00 00	 call	 ??1?$_Compressed_pair@U?$less@V?$basic_string@DU?$char_traits@D@std@@V?$allocator@D@2@@std@@@std@@V?$_Compressed_pair@U?$_Wrap_alloc@V?$allocator@U?$_Tree_node@U?$pair@$$CBV?$basic_string@DU?$char_traits@D@std@@V?$allocator@D@2@@std@@P6APAXXZ@std@@PAX@std@@@std@@@std@@V?$_Tree_val@U?$_Tree_simple_types@U?$pair@$$CBV?$basic_string@DU?$char_traits@D@std@@V?$allocator@D@2@@std@@P6APAXXZ@std@@@std@@@2@$00@2@$00@std@@QAE@XZ
  00050	8b 4d f4	 mov	 ecx, DWORD PTR __$EHRec$[ebp]
  00053	64 89 0d 00 00
	00 00		 mov	 DWORD PTR fs:0, ecx
  0005a	59		 pop	 ecx
  0005b	83 c4 10	 add	 esp, 16			; 00000010H
  0005e	3b ec		 cmp	 ebp, esp
  00060	e8 00 00 00 00	 call	 __RTC_CheckEsp
  00065	8b e5		 mov	 esp, ebp
  00067	5d		 pop	 ebp
  00068	c3		 ret	 0
_TEXT	ENDS
;	COMDAT text$x
text$x	SEGMENT
__ehhandler$??1?$_Tree_comp_alloc@V?$_Tmap_traits@V?$basic_string@DU?$char_traits@D@std@@V?$allocator@D@2@@std@@P6APAXXZU?$less@V?$basic_string@DU?$char_traits@D@std@@V?$allocator@D@2@@std@@@2@V?$allocator@U?$pair@$$CBV?$basic_string@DU?$char_traits@D@std@@V?$allocator@D@2@@std@@P6APAXXZ@std@@@2@$0A@@std@@@std@@QAE@XZ:
  00000	8b 54 24 08	 mov	 edx, DWORD PTR [esp+8]
  00004	8d 42 0c	 lea	 eax, DWORD PTR [edx+12]
  00007	8b 4a f8	 mov	 ecx, DWORD PTR [edx-8]
  0000a	33 c8		 xor	 ecx, eax
  0000c	e8 00 00 00 00	 call	 @__security_check_cookie@4
  00011	b8 00 00 00 00	 mov	 eax, OFFSET __ehfuncinfo$??1?$_Tree_comp_alloc@V?$_Tmap_traits@V?$basic_string@DU?$char_traits@D@std@@V?$allocator@D@2@@std@@P6APAXXZU?$less@V?$basic_string@DU?$char_traits@D@std@@V?$allocator@D@2@@std@@@2@V?$allocator@U?$pair@$$CBV?$basic_string@DU?$char_traits@D@std@@V?$allocator@D@2@@std@@P6APAXXZ@std@@@2@$0A@@std@@@std@@QAE@XZ
  00016	e9 00 00 00 00	 jmp	 ___CxxFrameHandler3
text$x	ENDS
??1?$_Tree_comp_alloc@V?$_Tmap_traits@V?$basic_string@DU?$char_traits@D@std@@V?$allocator@D@2@@std@@P6APAXXZU?$less@V?$basic_string@DU?$char_traits@D@std@@V?$allocator@D@2@@std@@@2@V?$allocator@U?$pair@$$CBV?$basic_string@DU?$char_traits@D@std@@V?$allocator@D@2@@std@@P6APAXXZ@std@@@2@$0A@@std@@@std@@QAE@XZ ENDP ; std::_Tree_comp_alloc<std::_Tmap_traits<std::basic_string<char,std::char_traits<char>,std::allocator<char> >,void * (__cdecl*)(void),std::less<std::basic_string<char,std::char_traits<char>,std::allocator<char> > >,std::allocator<std::pair<std::basic_string<char,std::char_traits<char>,std::allocator<char> > const ,void * (__cdecl*)(void)> >,0> >::~_Tree_comp_alloc<std::_Tmap_traits<std::basic_string<char,std::char_traits<char>,std::allocator<char> >,void * (__cdecl*)(void),std::less<std::basic_string<char,std::char_traits<char>,std::allocator<char> > >,std::allocator<std::pair<std::basic_string<char,std::char_traits<char>,std::allocator<char> > const ,void * (__cdecl*)(void)> >,0> >
; Function compile flags: /Odtp /RTCsu
; File c:\program files (x86)\microsoft visual studio 14.0\vc\include\xtree
;	COMDAT ?_Tidy@?$_Tree@V?$_Tmap_traits@V?$basic_string@DU?$char_traits@D@std@@V?$allocator@D@2@@std@@P6APAXXZU?$less@V?$basic_string@DU?$char_traits@D@std@@V?$allocator@D@2@@std@@@2@V?$allocator@U?$pair@$$CBV?$basic_string@DU?$char_traits@D@std@@V?$allocator@D@2@@std@@P6APAXXZ@std@@@2@$0A@@std@@@std@@IAEXXZ
_TEXT	SEGMENT
tv149 = -92						; size = 4
tv154 = -88						; size = 4
tv151 = -84						; size = 4
tv158 = -80						; size = 4
tv148 = -76						; size = 4
tv157 = -72						; size = 4
tv146 = -68						; size = 4
tv156 = -64						; size = 4
$T2 = -60						; size = 12
$T3 = -48						; size = 12
$T4 = -36						; size = 4
$T5 = -32						; size = 12
$T6 = -20						; size = 4
_this$ = -16						; size = 4
__$EHRec$ = -12						; size = 12
?_Tidy@?$_Tree@V?$_Tmap_traits@V?$basic_string@DU?$char_traits@D@std@@V?$allocator@D@2@@std@@P6APAXXZU?$less@V?$basic_string@DU?$char_traits@D@std@@V?$allocator@D@2@@std@@@2@V?$allocator@U?$pair@$$CBV?$basic_string@DU?$char_traits@D@std@@V?$allocator@D@2@@std@@P6APAXXZ@std@@@2@$0A@@std@@@std@@IAEXXZ PROC ; std::_Tree<std::_Tmap_traits<std::basic_string<char,std::char_traits<char>,std::allocator<char> >,void * (__cdecl*)(void),std::less<std::basic_string<char,std::char_traits<char>,std::allocator<char> > >,std::allocator<std::pair<std::basic_string<char,std::char_traits<char>,std::allocator<char> > const ,void * (__cdecl*)(void)> >,0> >::_Tidy, COMDAT
; _this$ = ecx

; 2195 : 		{	// free all storage

  00000	55		 push	 ebp
  00001	8b ec		 mov	 ebp, esp
  00003	6a ff		 push	 -1
  00005	68 00 00 00 00	 push	 __ehhandler$?_Tidy@?$_Tree@V?$_Tmap_traits@V?$basic_string@DU?$char_traits@D@std@@V?$allocator@D@2@@std@@P6APAXXZU?$less@V?$basic_string@DU?$char_traits@D@std@@V?$allocator@D@2@@std@@@2@V?$allocator@U?$pair@$$CBV?$basic_string@DU?$char_traits@D@std@@V?$allocator@D@2@@std@@P6APAXXZ@std@@@2@$0A@@std@@@std@@IAEXXZ
  0000a	64 a1 00 00 00
	00		 mov	 eax, DWORD PTR fs:0
  00010	50		 push	 eax
  00011	83 ec 50	 sub	 esp, 80			; 00000050H
  00014	57		 push	 edi
  00015	51		 push	 ecx
  00016	8d 7d a4	 lea	 edi, DWORD PTR [ebp-92]
  00019	b9 14 00 00 00	 mov	 ecx, 20			; 00000014H
  0001e	b8 cc cc cc cc	 mov	 eax, -858993460		; ccccccccH
  00023	f3 ab		 rep stosd
  00025	59		 pop	 ecx
  00026	a1 00 00 00 00	 mov	 eax, DWORD PTR ___security_cookie
  0002b	33 c5		 xor	 eax, ebp
  0002d	50		 push	 eax
  0002e	8d 45 f4	 lea	 eax, DWORD PTR __$EHRec$[ebp]
  00031	64 a3 00 00 00
	00		 mov	 DWORD PTR fs:0, eax
  00037	89 4d f0	 mov	 DWORD PTR _this$[ebp], ecx

; 2196 : 		erase(begin(), end());

  0003a	8d 45 e0	 lea	 eax, DWORD PTR $T5[ebp]
  0003d	50		 push	 eax
  0003e	8b 4d f0	 mov	 ecx, DWORD PTR _this$[ebp]
  00041	e8 00 00 00 00	 call	 ?end@?$_Tree@V?$_Tmap_traits@V?$basic_string@DU?$char_traits@D@std@@V?$allocator@D@2@@std@@P6APAXXZU?$less@V?$basic_string@DU?$char_traits@D@std@@V?$allocator@D@2@@std@@@2@V?$allocator@U?$pair@$$CBV?$basic_string@DU?$char_traits@D@std@@V?$allocator@D@2@@std@@P6APAXXZ@std@@@2@$0A@@std@@@std@@QAE?AV?$_Tree_iterator@V?$_Tree_val@U?$_Tree_simple_types@U?$pair@$$CBV?$basic_string@DU?$char_traits@D@std@@V?$allocator@D@2@@std@@P6APAXXZ@std@@@std@@@std@@@2@XZ ; std::_Tree<std::_Tmap_traits<std::basic_string<char,std::char_traits<char>,std::allocator<char> >,void * (__cdecl*)(void),std::less<std::basic_string<char,std::char_traits<char>,std::allocator<char> > >,std::allocator<std::pair<std::basic_string<char,std::char_traits<char>,std::allocator<char> > const ,void * (__cdecl*)(void)> >,0> >::end
  00046	89 45 c0	 mov	 DWORD PTR tv156[ebp], eax
  00049	8b 4d c0	 mov	 ecx, DWORD PTR tv156[ebp]
  0004c	89 4d bc	 mov	 DWORD PTR tv146[ebp], ecx
  0004f	c7 45 fc 00 00
	00 00		 mov	 DWORD PTR __$EHRec$[ebp+8], 0
  00056	83 ec 0c	 sub	 esp, 12			; 0000000cH
  00059	8b cc		 mov	 ecx, esp
  0005b	89 65 ec	 mov	 DWORD PTR $T6[ebp], esp
  0005e	8b 55 bc	 mov	 edx, DWORD PTR tv146[ebp]
  00061	52		 push	 edx
  00062	e8 00 00 00 00	 call	 ??0?$_Tree_const_iterator@V?$_Tree_val@U?$_Tree_simple_types@U?$pair@$$CBV?$basic_string@DU?$char_traits@D@std@@V?$allocator@D@2@@std@@P6APAXXZ@std@@@std@@@std@@@std@@QAE@$$QAV01@@Z
  00067	89 45 b8	 mov	 DWORD PTR tv157[ebp], eax
  0006a	8b 45 b8	 mov	 eax, DWORD PTR tv157[ebp]
  0006d	89 45 b4	 mov	 DWORD PTR tv148[ebp], eax
  00070	c6 45 fc 01	 mov	 BYTE PTR __$EHRec$[ebp+8], 1
  00074	8d 4d d0	 lea	 ecx, DWORD PTR $T3[ebp]
  00077	51		 push	 ecx
  00078	8b 4d f0	 mov	 ecx, DWORD PTR _this$[ebp]
  0007b	e8 00 00 00 00	 call	 ?begin@?$_Tree@V?$_Tmap_traits@V?$basic_string@DU?$char_traits@D@std@@V?$allocator@D@2@@std@@P6APAXXZU?$less@V?$basic_string@DU?$char_traits@D@std@@V?$allocator@D@2@@std@@@2@V?$allocator@U?$pair@$$CBV?$basic_string@DU?$char_traits@D@std@@V?$allocator@D@2@@std@@P6APAXXZ@std@@@2@$0A@@std@@@std@@QAE?AV?$_Tree_iterator@V?$_Tree_val@U?$_Tree_simple_types@U?$pair@$$CBV?$basic_string@DU?$char_traits@D@std@@V?$allocator@D@2@@std@@P6APAXXZ@std@@@std@@@std@@@2@XZ ; std::_Tree<std::_Tmap_traits<std::basic_string<char,std::char_traits<char>,std::allocator<char> >,void * (__cdecl*)(void),std::less<std::basic_string<char,std::char_traits<char>,std::allocator<char> > >,std::allocator<std::pair<std::basic_string<char,std::char_traits<char>,std::allocator<char> > const ,void * (__cdecl*)(void)> >,0> >::begin
  00080	89 45 b0	 mov	 DWORD PTR tv158[ebp], eax
  00083	8b 55 b0	 mov	 edx, DWORD PTR tv158[ebp]
  00086	89 55 ac	 mov	 DWORD PTR tv151[ebp], edx
  00089	c6 45 fc 02	 mov	 BYTE PTR __$EHRec$[ebp+8], 2
  0008d	83 ec 0c	 sub	 esp, 12			; 0000000cH
  00090	8b cc		 mov	 ecx, esp
  00092	89 65 dc	 mov	 DWORD PTR $T4[ebp], esp
  00095	8b 45 ac	 mov	 eax, DWORD PTR tv151[ebp]
  00098	50		 push	 eax
  00099	e8 00 00 00 00	 call	 ??0?$_Tree_const_iterator@V?$_Tree_val@U?$_Tree_simple_types@U?$pair@$$CBV?$basic_string@DU?$char_traits@D@std@@V?$allocator@D@2@@std@@P6APAXXZ@std@@@std@@@std@@@std@@QAE@$$QAV01@@Z
  0009e	89 45 a8	 mov	 DWORD PTR tv154[ebp], eax
  000a1	8d 4d c4	 lea	 ecx, DWORD PTR $T2[ebp]
  000a4	51		 push	 ecx
  000a5	c6 45 fc 03	 mov	 BYTE PTR __$EHRec$[ebp+8], 3
  000a9	8b 4d f0	 mov	 ecx, DWORD PTR _this$[ebp]
  000ac	e8 00 00 00 00	 call	 ?erase@?$_Tree@V?$_Tmap_traits@V?$basic_string@DU?$char_traits@D@std@@V?$allocator@D@2@@std@@P6APAXXZU?$less@V?$basic_string@DU?$char_traits@D@std@@V?$allocator@D@2@@std@@@2@V?$allocator@U?$pair@$$CBV?$basic_string@DU?$char_traits@D@std@@V?$allocator@D@2@@std@@P6APAXXZ@std@@@2@$0A@@std@@@std@@QAE?AV?$_Tree_iterator@V?$_Tree_val@U?$_Tree_simple_types@U?$pair@$$CBV?$basic_string@DU?$char_traits@D@std@@V?$allocator@D@2@@std@@P6APAXXZ@std@@@std@@@std@@@2@V?$_Tree_const_iterator@V?$_Tree_val@U?$_Tree_simple_types@U?$pair@$$CBV?$basic_string@DU?$char_traits@D@std@@V?$allocator@D@2@@std@@P6APAXXZ@std@@@std@@@std@@@2@0@Z ; std::_Tree<std::_Tmap_traits<std::basic_string<char,std::char_traits<char>,std::allocator<char> >,void * (__cdecl*)(void),std::less<std::basic_string<char,std::char_traits<char>,std::allocator<char> > >,std::allocator<std::pair<std::basic_string<char,std::char_traits<char>,std::allocator<char> > const ,void * (__cdecl*)(void)> >,0> >::erase
  000b1	89 45 a4	 mov	 DWORD PTR tv149[ebp], eax
  000b4	8d 4d c4	 lea	 ecx, DWORD PTR $T2[ebp]
  000b7	e8 00 00 00 00	 call	 ??1?$_Tree_iterator@V?$_Tree_val@U?$_Tree_simple_types@U?$pair@$$CBV?$basic_string@DU?$char_traits@D@std@@V?$allocator@D@2@@std@@P6APAXXZ@std@@@std@@@std@@@std@@QAE@XZ
  000bc	c6 45 fc 00	 mov	 BYTE PTR __$EHRec$[ebp+8], 0
  000c0	8d 4d d0	 lea	 ecx, DWORD PTR $T3[ebp]
  000c3	e8 00 00 00 00	 call	 ??1?$_Tree_iterator@V?$_Tree_val@U?$_Tree_simple_types@U?$pair@$$CBV?$basic_string@DU?$char_traits@D@std@@V?$allocator@D@2@@std@@P6APAXXZ@std@@@std@@@std@@@std@@QAE@XZ
  000c8	c7 45 fc ff ff
	ff ff		 mov	 DWORD PTR __$EHRec$[ebp+8], -1
  000cf	8d 4d e0	 lea	 ecx, DWORD PTR $T5[ebp]
  000d2	e8 00 00 00 00	 call	 ??1?$_Tree_iterator@V?$_Tree_val@U?$_Tree_simple_types@U?$pair@$$CBV?$basic_string@DU?$char_traits@D@std@@V?$allocator@D@2@@std@@P6APAXXZ@std@@@std@@@std@@@std@@QAE@XZ

; 2197 : 		}

  000d7	8b 4d f4	 mov	 ecx, DWORD PTR __$EHRec$[ebp]
  000da	64 89 0d 00 00
	00 00		 mov	 DWORD PTR fs:0, ecx
  000e1	59		 pop	 ecx
  000e2	5f		 pop	 edi
  000e3	83 c4 5c	 add	 esp, 92			; 0000005cH
  000e6	3b ec		 cmp	 ebp, esp
  000e8	e8 00 00 00 00	 call	 __RTC_CheckEsp
  000ed	8b e5		 mov	 esp, ebp
  000ef	5d		 pop	 ebp
  000f0	c3		 ret	 0
_TEXT	ENDS
;	COMDAT text$x
text$x	SEGMENT
__unwindfunclet$?_Tidy@?$_Tree@V?$_Tmap_traits@V?$basic_string@DU?$char_traits@D@std@@V?$allocator@D@2@@std@@P6APAXXZU?$less@V?$basic_string@DU?$char_traits@D@std@@V?$allocator@D@2@@std@@@2@V?$allocator@U?$pair@$$CBV?$basic_string@DU?$char_traits@D@std@@V?$allocator@D@2@@std@@P6APAXXZ@std@@@2@$0A@@std@@@std@@IAEXXZ$0:
  00000	8d 4d e0	 lea	 ecx, DWORD PTR $T5[ebp]
  00003	e9 00 00 00 00	 jmp	 ??1?$_Tree_iterator@V?$_Tree_val@U?$_Tree_simple_types@U?$pair@$$CBV?$basic_string@DU?$char_traits@D@std@@V?$allocator@D@2@@std@@P6APAXXZ@std@@@std@@@std@@@std@@QAE@XZ
__unwindfunclet$?_Tidy@?$_Tree@V?$_Tmap_traits@V?$basic_string@DU?$char_traits@D@std@@V?$allocator@D@2@@std@@P6APAXXZU?$less@V?$basic_string@DU?$char_traits@D@std@@V?$allocator@D@2@@std@@@2@V?$allocator@U?$pair@$$CBV?$basic_string@DU?$char_traits@D@std@@V?$allocator@D@2@@std@@P6APAXXZ@std@@@2@$0A@@std@@@std@@IAEXXZ$1:
  00008	8b 4d ec	 mov	 ecx, DWORD PTR $T6[ebp]
  0000b	e9 00 00 00 00	 jmp	 ??1?$_Tree_const_iterator@V?$_Tree_val@U?$_Tree_simple_types@U?$pair@$$CBV?$basic_string@DU?$char_traits@D@std@@V?$allocator@D@2@@std@@P6APAXXZ@std@@@std@@@std@@@std@@QAE@XZ
__unwindfunclet$?_Tidy@?$_Tree@V?$_Tmap_traits@V?$basic_string@DU?$char_traits@D@std@@V?$allocator@D@2@@std@@P6APAXXZU?$less@V?$basic_string@DU?$char_traits@D@std@@V?$allocator@D@2@@std@@@2@V?$allocator@U?$pair@$$CBV?$basic_string@DU?$char_traits@D@std@@V?$allocator@D@2@@std@@P6APAXXZ@std@@@2@$0A@@std@@@std@@IAEXXZ$2:
  00010	8d 4d d0	 lea	 ecx, DWORD PTR $T3[ebp]
  00013	e9 00 00 00 00	 jmp	 ??1?$_Tree_iterator@V?$_Tree_val@U?$_Tree_simple_types@U?$pair@$$CBV?$basic_string@DU?$char_traits@D@std@@V?$allocator@D@2@@std@@P6APAXXZ@std@@@std@@@std@@@std@@QAE@XZ
__ehhandler$?_Tidy@?$_Tree@V?$_Tmap_traits@V?$basic_string@DU?$char_traits@D@std@@V?$allocator@D@2@@std@@P6APAXXZU?$less@V?$basic_string@DU?$char_traits@D@std@@V?$allocator@D@2@@std@@@2@V?$allocator@U?$pair@$$CBV?$basic_string@DU?$char_traits@D@std@@V?$allocator@D@2@@std@@P6APAXXZ@std@@@2@$0A@@std@@@std@@IAEXXZ:
  00018	8b 54 24 08	 mov	 edx, DWORD PTR [esp+8]
  0001c	8d 42 0c	 lea	 eax, DWORD PTR [edx+12]
  0001f	8b 4a a8	 mov	 ecx, DWORD PTR [edx-88]
  00022	33 c8		 xor	 ecx, eax
  00024	e8 00 00 00 00	 call	 @__security_check_cookie@4
  00029	b8 00 00 00 00	 mov	 eax, OFFSET __ehfuncinfo$?_Tidy@?$_Tree@V?$_Tmap_traits@V?$basic_string@DU?$char_traits@D@std@@V?$allocator@D@2@@std@@P6APAXXZU?$less@V?$basic_string@DU?$char_traits@D@std@@V?$allocator@D@2@@std@@@2@V?$allocator@U?$pair@$$CBV?$basic_string@DU?$char_traits@D@std@@V?$allocator@D@2@@std@@P6APAXXZ@std@@@2@$0A@@std@@@std@@IAEXXZ
  0002e	e9 00 00 00 00	 jmp	 ___CxxFrameHandler3
text$x	ENDS
?_Tidy@?$_Tree@V?$_Tmap_traits@V?$basic_string@DU?$char_traits@D@std@@V?$allocator@D@2@@std@@P6APAXXZU?$less@V?$basic_string@DU?$char_traits@D@std@@V?$allocator@D@2@@std@@@2@V?$allocator@U?$pair@$$CBV?$basic_string@DU?$char_traits@D@std@@V?$allocator@D@2@@std@@P6APAXXZ@std@@@2@$0A@@std@@@std@@IAEXXZ ENDP ; std::_Tree<std::_Tmap_traits<std::basic_string<char,std::char_traits<char>,std::allocator<char> >,void * (__cdecl*)(void),std::less<std::basic_string<char,std::char_traits<char>,std::allocator<char> > >,std::allocator<std::pair<std::basic_string<char,std::char_traits<char>,std::allocator<char> > const ,void * (__cdecl*)(void)> >,0> >::_Tidy
; Function compile flags: /Odtp /RTCsu
; File c:\program files (x86)\microsoft visual studio 14.0\vc\include\xtree
;	COMDAT ??0?$_Tree@V?$_Tmap_traits@V?$basic_string@DU?$char_traits@D@std@@V?$allocator@D@2@@std@@P6APAXXZU?$less@V?$basic_string@DU?$char_traits@D@std@@V?$allocator@D@2@@std@@@2@V?$allocator@U?$pair@$$CBV?$basic_string@DU?$char_traits@D@std@@V?$allocator@D@2@@std@@P6APAXXZ@std@@@2@$0A@@std@@@std@@QAE@ABU?$less@V?$basic_string@DU?$char_traits@D@std@@V?$allocator@D@2@@std@@@1@ABV?$allocator@U?$pair@$$CBV?$basic_string@DU?$char_traits@D@std@@V?$allocator@D@2@@std@@P6APAXXZ@std@@@1@@Z
_TEXT	SEGMENT
_this$ = -4						; size = 4
__Parg$ = 8						; size = 4
__Al$ = 12						; size = 4
??0?$_Tree@V?$_Tmap_traits@V?$basic_string@DU?$char_traits@D@std@@V?$allocator@D@2@@std@@P6APAXXZU?$less@V?$basic_string@DU?$char_traits@D@std@@V?$allocator@D@2@@std@@@2@V?$allocator@U?$pair@$$CBV?$basic_string@DU?$char_traits@D@std@@V?$allocator@D@2@@std@@P6APAXXZ@std@@@2@$0A@@std@@@std@@QAE@ABU?$less@V?$basic_string@DU?$char_traits@D@std@@V?$allocator@D@2@@std@@@1@ABV?$allocator@U?$pair@$$CBV?$basic_string@DU?$char_traits@D@std@@V?$allocator@D@2@@std@@P6APAXXZ@std@@@1@@Z PROC ; std::_Tree<std::_Tmap_traits<std::basic_string<char,std::char_traits<char>,std::allocator<char> >,void * (__cdecl*)(void),std::less<std::basic_string<char,std::char_traits<char>,std::allocator<char> > >,std::allocator<std::pair<std::basic_string<char,std::char_traits<char>,std::allocator<char> > const ,void * (__cdecl*)(void)> >,0> >::_Tree<std::_Tmap_traits<std::basic_string<char,std::char_traits<char>,std::allocator<char> >,void * (__cdecl*)(void),std::less<std::basic_string<char,std::char_traits<char>,std::allocator<char> > >,std::allocator<std::pair<std::basic_string<char,std::char_traits<char>,std::allocator<char> > const ,void * (__cdecl*)(void)> >,0> >, COMDAT
; _this$ = ecx

; 1013 : 		{	// construct empty tree

  00000	55		 push	 ebp
  00001	8b ec		 mov	 ebp, esp
  00003	51		 push	 ecx
  00004	c7 45 fc cc cc
	cc cc		 mov	 DWORD PTR [ebp-4], -858993460 ; ccccccccH
  0000b	89 4d fc	 mov	 DWORD PTR _this$[ebp], ecx

; 1012 : 		: _Mybase(_Parg, _Al)

  0000e	8b 45 0c	 mov	 eax, DWORD PTR __Al$[ebp]
  00011	50		 push	 eax
  00012	8b 4d 08	 mov	 ecx, DWORD PTR __Parg$[ebp]
  00015	51		 push	 ecx
  00016	8b 4d fc	 mov	 ecx, DWORD PTR _this$[ebp]
  00019	e8 00 00 00 00	 call	 ??0?$_Tree_comp_alloc@V?$_Tmap_traits@V?$basic_string@DU?$char_traits@D@std@@V?$allocator@D@2@@std@@P6APAXXZU?$less@V?$basic_string@DU?$char_traits@D@std@@V?$allocator@D@2@@std@@@2@V?$allocator@U?$pair@$$CBV?$basic_string@DU?$char_traits@D@std@@V?$allocator@D@2@@std@@P6APAXXZ@std@@@2@$0A@@std@@@std@@QAE@ABU?$less@V?$basic_string@DU?$char_traits@D@std@@V?$allocator@D@2@@std@@@1@ABV?$allocator@U?$pair@$$CBV?$basic_string@DU?$char_traits@D@std@@V?$allocator@D@2@@std@@P6APAXXZ@std@@@1@@Z ; std::_Tree_comp_alloc<std::_Tmap_traits<std::basic_string<char,std::char_traits<char>,std::allocator<char> >,void * (__cdecl*)(void),std::less<std::basic_string<char,std::char_traits<char>,std::allocator<char> > >,std::allocator<std::pair<std::basic_string<char,std::char_traits<char>,std::allocator<char> > const ,void * (__cdecl*)(void)> >,0> >::_Tree_comp_alloc<std::_Tmap_traits<std::basic_string<char,std::char_traits<char>,std::allocator<char> >,void * (__cdecl*)(void),std::less<std::basic_string<char,std::char_traits<char>,std::allocator<char> > >,std::allocator<std::pair<std::basic_string<char,std::char_traits<char>,std::allocator<char> > const ,void * (__cdecl*)(void)> >,0> >

; 1014 : 		}

  0001e	8b 45 fc	 mov	 eax, DWORD PTR _this$[ebp]
  00021	83 c4 04	 add	 esp, 4
  00024	3b ec		 cmp	 ebp, esp
  00026	e8 00 00 00 00	 call	 __RTC_CheckEsp
  0002b	8b e5		 mov	 esp, ebp
  0002d	5d		 pop	 ebp
  0002e	c2 08 00	 ret	 8
??0?$_Tree@V?$_Tmap_traits@V?$basic_string@DU?$char_traits@D@std@@V?$allocator@D@2@@std@@P6APAXXZU?$less@V?$basic_string@DU?$char_traits@D@std@@V?$allocator@D@2@@std@@@2@V?$allocator@U?$pair@$$CBV?$basic_string@DU?$char_traits@D@std@@V?$allocator@D@2@@std@@P6APAXXZ@std@@@2@$0A@@std@@@std@@QAE@ABU?$less@V?$basic_string@DU?$char_traits@D@std@@V?$allocator@D@2@@std@@@1@ABV?$allocator@U?$pair@$$CBV?$basic_string@DU?$char_traits@D@std@@V?$allocator@D@2@@std@@P6APAXXZ@std@@@1@@Z ENDP ; std::_Tree<std::_Tmap_traits<std::basic_string<char,std::char_traits<char>,std::allocator<char> >,void * (__cdecl*)(void),std::less<std::basic_string<char,std::char_traits<char>,std::allocator<char> > >,std::allocator<std::pair<std::basic_string<char,std::char_traits<char>,std::allocator<char> > const ,void * (__cdecl*)(void)> >,0> >::_Tree<std::_Tmap_traits<std::basic_string<char,std::char_traits<char>,std::allocator<char> >,void * (__cdecl*)(void),std::less<std::basic_string<char,std::char_traits<char>,std::allocator<char> > >,std::allocator<std::pair<std::basic_string<char,std::char_traits<char>,std::allocator<char> > const ,void * (__cdecl*)(void)> >,0> >
_TEXT	ENDS
; Function compile flags: /Odtp /RTCsu
; File c:\program files (x86)\microsoft visual studio 14.0\vc\include\xmemory0
;	COMDAT ??0?$allocator@U?$pair@$$CBV?$basic_string@DU?$char_traits@D@std@@V?$allocator@D@2@@std@@P6APAXXZ@std@@@std@@QAE@XZ
_TEXT	SEGMENT
_this$ = -4						; size = 4
??0?$allocator@U?$pair@$$CBV?$basic_string@DU?$char_traits@D@std@@V?$allocator@D@2@@std@@P6APAXXZ@std@@@std@@QAE@XZ PROC ; std::allocator<std::pair<std::basic_string<char,std::char_traits<char>,std::allocator<char> > const ,void * (__cdecl*)(void)> >::allocator<std::pair<std::basic_string<char,std::char_traits<char>,std::allocator<char> > const ,void * (__cdecl*)(void)> >, COMDAT
; _this$ = ecx

; 617  : 	allocator() _THROW0()

  00000	55		 push	 ebp
  00001	8b ec		 mov	 ebp, esp
  00003	51		 push	 ecx
  00004	c7 45 fc cc cc
	cc cc		 mov	 DWORD PTR [ebp-4], -858993460 ; ccccccccH
  0000b	89 4d fc	 mov	 DWORD PTR _this$[ebp], ecx

; 618  : 		{	// construct default allocator (do nothing)
; 619  : 		}

  0000e	8b 45 fc	 mov	 eax, DWORD PTR _this$[ebp]
  00011	8b e5		 mov	 esp, ebp
  00013	5d		 pop	 ebp
  00014	c3		 ret	 0
??0?$allocator@U?$pair@$$CBV?$basic_string@DU?$char_traits@D@std@@V?$allocator@D@2@@std@@P6APAXXZ@std@@@std@@QAE@XZ ENDP ; std::allocator<std::pair<std::basic_string<char,std::char_traits<char>,std::allocator<char> > const ,void * (__cdecl*)(void)> >::allocator<std::pair<std::basic_string<char,std::char_traits<char>,std::allocator<char> > const ,void * (__cdecl*)(void)> >
_TEXT	ENDS
; Function compile flags: /Odtp /RTCsu
;	COMDAT ??1?$_Compressed_pair@U?$less@V?$basic_string@DU?$char_traits@D@std@@V?$allocator@D@2@@std@@@std@@V?$_Compressed_pair@U?$_Wrap_alloc@V?$allocator@U?$_Tree_node@U?$pair@$$CBV?$basic_string@DU?$char_traits@D@std@@V?$allocator@D@2@@std@@P6APAXXZ@std@@PAX@std@@@std@@@std@@V?$_Tree_val@U?$_Tree_simple_types@U?$pair@$$CBV?$basic_string@DU?$char_traits@D@std@@V?$allocator@D@2@@std@@P6APAXXZ@std@@@std@@@2@$00@2@$00@std@@QAE@XZ
_TEXT	SEGMENT
_this$ = -4						; size = 4
??1?$_Compressed_pair@U?$less@V?$basic_string@DU?$char_traits@D@std@@V?$allocator@D@2@@std@@@std@@V?$_Compressed_pair@U?$_Wrap_alloc@V?$allocator@U?$_Tree_node@U?$pair@$$CBV?$basic_string@DU?$char_traits@D@std@@V?$allocator@D@2@@std@@P6APAXXZ@std@@PAX@std@@@std@@@std@@V?$_Tree_val@U?$_Tree_simple_types@U?$pair@$$CBV?$basic_string@DU?$char_traits@D@std@@V?$allocator@D@2@@std@@P6APAXXZ@std@@@std@@@2@$00@2@$00@std@@QAE@XZ PROC ; std::_Compressed_pair<std::less<std::basic_string<char,std::char_traits<char>,std::allocator<char> > >,std::_Compressed_pair<std::_Wrap_alloc<std::allocator<std::_Tree_node<std::pair<std::basic_string<char,std::char_traits<char>,std::allocator<char> > const ,void * (__cdecl*)(void)>,void *> > >,std::_Tree_val<std::_Tree_simple_types<std::pair<std::basic_string<char,std::char_traits<char>,std::allocator<char> > const ,void * (__cdecl*)(void)> > >,1>,1>::~_Compressed_pair<std::less<std::basic_string<char,std::char_traits<char>,std::allocator<char> > >,std::_Compressed_pair<std::_Wrap_alloc<std::allocator<std::_Tree_node<std::pair<std::basic_string<char,std::char_traits<char>,std::allocator<char> > const ,void * (__cdecl*)(void)>,void *> > >,std::_Tree_val<std::_Tree_simple_types<std::pair<std::basic_string<char,std::char_traits<char>,std::allocator<char> > const ,void * (__cdecl*)(void)> > >,1>,1>, COMDAT
; _this$ = ecx
  00000	55		 push	 ebp
  00001	8b ec		 mov	 ebp, esp
  00003	51		 push	 ecx
  00004	c7 45 fc cc cc
	cc cc		 mov	 DWORD PTR [ebp-4], -858993460 ; ccccccccH
  0000b	89 4d fc	 mov	 DWORD PTR _this$[ebp], ecx
  0000e	8b 4d fc	 mov	 ecx, DWORD PTR _this$[ebp]
  00011	e8 00 00 00 00	 call	 ??1?$_Compressed_pair@U?$_Wrap_alloc@V?$allocator@U?$_Tree_node@U?$pair@$$CBV?$basic_string@DU?$char_traits@D@std@@V?$allocator@D@2@@std@@P6APAXXZ@std@@PAX@std@@@std@@@std@@V?$_Tree_val@U?$_Tree_simple_types@U?$pair@$$CBV?$basic_string@DU?$char_traits@D@std@@V?$allocator@D@2@@std@@P6APAXXZ@std@@@std@@@2@$00@std@@QAE@XZ
  00016	83 c4 04	 add	 esp, 4
  00019	3b ec		 cmp	 ebp, esp
  0001b	e8 00 00 00 00	 call	 __RTC_CheckEsp
  00020	8b e5		 mov	 esp, ebp
  00022	5d		 pop	 ebp
  00023	c3		 ret	 0
??1?$_Compressed_pair@U?$less@V?$basic_string@DU?$char_traits@D@std@@V?$allocator@D@2@@std@@@std@@V?$_Compressed_pair@U?$_Wrap_alloc@V?$allocator@U?$_Tree_node@U?$pair@$$CBV?$basic_string@DU?$char_traits@D@std@@V?$allocator@D@2@@std@@P6APAXXZ@std@@PAX@std@@@std@@@std@@V?$_Tree_val@U?$_Tree_simple_types@U?$pair@$$CBV?$basic_string@DU?$char_traits@D@std@@V?$allocator@D@2@@std@@P6APAXXZ@std@@@std@@@2@$00@2@$00@std@@QAE@XZ ENDP ; std::_Compressed_pair<std::less<std::basic_string<char,std::char_traits<char>,std::allocator<char> > >,std::_Compressed_pair<std::_Wrap_alloc<std::allocator<std::_Tree_node<std::pair<std::basic_string<char,std::char_traits<char>,std::allocator<char> > const ,void * (__cdecl*)(void)>,void *> > >,std::_Tree_val<std::_Tree_simple_types<std::pair<std::basic_string<char,std::char_traits<char>,std::allocator<char> > const ,void * (__cdecl*)(void)> > >,1>,1>::~_Compressed_pair<std::less<std::basic_string<char,std::char_traits<char>,std::allocator<char> > >,std::_Compressed_pair<std::_Wrap_alloc<std::allocator<std::_Tree_node<std::pair<std::basic_string<char,std::char_traits<char>,std::allocator<char> > const ,void * (__cdecl*)(void)>,void *> > >,std::_Tree_val<std::_Tree_simple_types<std::pair<std::basic_string<char,std::char_traits<char>,std::allocator<char> > const ,void * (__cdecl*)(void)> > >,1>,1>
_TEXT	ENDS
; Function compile flags: /Odtp /RTCsu
;	COMDAT ??1?$_Compressed_pair@U?$_Wrap_alloc@V?$allocator@U?$_Tree_node@U?$pair@$$CBV?$basic_string@DU?$char_traits@D@std@@V?$allocator@D@2@@std@@P6APAXXZ@std@@PAX@std@@@std@@@std@@V?$_Tree_val@U?$_Tree_simple_types@U?$pair@$$CBV?$basic_string@DU?$char_traits@D@std@@V?$allocator@D@2@@std@@P6APAXXZ@std@@@std@@@2@$00@std@@QAE@XZ
_TEXT	SEGMENT
_this$ = -4						; size = 4
??1?$_Compressed_pair@U?$_Wrap_alloc@V?$allocator@U?$_Tree_node@U?$pair@$$CBV?$basic_string@DU?$char_traits@D@std@@V?$allocator@D@2@@std@@P6APAXXZ@std@@PAX@std@@@std@@@std@@V?$_Tree_val@U?$_Tree_simple_types@U?$pair@$$CBV?$basic_string@DU?$char_traits@D@std@@V?$allocator@D@2@@std@@P6APAXXZ@std@@@std@@@2@$00@std@@QAE@XZ PROC ; std::_Compressed_pair<std::_Wrap_alloc<std::allocator<std::_Tree_node<std::pair<std::basic_string<char,std::char_traits<char>,std::allocator<char> > const ,void * (__cdecl*)(void)>,void *> > >,std::_Tree_val<std::_Tree_simple_types<std::pair<std::basic_string<char,std::char_traits<char>,std::allocator<char> > const ,void * (__cdecl*)(void)> > >,1>::~_Compressed_pair<std::_Wrap_alloc<std::allocator<std::_Tree_node<std::pair<std::basic_string<char,std::char_traits<char>,std::allocator<char> > const ,void * (__cdecl*)(void)>,void *> > >,std::_Tree_val<std::_Tree_simple_types<std::pair<std::basic_string<char,std::char_traits<char>,std::allocator<char> > const ,void * (__cdecl*)(void)> > >,1>, COMDAT
; _this$ = ecx
  00000	55		 push	 ebp
  00001	8b ec		 mov	 ebp, esp
  00003	51		 push	 ecx
  00004	c7 45 fc cc cc
	cc cc		 mov	 DWORD PTR [ebp-4], -858993460 ; ccccccccH
  0000b	89 4d fc	 mov	 DWORD PTR _this$[ebp], ecx
  0000e	8b 4d fc	 mov	 ecx, DWORD PTR _this$[ebp]
  00011	e8 00 00 00 00	 call	 ??1?$_Tree_val@U?$_Tree_simple_types@U?$pair@$$CBV?$basic_string@DU?$char_traits@D@std@@V?$allocator@D@2@@std@@P6APAXXZ@std@@@std@@@std@@QAE@XZ
  00016	83 c4 04	 add	 esp, 4
  00019	3b ec		 cmp	 ebp, esp
  0001b	e8 00 00 00 00	 call	 __RTC_CheckEsp
  00020	8b e5		 mov	 esp, ebp
  00022	5d		 pop	 ebp
  00023	c3		 ret	 0
??1?$_Compressed_pair@U?$_Wrap_alloc@V?$allocator@U?$_Tree_node@U?$pair@$$CBV?$basic_string@DU?$char_traits@D@std@@V?$allocator@D@2@@std@@P6APAXXZ@std@@PAX@std@@@std@@@std@@V?$_Tree_val@U?$_Tree_simple_types@U?$pair@$$CBV?$basic_string@DU?$char_traits@D@std@@V?$allocator@D@2@@std@@P6APAXXZ@std@@@std@@@2@$00@std@@QAE@XZ ENDP ; std::_Compressed_pair<std::_Wrap_alloc<std::allocator<std::_Tree_node<std::pair<std::basic_string<char,std::char_traits<char>,std::allocator<char> > const ,void * (__cdecl*)(void)>,void *> > >,std::_Tree_val<std::_Tree_simple_types<std::pair<std::basic_string<char,std::char_traits<char>,std::allocator<char> > const ,void * (__cdecl*)(void)> > >,1>::~_Compressed_pair<std::_Wrap_alloc<std::allocator<std::_Tree_node<std::pair<std::basic_string<char,std::char_traits<char>,std::allocator<char> > const ,void * (__cdecl*)(void)>,void *> > >,std::_Tree_val<std::_Tree_simple_types<std::pair<std::basic_string<char,std::char_traits<char>,std::allocator<char> > const ,void * (__cdecl*)(void)> > >,1>
_TEXT	ENDS
; Function compile flags: /Odtp /RTCsu
;	COMDAT ??1?$_Tree_val@U?$_Tree_simple_types@U?$pair@$$CBV?$basic_string@DU?$char_traits@D@std@@V?$allocator@D@2@@std@@P6APAXXZ@std@@@std@@@std@@QAE@XZ
_TEXT	SEGMENT
_this$ = -4						; size = 4
??1?$_Tree_val@U?$_Tree_simple_types@U?$pair@$$CBV?$basic_string@DU?$char_traits@D@std@@V?$allocator@D@2@@std@@P6APAXXZ@std@@@std@@@std@@QAE@XZ PROC ; std::_Tree_val<std::_Tree_simple_types<std::pair<std::basic_string<char,std::char_traits<char>,std::allocator<char> > const ,void * (__cdecl*)(void)> > >::~_Tree_val<std::_Tree_simple_types<std::pair<std::basic_string<char,std::char_traits<char>,std::allocator<char> > const ,void * (__cdecl*)(void)> > >, COMDAT
; _this$ = ecx
  00000	55		 push	 ebp
  00001	8b ec		 mov	 ebp, esp
  00003	51		 push	 ecx
  00004	c7 45 fc cc cc
	cc cc		 mov	 DWORD PTR [ebp-4], -858993460 ; ccccccccH
  0000b	89 4d fc	 mov	 DWORD PTR _this$[ebp], ecx
  0000e	8b 4d fc	 mov	 ecx, DWORD PTR _this$[ebp]
  00011	e8 00 00 00 00	 call	 ??1_Container_base12@std@@QAE@XZ ; std::_Container_base12::~_Container_base12
  00016	83 c4 04	 add	 esp, 4
  00019	3b ec		 cmp	 ebp, esp
  0001b	e8 00 00 00 00	 call	 __RTC_CheckEsp
  00020	8b e5		 mov	 esp, ebp
  00022	5d		 pop	 ebp
  00023	c3		 ret	 0
??1?$_Tree_val@U?$_Tree_simple_types@U?$pair@$$CBV?$basic_string@DU?$char_traits@D@std@@V?$allocator@D@2@@std@@P6APAXXZ@std@@@std@@@std@@QAE@XZ ENDP ; std::_Tree_val<std::_Tree_simple_types<std::pair<std::basic_string<char,std::char_traits<char>,std::allocator<char> > const ,void * (__cdecl*)(void)> > >::~_Tree_val<std::_Tree_simple_types<std::pair<std::basic_string<char,std::char_traits<char>,std::allocator<char> > const ,void * (__cdecl*)(void)> > >
_TEXT	ENDS
; Function compile flags: /Odtp /RTCsu
; File c:\program files (x86)\microsoft visual studio 14.0\vc\include\xtree
;	COMDAT ?_Freeheadnode@?$_Tree_comp_alloc@V?$_Tmap_traits@V?$basic_string@DU?$char_traits@D@std@@V?$allocator@D@2@@std@@P6APAXXZU?$less@V?$basic_string@DU?$char_traits@D@std@@V?$allocator@D@2@@std@@@2@V?$allocator@U?$pair@$$CBV?$basic_string@DU?$char_traits@D@std@@V?$allocator@D@2@@std@@P6APAXXZ@std@@@2@$0A@@std@@@std@@QAEXPAU?$_Tree_node@U?$pair@$$CBV?$basic_string@DU?$char_traits@D@std@@V?$allocator@D@2@@std@@P6APAXXZ@std@@PAX@2@@Z
_TEXT	SEGMENT
_this$ = -4						; size = 4
__Pnode$ = 8						; size = 4
?_Freeheadnode@?$_Tree_comp_alloc@V?$_Tmap_traits@V?$basic_string@DU?$char_traits@D@std@@V?$allocator@D@2@@std@@P6APAXXZU?$less@V?$basic_string@DU?$char_traits@D@std@@V?$allocator@D@2@@std@@@2@V?$allocator@U?$pair@$$CBV?$basic_string@DU?$char_traits@D@std@@V?$allocator@D@2@@std@@P6APAXXZ@std@@@2@$0A@@std@@@std@@QAEXPAU?$_Tree_node@U?$pair@$$CBV?$basic_string@DU?$char_traits@D@std@@V?$allocator@D@2@@std@@P6APAXXZ@std@@PAX@2@@Z PROC ; std::_Tree_comp_alloc<std::_Tmap_traits<std::basic_string<char,std::char_traits<char>,std::allocator<char> >,void * (__cdecl*)(void),std::less<std::basic_string<char,std::char_traits<char>,std::allocator<char> > >,std::allocator<std::pair<std::basic_string<char,std::char_traits<char>,std::allocator<char> > const ,void * (__cdecl*)(void)> >,0> >::_Freeheadnode, COMDAT
; _this$ = ecx

; 845  : 		{	// free head node using current allocator

  00000	55		 push	 ebp
  00001	8b ec		 mov	 ebp, esp
  00003	51		 push	 ecx
  00004	c7 45 fc cc cc
	cc cc		 mov	 DWORD PTR [ebp-4], -858993460 ; ccccccccH
  0000b	89 4d fc	 mov	 DWORD PTR _this$[ebp], ecx

; 846  : 		_Getal().destroy(

  0000e	8b 45 08	 mov	 eax, DWORD PTR __Pnode$[ebp]
  00011	50		 push	 eax
  00012	e8 00 00 00 00	 call	 ?_Left@?$_Tree_comp_alloc@V?$_Tmap_traits@V?$basic_string@DU?$char_traits@D@std@@V?$allocator@D@2@@std@@P6APAXXZU?$less@V?$basic_string@DU?$char_traits@D@std@@V?$allocator@D@2@@std@@@2@V?$allocator@U?$pair@$$CBV?$basic_string@DU?$char_traits@D@std@@V?$allocator@D@2@@std@@P6APAXXZ@std@@@2@$0A@@std@@@std@@SAAAPAU?$_Tree_node@U?$pair@$$CBV?$basic_string@DU?$char_traits@D@std@@V?$allocator@D@2@@std@@P6APAXXZ@std@@PAX@2@PAU32@@Z ; std::_Tree_comp_alloc<std::_Tmap_traits<std::basic_string<char,std::char_traits<char>,std::allocator<char> >,void * (__cdecl*)(void),std::less<std::basic_string<char,std::char_traits<char>,std::allocator<char> > >,std::allocator<std::pair<std::basic_string<char,std::char_traits<char>,std::allocator<char> > const ,void * (__cdecl*)(void)> >,0> >::_Left
  00017	83 c4 04	 add	 esp, 4
  0001a	50		 push	 eax
  0001b	e8 00 00 00 00	 call	 ??$addressof@PAU?$_Tree_node@U?$pair@$$CBV?$basic_string@DU?$char_traits@D@std@@V?$allocator@D@2@@std@@P6APAXXZ@std@@PAX@std@@@std@@YAPAPAU?$_Tree_node@U?$pair@$$CBV?$basic_string@DU?$char_traits@D@std@@V?$allocator@D@2@@std@@P6APAXXZ@std@@PAX@0@AAPAU10@@Z ; std::addressof<std::_Tree_node<std::pair<std::basic_string<char,std::char_traits<char>,std::allocator<char> > const ,void * (__cdecl*)(void)>,void *> *>
  00020	83 c4 04	 add	 esp, 4
  00023	50		 push	 eax
  00024	8b 4d fc	 mov	 ecx, DWORD PTR _this$[ebp]
  00027	e8 00 00 00 00	 call	 ?_Getal@?$_Tree_comp_alloc@V?$_Tmap_traits@V?$basic_string@DU?$char_traits@D@std@@V?$allocator@D@2@@std@@P6APAXXZU?$less@V?$basic_string@DU?$char_traits@D@std@@V?$allocator@D@2@@std@@@2@V?$allocator@U?$pair@$$CBV?$basic_string@DU?$char_traits@D@std@@V?$allocator@D@2@@std@@P6APAXXZ@std@@@2@$0A@@std@@@std@@QAEAAU?$_Wrap_alloc@V?$allocator@U?$_Tree_node@U?$pair@$$CBV?$basic_string@DU?$char_traits@D@std@@V?$allocator@D@2@@std@@P6APAXXZ@std@@PAX@std@@@std@@@2@XZ ; std::_Tree_comp_alloc<std::_Tmap_traits<std::basic_string<char,std::char_traits<char>,std::allocator<char> >,void * (__cdecl*)(void),std::less<std::basic_string<char,std::char_traits<char>,std::allocator<char> > >,std::allocator<std::pair<std::basic_string<char,std::char_traits<char>,std::allocator<char> > const ,void * (__cdecl*)(void)> >,0> >::_Getal
  0002c	8b c8		 mov	 ecx, eax
  0002e	e8 00 00 00 00	 call	 ??$destroy@PAU?$_Tree_node@U?$pair@$$CBV?$basic_string@DU?$char_traits@D@std@@V?$allocator@D@2@@std@@P6APAXXZ@std@@PAX@std@@@?$_Wrap_alloc@V?$allocator@U?$_Tree_node@U?$pair@$$CBV?$basic_string@DU?$char_traits@D@std@@V?$allocator@D@2@@std@@P6APAXXZ@std@@PAX@std@@@std@@@std@@QAEXPAPAU?$_Tree_node@U?$pair@$$CBV?$basic_string@DU?$char_traits@D@std@@V?$allocator@D@2@@std@@P6APAXXZ@std@@PAX@1@@Z ; std::_Wrap_alloc<std::allocator<std::_Tree_node<std::pair<std::basic_string<char,std::char_traits<char>,std::allocator<char> > const ,void * (__cdecl*)(void)>,void *> > >::destroy<std::_Tree_node<std::pair<std::basic_string<char,std::char_traits<char>,std::allocator<char> > const ,void * (__cdecl*)(void)>,void *> *>

; 847  : 			_STD addressof(_Left(_Pnode)));
; 848  : 		_Getal().destroy(

  00033	8b 4d 08	 mov	 ecx, DWORD PTR __Pnode$[ebp]
  00036	51		 push	 ecx
  00037	e8 00 00 00 00	 call	 ?_Parent@?$_Tree_comp_alloc@V?$_Tmap_traits@V?$basic_string@DU?$char_traits@D@std@@V?$allocator@D@2@@std@@P6APAXXZU?$less@V?$basic_string@DU?$char_traits@D@std@@V?$allocator@D@2@@std@@@2@V?$allocator@U?$pair@$$CBV?$basic_string@DU?$char_traits@D@std@@V?$allocator@D@2@@std@@P6APAXXZ@std@@@2@$0A@@std@@@std@@SAAAPAU?$_Tree_node@U?$pair@$$CBV?$basic_string@DU?$char_traits@D@std@@V?$allocator@D@2@@std@@P6APAXXZ@std@@PAX@2@PAU32@@Z ; std::_Tree_comp_alloc<std::_Tmap_traits<std::basic_string<char,std::char_traits<char>,std::allocator<char> >,void * (__cdecl*)(void),std::less<std::basic_string<char,std::char_traits<char>,std::allocator<char> > >,std::allocator<std::pair<std::basic_string<char,std::char_traits<char>,std::allocator<char> > const ,void * (__cdecl*)(void)> >,0> >::_Parent
  0003c	83 c4 04	 add	 esp, 4
  0003f	50		 push	 eax
  00040	e8 00 00 00 00	 call	 ??$addressof@PAU?$_Tree_node@U?$pair@$$CBV?$basic_string@DU?$char_traits@D@std@@V?$allocator@D@2@@std@@P6APAXXZ@std@@PAX@std@@@std@@YAPAPAU?$_Tree_node@U?$pair@$$CBV?$basic_string@DU?$char_traits@D@std@@V?$allocator@D@2@@std@@P6APAXXZ@std@@PAX@0@AAPAU10@@Z ; std::addressof<std::_Tree_node<std::pair<std::basic_string<char,std::char_traits<char>,std::allocator<char> > const ,void * (__cdecl*)(void)>,void *> *>
  00045	83 c4 04	 add	 esp, 4
  00048	50		 push	 eax
  00049	8b 4d fc	 mov	 ecx, DWORD PTR _this$[ebp]
  0004c	e8 00 00 00 00	 call	 ?_Getal@?$_Tree_comp_alloc@V?$_Tmap_traits@V?$basic_string@DU?$char_traits@D@std@@V?$allocator@D@2@@std@@P6APAXXZU?$less@V?$basic_string@DU?$char_traits@D@std@@V?$allocator@D@2@@std@@@2@V?$allocator@U?$pair@$$CBV?$basic_string@DU?$char_traits@D@std@@V?$allocator@D@2@@std@@P6APAXXZ@std@@@2@$0A@@std@@@std@@QAEAAU?$_Wrap_alloc@V?$allocator@U?$_Tree_node@U?$pair@$$CBV?$basic_string@DU?$char_traits@D@std@@V?$allocator@D@2@@std@@P6APAXXZ@std@@PAX@std@@@std@@@2@XZ ; std::_Tree_comp_alloc<std::_Tmap_traits<std::basic_string<char,std::char_traits<char>,std::allocator<char> >,void * (__cdecl*)(void),std::less<std::basic_string<char,std::char_traits<char>,std::allocator<char> > >,std::allocator<std::pair<std::basic_string<char,std::char_traits<char>,std::allocator<char> > const ,void * (__cdecl*)(void)> >,0> >::_Getal
  00051	8b c8		 mov	 ecx, eax
  00053	e8 00 00 00 00	 call	 ??$destroy@PAU?$_Tree_node@U?$pair@$$CBV?$basic_string@DU?$char_traits@D@std@@V?$allocator@D@2@@std@@P6APAXXZ@std@@PAX@std@@@?$_Wrap_alloc@V?$allocator@U?$_Tree_node@U?$pair@$$CBV?$basic_string@DU?$char_traits@D@std@@V?$allocator@D@2@@std@@P6APAXXZ@std@@PAX@std@@@std@@@std@@QAEXPAPAU?$_Tree_node@U?$pair@$$CBV?$basic_string@DU?$char_traits@D@std@@V?$allocator@D@2@@std@@P6APAXXZ@std@@PAX@1@@Z ; std::_Wrap_alloc<std::allocator<std::_Tree_node<std::pair<std::basic_string<char,std::char_traits<char>,std::allocator<char> > const ,void * (__cdecl*)(void)>,void *> > >::destroy<std::_Tree_node<std::pair<std::basic_string<char,std::char_traits<char>,std::allocator<char> > const ,void * (__cdecl*)(void)>,void *> *>

; 849  : 			_STD addressof(_Parent(_Pnode)));
; 850  : 		_Getal().destroy(

  00058	8b 55 08	 mov	 edx, DWORD PTR __Pnode$[ebp]
  0005b	52		 push	 edx
  0005c	e8 00 00 00 00	 call	 ?_Right@?$_Tree_comp_alloc@V?$_Tmap_traits@V?$basic_string@DU?$char_traits@D@std@@V?$allocator@D@2@@std@@P6APAXXZU?$less@V?$basic_string@DU?$char_traits@D@std@@V?$allocator@D@2@@std@@@2@V?$allocator@U?$pair@$$CBV?$basic_string@DU?$char_traits@D@std@@V?$allocator@D@2@@std@@P6APAXXZ@std@@@2@$0A@@std@@@std@@SAAAPAU?$_Tree_node@U?$pair@$$CBV?$basic_string@DU?$char_traits@D@std@@V?$allocator@D@2@@std@@P6APAXXZ@std@@PAX@2@PAU32@@Z ; std::_Tree_comp_alloc<std::_Tmap_traits<std::basic_string<char,std::char_traits<char>,std::allocator<char> >,void * (__cdecl*)(void),std::less<std::basic_string<char,std::char_traits<char>,std::allocator<char> > >,std::allocator<std::pair<std::basic_string<char,std::char_traits<char>,std::allocator<char> > const ,void * (__cdecl*)(void)> >,0> >::_Right
  00061	83 c4 04	 add	 esp, 4
  00064	50		 push	 eax
  00065	e8 00 00 00 00	 call	 ??$addressof@PAU?$_Tree_node@U?$pair@$$CBV?$basic_string@DU?$char_traits@D@std@@V?$allocator@D@2@@std@@P6APAXXZ@std@@PAX@std@@@std@@YAPAPAU?$_Tree_node@U?$pair@$$CBV?$basic_string@DU?$char_traits@D@std@@V?$allocator@D@2@@std@@P6APAXXZ@std@@PAX@0@AAPAU10@@Z ; std::addressof<std::_Tree_node<std::pair<std::basic_string<char,std::char_traits<char>,std::allocator<char> > const ,void * (__cdecl*)(void)>,void *> *>
  0006a	83 c4 04	 add	 esp, 4
  0006d	50		 push	 eax
  0006e	8b 4d fc	 mov	 ecx, DWORD PTR _this$[ebp]
  00071	e8 00 00 00 00	 call	 ?_Getal@?$_Tree_comp_alloc@V?$_Tmap_traits@V?$basic_string@DU?$char_traits@D@std@@V?$allocator@D@2@@std@@P6APAXXZU?$less@V?$basic_string@DU?$char_traits@D@std@@V?$allocator@D@2@@std@@@2@V?$allocator@U?$pair@$$CBV?$basic_string@DU?$char_traits@D@std@@V?$allocator@D@2@@std@@P6APAXXZ@std@@@2@$0A@@std@@@std@@QAEAAU?$_Wrap_alloc@V?$allocator@U?$_Tree_node@U?$pair@$$CBV?$basic_string@DU?$char_traits@D@std@@V?$allocator@D@2@@std@@P6APAXXZ@std@@PAX@std@@@std@@@2@XZ ; std::_Tree_comp_alloc<std::_Tmap_traits<std::basic_string<char,std::char_traits<char>,std::allocator<char> >,void * (__cdecl*)(void),std::less<std::basic_string<char,std::char_traits<char>,std::allocator<char> > >,std::allocator<std::pair<std::basic_string<char,std::char_traits<char>,std::allocator<char> > const ,void * (__cdecl*)(void)> >,0> >::_Getal
  00076	8b c8		 mov	 ecx, eax
  00078	e8 00 00 00 00	 call	 ??$destroy@PAU?$_Tree_node@U?$pair@$$CBV?$basic_string@DU?$char_traits@D@std@@V?$allocator@D@2@@std@@P6APAXXZ@std@@PAX@std@@@?$_Wrap_alloc@V?$allocator@U?$_Tree_node@U?$pair@$$CBV?$basic_string@DU?$char_traits@D@std@@V?$allocator@D@2@@std@@P6APAXXZ@std@@PAX@std@@@std@@@std@@QAEXPAPAU?$_Tree_node@U?$pair@$$CBV?$basic_string@DU?$char_traits@D@std@@V?$allocator@D@2@@std@@P6APAXXZ@std@@PAX@1@@Z ; std::_Wrap_alloc<std::allocator<std::_Tree_node<std::pair<std::basic_string<char,std::char_traits<char>,std::allocator<char> > const ,void * (__cdecl*)(void)>,void *> > >::destroy<std::_Tree_node<std::pair<std::basic_string<char,std::char_traits<char>,std::allocator<char> > const ,void * (__cdecl*)(void)>,void *> *>

; 851  : 			_STD addressof(_Right(_Pnode)));
; 852  : 		_Getal().deallocate(_Pnode, 1);

  0007d	6a 01		 push	 1
  0007f	8b 45 08	 mov	 eax, DWORD PTR __Pnode$[ebp]
  00082	50		 push	 eax
  00083	8b 4d fc	 mov	 ecx, DWORD PTR _this$[ebp]
  00086	e8 00 00 00 00	 call	 ?_Getal@?$_Tree_comp_alloc@V?$_Tmap_traits@V?$basic_string@DU?$char_traits@D@std@@V?$allocator@D@2@@std@@P6APAXXZU?$less@V?$basic_string@DU?$char_traits@D@std@@V?$allocator@D@2@@std@@@2@V?$allocator@U?$pair@$$CBV?$basic_string@DU?$char_traits@D@std@@V?$allocator@D@2@@std@@P6APAXXZ@std@@@2@$0A@@std@@@std@@QAEAAU?$_Wrap_alloc@V?$allocator@U?$_Tree_node@U?$pair@$$CBV?$basic_string@DU?$char_traits@D@std@@V?$allocator@D@2@@std@@P6APAXXZ@std@@PAX@std@@@std@@@2@XZ ; std::_Tree_comp_alloc<std::_Tmap_traits<std::basic_string<char,std::char_traits<char>,std::allocator<char> >,void * (__cdecl*)(void),std::less<std::basic_string<char,std::char_traits<char>,std::allocator<char> > >,std::allocator<std::pair<std::basic_string<char,std::char_traits<char>,std::allocator<char> > const ,void * (__cdecl*)(void)> >,0> >::_Getal
  0008b	8b c8		 mov	 ecx, eax
  0008d	e8 00 00 00 00	 call	 ?deallocate@?$_Wrap_alloc@V?$allocator@U?$_Tree_node@U?$pair@$$CBV?$basic_string@DU?$char_traits@D@std@@V?$allocator@D@2@@std@@P6APAXXZ@std@@PAX@std@@@std@@@std@@QAEXPAU?$_Tree_node@U?$pair@$$CBV?$basic_string@DU?$char_traits@D@std@@V?$allocator@D@2@@std@@P6APAXXZ@std@@PAX@2@I@Z ; std::_Wrap_alloc<std::allocator<std::_Tree_node<std::pair<std::basic_string<char,std::char_traits<char>,std::allocator<char> > const ,void * (__cdecl*)(void)>,void *> > >::deallocate

; 853  : 		}

  00092	83 c4 04	 add	 esp, 4
  00095	3b ec		 cmp	 ebp, esp
  00097	e8 00 00 00 00	 call	 __RTC_CheckEsp
  0009c	8b e5		 mov	 esp, ebp
  0009e	5d		 pop	 ebp
  0009f	c2 04 00	 ret	 4
?_Freeheadnode@?$_Tree_comp_alloc@V?$_Tmap_traits@V?$basic_string@DU?$char_traits@D@std@@V?$allocator@D@2@@std@@P6APAXXZU?$less@V?$basic_string@DU?$char_traits@D@std@@V?$allocator@D@2@@std@@@2@V?$allocator@U?$pair@$$CBV?$basic_string@DU?$char_traits@D@std@@V?$allocator@D@2@@std@@P6APAXXZ@std@@@2@$0A@@std@@@std@@QAEXPAU?$_Tree_node@U?$pair@$$CBV?$basic_string@DU?$char_traits@D@std@@V?$allocator@D@2@@std@@P6APAXXZ@std@@PAX@2@@Z ENDP ; std::_Tree_comp_alloc<std::_Tmap_traits<std::basic_string<char,std::char_traits<char>,std::allocator<char> >,void * (__cdecl*)(void),std::less<std::basic_string<char,std::char_traits<char>,std::allocator<char> > >,std::allocator<std::pair<std::basic_string<char,std::char_traits<char>,std::allocator<char> > const ,void * (__cdecl*)(void)> >,0> >::_Freeheadnode
_TEXT	ENDS
; Function compile flags: /Odtp /RTCsu
; File c:\program files (x86)\microsoft visual studio 14.0\vc\include\xtree
;	COMDAT ?_Free_proxy@?$_Tree_comp_alloc@V?$_Tmap_traits@V?$basic_string@DU?$char_traits@D@std@@V?$allocator@D@2@@std@@P6APAXXZU?$less@V?$basic_string@DU?$char_traits@D@std@@V?$allocator@D@2@@std@@@2@V?$allocator@U?$pair@$$CBV?$basic_string@DU?$char_traits@D@std@@V?$allocator@D@2@@std@@P6APAXXZ@std@@@2@$0A@@std@@@std@@QAEXXZ
_TEXT	SEGMENT
__Alproxy$ = -9						; size = 1
_this$ = -4						; size = 4
?_Free_proxy@?$_Tree_comp_alloc@V?$_Tmap_traits@V?$basic_string@DU?$char_traits@D@std@@V?$allocator@D@2@@std@@P6APAXXZU?$less@V?$basic_string@DU?$char_traits@D@std@@V?$allocator@D@2@@std@@@2@V?$allocator@U?$pair@$$CBV?$basic_string@DU?$char_traits@D@std@@V?$allocator@D@2@@std@@P6APAXXZ@std@@@2@$0A@@std@@@std@@QAEXXZ PROC ; std::_Tree_comp_alloc<std::_Tmap_traits<std::basic_string<char,std::char_traits<char>,std::allocator<char> >,void * (__cdecl*)(void),std::less<std::basic_string<char,std::char_traits<char>,std::allocator<char> > >,std::allocator<std::pair<std::basic_string<char,std::char_traits<char>,std::allocator<char> > const ,void * (__cdecl*)(void)> >,0> >::_Free_proxy, COMDAT
; _this$ = ecx

; 788  : 		{	// destroy proxy

  00000	55		 push	 ebp
  00001	8b ec		 mov	 ebp, esp
  00003	83 ec 10	 sub	 esp, 16			; 00000010H
  00006	b8 cc cc cc cc	 mov	 eax, -858993460		; ccccccccH
  0000b	89 45 f0	 mov	 DWORD PTR [ebp-16], eax
  0000e	89 45 f4	 mov	 DWORD PTR [ebp-12], eax
  00011	89 45 f8	 mov	 DWORD PTR [ebp-8], eax
  00014	89 45 fc	 mov	 DWORD PTR [ebp-4], eax
  00017	89 4d fc	 mov	 DWORD PTR _this$[ebp], ecx

; 789  : 		typename _Alty::template rebind<_Container_proxy>::other
; 790  : 			_Alproxy(_Getal());

  0001a	8b 4d fc	 mov	 ecx, DWORD PTR _this$[ebp]
  0001d	e8 00 00 00 00	 call	 ?_Getal@?$_Tree_comp_alloc@V?$_Tmap_traits@V?$basic_string@DU?$char_traits@D@std@@V?$allocator@D@2@@std@@P6APAXXZU?$less@V?$basic_string@DU?$char_traits@D@std@@V?$allocator@D@2@@std@@@2@V?$allocator@U?$pair@$$CBV?$basic_string@DU?$char_traits@D@std@@V?$allocator@D@2@@std@@P6APAXXZ@std@@@2@$0A@@std@@@std@@QAEAAU?$_Wrap_alloc@V?$allocator@U?$_Tree_node@U?$pair@$$CBV?$basic_string@DU?$char_traits@D@std@@V?$allocator@D@2@@std@@P6APAXXZ@std@@PAX@std@@@std@@@2@XZ ; std::_Tree_comp_alloc<std::_Tmap_traits<std::basic_string<char,std::char_traits<char>,std::allocator<char> >,void * (__cdecl*)(void),std::less<std::basic_string<char,std::char_traits<char>,std::allocator<char> > >,std::allocator<std::pair<std::basic_string<char,std::char_traits<char>,std::allocator<char> > const ,void * (__cdecl*)(void)> >,0> >::_Getal
  00022	50		 push	 eax
  00023	8d 4d f7	 lea	 ecx, DWORD PTR __Alproxy$[ebp]
  00026	e8 00 00 00 00	 call	 ??$?0U?$_Wrap_alloc@V?$allocator@U?$_Tree_node@U?$pair@$$CBV?$basic_string@DU?$char_traits@D@std@@V?$allocator@D@2@@std@@P6APAXXZ@std@@PAX@std@@@std@@@std@@@?$_Wrap_alloc@V?$allocator@U_Container_proxy@std@@@std@@@std@@QAE@AAU?$_Wrap_alloc@V?$allocator@U?$_Tree_node@U?$pair@$$CBV?$basic_string@DU?$char_traits@D@std@@V?$allocator@D@2@@std@@P6APAXXZ@std@@PAX@std@@@std@@@1@@Z ; std::_Wrap_alloc<std::allocator<std::_Container_proxy> >::_Wrap_alloc<std::allocator<std::_Container_proxy> ><std::_Wrap_alloc<std::allocator<std::_Tree_node<std::pair<std::basic_string<char,std::char_traits<char>,std::allocator<char> > const ,void * (__cdecl*)(void)>,void *> > > >

; 791  : 		_Orphan_all();

  0002b	8b 4d fc	 mov	 ecx, DWORD PTR _this$[ebp]
  0002e	e8 00 00 00 00	 call	 ?_Orphan_all@?$_Tree_comp_alloc@V?$_Tmap_traits@V?$basic_string@DU?$char_traits@D@std@@V?$allocator@D@2@@std@@P6APAXXZU?$less@V?$basic_string@DU?$char_traits@D@std@@V?$allocator@D@2@@std@@@2@V?$allocator@U?$pair@$$CBV?$basic_string@DU?$char_traits@D@std@@V?$allocator@D@2@@std@@P6APAXXZ@std@@@2@$0A@@std@@@std@@QAEXXZ ; std::_Tree_comp_alloc<std::_Tmap_traits<std::basic_string<char,std::char_traits<char>,std::allocator<char> >,void * (__cdecl*)(void),std::less<std::basic_string<char,std::char_traits<char>,std::allocator<char> > >,std::allocator<std::pair<std::basic_string<char,std::char_traits<char>,std::allocator<char> > const ,void * (__cdecl*)(void)> >,0> >::_Orphan_all

; 792  : 		_Alproxy.destroy(_Myproxy());

  00033	8b 4d fc	 mov	 ecx, DWORD PTR _this$[ebp]
  00036	e8 00 00 00 00	 call	 ?_Myproxy@?$_Tree_comp_alloc@V?$_Tmap_traits@V?$basic_string@DU?$char_traits@D@std@@V?$allocator@D@2@@std@@P6APAXXZU?$less@V?$basic_string@DU?$char_traits@D@std@@V?$allocator@D@2@@std@@@2@V?$allocator@U?$pair@$$CBV?$basic_string@DU?$char_traits@D@std@@V?$allocator@D@2@@std@@P6APAXXZ@std@@@2@$0A@@std@@@std@@QAEAAPAU_Container_proxy@2@XZ ; std::_Tree_comp_alloc<std::_Tmap_traits<std::basic_string<char,std::char_traits<char>,std::allocator<char> >,void * (__cdecl*)(void),std::less<std::basic_string<char,std::char_traits<char>,std::allocator<char> > >,std::allocator<std::pair<std::basic_string<char,std::char_traits<char>,std::allocator<char> > const ,void * (__cdecl*)(void)> >,0> >::_Myproxy
  0003b	8b 00		 mov	 eax, DWORD PTR [eax]
  0003d	50		 push	 eax
  0003e	8d 4d f7	 lea	 ecx, DWORD PTR __Alproxy$[ebp]
  00041	e8 00 00 00 00	 call	 ??$destroy@U_Container_proxy@std@@@?$_Wrap_alloc@V?$allocator@U_Container_proxy@std@@@std@@@std@@QAEXPAU_Container_proxy@1@@Z ; std::_Wrap_alloc<std::allocator<std::_Container_proxy> >::destroy<std::_Container_proxy>

; 793  : 		_Alproxy.deallocate(_Myproxy(), 1);

  00046	6a 01		 push	 1
  00048	8b 4d fc	 mov	 ecx, DWORD PTR _this$[ebp]
  0004b	e8 00 00 00 00	 call	 ?_Myproxy@?$_Tree_comp_alloc@V?$_Tmap_traits@V?$basic_string@DU?$char_traits@D@std@@V?$allocator@D@2@@std@@P6APAXXZU?$less@V?$basic_string@DU?$char_traits@D@std@@V?$allocator@D@2@@std@@@2@V?$allocator@U?$pair@$$CBV?$basic_string@DU?$char_traits@D@std@@V?$allocator@D@2@@std@@P6APAXXZ@std@@@2@$0A@@std@@@std@@QAEAAPAU_Container_proxy@2@XZ ; std::_Tree_comp_alloc<std::_Tmap_traits<std::basic_string<char,std::char_traits<char>,std::allocator<char> >,void * (__cdecl*)(void),std::less<std::basic_string<char,std::char_traits<char>,std::allocator<char> > >,std::allocator<std::pair<std::basic_string<char,std::char_traits<char>,std::allocator<char> > const ,void * (__cdecl*)(void)> >,0> >::_Myproxy
  00050	8b 08		 mov	 ecx, DWORD PTR [eax]
  00052	51		 push	 ecx
  00053	8d 4d f7	 lea	 ecx, DWORD PTR __Alproxy$[ebp]
  00056	e8 00 00 00 00	 call	 ?deallocate@?$_Wrap_alloc@V?$allocator@U_Container_proxy@std@@@std@@@std@@QAEXPAU_Container_proxy@2@I@Z ; std::_Wrap_alloc<std::allocator<std::_Container_proxy> >::deallocate

; 794  : 		_Myproxy() = 0;

  0005b	8b 4d fc	 mov	 ecx, DWORD PTR _this$[ebp]
  0005e	e8 00 00 00 00	 call	 ?_Myproxy@?$_Tree_comp_alloc@V?$_Tmap_traits@V?$basic_string@DU?$char_traits@D@std@@V?$allocator@D@2@@std@@P6APAXXZU?$less@V?$basic_string@DU?$char_traits@D@std@@V?$allocator@D@2@@std@@@2@V?$allocator@U?$pair@$$CBV?$basic_string@DU?$char_traits@D@std@@V?$allocator@D@2@@std@@P6APAXXZ@std@@@2@$0A@@std@@@std@@QAEAAPAU_Container_proxy@2@XZ ; std::_Tree_comp_alloc<std::_Tmap_traits<std::basic_string<char,std::char_traits<char>,std::allocator<char> >,void * (__cdecl*)(void),std::less<std::basic_string<char,std::char_traits<char>,std::allocator<char> > >,std::allocator<std::pair<std::basic_string<char,std::char_traits<char>,std::allocator<char> > const ,void * (__cdecl*)(void)> >,0> >::_Myproxy
  00063	c7 00 00 00 00
	00		 mov	 DWORD PTR [eax], 0

; 795  : 		}

  00069	52		 push	 edx
  0006a	8b cd		 mov	 ecx, ebp
  0006c	50		 push	 eax
  0006d	8d 15 00 00 00
	00		 lea	 edx, DWORD PTR $LN5@Free_proxy
  00073	e8 00 00 00 00	 call	 @_RTC_CheckStackVars@8
  00078	58		 pop	 eax
  00079	5a		 pop	 edx
  0007a	83 c4 10	 add	 esp, 16			; 00000010H
  0007d	3b ec		 cmp	 ebp, esp
  0007f	e8 00 00 00 00	 call	 __RTC_CheckEsp
  00084	8b e5		 mov	 esp, ebp
  00086	5d		 pop	 ebp
  00087	c3		 ret	 0
$LN5@Free_proxy:
  00088	01 00 00 00	 DD	 1
  0008c	00 00 00 00	 DD	 $LN4@Free_proxy
$LN4@Free_proxy:
  00090	f7 ff ff ff	 DD	 -9			; fffffff7H
  00094	01 00 00 00	 DD	 1
  00098	00 00 00 00	 DD	 $LN3@Free_proxy
$LN3@Free_proxy:
  0009c	5f		 DB	 95			; 0000005fH
  0009d	41		 DB	 65			; 00000041H
  0009e	6c		 DB	 108			; 0000006cH
  0009f	70		 DB	 112			; 00000070H
  000a0	72		 DB	 114			; 00000072H
  000a1	6f		 DB	 111			; 0000006fH
  000a2	78		 DB	 120			; 00000078H
  000a3	79		 DB	 121			; 00000079H
  000a4	00		 DB	 0
?_Free_proxy@?$_Tree_comp_alloc@V?$_Tmap_traits@V?$basic_string@DU?$char_traits@D@std@@V?$allocator@D@2@@std@@P6APAXXZU?$less@V?$basic_string@DU?$char_traits@D@std@@V?$allocator@D@2@@std@@@2@V?$allocator@U?$pair@$$CBV?$basic_string@DU?$char_traits@D@std@@V?$allocator@D@2@@std@@P6APAXXZ@std@@@2@$0A@@std@@@std@@QAEXXZ ENDP ; std::_Tree_comp_alloc<std::_Tmap_traits<std::basic_string<char,std::char_traits<char>,std::allocator<char> >,void * (__cdecl*)(void),std::less<std::basic_string<char,std::char_traits<char>,std::allocator<char> > >,std::allocator<std::pair<std::basic_string<char,std::char_traits<char>,std::allocator<char> > const ,void * (__cdecl*)(void)> >,0> >::_Free_proxy
_TEXT	ENDS
; Function compile flags: /Odtp /RTCsu
; File c:\program files (x86)\microsoft visual studio 14.0\vc\include\xtree
;	COMDAT ??0?$_Tree_comp_alloc@V?$_Tmap_traits@V?$basic_string@DU?$char_traits@D@std@@V?$allocator@D@2@@std@@P6APAXXZU?$less@V?$basic_string@DU?$char_traits@D@std@@V?$allocator@D@2@@std@@@2@V?$allocator@U?$pair@$$CBV?$basic_string@DU?$char_traits@D@std@@V?$allocator@D@2@@std@@P6APAXXZ@std@@@2@$0A@@std@@@std@@QAE@ABU?$less@V?$basic_string@DU?$char_traits@D@std@@V?$allocator@D@2@@std@@@1@ABV?$allocator@U?$pair@$$CBV?$basic_string@DU?$char_traits@D@std@@V?$allocator@D@2@@std@@P6APAXXZ@std@@@1@@Z
_TEXT	SEGMENT
$T2 = -18						; size = 1
$T3 = -17						; size = 1
_this$ = -16						; size = 4
__$EHRec$ = -12						; size = 12
__Parg$ = 8						; size = 4
__Al$ = 12						; size = 4
??0?$_Tree_comp_alloc@V?$_Tmap_traits@V?$basic_string@DU?$char_traits@D@std@@V?$allocator@D@2@@std@@P6APAXXZU?$less@V?$basic_string@DU?$char_traits@D@std@@V?$allocator@D@2@@std@@@2@V?$allocator@U?$pair@$$CBV?$basic_string@DU?$char_traits@D@std@@V?$allocator@D@2@@std@@P6APAXXZ@std@@@2@$0A@@std@@@std@@QAE@ABU?$less@V?$basic_string@DU?$char_traits@D@std@@V?$allocator@D@2@@std@@@1@ABV?$allocator@U?$pair@$$CBV?$basic_string@DU?$char_traits@D@std@@V?$allocator@D@2@@std@@P6APAXXZ@std@@@1@@Z PROC ; std::_Tree_comp_alloc<std::_Tmap_traits<std::basic_string<char,std::char_traits<char>,std::allocator<char> >,void * (__cdecl*)(void),std::less<std::basic_string<char,std::char_traits<char>,std::allocator<char> > >,std::allocator<std::pair<std::basic_string<char,std::char_traits<char>,std::allocator<char> > const ,void * (__cdecl*)(void)> >,0> >::_Tree_comp_alloc<std::_Tmap_traits<std::basic_string<char,std::char_traits<char>,std::allocator<char> >,void * (__cdecl*)(void),std::less<std::basic_string<char,std::char_traits<char>,std::allocator<char> > >,std::allocator<std::pair<std::basic_string<char,std::char_traits<char>,std::allocator<char> > const ,void * (__cdecl*)(void)> >,0> >, COMDAT
; _this$ = ecx

; 703  : 		{	// construct from comparator, allocator

  00000	55		 push	 ebp
  00001	8b ec		 mov	 ebp, esp
  00003	6a ff		 push	 -1
  00005	68 00 00 00 00	 push	 __ehhandler$??0?$_Tree_comp_alloc@V?$_Tmap_traits@V?$basic_string@DU?$char_traits@D@std@@V?$allocator@D@2@@std@@P6APAXXZU?$less@V?$basic_string@DU?$char_traits@D@std@@V?$allocator@D@2@@std@@@2@V?$allocator@U?$pair@$$CBV?$basic_string@DU?$char_traits@D@std@@V?$allocator@D@2@@std@@P6APAXXZ@std@@@2@$0A@@std@@@std@@QAE@ABU?$less@V?$basic_string@DU?$char_traits@D@std@@V?$allocator@D@2@@std@@@1@ABV?$allocator@U?$pair@$$CBV?$basic_string@DU?$char_traits@D@std@@V?$allocator@D@2@@std@@P6APAXXZ@std@@@1@@Z
  0000a	64 a1 00 00 00
	00		 mov	 eax, DWORD PTR fs:0
  00010	50		 push	 eax
  00011	83 ec 08	 sub	 esp, 8
  00014	c7 45 ec cc cc
	cc cc		 mov	 DWORD PTR [ebp-20], -858993460 ; ccccccccH
  0001b	c7 45 f0 cc cc
	cc cc		 mov	 DWORD PTR [ebp-16], -858993460 ; ccccccccH
  00022	a1 00 00 00 00	 mov	 eax, DWORD PTR ___security_cookie
  00027	33 c5		 xor	 eax, ebp
  00029	50		 push	 eax
  0002a	8d 45 f4	 lea	 eax, DWORD PTR __$EHRec$[ebp]
  0002d	64 a3 00 00 00
	00		 mov	 DWORD PTR fs:0, eax
  00033	89 4d f0	 mov	 DWORD PTR _this$[ebp], ecx

; 701  : 		: _Mypair(_One_then_variadic_args_t(), _Parg,

  00036	8b 45 0c	 mov	 eax, DWORD PTR __Al$[ebp]
  00039	50		 push	 eax
  0003a	8d 4d ef	 lea	 ecx, DWORD PTR $T3[ebp]
  0003d	51		 push	 ecx
  0003e	8b 55 08	 mov	 edx, DWORD PTR __Parg$[ebp]
  00041	52		 push	 edx
  00042	0f b6 45 ee	 movzx	 eax, BYTE PTR $T2[ebp]
  00046	50		 push	 eax
  00047	8b 4d f0	 mov	 ecx, DWORD PTR _this$[ebp]
  0004a	e8 00 00 00 00	 call	 ??$?0ABU?$less@V?$basic_string@DU?$char_traits@D@std@@V?$allocator@D@2@@std@@@std@@U_One_then_variadic_args_t@1@ABV?$allocator@U?$pair@$$CBV?$basic_string@DU?$char_traits@D@std@@V?$allocator@D@2@@std@@P6APAXXZ@std@@@1@@?$_Compressed_pair@U?$less@V?$basic_string@DU?$char_traits@D@std@@V?$allocator@D@2@@std@@@std@@V?$_Compressed_pair@U?$_Wrap_alloc@V?$allocator@U?$_Tree_node@U?$pair@$$CBV?$basic_string@DU?$char_traits@D@std@@V?$allocator@D@2@@std@@P6APAXXZ@std@@PAX@std@@@std@@@std@@V?$_Tree_val@U?$_Tree_simple_types@U?$pair@$$CBV?$basic_string@DU?$char_traits@D@std@@V?$allocator@D@2@@std@@P6APAXXZ@std@@@std@@@2@$00@2@$00@std@@QAE@U_One_then_variadic_args_t@1@ABU?$less@V?$basic_string@DU?$char_traits@D@std@@V?$allocator@D@2@@std@@@1@$$QAU21@ABV?$allocator@U?$pair@$$CBV?$basic_string@DU?$char_traits@D@std@@V?$allocator@D@2@@std@@P6APAXXZ@std@@@1@@Z ; std::_Compressed_pair<std::less<std::basic_string<char,std::char_traits<char>,std::allocator<char> > >,std::_Compressed_pair<std::_Wrap_alloc<std::allocator<std::_Tree_node<std::pair<std::basic_string<char,std::char_traits<char>,std::allocator<char> > const ,void * (__cdecl*)(void)>,void *> > >,std::_Tree_val<std::_Tree_simple_types<std::pair<std::basic_string<char,std::char_traits<char>,std::allocator<char> > const ,void * (__cdecl*)(void)> > >,1>,1>::_Compressed_pair<std::less<std::basic_string<char,std::char_traits<char>,std::allocator<char> > >,std::_Compressed_pair<std::_Wrap_alloc<std::allocator<std::_Tree_node<std::pair<std::basic_string<char,std::char_traits<char>,std::allocator<char> > const ,void * (__cdecl*)(void)>,void *> > >,std::_Tree_val<std::_Tree_simple_types<std::pair<std::basic_string<char,std::char_traits<char>,std::allocator<char> > const ,void * (__cdecl*)(void)> > >,1>,1><std::less<std::basic_string<char,std::char_traits<char>,std::allocator<char> > > const &,std::_One_then_variadic_args_t,std::allocator<std::pair<std::basic_string<char,std::char_traits<char>,std::allocator<char> > const ,void * (__cdecl*)(void)> > const &>
  0004f	c7 45 fc 00 00
	00 00		 mov	 DWORD PTR __$EHRec$[ebp+8], 0

; 704  : 		_Construct();

  00056	8b 4d f0	 mov	 ecx, DWORD PTR _this$[ebp]
  00059	e8 00 00 00 00	 call	 ?_Construct@?$_Tree_comp_alloc@V?$_Tmap_traits@V?$basic_string@DU?$char_traits@D@std@@V?$allocator@D@2@@std@@P6APAXXZU?$less@V?$basic_string@DU?$char_traits@D@std@@V?$allocator@D@2@@std@@@2@V?$allocator@U?$pair@$$CBV?$basic_string@DU?$char_traits@D@std@@V?$allocator@D@2@@std@@P6APAXXZ@std@@@2@$0A@@std@@@std@@QAEXXZ ; std::_Tree_comp_alloc<std::_Tmap_traits<std::basic_string<char,std::char_traits<char>,std::allocator<char> >,void * (__cdecl*)(void),std::less<std::basic_string<char,std::char_traits<char>,std::allocator<char> > >,std::allocator<std::pair<std::basic_string<char,std::char_traits<char>,std::allocator<char> > const ,void * (__cdecl*)(void)> >,0> >::_Construct

; 705  : 		}

  0005e	c7 45 fc ff ff
	ff ff		 mov	 DWORD PTR __$EHRec$[ebp+8], -1
  00065	8b 45 f0	 mov	 eax, DWORD PTR _this$[ebp]
  00068	8b 4d f4	 mov	 ecx, DWORD PTR __$EHRec$[ebp]
  0006b	64 89 0d 00 00
	00 00		 mov	 DWORD PTR fs:0, ecx
  00072	59		 pop	 ecx
  00073	83 c4 14	 add	 esp, 20			; 00000014H
  00076	3b ec		 cmp	 ebp, esp
  00078	e8 00 00 00 00	 call	 __RTC_CheckEsp
  0007d	8b e5		 mov	 esp, ebp
  0007f	5d		 pop	 ebp
  00080	c2 08 00	 ret	 8
_TEXT	ENDS
;	COMDAT text$x
text$x	SEGMENT
__unwindfunclet$??0?$_Tree_comp_alloc@V?$_Tmap_traits@V?$basic_string@DU?$char_traits@D@std@@V?$allocator@D@2@@std@@P6APAXXZU?$less@V?$basic_string@DU?$char_traits@D@std@@V?$allocator@D@2@@std@@@2@V?$allocator@U?$pair@$$CBV?$basic_string@DU?$char_traits@D@std@@V?$allocator@D@2@@std@@P6APAXXZ@std@@@2@$0A@@std@@@std@@QAE@ABU?$less@V?$basic_string@DU?$char_traits@D@std@@V?$allocator@D@2@@std@@@1@ABV?$allocator@U?$pair@$$CBV?$basic_string@DU?$char_traits@D@std@@V?$allocator@D@2@@std@@P6APAXXZ@std@@@1@@Z$0:
  00000	8b 4d f0	 mov	 ecx, DWORD PTR _this$[ebp]
  00003	e9 00 00 00 00	 jmp	 ??1?$_Compressed_pair@U?$less@V?$basic_string@DU?$char_traits@D@std@@V?$allocator@D@2@@std@@@std@@V?$_Compressed_pair@U?$_Wrap_alloc@V?$allocator@U?$_Tree_node@U?$pair@$$CBV?$basic_string@DU?$char_traits@D@std@@V?$allocator@D@2@@std@@P6APAXXZ@std@@PAX@std@@@std@@@std@@V?$_Tree_val@U?$_Tree_simple_types@U?$pair@$$CBV?$basic_string@DU?$char_traits@D@std@@V?$allocator@D@2@@std@@P6APAXXZ@std@@@std@@@2@$00@2@$00@std@@QAE@XZ
__ehhandler$??0?$_Tree_comp_alloc@V?$_Tmap_traits@V?$basic_string@DU?$char_traits@D@std@@V?$allocator@D@2@@std@@P6APAXXZU?$less@V?$basic_string@DU?$char_traits@D@std@@V?$allocator@D@2@@std@@@2@V?$allocator@U?$pair@$$CBV?$basic_string@DU?$char_traits@D@std@@V?$allocator@D@2@@std@@P6APAXXZ@std@@@2@$0A@@std@@@std@@QAE@ABU?$less@V?$basic_string@DU?$char_traits@D@std@@V?$allocator@D@2@@std@@@1@ABV?$allocator@U?$pair@$$CBV?$basic_string@DU?$char_traits@D@std@@V?$allocator@D@2@@std@@P6APAXXZ@std@@@1@@Z:
  00008	8b 54 24 08	 mov	 edx, DWORD PTR [esp+8]
  0000c	8d 42 0c	 lea	 eax, DWORD PTR [edx+12]
  0000f	8b 4a f4	 mov	 ecx, DWORD PTR [edx-12]
  00012	33 c8		 xor	 ecx, eax
  00014	e8 00 00 00 00	 call	 @__security_check_cookie@4
  00019	b8 00 00 00 00	 mov	 eax, OFFSET __ehfuncinfo$??0?$_Tree_comp_alloc@V?$_Tmap_traits@V?$basic_string@DU?$char_traits@D@std@@V?$allocator@D@2@@std@@P6APAXXZU?$less@V?$basic_string@DU?$char_traits@D@std@@V?$allocator@D@2@@std@@@2@V?$allocator@U?$pair@$$CBV?$basic_string@DU?$char_traits@D@std@@V?$allocator@D@2@@std@@P6APAXXZ@std@@@2@$0A@@std@@@std@@QAE@ABU?$less@V?$basic_string@DU?$char_traits@D@std@@V?$allocator@D@2@@std@@@1@ABV?$allocator@U?$pair@$$CBV?$basic_string@DU?$char_traits@D@std@@V?$allocator@D@2@@std@@P6APAXXZ@std@@@1@@Z
  0001e	e9 00 00 00 00	 jmp	 ___CxxFrameHandler3
text$x	ENDS
??0?$_Tree_comp_alloc@V?$_Tmap_traits@V?$basic_string@DU?$char_traits@D@std@@V?$allocator@D@2@@std@@P6APAXXZU?$less@V?$basic_string@DU?$char_traits@D@std@@V?$allocator@D@2@@std@@@2@V?$allocator@U?$pair@$$CBV?$basic_string@DU?$char_traits@D@std@@V?$allocator@D@2@@std@@P6APAXXZ@std@@@2@$0A@@std@@@std@@QAE@ABU?$less@V?$basic_string@DU?$char_traits@D@std@@V?$allocator@D@2@@std@@@1@ABV?$allocator@U?$pair@$$CBV?$basic_string@DU?$char_traits@D@std@@V?$allocator@D@2@@std@@P6APAXXZ@std@@@1@@Z ENDP ; std::_Tree_comp_alloc<std::_Tmap_traits<std::basic_string<char,std::char_traits<char>,std::allocator<char> >,void * (__cdecl*)(void),std::less<std::basic_string<char,std::char_traits<char>,std::allocator<char> > >,std::allocator<std::pair<std::basic_string<char,std::char_traits<char>,std::allocator<char> > const ,void * (__cdecl*)(void)> >,0> >::_Tree_comp_alloc<std::_Tmap_traits<std::basic_string<char,std::char_traits<char>,std::allocator<char> >,void * (__cdecl*)(void),std::less<std::basic_string<char,std::char_traits<char>,std::allocator<char> > >,std::allocator<std::pair<std::basic_string<char,std::char_traits<char>,std::allocator<char> > const ,void * (__cdecl*)(void)> >,0> >
; Function compile flags: /Odtp /RTCsu
; File c:\program files (x86)\microsoft visual studio 14.0\vc\include\xtree
;	COMDAT ?erase@?$_Tree@V?$_Tmap_traits@V?$basic_string@DU?$char_traits@D@std@@V?$allocator@D@2@@std@@P6APAXXZU?$less@V?$basic_string@DU?$char_traits@D@std@@V?$allocator@D@2@@std@@@2@V?$allocator@U?$pair@$$CBV?$basic_string@DU?$char_traits@D@std@@V?$allocator@D@2@@std@@P6APAXXZ@std@@@2@$0A@@std@@@std@@QAE?AV?$_Tree_iterator@V?$_Tree_val@U?$_Tree_simple_types@U?$pair@$$CBV?$basic_string@DU?$char_traits@D@std@@V?$allocator@D@2@@std@@P6APAXXZ@std@@@std@@@std@@@2@V?$_Tree_const_iterator@V?$_Tree_val@U?$_Tree_simple_types@U?$pair@$$CBV?$basic_string@DU?$char_traits@D@std@@V?$allocator@D@2@@std@@P6APAXXZ@std@@@std@@@std@@@2@0@Z
_TEXT	SEGMENT
tv199 = -92						; size = 4
tv198 = -88						; size = 4
tv94 = -84						; size = 4
tv186 = -80						; size = 4
tv206 = -76						; size = 4
tv181 = -72						; size = 4
tv160 = -68						; size = 4
$T2 = -64						; size = 4
$T3 = -60						; size = 12
$T4 = -48						; size = 4
$T5 = -44						; size = 12
$T6 = -32						; size = 12
$T7 = -17						; size = 1
_this$ = -16						; size = 4
__$EHRec$ = -12						; size = 12
___$ReturnUdt$ = 8					; size = 4
__First$ = 12						; size = 12
__Last$ = 24						; size = 12
?erase@?$_Tree@V?$_Tmap_traits@V?$basic_string@DU?$char_traits@D@std@@V?$allocator@D@2@@std@@P6APAXXZU?$less@V?$basic_string@DU?$char_traits@D@std@@V?$allocator@D@2@@std@@@2@V?$allocator@U?$pair@$$CBV?$basic_string@DU?$char_traits@D@std@@V?$allocator@D@2@@std@@P6APAXXZ@std@@@2@$0A@@std@@@std@@QAE?AV?$_Tree_iterator@V?$_Tree_val@U?$_Tree_simple_types@U?$pair@$$CBV?$basic_string@DU?$char_traits@D@std@@V?$allocator@D@2@@std@@P6APAXXZ@std@@@std@@@std@@@2@V?$_Tree_const_iterator@V?$_Tree_val@U?$_Tree_simple_types@U?$pair@$$CBV?$basic_string@DU?$char_traits@D@std@@V?$allocator@D@2@@std@@P6APAXXZ@std@@@std@@@std@@@2@0@Z PROC ; std::_Tree<std::_Tmap_traits<std::basic_string<char,std::char_traits<char>,std::allocator<char> >,void * (__cdecl*)(void),std::less<std::basic_string<char,std::char_traits<char>,std::allocator<char> > >,std::allocator<std::pair<std::basic_string<char,std::char_traits<char>,std::allocator<char> > const ,void * (__cdecl*)(void)> >,0> >::erase, COMDAT
; _this$ = ecx

; 1448 : 		{	// erase [_First, _Last)

  00000	55		 push	 ebp
  00001	8b ec		 mov	 ebp, esp
  00003	6a ff		 push	 -1
  00005	68 00 00 00 00	 push	 __ehhandler$?erase@?$_Tree@V?$_Tmap_traits@V?$basic_string@DU?$char_traits@D@std@@V?$allocator@D@2@@std@@P6APAXXZU?$less@V?$basic_string@DU?$char_traits@D@std@@V?$allocator@D@2@@std@@@2@V?$allocator@U?$pair@$$CBV?$basic_string@DU?$char_traits@D@std@@V?$allocator@D@2@@std@@P6APAXXZ@std@@@2@$0A@@std@@@std@@QAE?AV?$_Tree_iterator@V?$_Tree_val@U?$_Tree_simple_types@U?$pair@$$CBV?$basic_string@DU?$char_traits@D@std@@V?$allocator@D@2@@std@@P6APAXXZ@std@@@std@@@std@@@2@V?$_Tree_const_iterator@V?$_Tree_val@U?$_Tree_simple_types@U?$pair@$$CBV?$basic_string@DU?$char_traits@D@std@@V?$allocator@D@2@@std@@P6APAXXZ@std@@@std@@@std@@@2@0@Z
  0000a	64 a1 00 00 00
	00		 mov	 eax, DWORD PTR fs:0
  00010	50		 push	 eax
  00011	83 ec 50	 sub	 esp, 80			; 00000050H
  00014	57		 push	 edi
  00015	51		 push	 ecx
  00016	8d 7d a4	 lea	 edi, DWORD PTR [ebp-92]
  00019	b9 14 00 00 00	 mov	 ecx, 20			; 00000014H
  0001e	b8 cc cc cc cc	 mov	 eax, -858993460		; ccccccccH
  00023	f3 ab		 rep stosd
  00025	59		 pop	 ecx
  00026	a1 00 00 00 00	 mov	 eax, DWORD PTR ___security_cookie
  0002b	33 c5		 xor	 eax, ebp
  0002d	50		 push	 eax
  0002e	8d 45 f4	 lea	 eax, DWORD PTR __$EHRec$[ebp]
  00031	64 a3 00 00 00
	00		 mov	 DWORD PTR fs:0, eax
  00037	89 4d f0	 mov	 DWORD PTR _this$[ebp], ecx
  0003a	c7 45 c0 00 00
	00 00		 mov	 DWORD PTR $T2[ebp], 0
  00041	c7 45 fc 01 00
	00 00		 mov	 DWORD PTR __$EHRec$[ebp+8], 1

; 1449 : 		if (_First == begin() && _Last == end())

  00048	8d 45 e0	 lea	 eax, DWORD PTR $T6[ebp]
  0004b	50		 push	 eax
  0004c	8b 4d f0	 mov	 ecx, DWORD PTR _this$[ebp]
  0004f	e8 00 00 00 00	 call	 ?begin@?$_Tree@V?$_Tmap_traits@V?$basic_string@DU?$char_traits@D@std@@V?$allocator@D@2@@std@@P6APAXXZU?$less@V?$basic_string@DU?$char_traits@D@std@@V?$allocator@D@2@@std@@@2@V?$allocator@U?$pair@$$CBV?$basic_string@DU?$char_traits@D@std@@V?$allocator@D@2@@std@@P6APAXXZ@std@@@2@$0A@@std@@@std@@QAE?AV?$_Tree_iterator@V?$_Tree_val@U?$_Tree_simple_types@U?$pair@$$CBV?$basic_string@DU?$char_traits@D@std@@V?$allocator@D@2@@std@@P6APAXXZ@std@@@std@@@std@@@2@XZ ; std::_Tree<std::_Tmap_traits<std::basic_string<char,std::char_traits<char>,std::allocator<char> >,void * (__cdecl*)(void),std::less<std::basic_string<char,std::char_traits<char>,std::allocator<char> > >,std::allocator<std::pair<std::basic_string<char,std::char_traits<char>,std::allocator<char> > const ,void * (__cdecl*)(void)> >,0> >::begin
  00054	89 45 bc	 mov	 DWORD PTR tv160[ebp], eax
  00057	8b 4d bc	 mov	 ecx, DWORD PTR tv160[ebp]
  0005a	89 4d b8	 mov	 DWORD PTR tv181[ebp], ecx
  0005d	c6 45 fc 02	 mov	 BYTE PTR __$EHRec$[ebp+8], 2
  00061	8b 55 c0	 mov	 edx, DWORD PTR $T2[ebp]
  00064	83 ca 01	 or	 edx, 1
  00067	89 55 c0	 mov	 DWORD PTR $T2[ebp], edx
  0006a	8b 45 b8	 mov	 eax, DWORD PTR tv181[ebp]
  0006d	50		 push	 eax
  0006e	8d 4d 0c	 lea	 ecx, DWORD PTR __First$[ebp]
  00071	e8 00 00 00 00	 call	 ??8?$_Tree_const_iterator@V?$_Tree_val@U?$_Tree_simple_types@U?$pair@$$CBV?$basic_string@DU?$char_traits@D@std@@V?$allocator@D@2@@std@@P6APAXXZ@std@@@std@@@std@@@std@@QBE_NABV01@@Z ; std::_Tree_const_iterator<std::_Tree_val<std::_Tree_simple_types<std::pair<std::basic_string<char,std::char_traits<char>,std::allocator<char> > const ,void * (__cdecl*)(void)> > > >::operator==
  00076	0f b6 c8	 movzx	 ecx, al
  00079	85 c9		 test	 ecx, ecx
  0007b	74 41		 je	 SHORT $LN7@erase
  0007d	8d 55 d4	 lea	 edx, DWORD PTR $T5[ebp]
  00080	52		 push	 edx
  00081	8b 4d f0	 mov	 ecx, DWORD PTR _this$[ebp]
  00084	e8 00 00 00 00	 call	 ?end@?$_Tree@V?$_Tmap_traits@V?$basic_string@DU?$char_traits@D@std@@V?$allocator@D@2@@std@@P6APAXXZU?$less@V?$basic_string@DU?$char_traits@D@std@@V?$allocator@D@2@@std@@@2@V?$allocator@U?$pair@$$CBV?$basic_string@DU?$char_traits@D@std@@V?$allocator@D@2@@std@@P6APAXXZ@std@@@2@$0A@@std@@@std@@QAE?AV?$_Tree_iterator@V?$_Tree_val@U?$_Tree_simple_types@U?$pair@$$CBV?$basic_string@DU?$char_traits@D@std@@V?$allocator@D@2@@std@@P6APAXXZ@std@@@std@@@std@@@2@XZ ; std::_Tree<std::_Tmap_traits<std::basic_string<char,std::char_traits<char>,std::allocator<char> >,void * (__cdecl*)(void),std::less<std::basic_string<char,std::char_traits<char>,std::allocator<char> > >,std::allocator<std::pair<std::basic_string<char,std::char_traits<char>,std::allocator<char> > const ,void * (__cdecl*)(void)> >,0> >::end
  00089	89 45 b4	 mov	 DWORD PTR tv206[ebp], eax
  0008c	8b 45 b4	 mov	 eax, DWORD PTR tv206[ebp]
  0008f	89 45 b0	 mov	 DWORD PTR tv186[ebp], eax
  00092	c7 45 fc 03 00
	00 00		 mov	 DWORD PTR __$EHRec$[ebp+8], 3
  00099	8b 4d c0	 mov	 ecx, DWORD PTR $T2[ebp]
  0009c	83 c9 02	 or	 ecx, 2
  0009f	89 4d c0	 mov	 DWORD PTR $T2[ebp], ecx
  000a2	8b 55 b0	 mov	 edx, DWORD PTR tv186[ebp]
  000a5	52		 push	 edx
  000a6	8d 4d 18	 lea	 ecx, DWORD PTR __Last$[ebp]
  000a9	e8 00 00 00 00	 call	 ??8?$_Tree_const_iterator@V?$_Tree_val@U?$_Tree_simple_types@U?$pair@$$CBV?$basic_string@DU?$char_traits@D@std@@V?$allocator@D@2@@std@@P6APAXXZ@std@@@std@@@std@@@std@@QBE_NABV01@@Z ; std::_Tree_const_iterator<std::_Tree_val<std::_Tree_simple_types<std::pair<std::basic_string<char,std::char_traits<char>,std::allocator<char> > const ,void * (__cdecl*)(void)> > > >::operator==
  000ae	0f b6 c0	 movzx	 eax, al
  000b1	85 c0		 test	 eax, eax
  000b3	74 09		 je	 SHORT $LN7@erase
  000b5	c7 45 ac 01 00
	00 00		 mov	 DWORD PTR tv94[ebp], 1
  000bc	eb 07		 jmp	 SHORT $LN8@erase
$LN7@erase:
  000be	c7 45 ac 00 00
	00 00		 mov	 DWORD PTR tv94[ebp], 0
$LN8@erase:
  000c5	8a 4d ac	 mov	 cl, BYTE PTR tv94[ebp]
  000c8	88 4d ef	 mov	 BYTE PTR $T7[ebp], cl
  000cb	c7 45 fc 02 00
	00 00		 mov	 DWORD PTR __$EHRec$[ebp+8], 2
  000d2	8b 55 c0	 mov	 edx, DWORD PTR $T2[ebp]
  000d5	83 e2 02	 and	 edx, 2
  000d8	74 0c		 je	 SHORT $LN15@erase
  000da	83 65 c0 fd	 and	 DWORD PTR $T2[ebp], -3	; fffffffdH
  000de	8d 4d d4	 lea	 ecx, DWORD PTR $T5[ebp]
  000e1	e8 00 00 00 00	 call	 ??1?$_Tree_iterator@V?$_Tree_val@U?$_Tree_simple_types@U?$pair@$$CBV?$basic_string@DU?$char_traits@D@std@@V?$allocator@D@2@@std@@P6APAXXZ@std@@@std@@@std@@@std@@QAE@XZ
$LN15@erase:
  000e6	c7 45 fc 01 00
	00 00		 mov	 DWORD PTR __$EHRec$[ebp+8], 1
  000ed	8b 45 c0	 mov	 eax, DWORD PTR $T2[ebp]
  000f0	83 e0 01	 and	 eax, 1
  000f3	74 0c		 je	 SHORT $LN16@erase
  000f5	83 65 c0 fe	 and	 DWORD PTR $T2[ebp], -2	; fffffffeH
  000f9	8d 4d e0	 lea	 ecx, DWORD PTR $T6[ebp]
  000fc	e8 00 00 00 00	 call	 ??1?$_Tree_iterator@V?$_Tree_val@U?$_Tree_simple_types@U?$pair@$$CBV?$basic_string@DU?$char_traits@D@std@@V?$allocator@D@2@@std@@P6APAXXZ@std@@@std@@@std@@@std@@QAE@XZ
$LN16@erase:
  00101	0f b6 4d ef	 movzx	 ecx, BYTE PTR $T7[ebp]
  00105	85 c9		 test	 ecx, ecx
  00107	74 45		 je	 SHORT $LN2@erase

; 1450 : 			{	// erase all
; 1451 : 			clear();

  00109	8b 4d f0	 mov	 ecx, DWORD PTR _this$[ebp]
  0010c	e8 00 00 00 00	 call	 ?clear@?$_Tree@V?$_Tmap_traits@V?$basic_string@DU?$char_traits@D@std@@V?$allocator@D@2@@std@@P6APAXXZU?$less@V?$basic_string@DU?$char_traits@D@std@@V?$allocator@D@2@@std@@@2@V?$allocator@U?$pair@$$CBV?$basic_string@DU?$char_traits@D@std@@V?$allocator@D@2@@std@@P6APAXXZ@std@@@2@$0A@@std@@@std@@QAEXXZ ; std::_Tree<std::_Tmap_traits<std::basic_string<char,std::char_traits<char>,std::allocator<char> >,void * (__cdecl*)(void),std::less<std::basic_string<char,std::char_traits<char>,std::allocator<char> > >,std::allocator<std::pair<std::basic_string<char,std::char_traits<char>,std::allocator<char> > const ,void * (__cdecl*)(void)> >,0> >::clear

; 1452 : 			return (begin());

  00111	8b 55 08	 mov	 edx, DWORD PTR ___$ReturnUdt$[ebp]
  00114	52		 push	 edx
  00115	8b 4d f0	 mov	 ecx, DWORD PTR _this$[ebp]
  00118	e8 00 00 00 00	 call	 ?begin@?$_Tree@V?$_Tmap_traits@V?$basic_string@DU?$char_traits@D@std@@V?$allocator@D@2@@std@@P6APAXXZU?$less@V?$basic_string@DU?$char_traits@D@std@@V?$allocator@D@2@@std@@@2@V?$allocator@U?$pair@$$CBV?$basic_string@DU?$char_traits@D@std@@V?$allocator@D@2@@std@@P6APAXXZ@std@@@2@$0A@@std@@@std@@QAE?AV?$_Tree_iterator@V?$_Tree_val@U?$_Tree_simple_types@U?$pair@$$CBV?$basic_string@DU?$char_traits@D@std@@V?$allocator@D@2@@std@@P6APAXXZ@std@@@std@@@std@@@2@XZ ; std::_Tree<std::_Tmap_traits<std::basic_string<char,std::char_traits<char>,std::allocator<char> >,void * (__cdecl*)(void),std::less<std::basic_string<char,std::char_traits<char>,std::allocator<char> > >,std::allocator<std::pair<std::basic_string<char,std::char_traits<char>,std::allocator<char> > const ,void * (__cdecl*)(void)> >,0> >::begin
  0011d	8b 45 c0	 mov	 eax, DWORD PTR $T2[ebp]
  00120	83 c8 04	 or	 eax, 4
  00123	89 45 c0	 mov	 DWORD PTR $T2[ebp], eax
  00126	c6 45 fc 00	 mov	 BYTE PTR __$EHRec$[ebp+8], 0
  0012a	8d 4d 0c	 lea	 ecx, DWORD PTR __First$[ebp]
  0012d	e8 00 00 00 00	 call	 ??1?$_Tree_const_iterator@V?$_Tree_val@U?$_Tree_simple_types@U?$pair@$$CBV?$basic_string@DU?$char_traits@D@std@@V?$allocator@D@2@@std@@P6APAXXZ@std@@@std@@@std@@@std@@QAE@XZ
  00132	c7 45 fc ff ff
	ff ff		 mov	 DWORD PTR __$EHRec$[ebp+8], -1
  00139	8d 4d 18	 lea	 ecx, DWORD PTR __Last$[ebp]
  0013c	e8 00 00 00 00	 call	 ??1?$_Tree_const_iterator@V?$_Tree_val@U?$_Tree_simple_types@U?$pair@$$CBV?$basic_string@DU?$char_traits@D@std@@V?$allocator@D@2@@std@@P6APAXXZ@std@@@std@@@std@@@std@@QAE@XZ
  00141	8b 45 08	 mov	 eax, DWORD PTR ___$ReturnUdt$[ebp]
  00144	e9 a0 00 00 00	 jmp	 $LN1@erase

; 1453 : 			}
; 1454 : 		else

  00149	e9 80 00 00 00	 jmp	 $LN5@erase
$LN2@erase:

; 1455 : 			{	// partial erase, one at a time
; 1456 : 			while (_First != _Last)

  0014e	8d 4d 18	 lea	 ecx, DWORD PTR __Last$[ebp]
  00151	51		 push	 ecx
  00152	8d 4d 0c	 lea	 ecx, DWORD PTR __First$[ebp]
  00155	e8 00 00 00 00	 call	 ??9?$_Tree_const_iterator@V?$_Tree_val@U?$_Tree_simple_types@U?$pair@$$CBV?$basic_string@DU?$char_traits@D@std@@V?$allocator@D@2@@std@@P6APAXXZ@std@@@std@@@std@@@std@@QBE_NABV01@@Z ; std::_Tree_const_iterator<std::_Tree_val<std::_Tree_simple_types<std::pair<std::basic_string<char,std::char_traits<char>,std::allocator<char> > const ,void * (__cdecl*)(void)> > > >::operator!=
  0015a	0f b6 d0	 movzx	 edx, al
  0015d	85 d2		 test	 edx, edx
  0015f	74 2f		 je	 SHORT $LN3@erase

; 1457 : 				erase(_First++);

  00161	83 ec 0c	 sub	 esp, 12			; 0000000cH
  00164	8b c4		 mov	 eax, esp
  00166	89 65 d0	 mov	 DWORD PTR $T4[ebp], esp
  00169	6a 00		 push	 0
  0016b	50		 push	 eax
  0016c	8d 4d 0c	 lea	 ecx, DWORD PTR __First$[ebp]
  0016f	e8 00 00 00 00	 call	 ??E?$_Tree_const_iterator@V?$_Tree_val@U?$_Tree_simple_types@U?$pair@$$CBV?$basic_string@DU?$char_traits@D@std@@V?$allocator@D@2@@std@@P6APAXXZ@std@@@std@@@std@@@std@@QAE?AV01@H@Z ; std::_Tree_const_iterator<std::_Tree_val<std::_Tree_simple_types<std::pair<std::basic_string<char,std::char_traits<char>,std::allocator<char> > const ,void * (__cdecl*)(void)> > > >::operator++
  00174	89 45 a8	 mov	 DWORD PTR tv198[ebp], eax
  00177	8d 4d c4	 lea	 ecx, DWORD PTR $T3[ebp]
  0017a	51		 push	 ecx
  0017b	8b 4d f0	 mov	 ecx, DWORD PTR _this$[ebp]
  0017e	e8 00 00 00 00	 call	 ?erase@?$_Tree@V?$_Tmap_traits@V?$basic_string@DU?$char_traits@D@std@@V?$allocator@D@2@@std@@P6APAXXZU?$less@V?$basic_string@DU?$char_traits@D@std@@V?$allocator@D@2@@std@@@2@V?$allocator@U?$pair@$$CBV?$basic_string@DU?$char_traits@D@std@@V?$allocator@D@2@@std@@P6APAXXZ@std@@@2@$0A@@std@@@std@@QAE?AV?$_Tree_iterator@V?$_Tree_val@U?$_Tree_simple_types@U?$pair@$$CBV?$basic_string@DU?$char_traits@D@std@@V?$allocator@D@2@@std@@P6APAXXZ@std@@@std@@@std@@@2@V?$_Tree_const_iterator@V?$_Tree_val@U?$_Tree_simple_types@U?$pair@$$CBV?$basic_string@DU?$char_traits@D@std@@V?$allocator@D@2@@std@@P6APAXXZ@std@@@std@@@std@@@2@@Z ; std::_Tree<std::_Tmap_traits<std::basic_string<char,std::char_traits<char>,std::allocator<char> >,void * (__cdecl*)(void),std::less<std::basic_string<char,std::char_traits<char>,std::allocator<char> > >,std::allocator<std::pair<std::basic_string<char,std::char_traits<char>,std::allocator<char> > const ,void * (__cdecl*)(void)> >,0> >::erase
  00183	89 45 a4	 mov	 DWORD PTR tv199[ebp], eax
  00186	8d 4d c4	 lea	 ecx, DWORD PTR $T3[ebp]
  00189	e8 00 00 00 00	 call	 ??1?$_Tree_iterator@V?$_Tree_val@U?$_Tree_simple_types@U?$pair@$$CBV?$basic_string@DU?$char_traits@D@std@@V?$allocator@D@2@@std@@P6APAXXZ@std@@@std@@@std@@@std@@QAE@XZ
  0018e	eb be		 jmp	 SHORT $LN2@erase
$LN3@erase:

; 1458 : 			return (iterator(_First._Ptr, &this->_Get_data()));

  00190	8b 4d f0	 mov	 ecx, DWORD PTR _this$[ebp]
  00193	e8 00 00 00 00	 call	 ?_Get_data@?$_Tree_comp_alloc@V?$_Tmap_traits@V?$basic_string@DU?$char_traits@D@std@@V?$allocator@D@2@@std@@P6APAXXZU?$less@V?$basic_string@DU?$char_traits@D@std@@V?$allocator@D@2@@std@@@2@V?$allocator@U?$pair@$$CBV?$basic_string@DU?$char_traits@D@std@@V?$allocator@D@2@@std@@P6APAXXZ@std@@@2@$0A@@std@@@std@@QAEAAV?$_Tree_val@U?$_Tree_simple_types@U?$pair@$$CBV?$basic_string@DU?$char_traits@D@std@@V?$allocator@D@2@@std@@P6APAXXZ@std@@@std@@@2@XZ ; std::_Tree_comp_alloc<std::_Tmap_traits<std::basic_string<char,std::char_traits<char>,std::allocator<char> >,void * (__cdecl*)(void),std::less<std::basic_string<char,std::char_traits<char>,std::allocator<char> > >,std::allocator<std::pair<std::basic_string<char,std::char_traits<char>,std::allocator<char> > const ,void * (__cdecl*)(void)> >,0> >::_Get_data
  00198	50		 push	 eax
  00199	8b 55 14	 mov	 edx, DWORD PTR __First$[ebp+8]
  0019c	52		 push	 edx
  0019d	8b 4d 08	 mov	 ecx, DWORD PTR ___$ReturnUdt$[ebp]
  001a0	e8 00 00 00 00	 call	 ??0?$_Tree_iterator@V?$_Tree_val@U?$_Tree_simple_types@U?$pair@$$CBV?$basic_string@DU?$char_traits@D@std@@V?$allocator@D@2@@std@@P6APAXXZ@std@@@std@@@std@@@std@@QAE@PAU?$_Tree_node@U?$pair@$$CBV?$basic_string@DU?$char_traits@D@std@@V?$allocator@D@2@@std@@P6APAXXZ@std@@PAX@1@PBV?$_Tree_val@U?$_Tree_simple_types@U?$pair@$$CBV?$basic_string@DU?$char_traits@D@std@@V?$allocator@D@2@@std@@P6APAXXZ@std@@@std@@@1@@Z ; std::_Tree_iterator<std::_Tree_val<std::_Tree_simple_types<std::pair<std::basic_string<char,std::char_traits<char>,std::allocator<char> > const ,void * (__cdecl*)(void)> > > >::_Tree_iterator<std::_Tree_val<std::_Tree_simple_types<std::pair<std::basic_string<char,std::char_traits<char>,std::allocator<char> > const ,void * (__cdecl*)(void)> > > >
  001a5	8b 45 c0	 mov	 eax, DWORD PTR $T2[ebp]
  001a8	83 c8 04	 or	 eax, 4
  001ab	89 45 c0	 mov	 DWORD PTR $T2[ebp], eax
  001ae	c6 45 fc 00	 mov	 BYTE PTR __$EHRec$[ebp+8], 0
  001b2	8d 4d 0c	 lea	 ecx, DWORD PTR __First$[ebp]
  001b5	e8 00 00 00 00	 call	 ??1?$_Tree_const_iterator@V?$_Tree_val@U?$_Tree_simple_types@U?$pair@$$CBV?$basic_string@DU?$char_traits@D@std@@V?$allocator@D@2@@std@@P6APAXXZ@std@@@std@@@std@@@std@@QAE@XZ
  001ba	c7 45 fc ff ff
	ff ff		 mov	 DWORD PTR __$EHRec$[ebp+8], -1
  001c1	8d 4d 18	 lea	 ecx, DWORD PTR __Last$[ebp]
  001c4	e8 00 00 00 00	 call	 ??1?$_Tree_const_iterator@V?$_Tree_val@U?$_Tree_simple_types@U?$pair@$$CBV?$basic_string@DU?$char_traits@D@std@@V?$allocator@D@2@@std@@P6APAXXZ@std@@@std@@@std@@@std@@QAE@XZ
  001c9	8b 45 08	 mov	 eax, DWORD PTR ___$ReturnUdt$[ebp]
  001cc	eb 1b		 jmp	 SHORT $LN1@erase
$LN5@erase:

; 1459 : 			}
; 1460 : 		}

  001ce	c6 45 fc 00	 mov	 BYTE PTR __$EHRec$[ebp+8], 0
  001d2	8d 4d 0c	 lea	 ecx, DWORD PTR __First$[ebp]
  001d5	e8 00 00 00 00	 call	 ??1?$_Tree_const_iterator@V?$_Tree_val@U?$_Tree_simple_types@U?$pair@$$CBV?$basic_string@DU?$char_traits@D@std@@V?$allocator@D@2@@std@@P6APAXXZ@std@@@std@@@std@@@std@@QAE@XZ
  001da	c7 45 fc ff ff
	ff ff		 mov	 DWORD PTR __$EHRec$[ebp+8], -1
  001e1	8d 4d 18	 lea	 ecx, DWORD PTR __Last$[ebp]
  001e4	e8 00 00 00 00	 call	 ??1?$_Tree_const_iterator@V?$_Tree_val@U?$_Tree_simple_types@U?$pair@$$CBV?$basic_string@DU?$char_traits@D@std@@V?$allocator@D@2@@std@@P6APAXXZ@std@@@std@@@std@@@std@@QAE@XZ
$LN1@erase:
  001e9	8b 4d f4	 mov	 ecx, DWORD PTR __$EHRec$[ebp]
  001ec	64 89 0d 00 00
	00 00		 mov	 DWORD PTR fs:0, ecx
  001f3	59		 pop	 ecx
  001f4	5f		 pop	 edi
  001f5	83 c4 5c	 add	 esp, 92			; 0000005cH
  001f8	3b ec		 cmp	 ebp, esp
  001fa	e8 00 00 00 00	 call	 __RTC_CheckEsp
  001ff	8b e5		 mov	 esp, ebp
  00201	5d		 pop	 ebp
  00202	c2 1c 00	 ret	 28			; 0000001cH
_TEXT	ENDS
;	COMDAT text$x
text$x	SEGMENT
__unwindfunclet$?erase@?$_Tree@V?$_Tmap_traits@V?$basic_string@DU?$char_traits@D@std@@V?$allocator@D@2@@std@@P6APAXXZU?$less@V?$basic_string@DU?$char_traits@D@std@@V?$allocator@D@2@@std@@@2@V?$allocator@U?$pair@$$CBV?$basic_string@DU?$char_traits@D@std@@V?$allocator@D@2@@std@@P6APAXXZ@std@@@2@$0A@@std@@@std@@QAE?AV?$_Tree_iterator@V?$_Tree_val@U?$_Tree_simple_types@U?$pair@$$CBV?$basic_string@DU?$char_traits@D@std@@V?$allocator@D@2@@std@@P6APAXXZ@std@@@std@@@std@@@2@V?$_Tree_const_iterator@V?$_Tree_val@U?$_Tree_simple_types@U?$pair@$$CBV?$basic_string@DU?$char_traits@D@std@@V?$allocator@D@2@@std@@P6APAXXZ@std@@@std@@@std@@@2@0@Z$0:
  00000	8d 4d 18	 lea	 ecx, DWORD PTR __Last$[ebp]
  00003	e9 00 00 00 00	 jmp	 ??1?$_Tree_const_iterator@V?$_Tree_val@U?$_Tree_simple_types@U?$pair@$$CBV?$basic_string@DU?$char_traits@D@std@@V?$allocator@D@2@@std@@P6APAXXZ@std@@@std@@@std@@@std@@QAE@XZ
__unwindfunclet$?erase@?$_Tree@V?$_Tmap_traits@V?$basic_string@DU?$char_traits@D@std@@V?$allocator@D@2@@std@@P6APAXXZU?$less@V?$basic_string@DU?$char_traits@D@std@@V?$allocator@D@2@@std@@@2@V?$allocator@U?$pair@$$CBV?$basic_string@DU?$char_traits@D@std@@V?$allocator@D@2@@std@@P6APAXXZ@std@@@2@$0A@@std@@@std@@QAE?AV?$_Tree_iterator@V?$_Tree_val@U?$_Tree_simple_types@U?$pair@$$CBV?$basic_string@DU?$char_traits@D@std@@V?$allocator@D@2@@std@@P6APAXXZ@std@@@std@@@std@@@2@V?$_Tree_const_iterator@V?$_Tree_val@U?$_Tree_simple_types@U?$pair@$$CBV?$basic_string@DU?$char_traits@D@std@@V?$allocator@D@2@@std@@P6APAXXZ@std@@@std@@@std@@@2@0@Z$1:
  00008	8d 4d 0c	 lea	 ecx, DWORD PTR __First$[ebp]
  0000b	e9 00 00 00 00	 jmp	 ??1?$_Tree_const_iterator@V?$_Tree_val@U?$_Tree_simple_types@U?$pair@$$CBV?$basic_string@DU?$char_traits@D@std@@V?$allocator@D@2@@std@@P6APAXXZ@std@@@std@@@std@@@std@@QAE@XZ
__unwindfunclet$?erase@?$_Tree@V?$_Tmap_traits@V?$basic_string@DU?$char_traits@D@std@@V?$allocator@D@2@@std@@P6APAXXZU?$less@V?$basic_string@DU?$char_traits@D@std@@V?$allocator@D@2@@std@@@2@V?$allocator@U?$pair@$$CBV?$basic_string@DU?$char_traits@D@std@@V?$allocator@D@2@@std@@P6APAXXZ@std@@@2@$0A@@std@@@std@@QAE?AV?$_Tree_iterator@V?$_Tree_val@U?$_Tree_simple_types@U?$pair@$$CBV?$basic_string@DU?$char_traits@D@std@@V?$allocator@D@2@@std@@P6APAXXZ@std@@@std@@@std@@@2@V?$_Tree_const_iterator@V?$_Tree_val@U?$_Tree_simple_types@U?$pair@$$CBV?$basic_string@DU?$char_traits@D@std@@V?$allocator@D@2@@std@@P6APAXXZ@std@@@std@@@std@@@2@0@Z$2:
  00010	8b 45 c0	 mov	 eax, DWORD PTR $T2[ebp]
  00013	83 e0 01	 and	 eax, 1
  00016	0f 84 0c 00 00
	00		 je	 $LN12@erase
  0001c	83 65 c0 fe	 and	 DWORD PTR $T2[ebp], -2	; fffffffeH
  00020	8d 4d e0	 lea	 ecx, DWORD PTR $T6[ebp]
  00023	e9 00 00 00 00	 jmp	 ??1?$_Tree_iterator@V?$_Tree_val@U?$_Tree_simple_types@U?$pair@$$CBV?$basic_string@DU?$char_traits@D@std@@V?$allocator@D@2@@std@@P6APAXXZ@std@@@std@@@std@@@std@@QAE@XZ
$LN12@erase:
  00028	c3		 ret	 0
__unwindfunclet$?erase@?$_Tree@V?$_Tmap_traits@V?$basic_string@DU?$char_traits@D@std@@V?$allocator@D@2@@std@@P6APAXXZU?$less@V?$basic_string@DU?$char_traits@D@std@@V?$allocator@D@2@@std@@@2@V?$allocator@U?$pair@$$CBV?$basic_string@DU?$char_traits@D@std@@V?$allocator@D@2@@std@@P6APAXXZ@std@@@2@$0A@@std@@@std@@QAE?AV?$_Tree_iterator@V?$_Tree_val@U?$_Tree_simple_types@U?$pair@$$CBV?$basic_string@DU?$char_traits@D@std@@V?$allocator@D@2@@std@@P6APAXXZ@std@@@std@@@std@@@2@V?$_Tree_const_iterator@V?$_Tree_val@U?$_Tree_simple_types@U?$pair@$$CBV?$basic_string@DU?$char_traits@D@std@@V?$allocator@D@2@@std@@P6APAXXZ@std@@@std@@@std@@@2@0@Z$3:
  00029	8b 45 c0	 mov	 eax, DWORD PTR $T2[ebp]
  0002c	83 e0 02	 and	 eax, 2
  0002f	0f 84 0c 00 00
	00		 je	 $LN14@erase
  00035	83 65 c0 fd	 and	 DWORD PTR $T2[ebp], -3	; fffffffdH
  00039	8d 4d d4	 lea	 ecx, DWORD PTR $T5[ebp]
  0003c	e9 00 00 00 00	 jmp	 ??1?$_Tree_iterator@V?$_Tree_val@U?$_Tree_simple_types@U?$pair@$$CBV?$basic_string@DU?$char_traits@D@std@@V?$allocator@D@2@@std@@P6APAXXZ@std@@@std@@@std@@@std@@QAE@XZ
$LN14@erase:
  00041	c3		 ret	 0
__ehhandler$?erase@?$_Tree@V?$_Tmap_traits@V?$basic_string@DU?$char_traits@D@std@@V?$allocator@D@2@@std@@P6APAXXZU?$less@V?$basic_string@DU?$char_traits@D@std@@V?$allocator@D@2@@std@@@2@V?$allocator@U?$pair@$$CBV?$basic_string@DU?$char_traits@D@std@@V?$allocator@D@2@@std@@P6APAXXZ@std@@@2@$0A@@std@@@std@@QAE?AV?$_Tree_iterator@V?$_Tree_val@U?$_Tree_simple_types@U?$pair@$$CBV?$basic_string@DU?$char_traits@D@std@@V?$allocator@D@2@@std@@P6APAXXZ@std@@@std@@@std@@@2@V?$_Tree_const_iterator@V?$_Tree_val@U?$_Tree_simple_types@U?$pair@$$CBV?$basic_string@DU?$char_traits@D@std@@V?$allocator@D@2@@std@@P6APAXXZ@std@@@std@@@std@@@2@0@Z:
  00042	8b 54 24 08	 mov	 edx, DWORD PTR [esp+8]
  00046	8d 42 0c	 lea	 eax, DWORD PTR [edx+12]
  00049	8b 4a a8	 mov	 ecx, DWORD PTR [edx-88]
  0004c	33 c8		 xor	 ecx, eax
  0004e	e8 00 00 00 00	 call	 @__security_check_cookie@4
  00053	b8 00 00 00 00	 mov	 eax, OFFSET __ehfuncinfo$?erase@?$_Tree@V?$_Tmap_traits@V?$basic_string@DU?$char_traits@D@std@@V?$allocator@D@2@@std@@P6APAXXZU?$less@V?$basic_string@DU?$char_traits@D@std@@V?$allocator@D@2@@std@@@2@V?$allocator@U?$pair@$$CBV?$basic_string@DU?$char_traits@D@std@@V?$allocator@D@2@@std@@P6APAXXZ@std@@@2@$0A@@std@@@std@@QAE?AV?$_Tree_iterator@V?$_Tree_val@U?$_Tree_simple_types@U?$pair@$$CBV?$basic_string@DU?$char_traits@D@std@@V?$allocator@D@2@@std@@P6APAXXZ@std@@@std@@@std@@@2@V?$_Tree_const_iterator@V?$_Tree_val@U?$_Tree_simple_types@U?$pair@$$CBV?$basic_string@DU?$char_traits@D@std@@V?$allocator@D@2@@std@@P6APAXXZ@std@@@std@@@std@@@2@0@Z
  00058	e9 00 00 00 00	 jmp	 ___CxxFrameHandler3
text$x	ENDS
?erase@?$_Tree@V?$_Tmap_traits@V?$basic_string@DU?$char_traits@D@std@@V?$allocator@D@2@@std@@P6APAXXZU?$less@V?$basic_string@DU?$char_traits@D@std@@V?$allocator@D@2@@std@@@2@V?$allocator@U?$pair@$$CBV?$basic_string@DU?$char_traits@D@std@@V?$allocator@D@2@@std@@P6APAXXZ@std@@@2@$0A@@std@@@std@@QAE?AV?$_Tree_iterator@V?$_Tree_val@U?$_Tree_simple_types@U?$pair@$$CBV?$basic_string@DU?$char_traits@D@std@@V?$allocator@D@2@@std@@P6APAXXZ@std@@@std@@@std@@@2@V?$_Tree_const_iterator@V?$_Tree_val@U?$_Tree_simple_types@U?$pair@$$CBV?$basic_string@DU?$char_traits@D@std@@V?$allocator@D@2@@std@@P6APAXXZ@std@@@std@@@std@@@2@0@Z ENDP ; std::_Tree<std::_Tmap_traits<std::basic_string<char,std::char_traits<char>,std::allocator<char> >,void * (__cdecl*)(void),std::less<std::basic_string<char,std::char_traits<char>,std::allocator<char> > >,std::allocator<std::pair<std::basic_string<char,std::char_traits<char>,std::allocator<char> > const ,void * (__cdecl*)(void)> >,0> >::erase
; Function compile flags: /Odtp /RTCsu
; File c:\program files (x86)\microsoft visual studio 14.0\vc\include\xtree
;	COMDAT ??9?$_Tree_const_iterator@V?$_Tree_val@U?$_Tree_simple_types@U?$pair@$$CBV?$basic_string@DU?$char_traits@D@std@@V?$allocator@D@2@@std@@P6APAXXZ@std@@@std@@@std@@@std@@QBE_NABV01@@Z
_TEXT	SEGMENT
tv69 = -8						; size = 4
_this$ = -4						; size = 4
__Right$ = 8						; size = 4
??9?$_Tree_const_iterator@V?$_Tree_val@U?$_Tree_simple_types@U?$pair@$$CBV?$basic_string@DU?$char_traits@D@std@@V?$allocator@D@2@@std@@P6APAXXZ@std@@@std@@@std@@@std@@QBE_NABV01@@Z PROC ; std::_Tree_const_iterator<std::_Tree_val<std::_Tree_simple_types<std::pair<std::basic_string<char,std::char_traits<char>,std::allocator<char> > const ,void * (__cdecl*)(void)> > > >::operator!=, COMDAT
; _this$ = ecx

; 338  : 		{	// test for iterator inequality

  00000	55		 push	 ebp
  00001	8b ec		 mov	 ebp, esp
  00003	83 ec 08	 sub	 esp, 8
  00006	c7 45 f8 cc cc
	cc cc		 mov	 DWORD PTR [ebp-8], -858993460 ; ccccccccH
  0000d	c7 45 fc cc cc
	cc cc		 mov	 DWORD PTR [ebp-4], -858993460 ; ccccccccH
  00014	89 4d fc	 mov	 DWORD PTR _this$[ebp], ecx

; 339  : 		return (!(*this == _Right));

  00017	8b 45 08	 mov	 eax, DWORD PTR __Right$[ebp]
  0001a	50		 push	 eax
  0001b	8b 4d fc	 mov	 ecx, DWORD PTR _this$[ebp]
  0001e	e8 00 00 00 00	 call	 ??8?$_Tree_const_iterator@V?$_Tree_val@U?$_Tree_simple_types@U?$pair@$$CBV?$basic_string@DU?$char_traits@D@std@@V?$allocator@D@2@@std@@P6APAXXZ@std@@@std@@@std@@@std@@QBE_NABV01@@Z ; std::_Tree_const_iterator<std::_Tree_val<std::_Tree_simple_types<std::pair<std::basic_string<char,std::char_traits<char>,std::allocator<char> > const ,void * (__cdecl*)(void)> > > >::operator==
  00023	0f b6 c8	 movzx	 ecx, al
  00026	85 c9		 test	 ecx, ecx
  00028	75 09		 jne	 SHORT $LN3@operator
  0002a	c7 45 f8 01 00
	00 00		 mov	 DWORD PTR tv69[ebp], 1
  00031	eb 07		 jmp	 SHORT $LN4@operator
$LN3@operator:
  00033	c7 45 f8 00 00
	00 00		 mov	 DWORD PTR tv69[ebp], 0
$LN4@operator:
  0003a	8a 45 f8	 mov	 al, BYTE PTR tv69[ebp]

; 340  : 		}

  0003d	83 c4 08	 add	 esp, 8
  00040	3b ec		 cmp	 ebp, esp
  00042	e8 00 00 00 00	 call	 __RTC_CheckEsp
  00047	8b e5		 mov	 esp, ebp
  00049	5d		 pop	 ebp
  0004a	c2 04 00	 ret	 4
??9?$_Tree_const_iterator@V?$_Tree_val@U?$_Tree_simple_types@U?$pair@$$CBV?$basic_string@DU?$char_traits@D@std@@V?$allocator@D@2@@std@@P6APAXXZ@std@@@std@@@std@@@std@@QBE_NABV01@@Z ENDP ; std::_Tree_const_iterator<std::_Tree_val<std::_Tree_simple_types<std::pair<std::basic_string<char,std::char_traits<char>,std::allocator<char> > const ,void * (__cdecl*)(void)> > > >::operator!=
_TEXT	ENDS
; Function compile flags: /Odtp /RTCsu
; File c:\program files (x86)\microsoft visual studio 14.0\vc\include\xtree
;	COMDAT ??E?$_Tree_const_iterator@V?$_Tree_val@U?$_Tree_simple_types@U?$pair@$$CBV?$basic_string@DU?$char_traits@D@std@@V?$allocator@D@2@@std@@P6APAXXZ@std@@@std@@@std@@@std@@QAE?AV01@H@Z
_TEXT	SEGMENT
$T2 = -40						; size = 4
__Tmp$ = -32						; size = 12
_this$ = -16						; size = 4
__$EHRec$ = -12						; size = 12
___$ReturnUdt$ = 8					; size = 4
___formal$ = 12						; size = 4
??E?$_Tree_const_iterator@V?$_Tree_val@U?$_Tree_simple_types@U?$pair@$$CBV?$basic_string@DU?$char_traits@D@std@@V?$allocator@D@2@@std@@P6APAXXZ@std@@@std@@@std@@@std@@QAE?AV01@H@Z PROC ; std::_Tree_const_iterator<std::_Tree_val<std::_Tree_simple_types<std::pair<std::basic_string<char,std::char_traits<char>,std::allocator<char> > const ,void * (__cdecl*)(void)> > > >::operator++, COMDAT
; _this$ = ecx

; 276  : 		{	// postincrement

  00000	55		 push	 ebp
  00001	8b ec		 mov	 ebp, esp
  00003	6a ff		 push	 -1
  00005	68 00 00 00 00	 push	 __ehhandler$??E?$_Tree_const_iterator@V?$_Tree_val@U?$_Tree_simple_types@U?$pair@$$CBV?$basic_string@DU?$char_traits@D@std@@V?$allocator@D@2@@std@@P6APAXXZ@std@@@std@@@std@@@std@@QAE?AV01@H@Z
  0000a	64 a1 00 00 00
	00		 mov	 eax, DWORD PTR fs:0
  00010	50		 push	 eax
  00011	83 ec 1c	 sub	 esp, 28			; 0000001cH
  00014	b8 cc cc cc cc	 mov	 eax, -858993460		; ccccccccH
  00019	89 45 d8	 mov	 DWORD PTR [ebp-40], eax
  0001c	89 45 dc	 mov	 DWORD PTR [ebp-36], eax
  0001f	89 45 e0	 mov	 DWORD PTR [ebp-32], eax
  00022	89 45 e4	 mov	 DWORD PTR [ebp-28], eax
  00025	89 45 e8	 mov	 DWORD PTR [ebp-24], eax
  00028	89 45 ec	 mov	 DWORD PTR [ebp-20], eax
  0002b	89 45 f0	 mov	 DWORD PTR [ebp-16], eax
  0002e	a1 00 00 00 00	 mov	 eax, DWORD PTR ___security_cookie
  00033	33 c5		 xor	 eax, ebp
  00035	50		 push	 eax
  00036	8d 45 f4	 lea	 eax, DWORD PTR __$EHRec$[ebp]
  00039	64 a3 00 00 00
	00		 mov	 DWORD PTR fs:0, eax
  0003f	89 4d f0	 mov	 DWORD PTR _this$[ebp], ecx
  00042	c7 45 d8 00 00
	00 00		 mov	 DWORD PTR $T2[ebp], 0

; 277  : 		_Myiter _Tmp = *this;

  00049	8b 45 f0	 mov	 eax, DWORD PTR _this$[ebp]
  0004c	50		 push	 eax
  0004d	8d 4d e0	 lea	 ecx, DWORD PTR __Tmp$[ebp]
  00050	e8 00 00 00 00	 call	 ??0?$_Tree_const_iterator@V?$_Tree_val@U?$_Tree_simple_types@U?$pair@$$CBV?$basic_string@DU?$char_traits@D@std@@V?$allocator@D@2@@std@@P6APAXXZ@std@@@std@@@std@@@std@@QAE@ABV01@@Z
  00055	c7 45 fc 00 00
	00 00		 mov	 DWORD PTR __$EHRec$[ebp+8], 0

; 278  : 		++*this;

  0005c	8b 4d f0	 mov	 ecx, DWORD PTR _this$[ebp]
  0005f	e8 00 00 00 00	 call	 ??E?$_Tree_const_iterator@V?$_Tree_val@U?$_Tree_simple_types@U?$pair@$$CBV?$basic_string@DU?$char_traits@D@std@@V?$allocator@D@2@@std@@P6APAXXZ@std@@@std@@@std@@@std@@QAEAAV01@XZ ; std::_Tree_const_iterator<std::_Tree_val<std::_Tree_simple_types<std::pair<std::basic_string<char,std::char_traits<char>,std::allocator<char> > const ,void * (__cdecl*)(void)> > > >::operator++

; 279  : 		return (_Tmp);

  00064	8d 4d e0	 lea	 ecx, DWORD PTR __Tmp$[ebp]
  00067	51		 push	 ecx
  00068	8b 4d 08	 mov	 ecx, DWORD PTR ___$ReturnUdt$[ebp]
  0006b	e8 00 00 00 00	 call	 ??0?$_Tree_const_iterator@V?$_Tree_val@U?$_Tree_simple_types@U?$pair@$$CBV?$basic_string@DU?$char_traits@D@std@@V?$allocator@D@2@@std@@P6APAXXZ@std@@@std@@@std@@@std@@QAE@$$QAV01@@Z
  00070	8b 55 d8	 mov	 edx, DWORD PTR $T2[ebp]
  00073	83 ca 01	 or	 edx, 1
  00076	89 55 d8	 mov	 DWORD PTR $T2[ebp], edx
  00079	c7 45 fc ff ff
	ff ff		 mov	 DWORD PTR __$EHRec$[ebp+8], -1
  00080	8d 4d e0	 lea	 ecx, DWORD PTR __Tmp$[ebp]
  00083	e8 00 00 00 00	 call	 ??1?$_Tree_const_iterator@V?$_Tree_val@U?$_Tree_simple_types@U?$pair@$$CBV?$basic_string@DU?$char_traits@D@std@@V?$allocator@D@2@@std@@P6APAXXZ@std@@@std@@@std@@@std@@QAE@XZ
  00088	8b 45 08	 mov	 eax, DWORD PTR ___$ReturnUdt$[ebp]

; 280  : 		}

  0008b	52		 push	 edx
  0008c	8b cd		 mov	 ecx, ebp
  0008e	50		 push	 eax
  0008f	8d 15 00 00 00
	00		 lea	 edx, DWORD PTR $LN9@operator
  00095	e8 00 00 00 00	 call	 @_RTC_CheckStackVars@8
  0009a	58		 pop	 eax
  0009b	5a		 pop	 edx
  0009c	8b 4d f4	 mov	 ecx, DWORD PTR __$EHRec$[ebp]
  0009f	64 89 0d 00 00
	00 00		 mov	 DWORD PTR fs:0, ecx
  000a6	59		 pop	 ecx
  000a7	83 c4 28	 add	 esp, 40			; 00000028H
  000aa	3b ec		 cmp	 ebp, esp
  000ac	e8 00 00 00 00	 call	 __RTC_CheckEsp
  000b1	8b e5		 mov	 esp, ebp
  000b3	5d		 pop	 ebp
  000b4	c2 08 00	 ret	 8
  000b7	90		 npad	 1
$LN9@operator:
  000b8	01 00 00 00	 DD	 1
  000bc	00 00 00 00	 DD	 $LN8@operator
$LN8@operator:
  000c0	e0 ff ff ff	 DD	 -32			; ffffffe0H
  000c4	0c 00 00 00	 DD	 12			; 0000000cH
  000c8	00 00 00 00	 DD	 $LN6@operator
$LN6@operator:
  000cc	5f		 DB	 95			; 0000005fH
  000cd	54		 DB	 84			; 00000054H
  000ce	6d		 DB	 109			; 0000006dH
  000cf	70		 DB	 112			; 00000070H
  000d0	00		 DB	 0
_TEXT	ENDS
;	COMDAT text$x
text$x	SEGMENT
__unwindfunclet$??E?$_Tree_const_iterator@V?$_Tree_val@U?$_Tree_simple_types@U?$pair@$$CBV?$basic_string@DU?$char_traits@D@std@@V?$allocator@D@2@@std@@P6APAXXZ@std@@@std@@@std@@@std@@QAE?AV01@H@Z$0:
  00000	8d 4d e0	 lea	 ecx, DWORD PTR __Tmp$[ebp]
  00003	e9 00 00 00 00	 jmp	 ??1?$_Tree_const_iterator@V?$_Tree_val@U?$_Tree_simple_types@U?$pair@$$CBV?$basic_string@DU?$char_traits@D@std@@V?$allocator@D@2@@std@@P6APAXXZ@std@@@std@@@std@@@std@@QAE@XZ
__ehhandler$??E?$_Tree_const_iterator@V?$_Tree_val@U?$_Tree_simple_types@U?$pair@$$CBV?$basic_string@DU?$char_traits@D@std@@V?$allocator@D@2@@std@@P6APAXXZ@std@@@std@@@std@@@std@@QAE?AV01@H@Z:
  00008	8b 54 24 08	 mov	 edx, DWORD PTR [esp+8]
  0000c	8d 42 0c	 lea	 eax, DWORD PTR [edx+12]
  0000f	8b 4a e0	 mov	 ecx, DWORD PTR [edx-32]
  00012	33 c8		 xor	 ecx, eax
  00014	e8 00 00 00 00	 call	 @__security_check_cookie@4
  00019	b8 00 00 00 00	 mov	 eax, OFFSET __ehfuncinfo$??E?$_Tree_const_iterator@V?$_Tree_val@U?$_Tree_simple_types@U?$pair@$$CBV?$basic_string@DU?$char_traits@D@std@@V?$allocator@D@2@@std@@P6APAXXZ@std@@@std@@@std@@@std@@QAE?AV01@H@Z
  0001e	e9 00 00 00 00	 jmp	 ___CxxFrameHandler3
text$x	ENDS
??E?$_Tree_const_iterator@V?$_Tree_val@U?$_Tree_simple_types@U?$pair@$$CBV?$basic_string@DU?$char_traits@D@std@@V?$allocator@D@2@@std@@P6APAXXZ@std@@@std@@@std@@@std@@QAE?AV01@H@Z ENDP ; std::_Tree_const_iterator<std::_Tree_val<std::_Tree_simple_types<std::pair<std::basic_string<char,std::char_traits<char>,std::allocator<char> > const ,void * (__cdecl*)(void)> > > >::operator++
; Function compile flags: /Odtp /RTCsu
; File c:\program files (x86)\microsoft visual studio 14.0\vc\include\xtree
;	COMDAT ?_Orphan_all@?$_Tree_comp_alloc@V?$_Tmap_traits@V?$basic_string@DU?$char_traits@D@std@@V?$allocator@D@2@@std@@P6APAXXZU?$less@V?$basic_string@DU?$char_traits@D@std@@V?$allocator@D@2@@std@@@2@V?$allocator@U?$pair@$$CBV?$basic_string@DU?$char_traits@D@std@@V?$allocator@D@2@@std@@P6APAXXZ@std@@@2@$0A@@std@@@std@@QAEXXZ
_TEXT	SEGMENT
_this$ = -4						; size = 4
?_Orphan_all@?$_Tree_comp_alloc@V?$_Tmap_traits@V?$basic_string@DU?$char_traits@D@std@@V?$allocator@D@2@@std@@P6APAXXZU?$less@V?$basic_string@DU?$char_traits@D@std@@V?$allocator@D@2@@std@@@2@V?$allocator@U?$pair@$$CBV?$basic_string@DU?$char_traits@D@std@@V?$allocator@D@2@@std@@P6APAXXZ@std@@@2@$0A@@std@@@std@@QAEXXZ PROC ; std::_Tree_comp_alloc<std::_Tmap_traits<std::basic_string<char,std::char_traits<char>,std::allocator<char> >,void * (__cdecl*)(void),std::less<std::basic_string<char,std::char_traits<char>,std::allocator<char> > >,std::allocator<std::pair<std::basic_string<char,std::char_traits<char>,std::allocator<char> > const ,void * (__cdecl*)(void)> >,0> >::_Orphan_all, COMDAT
; _this$ = ecx

; 814  : 		{	// orphan all iterators

  00000	55		 push	 ebp
  00001	8b ec		 mov	 ebp, esp
  00003	51		 push	 ecx
  00004	c7 45 fc cc cc
	cc cc		 mov	 DWORD PTR [ebp-4], -858993460 ; ccccccccH
  0000b	89 4d fc	 mov	 DWORD PTR _this$[ebp], ecx

; 815  : 		_Get_data()._Orphan_all();

  0000e	8b 4d fc	 mov	 ecx, DWORD PTR _this$[ebp]
  00011	e8 00 00 00 00	 call	 ?_Get_data@?$_Tree_comp_alloc@V?$_Tmap_traits@V?$basic_string@DU?$char_traits@D@std@@V?$allocator@D@2@@std@@P6APAXXZU?$less@V?$basic_string@DU?$char_traits@D@std@@V?$allocator@D@2@@std@@@2@V?$allocator@U?$pair@$$CBV?$basic_string@DU?$char_traits@D@std@@V?$allocator@D@2@@std@@P6APAXXZ@std@@@2@$0A@@std@@@std@@QAEAAV?$_Tree_val@U?$_Tree_simple_types@U?$pair@$$CBV?$basic_string@DU?$char_traits@D@std@@V?$allocator@D@2@@std@@P6APAXXZ@std@@@std@@@2@XZ ; std::_Tree_comp_alloc<std::_Tmap_traits<std::basic_string<char,std::char_traits<char>,std::allocator<char> >,void * (__cdecl*)(void),std::less<std::basic_string<char,std::char_traits<char>,std::allocator<char> > >,std::allocator<std::pair<std::basic_string<char,std::char_traits<char>,std::allocator<char> > const ,void * (__cdecl*)(void)> >,0> >::_Get_data
  00016	8b c8		 mov	 ecx, eax
  00018	e8 00 00 00 00	 call	 ?_Orphan_all@_Container_base12@std@@QAEXXZ ; std::_Container_base12::_Orphan_all

; 816  : 		}

  0001d	83 c4 04	 add	 esp, 4
  00020	3b ec		 cmp	 ebp, esp
  00022	e8 00 00 00 00	 call	 __RTC_CheckEsp
  00027	8b e5		 mov	 esp, ebp
  00029	5d		 pop	 ebp
  0002a	c3		 ret	 0
?_Orphan_all@?$_Tree_comp_alloc@V?$_Tmap_traits@V?$basic_string@DU?$char_traits@D@std@@V?$allocator@D@2@@std@@P6APAXXZU?$less@V?$basic_string@DU?$char_traits@D@std@@V?$allocator@D@2@@std@@@2@V?$allocator@U?$pair@$$CBV?$basic_string@DU?$char_traits@D@std@@V?$allocator@D@2@@std@@P6APAXXZ@std@@@2@$0A@@std@@@std@@QAEXXZ ENDP ; std::_Tree_comp_alloc<std::_Tmap_traits<std::basic_string<char,std::char_traits<char>,std::allocator<char> >,void * (__cdecl*)(void),std::less<std::basic_string<char,std::char_traits<char>,std::allocator<char> > >,std::allocator<std::pair<std::basic_string<char,std::char_traits<char>,std::allocator<char> > const ,void * (__cdecl*)(void)> >,0> >::_Orphan_all
_TEXT	ENDS
; Function compile flags: /Odtp /RTCsu
; File c:\program files (x86)\microsoft visual studio 14.0\vc\include\xtree
;	COMDAT ?_Myproxy@?$_Tree_comp_alloc@V?$_Tmap_traits@V?$basic_string@DU?$char_traits@D@std@@V?$allocator@D@2@@std@@P6APAXXZU?$less@V?$basic_string@DU?$char_traits@D@std@@V?$allocator@D@2@@std@@@2@V?$allocator@U?$pair@$$CBV?$basic_string@DU?$char_traits@D@std@@V?$allocator@D@2@@std@@P6APAXXZ@std@@@2@$0A@@std@@@std@@QAEAAPAU_Container_proxy@2@XZ
_TEXT	SEGMENT
_this$ = -4						; size = 4
?_Myproxy@?$_Tree_comp_alloc@V?$_Tmap_traits@V?$basic_string@DU?$char_traits@D@std@@V?$allocator@D@2@@std@@P6APAXXZU?$less@V?$basic_string@DU?$char_traits@D@std@@V?$allocator@D@2@@std@@@2@V?$allocator@U?$pair@$$CBV?$basic_string@DU?$char_traits@D@std@@V?$allocator@D@2@@std@@P6APAXXZ@std@@@2@$0A@@std@@@std@@QAEAAPAU_Container_proxy@2@XZ PROC ; std::_Tree_comp_alloc<std::_Tmap_traits<std::basic_string<char,std::char_traits<char>,std::allocator<char> >,void * (__cdecl*)(void),std::less<std::basic_string<char,std::char_traits<char>,std::allocator<char> > >,std::allocator<std::pair<std::basic_string<char,std::char_traits<char>,std::allocator<char> > const ,void * (__cdecl*)(void)> >,0> >::_Myproxy, COMDAT
; _this$ = ecx

; 803  : 		{	// return reference to _Myproxy

  00000	55		 push	 ebp
  00001	8b ec		 mov	 ebp, esp
  00003	51		 push	 ecx
  00004	c7 45 fc cc cc
	cc cc		 mov	 DWORD PTR [ebp-4], -858993460 ; ccccccccH
  0000b	89 4d fc	 mov	 DWORD PTR _this$[ebp], ecx

; 804  : 		return (_Get_data()._Myproxy);

  0000e	8b 4d fc	 mov	 ecx, DWORD PTR _this$[ebp]
  00011	e8 00 00 00 00	 call	 ?_Get_data@?$_Tree_comp_alloc@V?$_Tmap_traits@V?$basic_string@DU?$char_traits@D@std@@V?$allocator@D@2@@std@@P6APAXXZU?$less@V?$basic_string@DU?$char_traits@D@std@@V?$allocator@D@2@@std@@@2@V?$allocator@U?$pair@$$CBV?$basic_string@DU?$char_traits@D@std@@V?$allocator@D@2@@std@@P6APAXXZ@std@@@2@$0A@@std@@@std@@QAEAAV?$_Tree_val@U?$_Tree_simple_types@U?$pair@$$CBV?$basic_string@DU?$char_traits@D@std@@V?$allocator@D@2@@std@@P6APAXXZ@std@@@std@@@2@XZ ; std::_Tree_comp_alloc<std::_Tmap_traits<std::basic_string<char,std::char_traits<char>,std::allocator<char> >,void * (__cdecl*)(void),std::less<std::basic_string<char,std::char_traits<char>,std::allocator<char> > >,std::allocator<std::pair<std::basic_string<char,std::char_traits<char>,std::allocator<char> > const ,void * (__cdecl*)(void)> >,0> >::_Get_data

; 805  : 		}

  00016	83 c4 04	 add	 esp, 4
  00019	3b ec		 cmp	 ebp, esp
  0001b	e8 00 00 00 00	 call	 __RTC_CheckEsp
  00020	8b e5		 mov	 esp, ebp
  00022	5d		 pop	 ebp
  00023	c3		 ret	 0
?_Myproxy@?$_Tree_comp_alloc@V?$_Tmap_traits@V?$basic_string@DU?$char_traits@D@std@@V?$allocator@D@2@@std@@P6APAXXZU?$less@V?$basic_string@DU?$char_traits@D@std@@V?$allocator@D@2@@std@@@2@V?$allocator@U?$pair@$$CBV?$basic_string@DU?$char_traits@D@std@@V?$allocator@D@2@@std@@P6APAXXZ@std@@@2@$0A@@std@@@std@@QAEAAPAU_Container_proxy@2@XZ ENDP ; std::_Tree_comp_alloc<std::_Tmap_traits<std::basic_string<char,std::char_traits<char>,std::allocator<char> >,void * (__cdecl*)(void),std::less<std::basic_string<char,std::char_traits<char>,std::allocator<char> > >,std::allocator<std::pair<std::basic_string<char,std::char_traits<char>,std::allocator<char> > const ,void * (__cdecl*)(void)> >,0> >::_Myproxy
_TEXT	ENDS
; Function compile flags: /Odtp /RTCsu
; File c:\program files (x86)\microsoft visual studio 14.0\vc\include\xtree
;	COMDAT ?_Construct@?$_Tree_comp_alloc@V?$_Tmap_traits@V?$basic_string@DU?$char_traits@D@std@@V?$allocator@D@2@@std@@P6APAXXZU?$less@V?$basic_string@DU?$char_traits@D@std@@V?$allocator@D@2@@std@@@2@V?$allocator@U?$pair@$$CBV?$basic_string@DU?$char_traits@D@std@@V?$allocator@D@2@@std@@P6APAXXZ@std@@@2@$0A@@std@@@std@@QAEXXZ
_TEXT	SEGMENT
_this$ = -20						; size = 4
__$EHRec$ = -16						; size = 16
?_Construct@?$_Tree_comp_alloc@V?$_Tmap_traits@V?$basic_string@DU?$char_traits@D@std@@V?$allocator@D@2@@std@@P6APAXXZU?$less@V?$basic_string@DU?$char_traits@D@std@@V?$allocator@D@2@@std@@@2@V?$allocator@U?$pair@$$CBV?$basic_string@DU?$char_traits@D@std@@V?$allocator@D@2@@std@@P6APAXXZ@std@@@2@$0A@@std@@@std@@QAEXXZ PROC ; std::_Tree_comp_alloc<std::_Tmap_traits<std::basic_string<char,std::char_traits<char>,std::allocator<char> >,void * (__cdecl*)(void),std::less<std::basic_string<char,std::char_traits<char>,std::allocator<char> > >,std::allocator<std::pair<std::basic_string<char,std::char_traits<char>,std::allocator<char> > const ,void * (__cdecl*)(void)> >,0> >::_Construct, COMDAT
; _this$ = ecx

; 742  : 		{	// construct head node, proxy

  00000	55		 push	 ebp
  00001	8b ec		 mov	 ebp, esp
  00003	6a ff		 push	 -1
  00005	68 00 00 00 00	 push	 __ehhandler$?_Construct@?$_Tree_comp_alloc@V?$_Tmap_traits@V?$basic_string@DU?$char_traits@D@std@@V?$allocator@D@2@@std@@P6APAXXZU?$less@V?$basic_string@DU?$char_traits@D@std@@V?$allocator@D@2@@std@@@2@V?$allocator@U?$pair@$$CBV?$basic_string@DU?$char_traits@D@std@@V?$allocator@D@2@@std@@P6APAXXZ@std@@@2@$0A@@std@@@std@@QAEXXZ
  0000a	64 a1 00 00 00
	00		 mov	 eax, DWORD PTR fs:0
  00010	50		 push	 eax
  00011	51		 push	 ecx
  00012	51		 push	 ecx
  00013	53		 push	 ebx
  00014	56		 push	 esi
  00015	57		 push	 edi
  00016	c7 45 ec cc cc
	cc cc		 mov	 DWORD PTR [ebp-20], -858993460 ; ccccccccH
  0001d	a1 00 00 00 00	 mov	 eax, DWORD PTR ___security_cookie
  00022	33 c5		 xor	 eax, ebp
  00024	50		 push	 eax
  00025	8d 45 f4	 lea	 eax, DWORD PTR __$EHRec$[ebp+4]
  00028	64 a3 00 00 00
	00		 mov	 DWORD PTR fs:0, eax
  0002e	89 65 f0	 mov	 DWORD PTR __$EHRec$[ebp], esp
  00031	89 4d ec	 mov	 DWORD PTR _this$[ebp], ecx

; 743  : 		_Myhead() = _Buyheadnode();

  00034	8b 4d ec	 mov	 ecx, DWORD PTR _this$[ebp]
  00037	e8 00 00 00 00	 call	 ?_Buyheadnode@?$_Tree_comp_alloc@V?$_Tmap_traits@V?$basic_string@DU?$char_traits@D@std@@V?$allocator@D@2@@std@@P6APAXXZU?$less@V?$basic_string@DU?$char_traits@D@std@@V?$allocator@D@2@@std@@@2@V?$allocator@U?$pair@$$CBV?$basic_string@DU?$char_traits@D@std@@V?$allocator@D@2@@std@@P6APAXXZ@std@@@2@$0A@@std@@@std@@QAEPAU?$_Tree_node@U?$pair@$$CBV?$basic_string@DU?$char_traits@D@std@@V?$allocator@D@2@@std@@P6APAXXZ@std@@PAX@2@XZ ; std::_Tree_comp_alloc<std::_Tmap_traits<std::basic_string<char,std::char_traits<char>,std::allocator<char> >,void * (__cdecl*)(void),std::less<std::basic_string<char,std::char_traits<char>,std::allocator<char> > >,std::allocator<std::pair<std::basic_string<char,std::char_traits<char>,std::allocator<char> > const ,void * (__cdecl*)(void)> >,0> >::_Buyheadnode
  0003c	8b f0		 mov	 esi, eax
  0003e	8b 4d ec	 mov	 ecx, DWORD PTR _this$[ebp]
  00041	e8 00 00 00 00	 call	 ?_Myhead@?$_Tree_comp_alloc@V?$_Tmap_traits@V?$basic_string@DU?$char_traits@D@std@@V?$allocator@D@2@@std@@P6APAXXZU?$less@V?$basic_string@DU?$char_traits@D@std@@V?$allocator@D@2@@std@@@2@V?$allocator@U?$pair@$$CBV?$basic_string@DU?$char_traits@D@std@@V?$allocator@D@2@@std@@P6APAXXZ@std@@@2@$0A@@std@@@std@@QAEAAPAU?$_Tree_node@U?$pair@$$CBV?$basic_string@DU?$char_traits@D@std@@V?$allocator@D@2@@std@@P6APAXXZ@std@@PAX@2@XZ ; std::_Tree_comp_alloc<std::_Tmap_traits<std::basic_string<char,std::char_traits<char>,std::allocator<char> >,void * (__cdecl*)(void),std::less<std::basic_string<char,std::char_traits<char>,std::allocator<char> > >,std::allocator<std::pair<std::basic_string<char,std::char_traits<char>,std::allocator<char> > const ,void * (__cdecl*)(void)> >,0> >::_Myhead
  00046	89 30		 mov	 DWORD PTR [eax], esi

; 744  : 		_TRY_BEGIN

  00048	c7 45 fc 00 00
	00 00		 mov	 DWORD PTR __$EHRec$[ebp+12], 0

; 745  : 		_Alloc_proxy();

  0004f	8b 4d ec	 mov	 ecx, DWORD PTR _this$[ebp]
  00052	e8 00 00 00 00	 call	 ?_Alloc_proxy@?$_Tree_comp_alloc@V?$_Tmap_traits@V?$basic_string@DU?$char_traits@D@std@@V?$allocator@D@2@@std@@P6APAXXZU?$less@V?$basic_string@DU?$char_traits@D@std@@V?$allocator@D@2@@std@@@2@V?$allocator@U?$pair@$$CBV?$basic_string@DU?$char_traits@D@std@@V?$allocator@D@2@@std@@P6APAXXZ@std@@@2@$0A@@std@@@std@@QAEXXZ ; std::_Tree_comp_alloc<std::_Tmap_traits<std::basic_string<char,std::char_traits<char>,std::allocator<char> >,void * (__cdecl*)(void),std::less<std::basic_string<char,std::char_traits<char>,std::allocator<char> > >,std::allocator<std::pair<std::basic_string<char,std::char_traits<char>,std::allocator<char> > const ,void * (__cdecl*)(void)> >,0> >::_Alloc_proxy
  00057	eb 22		 jmp	 SHORT $LN4@Construct
__catch$?_Construct@?$_Tree_comp_alloc@V?$_Tmap_traits@V?$basic_string@DU?$char_traits@D@std@@V?$allocator@D@2@@std@@P6APAXXZU?$less@V?$basic_string@DU?$char_traits@D@std@@V?$allocator@D@2@@std@@@2@V?$allocator@U?$pair@$$CBV?$basic_string@DU?$char_traits@D@std@@V?$allocator@D@2@@std@@P6APAXXZ@std@@@2@$0A@@std@@@std@@QAEXXZ$0:

; 746  : 		_CATCH_ALL
; 747  : 		_Freeheadnode(_Myhead());

  00059	8b 4d ec	 mov	 ecx, DWORD PTR _this$[ebp]
  0005c	e8 00 00 00 00	 call	 ?_Myhead@?$_Tree_comp_alloc@V?$_Tmap_traits@V?$basic_string@DU?$char_traits@D@std@@V?$allocator@D@2@@std@@P6APAXXZU?$less@V?$basic_string@DU?$char_traits@D@std@@V?$allocator@D@2@@std@@@2@V?$allocator@U?$pair@$$CBV?$basic_string@DU?$char_traits@D@std@@V?$allocator@D@2@@std@@P6APAXXZ@std@@@2@$0A@@std@@@std@@QAEAAPAU?$_Tree_node@U?$pair@$$CBV?$basic_string@DU?$char_traits@D@std@@V?$allocator@D@2@@std@@P6APAXXZ@std@@PAX@2@XZ ; std::_Tree_comp_alloc<std::_Tmap_traits<std::basic_string<char,std::char_traits<char>,std::allocator<char> >,void * (__cdecl*)(void),std::less<std::basic_string<char,std::char_traits<char>,std::allocator<char> > >,std::allocator<std::pair<std::basic_string<char,std::char_traits<char>,std::allocator<char> > const ,void * (__cdecl*)(void)> >,0> >::_Myhead
  00061	8b 00		 mov	 eax, DWORD PTR [eax]
  00063	50		 push	 eax
  00064	8b 4d ec	 mov	 ecx, DWORD PTR _this$[ebp]
  00067	e8 00 00 00 00	 call	 ?_Freeheadnode@?$_Tree_comp_alloc@V?$_Tmap_traits@V?$basic_string@DU?$char_traits@D@std@@V?$allocator@D@2@@std@@P6APAXXZU?$less@V?$basic_string@DU?$char_traits@D@std@@V?$allocator@D@2@@std@@@2@V?$allocator@U?$pair@$$CBV?$basic_string@DU?$char_traits@D@std@@V?$allocator@D@2@@std@@P6APAXXZ@std@@@2@$0A@@std@@@std@@QAEXPAU?$_Tree_node@U?$pair@$$CBV?$basic_string@DU?$char_traits@D@std@@V?$allocator@D@2@@std@@P6APAXXZ@std@@PAX@2@@Z ; std::_Tree_comp_alloc<std::_Tmap_traits<std::basic_string<char,std::char_traits<char>,std::allocator<char> >,void * (__cdecl*)(void),std::less<std::basic_string<char,std::char_traits<char>,std::allocator<char> > >,std::allocator<std::pair<std::basic_string<char,std::char_traits<char>,std::allocator<char> > const ,void * (__cdecl*)(void)> >,0> >::_Freeheadnode

; 748  : 		_RERAISE;

  0006c	6a 00		 push	 0
  0006e	6a 00		 push	 0
  00070	e8 00 00 00 00	 call	 __CxxThrowException@8

; 749  : 		_CATCH_END

  00075	b8 00 00 00 00	 mov	 eax, $LN7@Construct
  0007a	c3		 ret	 0
$LN4@Construct:
  0007b	c7 45 fc ff ff
	ff ff		 mov	 DWORD PTR __$EHRec$[ebp+12], -1
  00082	eb 07		 jmp	 SHORT $LN3@Construct
$LN7@Construct:
  00084	c7 45 fc ff ff
	ff ff		 mov	 DWORD PTR __$EHRec$[ebp+12], -1
$LN3@Construct:

; 750  : 		}

  0008b	8b 4d f4	 mov	 ecx, DWORD PTR __$EHRec$[ebp+4]
  0008e	64 89 0d 00 00
	00 00		 mov	 DWORD PTR fs:0, ecx
  00095	59		 pop	 ecx
  00096	5f		 pop	 edi
  00097	5e		 pop	 esi
  00098	5b		 pop	 ebx
  00099	83 c4 14	 add	 esp, 20			; 00000014H
  0009c	3b ec		 cmp	 ebp, esp
  0009e	e8 00 00 00 00	 call	 __RTC_CheckEsp
  000a3	8b e5		 mov	 esp, ebp
  000a5	5d		 pop	 ebp
  000a6	c3		 ret	 0
_TEXT	ENDS
;	COMDAT text$x
text$x	SEGMENT
__ehhandler$?_Construct@?$_Tree_comp_alloc@V?$_Tmap_traits@V?$basic_string@DU?$char_traits@D@std@@V?$allocator@D@2@@std@@P6APAXXZU?$less@V?$basic_string@DU?$char_traits@D@std@@V?$allocator@D@2@@std@@@2@V?$allocator@U?$pair@$$CBV?$basic_string@DU?$char_traits@D@std@@V?$allocator@D@2@@std@@P6APAXXZ@std@@@2@$0A@@std@@@std@@QAEXXZ:
  00000	8b 54 24 08	 mov	 edx, DWORD PTR [esp+8]
  00004	8d 42 0c	 lea	 eax, DWORD PTR [edx+12]
  00007	8b 4a e8	 mov	 ecx, DWORD PTR [edx-24]
  0000a	33 c8		 xor	 ecx, eax
  0000c	e8 00 00 00 00	 call	 @__security_check_cookie@4
  00011	b8 00 00 00 00	 mov	 eax, OFFSET __ehfuncinfo$?_Construct@?$_Tree_comp_alloc@V?$_Tmap_traits@V?$basic_string@DU?$char_traits@D@std@@V?$allocator@D@2@@std@@P6APAXXZU?$less@V?$basic_string@DU?$char_traits@D@std@@V?$allocator@D@2@@std@@@2@V?$allocator@U?$pair@$$CBV?$basic_string@DU?$char_traits@D@std@@V?$allocator@D@2@@std@@P6APAXXZ@std@@@2@$0A@@std@@@std@@QAEXXZ
  00016	e9 00 00 00 00	 jmp	 ___CxxFrameHandler3
text$x	ENDS
?_Construct@?$_Tree_comp_alloc@V?$_Tmap_traits@V?$basic_string@DU?$char_traits@D@std@@V?$allocator@D@2@@std@@P6APAXXZU?$less@V?$basic_string@DU?$char_traits@D@std@@V?$allocator@D@2@@std@@@2@V?$allocator@U?$pair@$$CBV?$basic_string@DU?$char_traits@D@std@@V?$allocator@D@2@@std@@P6APAXXZ@std@@@2@$0A@@std@@@std@@QAEXXZ ENDP ; std::_Tree_comp_alloc<std::_Tmap_traits<std::basic_string<char,std::char_traits<char>,std::allocator<char> >,void * (__cdecl*)(void),std::less<std::basic_string<char,std::char_traits<char>,std::allocator<char> > >,std::allocator<std::pair<std::basic_string<char,std::char_traits<char>,std::allocator<char> > const ,void * (__cdecl*)(void)> >,0> >::_Construct
; Function compile flags: /Odtp /RTCsu
; File c:\program files (x86)\microsoft visual studio 14.0\vc\include\xtree
;	COMDAT ?clear@?$_Tree@V?$_Tmap_traits@V?$basic_string@DU?$char_traits@D@std@@V?$allocator@D@2@@std@@P6APAXXZU?$less@V?$basic_string@DU?$char_traits@D@std@@V?$allocator@D@2@@std@@@2@V?$allocator@U?$pair@$$CBV?$basic_string@DU?$char_traits@D@std@@V?$allocator@D@2@@std@@P6APAXXZ@std@@@2@$0A@@std@@@std@@QAEXXZ
_TEXT	SEGMENT
_this$ = -16						; size = 4
__$EHRec$ = -12						; size = 12
?clear@?$_Tree@V?$_Tmap_traits@V?$basic_string@DU?$char_traits@D@std@@V?$allocator@D@2@@std@@P6APAXXZU?$less@V?$basic_string@DU?$char_traits@D@std@@V?$allocator@D@2@@std@@@2@V?$allocator@U?$pair@$$CBV?$basic_string@DU?$char_traits@D@std@@V?$allocator@D@2@@std@@P6APAXXZ@std@@@2@$0A@@std@@@std@@QAEXXZ PROC ; std::_Tree<std::_Tmap_traits<std::basic_string<char,std::char_traits<char>,std::allocator<char> >,void * (__cdecl*)(void),std::less<std::basic_string<char,std::char_traits<char>,std::allocator<char> > >,std::allocator<std::pair<std::basic_string<char,std::char_traits<char>,std::allocator<char> > const ,void * (__cdecl*)(void)> >,0> >::clear, COMDAT
; _this$ = ecx

; 1472 : 		{	// erase all

  00000	55		 push	 ebp
  00001	8b ec		 mov	 ebp, esp
  00003	6a ff		 push	 -1
  00005	68 00 00 00 00	 push	 __ehhandler$?clear@?$_Tree@V?$_Tmap_traits@V?$basic_string@DU?$char_traits@D@std@@V?$allocator@D@2@@std@@P6APAXXZU?$less@V?$basic_string@DU?$char_traits@D@std@@V?$allocator@D@2@@std@@@2@V?$allocator@U?$pair@$$CBV?$basic_string@DU?$char_traits@D@std@@V?$allocator@D@2@@std@@P6APAXXZ@std@@@2@$0A@@std@@@std@@QAEXXZ
  0000a	64 a1 00 00 00
	00		 mov	 eax, DWORD PTR fs:0
  00010	50		 push	 eax
  00011	51		 push	 ecx
  00012	56		 push	 esi
  00013	c7 45 f0 cc cc
	cc cc		 mov	 DWORD PTR [ebp-16], -858993460 ; ccccccccH
  0001a	a1 00 00 00 00	 mov	 eax, DWORD PTR ___security_cookie
  0001f	33 c5		 xor	 eax, ebp
  00021	50		 push	 eax
  00022	8d 45 f4	 lea	 eax, DWORD PTR __$EHRec$[ebp]
  00025	64 a3 00 00 00
	00		 mov	 DWORD PTR fs:0, eax
  0002b	89 4d f0	 mov	 DWORD PTR _this$[ebp], ecx

; 1473 :  #if _ITERATOR_DEBUG_LEVEL == 2
; 1474 : 		this->_Orphan_ptr(0);

  0002e	6a 00		 push	 0
  00030	8b 4d f0	 mov	 ecx, DWORD PTR _this$[ebp]
  00033	e8 00 00 00 00	 call	 ?_Orphan_ptr@?$_Tree@V?$_Tmap_traits@V?$basic_string@DU?$char_traits@D@std@@V?$allocator@D@2@@std@@P6APAXXZU?$less@V?$basic_string@DU?$char_traits@D@std@@V?$allocator@D@2@@std@@@2@V?$allocator@U?$pair@$$CBV?$basic_string@DU?$char_traits@D@std@@V?$allocator@D@2@@std@@P6APAXXZ@std@@@2@$0A@@std@@@std@@IAEXPAU?$_Tree_node@U?$pair@$$CBV?$basic_string@DU?$char_traits@D@std@@V?$allocator@D@2@@std@@P6APAXXZ@std@@PAX@2@@Z ; std::_Tree<std::_Tmap_traits<std::basic_string<char,std::char_traits<char>,std::allocator<char> >,void * (__cdecl*)(void),std::less<std::basic_string<char,std::char_traits<char>,std::allocator<char> > >,std::allocator<std::pair<std::basic_string<char,std::char_traits<char>,std::allocator<char> > const ,void * (__cdecl*)(void)> >,0> >::_Orphan_ptr

; 1475 :  #endif /* _ITERATOR_DEBUG_LEVEL == 2 */
; 1476 : 
; 1477 : 		_Erase(_Root());

  00038	8b 4d f0	 mov	 ecx, DWORD PTR _this$[ebp]
  0003b	e8 00 00 00 00	 call	 ?_Root@?$_Tree@V?$_Tmap_traits@V?$basic_string@DU?$char_traits@D@std@@V?$allocator@D@2@@std@@P6APAXXZU?$less@V?$basic_string@DU?$char_traits@D@std@@V?$allocator@D@2@@std@@@2@V?$allocator@U?$pair@$$CBV?$basic_string@DU?$char_traits@D@std@@V?$allocator@D@2@@std@@P6APAXXZ@std@@@2@$0A@@std@@@std@@IBEAAPAU?$_Tree_node@U?$pair@$$CBV?$basic_string@DU?$char_traits@D@std@@V?$allocator@D@2@@std@@P6APAXXZ@std@@PAX@2@XZ ; std::_Tree<std::_Tmap_traits<std::basic_string<char,std::char_traits<char>,std::allocator<char> >,void * (__cdecl*)(void),std::less<std::basic_string<char,std::char_traits<char>,std::allocator<char> > >,std::allocator<std::pair<std::basic_string<char,std::char_traits<char>,std::allocator<char> > const ,void * (__cdecl*)(void)> >,0> >::_Root
  00040	8b 00		 mov	 eax, DWORD PTR [eax]
  00042	50		 push	 eax
  00043	8b 4d f0	 mov	 ecx, DWORD PTR _this$[ebp]
  00046	e8 00 00 00 00	 call	 ?_Erase@?$_Tree@V?$_Tmap_traits@V?$basic_string@DU?$char_traits@D@std@@V?$allocator@D@2@@std@@P6APAXXZU?$less@V?$basic_string@DU?$char_traits@D@std@@V?$allocator@D@2@@std@@@2@V?$allocator@U?$pair@$$CBV?$basic_string@DU?$char_traits@D@std@@V?$allocator@D@2@@std@@P6APAXXZ@std@@@2@$0A@@std@@@std@@IAEXPAU?$_Tree_node@U?$pair@$$CBV?$basic_string@DU?$char_traits@D@std@@V?$allocator@D@2@@std@@P6APAXXZ@std@@PAX@2@@Z ; std::_Tree<std::_Tmap_traits<std::basic_string<char,std::char_traits<char>,std::allocator<char> >,void * (__cdecl*)(void),std::less<std::basic_string<char,std::char_traits<char>,std::allocator<char> > >,std::allocator<std::pair<std::basic_string<char,std::char_traits<char>,std::allocator<char> > const ,void * (__cdecl*)(void)> >,0> >::_Erase

; 1478 : 		_Root() = this->_Myhead();

  0004b	8b 4d f0	 mov	 ecx, DWORD PTR _this$[ebp]
  0004e	e8 00 00 00 00	 call	 ?_Myhead@?$_Tree_comp_alloc@V?$_Tmap_traits@V?$basic_string@DU?$char_traits@D@std@@V?$allocator@D@2@@std@@P6APAXXZU?$less@V?$basic_string@DU?$char_traits@D@std@@V?$allocator@D@2@@std@@@2@V?$allocator@U?$pair@$$CBV?$basic_string@DU?$char_traits@D@std@@V?$allocator@D@2@@std@@P6APAXXZ@std@@@2@$0A@@std@@@std@@QAEAAPAU?$_Tree_node@U?$pair@$$CBV?$basic_string@DU?$char_traits@D@std@@V?$allocator@D@2@@std@@P6APAXXZ@std@@PAX@2@XZ ; std::_Tree_comp_alloc<std::_Tmap_traits<std::basic_string<char,std::char_traits<char>,std::allocator<char> >,void * (__cdecl*)(void),std::less<std::basic_string<char,std::char_traits<char>,std::allocator<char> > >,std::allocator<std::pair<std::basic_string<char,std::char_traits<char>,std::allocator<char> > const ,void * (__cdecl*)(void)> >,0> >::_Myhead
  00053	8b f0		 mov	 esi, eax
  00055	8b 4d f0	 mov	 ecx, DWORD PTR _this$[ebp]
  00058	e8 00 00 00 00	 call	 ?_Root@?$_Tree@V?$_Tmap_traits@V?$basic_string@DU?$char_traits@D@std@@V?$allocator@D@2@@std@@P6APAXXZU?$less@V?$basic_string@DU?$char_traits@D@std@@V?$allocator@D@2@@std@@@2@V?$allocator@U?$pair@$$CBV?$basic_string@DU?$char_traits@D@std@@V?$allocator@D@2@@std@@P6APAXXZ@std@@@2@$0A@@std@@@std@@IBEAAPAU?$_Tree_node@U?$pair@$$CBV?$basic_string@DU?$char_traits@D@std@@V?$allocator@D@2@@std@@P6APAXXZ@std@@PAX@2@XZ ; std::_Tree<std::_Tmap_traits<std::basic_string<char,std::char_traits<char>,std::allocator<char> >,void * (__cdecl*)(void),std::less<std::basic_string<char,std::char_traits<char>,std::allocator<char> > >,std::allocator<std::pair<std::basic_string<char,std::char_traits<char>,std::allocator<char> > const ,void * (__cdecl*)(void)> >,0> >::_Root
  0005d	8b 0e		 mov	 ecx, DWORD PTR [esi]
  0005f	89 08		 mov	 DWORD PTR [eax], ecx

; 1479 : 		_Lmost() = this->_Myhead();

  00061	8b 4d f0	 mov	 ecx, DWORD PTR _this$[ebp]
  00064	e8 00 00 00 00	 call	 ?_Myhead@?$_Tree_comp_alloc@V?$_Tmap_traits@V?$basic_string@DU?$char_traits@D@std@@V?$allocator@D@2@@std@@P6APAXXZU?$less@V?$basic_string@DU?$char_traits@D@std@@V?$allocator@D@2@@std@@@2@V?$allocator@U?$pair@$$CBV?$basic_string@DU?$char_traits@D@std@@V?$allocator@D@2@@std@@P6APAXXZ@std@@@2@$0A@@std@@@std@@QAEAAPAU?$_Tree_node@U?$pair@$$CBV?$basic_string@DU?$char_traits@D@std@@V?$allocator@D@2@@std@@P6APAXXZ@std@@PAX@2@XZ ; std::_Tree_comp_alloc<std::_Tmap_traits<std::basic_string<char,std::char_traits<char>,std::allocator<char> >,void * (__cdecl*)(void),std::less<std::basic_string<char,std::char_traits<char>,std::allocator<char> > >,std::allocator<std::pair<std::basic_string<char,std::char_traits<char>,std::allocator<char> > const ,void * (__cdecl*)(void)> >,0> >::_Myhead
  00069	8b f0		 mov	 esi, eax
  0006b	8b 4d f0	 mov	 ecx, DWORD PTR _this$[ebp]
  0006e	e8 00 00 00 00	 call	 ?_Lmost@?$_Tree@V?$_Tmap_traits@V?$basic_string@DU?$char_traits@D@std@@V?$allocator@D@2@@std@@P6APAXXZU?$less@V?$basic_string@DU?$char_traits@D@std@@V?$allocator@D@2@@std@@@2@V?$allocator@U?$pair@$$CBV?$basic_string@DU?$char_traits@D@std@@V?$allocator@D@2@@std@@P6APAXXZ@std@@@2@$0A@@std@@@std@@IBEAAPAU?$_Tree_node@U?$pair@$$CBV?$basic_string@DU?$char_traits@D@std@@V?$allocator@D@2@@std@@P6APAXXZ@std@@PAX@2@XZ ; std::_Tree<std::_Tmap_traits<std::basic_string<char,std::char_traits<char>,std::allocator<char> >,void * (__cdecl*)(void),std::less<std::basic_string<char,std::char_traits<char>,std::allocator<char> > >,std::allocator<std::pair<std::basic_string<char,std::char_traits<char>,std::allocator<char> > const ,void * (__cdecl*)(void)> >,0> >::_Lmost
  00073	8b 16		 mov	 edx, DWORD PTR [esi]
  00075	89 10		 mov	 DWORD PTR [eax], edx

; 1480 : 		_Rmost() = this->_Myhead();

  00077	8b 4d f0	 mov	 ecx, DWORD PTR _this$[ebp]
  0007a	e8 00 00 00 00	 call	 ?_Myhead@?$_Tree_comp_alloc@V?$_Tmap_traits@V?$basic_string@DU?$char_traits@D@std@@V?$allocator@D@2@@std@@P6APAXXZU?$less@V?$basic_string@DU?$char_traits@D@std@@V?$allocator@D@2@@std@@@2@V?$allocator@U?$pair@$$CBV?$basic_string@DU?$char_traits@D@std@@V?$allocator@D@2@@std@@P6APAXXZ@std@@@2@$0A@@std@@@std@@QAEAAPAU?$_Tree_node@U?$pair@$$CBV?$basic_string@DU?$char_traits@D@std@@V?$allocator@D@2@@std@@P6APAXXZ@std@@PAX@2@XZ ; std::_Tree_comp_alloc<std::_Tmap_traits<std::basic_string<char,std::char_traits<char>,std::allocator<char> >,void * (__cdecl*)(void),std::less<std::basic_string<char,std::char_traits<char>,std::allocator<char> > >,std::allocator<std::pair<std::basic_string<char,std::char_traits<char>,std::allocator<char> > const ,void * (__cdecl*)(void)> >,0> >::_Myhead
  0007f	8b f0		 mov	 esi, eax
  00081	8b 4d f0	 mov	 ecx, DWORD PTR _this$[ebp]
  00084	e8 00 00 00 00	 call	 ?_Rmost@?$_Tree@V?$_Tmap_traits@V?$basic_string@DU?$char_traits@D@std@@V?$allocator@D@2@@std@@P6APAXXZU?$less@V?$basic_string@DU?$char_traits@D@std@@V?$allocator@D@2@@std@@@2@V?$allocator@U?$pair@$$CBV?$basic_string@DU?$char_traits@D@std@@V?$allocator@D@2@@std@@P6APAXXZ@std@@@2@$0A@@std@@@std@@IBEAAPAU?$_Tree_node@U?$pair@$$CBV?$basic_string@DU?$char_traits@D@std@@V?$allocator@D@2@@std@@P6APAXXZ@std@@PAX@2@XZ ; std::_Tree<std::_Tmap_traits<std::basic_string<char,std::char_traits<char>,std::allocator<char> >,void * (__cdecl*)(void),std::less<std::basic_string<char,std::char_traits<char>,std::allocator<char> > >,std::allocator<std::pair<std::basic_string<char,std::char_traits<char>,std::allocator<char> > const ,void * (__cdecl*)(void)> >,0> >::_Rmost
  00089	8b 0e		 mov	 ecx, DWORD PTR [esi]
  0008b	89 08		 mov	 DWORD PTR [eax], ecx

; 1481 : 		this->_Mysize() = 0;

  0008d	8b 4d f0	 mov	 ecx, DWORD PTR _this$[ebp]
  00090	e8 00 00 00 00	 call	 ?_Mysize@?$_Tree_comp_alloc@V?$_Tmap_traits@V?$basic_string@DU?$char_traits@D@std@@V?$allocator@D@2@@std@@P6APAXXZU?$less@V?$basic_string@DU?$char_traits@D@std@@V?$allocator@D@2@@std@@@2@V?$allocator@U?$pair@$$CBV?$basic_string@DU?$char_traits@D@std@@V?$allocator@D@2@@std@@P6APAXXZ@std@@@2@$0A@@std@@@std@@QAEAAIXZ ; std::_Tree_comp_alloc<std::_Tmap_traits<std::basic_string<char,std::char_traits<char>,std::allocator<char> >,void * (__cdecl*)(void),std::less<std::basic_string<char,std::char_traits<char>,std::allocator<char> > >,std::allocator<std::pair<std::basic_string<char,std::char_traits<char>,std::allocator<char> > const ,void * (__cdecl*)(void)> >,0> >::_Mysize
  00095	c7 00 00 00 00
	00		 mov	 DWORD PTR [eax], 0

; 1482 : 		}

  0009b	8b 4d f4	 mov	 ecx, DWORD PTR __$EHRec$[ebp]
  0009e	64 89 0d 00 00
	00 00		 mov	 DWORD PTR fs:0, ecx
  000a5	59		 pop	 ecx
  000a6	5e		 pop	 esi
  000a7	83 c4 10	 add	 esp, 16			; 00000010H
  000aa	3b ec		 cmp	 ebp, esp
  000ac	e8 00 00 00 00	 call	 __RTC_CheckEsp
  000b1	8b e5		 mov	 esp, ebp
  000b3	5d		 pop	 ebp
  000b4	c3		 ret	 0
_TEXT	ENDS
;	COMDAT text$x
text$x	SEGMENT
__ehhandler$?clear@?$_Tree@V?$_Tmap_traits@V?$basic_string@DU?$char_traits@D@std@@V?$allocator@D@2@@std@@P6APAXXZU?$less@V?$basic_string@DU?$char_traits@D@std@@V?$allocator@D@2@@std@@@2@V?$allocator@U?$pair@$$CBV?$basic_string@DU?$char_traits@D@std@@V?$allocator@D@2@@std@@P6APAXXZ@std@@@2@$0A@@std@@@std@@QAEXXZ:
  00000	8b 54 24 08	 mov	 edx, DWORD PTR [esp+8]
  00004	8d 42 0c	 lea	 eax, DWORD PTR [edx+12]
  00007	8b 4a f4	 mov	 ecx, DWORD PTR [edx-12]
  0000a	33 c8		 xor	 ecx, eax
  0000c	e8 00 00 00 00	 call	 @__security_check_cookie@4
  00011	b8 00 00 00 00	 mov	 eax, OFFSET __ehfuncinfo$?clear@?$_Tree@V?$_Tmap_traits@V?$basic_string@DU?$char_traits@D@std@@V?$allocator@D@2@@std@@P6APAXXZU?$less@V?$basic_string@DU?$char_traits@D@std@@V?$allocator@D@2@@std@@@2@V?$allocator@U?$pair@$$CBV?$basic_string@DU?$char_traits@D@std@@V?$allocator@D@2@@std@@P6APAXXZ@std@@@2@$0A@@std@@@std@@QAEXXZ
  00016	e9 00 00 00 00	 jmp	 ___CxxFrameHandler3
text$x	ENDS
?clear@?$_Tree@V?$_Tmap_traits@V?$basic_string@DU?$char_traits@D@std@@V?$allocator@D@2@@std@@P6APAXXZU?$less@V?$basic_string@DU?$char_traits@D@std@@V?$allocator@D@2@@std@@@2@V?$allocator@U?$pair@$$CBV?$basic_string@DU?$char_traits@D@std@@V?$allocator@D@2@@std@@P6APAXXZ@std@@@2@$0A@@std@@@std@@QAEXXZ ENDP ; std::_Tree<std::_Tmap_traits<std::basic_string<char,std::char_traits<char>,std::allocator<char> >,void * (__cdecl*)(void),std::less<std::basic_string<char,std::char_traits<char>,std::allocator<char> > >,std::allocator<std::pair<std::basic_string<char,std::char_traits<char>,std::allocator<char> > const ,void * (__cdecl*)(void)> >,0> >::clear
; Function compile flags: /Odtp /RTCsu
; File c:\program files (x86)\microsoft visual studio 14.0\vc\include\xtree
;	COMDAT ?erase@?$_Tree@V?$_Tmap_traits@V?$basic_string@DU?$char_traits@D@std@@V?$allocator@D@2@@std@@P6APAXXZU?$less@V?$basic_string@DU?$char_traits@D@std@@V?$allocator@D@2@@std@@@2@V?$allocator@U?$pair@$$CBV?$basic_string@DU?$char_traits@D@std@@V?$allocator@D@2@@std@@P6APAXXZ@std@@@2@$0A@@std@@@std@@QAE?AV?$_Tree_iterator@V?$_Tree_val@U?$_Tree_simple_types@U?$pair@$$CBV?$basic_string@DU?$char_traits@D@std@@V?$allocator@D@2@@std@@P6APAXXZ@std@@@std@@@std@@@2@V?$_Tree_const_iterator@V?$_Tree_val@U?$_Tree_simple_types@U?$pair@$$CBV?$basic_string@DU?$char_traits@D@std@@V?$allocator@D@2@@std@@P6APAXXZ@std@@@std@@@std@@@2@@Z
_TEXT	SEGMENT
tv434 = -48						; size = 4
tv204 = -44						; size = 4
tv192 = -40						; size = 4
$T2 = -36						; size = 4
__Pnode$ = -32						; size = 4
__Fixnodeparent$ = -28					; size = 4
__Fixnode$ = -24					; size = 4
__Erasednode$ = -20					; size = 4
_this$ = -16						; size = 4
__$EHRec$ = -12						; size = 12
___$ReturnUdt$ = 8					; size = 4
__Where$ = 12						; size = 12
?erase@?$_Tree@V?$_Tmap_traits@V?$basic_string@DU?$char_traits@D@std@@V?$allocator@D@2@@std@@P6APAXXZU?$less@V?$basic_string@DU?$char_traits@D@std@@V?$allocator@D@2@@std@@@2@V?$allocator@U?$pair@$$CBV?$basic_string@DU?$char_traits@D@std@@V?$allocator@D@2@@std@@P6APAXXZ@std@@@2@$0A@@std@@@std@@QAE?AV?$_Tree_iterator@V?$_Tree_val@U?$_Tree_simple_types@U?$pair@$$CBV?$basic_string@DU?$char_traits@D@std@@V?$allocator@D@2@@std@@P6APAXXZ@std@@@std@@@std@@@2@V?$_Tree_const_iterator@V?$_Tree_val@U?$_Tree_simple_types@U?$pair@$$CBV?$basic_string@DU?$char_traits@D@std@@V?$allocator@D@2@@std@@P6APAXXZ@std@@@std@@@std@@@2@@Z PROC ; std::_Tree<std::_Tmap_traits<std::basic_string<char,std::char_traits<char>,std::allocator<char> >,void * (__cdecl*)(void),std::less<std::basic_string<char,std::char_traits<char>,std::allocator<char> > >,std::allocator<std::pair<std::basic_string<char,std::char_traits<char>,std::allocator<char> > const ,void * (__cdecl*)(void)> >,0> >::erase, COMDAT
; _this$ = ecx

; 1263 : 		{	// erase element at _Where

  00000	55		 push	 ebp
  00001	8b ec		 mov	 ebp, esp
  00003	6a ff		 push	 -1
  00005	68 00 00 00 00	 push	 __ehhandler$?erase@?$_Tree@V?$_Tmap_traits@V?$basic_string@DU?$char_traits@D@std@@V?$allocator@D@2@@std@@P6APAXXZU?$less@V?$basic_string@DU?$char_traits@D@std@@V?$allocator@D@2@@std@@@2@V?$allocator@U?$pair@$$CBV?$basic_string@DU?$char_traits@D@std@@V?$allocator@D@2@@std@@P6APAXXZ@std@@@2@$0A@@std@@@std@@QAE?AV?$_Tree_iterator@V?$_Tree_val@U?$_Tree_simple_types@U?$pair@$$CBV?$basic_string@DU?$char_traits@D@std@@V?$allocator@D@2@@std@@P6APAXXZ@std@@@std@@@std@@@2@V?$_Tree_const_iterator@V?$_Tree_val@U?$_Tree_simple_types@U?$pair@$$CBV?$basic_string@DU?$char_traits@D@std@@V?$allocator@D@2@@std@@P6APAXXZ@std@@@std@@@std@@@2@@Z
  0000a	64 a1 00 00 00
	00		 mov	 eax, DWORD PTR fs:0
  00010	50		 push	 eax
  00011	83 ec 24	 sub	 esp, 36			; 00000024H
  00014	56		 push	 esi
  00015	b8 cc cc cc cc	 mov	 eax, -858993460		; ccccccccH
  0001a	89 45 d0	 mov	 DWORD PTR [ebp-48], eax
  0001d	89 45 d4	 mov	 DWORD PTR [ebp-44], eax
  00020	89 45 d8	 mov	 DWORD PTR [ebp-40], eax
  00023	89 45 dc	 mov	 DWORD PTR [ebp-36], eax
  00026	89 45 e0	 mov	 DWORD PTR [ebp-32], eax
  00029	89 45 e4	 mov	 DWORD PTR [ebp-28], eax
  0002c	89 45 e8	 mov	 DWORD PTR [ebp-24], eax
  0002f	89 45 ec	 mov	 DWORD PTR [ebp-20], eax
  00032	89 45 f0	 mov	 DWORD PTR [ebp-16], eax
  00035	a1 00 00 00 00	 mov	 eax, DWORD PTR ___security_cookie
  0003a	33 c5		 xor	 eax, ebp
  0003c	50		 push	 eax
  0003d	8d 45 f4	 lea	 eax, DWORD PTR __$EHRec$[ebp]
  00040	64 a3 00 00 00
	00		 mov	 DWORD PTR fs:0, eax
  00046	89 4d f0	 mov	 DWORD PTR _this$[ebp], ecx
  00049	c7 45 dc 00 00
	00 00		 mov	 DWORD PTR $T2[ebp], 0
  00050	c7 45 fc 00 00
	00 00		 mov	 DWORD PTR __$EHRec$[ebp+8], 0

; 1264 :  #if _ITERATOR_DEBUG_LEVEL == 2
; 1265 : 		if (_Where._Getcont() != &this->_Get_data()
; 1266 : 			|| this->_Isnil(_Where._Mynode()))

  00057	8d 4d 0c	 lea	 ecx, DWORD PTR __Where$[ebp]
  0005a	e8 00 00 00 00	 call	 ?_Getcont@_Iterator_base12@std@@QBEPBU_Container_base12@2@XZ ; std::_Iterator_base12::_Getcont
  0005f	8b f0		 mov	 esi, eax
  00061	8b 4d f0	 mov	 ecx, DWORD PTR _this$[ebp]
  00064	e8 00 00 00 00	 call	 ?_Get_data@?$_Tree_comp_alloc@V?$_Tmap_traits@V?$basic_string@DU?$char_traits@D@std@@V?$allocator@D@2@@std@@P6APAXXZU?$less@V?$basic_string@DU?$char_traits@D@std@@V?$allocator@D@2@@std@@@2@V?$allocator@U?$pair@$$CBV?$basic_string@DU?$char_traits@D@std@@V?$allocator@D@2@@std@@P6APAXXZ@std@@@2@$0A@@std@@@std@@QAEAAV?$_Tree_val@U?$_Tree_simple_types@U?$pair@$$CBV?$basic_string@DU?$char_traits@D@std@@V?$allocator@D@2@@std@@P6APAXXZ@std@@@std@@@2@XZ ; std::_Tree_comp_alloc<std::_Tmap_traits<std::basic_string<char,std::char_traits<char>,std::allocator<char> >,void * (__cdecl*)(void),std::less<std::basic_string<char,std::char_traits<char>,std::allocator<char> > >,std::allocator<std::pair<std::basic_string<char,std::char_traits<char>,std::allocator<char> > const ,void * (__cdecl*)(void)> >,0> >::_Get_data
  00069	3b f0		 cmp	 esi, eax
  0006b	75 18		 jne	 SHORT $LN6@erase
  0006d	8d 4d 0c	 lea	 ecx, DWORD PTR __Where$[ebp]
  00070	e8 00 00 00 00	 call	 ?_Mynode@?$_Tree_unchecked_const_iterator@V?$_Tree_val@U?$_Tree_simple_types@U?$pair@$$CBV?$basic_string@DU?$char_traits@D@std@@V?$allocator@D@2@@std@@P6APAXXZ@std@@@std@@@std@@U_Iterator_base12@2@@std@@QBEPAU?$_Tree_node@U?$pair@$$CBV?$basic_string@DU?$char_traits@D@std@@V?$allocator@D@2@@std@@P6APAXXZ@std@@PAX@2@XZ ; std::_Tree_unchecked_const_iterator<std::_Tree_val<std::_Tree_simple_types<std::pair<std::basic_string<char,std::char_traits<char>,std::allocator<char> > const ,void * (__cdecl*)(void)> > >,std::_Iterator_base12>::_Mynode
  00075	50		 push	 eax
  00076	e8 00 00 00 00	 call	 ?_Isnil@?$_Tree_comp_alloc@V?$_Tmap_traits@V?$basic_string@DU?$char_traits@D@std@@V?$allocator@D@2@@std@@P6APAXXZU?$less@V?$basic_string@DU?$char_traits@D@std@@V?$allocator@D@2@@std@@@2@V?$allocator@U?$pair@$$CBV?$basic_string@DU?$char_traits@D@std@@V?$allocator@D@2@@std@@P6APAXXZ@std@@@2@$0A@@std@@@std@@SAAADPAU?$_Tree_node@U?$pair@$$CBV?$basic_string@DU?$char_traits@D@std@@V?$allocator@D@2@@std@@P6APAXXZ@std@@PAX@2@@Z ; std::_Tree_comp_alloc<std::_Tmap_traits<std::basic_string<char,std::char_traits<char>,std::allocator<char> >,void * (__cdecl*)(void),std::less<std::basic_string<char,std::char_traits<char>,std::allocator<char> > >,std::allocator<std::pair<std::basic_string<char,std::char_traits<char>,std::allocator<char> > const ,void * (__cdecl*)(void)> >,0> >::_Isnil
  0007b	83 c4 04	 add	 esp, 4
  0007e	0f be 00	 movsx	 eax, BYTE PTR [eax]
  00081	85 c0		 test	 eax, eax
  00083	74 21		 je	 SHORT $LN5@erase
$LN6@erase:

; 1267 : 			_DEBUG_ERROR("map/set erase iterator outside range");

  00085	8b f4		 mov	 esi, esp
  00087	68 f3 04 00 00	 push	 1267			; 000004f3H
  0008c	68 00 00 00 00	 push	 OFFSET ??_C@_1IK@BEABFJGP@?$AAC?$AA?3?$AA?2?$AAP?$AAr?$AAo?$AAg?$AAr?$AAa?$AAm?$AA?5?$AAF?$AAi?$AAl?$AAe?$AAs?$AA?5?$AA?$CI?$AAx?$AA8?$AA6?$AA?$CJ?$AA?2?$AAM?$AAi?$AAc?$AAr?$AAo?$AAs?$AAo?$AAf?$AAt@
  00091	68 00 00 00 00	 push	 OFFSET ??_C@_1EK@PPDBPCAN@?$AAm?$AAa?$AAp?$AA?1?$AAs?$AAe?$AAt?$AA?5?$AAe?$AAr?$AAa?$AAs?$AAe?$AA?5?$AAi?$AAt?$AAe?$AAr?$AAa?$AAt?$AAo?$AAr?$AA?5?$AAo?$AAu?$AAt?$AAs?$AAi?$AAd?$AAe?$AA?5?$AAr@
  00096	ff 15 00 00 00
	00		 call	 DWORD PTR __imp_?_Debug_message@std@@YAXPB_W0I@Z
  0009c	83 c4 0c	 add	 esp, 12			; 0000000cH
  0009f	3b f4		 cmp	 esi, esp
  000a1	e8 00 00 00 00	 call	 __RTC_CheckEsp
$LN5@erase:

; 1268 : 		_Nodeptr _Erasednode = _Where._Mynode();	// node to erase

  000a6	8d 4d 0c	 lea	 ecx, DWORD PTR __Where$[ebp]
  000a9	e8 00 00 00 00	 call	 ?_Mynode@?$_Tree_unchecked_const_iterator@V?$_Tree_val@U?$_Tree_simple_types@U?$pair@$$CBV?$basic_string@DU?$char_traits@D@std@@V?$allocator@D@2@@std@@P6APAXXZ@std@@@std@@@std@@U_Iterator_base12@2@@std@@QBEPAU?$_Tree_node@U?$pair@$$CBV?$basic_string@DU?$char_traits@D@std@@V?$allocator@D@2@@std@@P6APAXXZ@std@@PAX@2@XZ ; std::_Tree_unchecked_const_iterator<std::_Tree_val<std::_Tree_simple_types<std::pair<std::basic_string<char,std::char_traits<char>,std::allocator<char> > const ,void * (__cdecl*)(void)> > >,std::_Iterator_base12>::_Mynode
  000ae	89 45 ec	 mov	 DWORD PTR __Erasednode$[ebp], eax

; 1269 : 		++_Where;	// save successor iterator for return

  000b1	8d 4d 0c	 lea	 ecx, DWORD PTR __Where$[ebp]
  000b4	e8 00 00 00 00	 call	 ??E?$_Tree_const_iterator@V?$_Tree_val@U?$_Tree_simple_types@U?$pair@$$CBV?$basic_string@DU?$char_traits@D@std@@V?$allocator@D@2@@std@@P6APAXXZ@std@@@std@@@std@@@std@@QAEAAV01@XZ ; std::_Tree_const_iterator<std::_Tree_val<std::_Tree_simple_types<std::pair<std::basic_string<char,std::char_traits<char>,std::allocator<char> > const ,void * (__cdecl*)(void)> > > >::operator++

; 1270 : 		_Orphan_ptr(_Erasednode);

  000b9	8b 4d ec	 mov	 ecx, DWORD PTR __Erasednode$[ebp]
  000bc	51		 push	 ecx
  000bd	8b 4d f0	 mov	 ecx, DWORD PTR _this$[ebp]
  000c0	e8 00 00 00 00	 call	 ?_Orphan_ptr@?$_Tree@V?$_Tmap_traits@V?$basic_string@DU?$char_traits@D@std@@V?$allocator@D@2@@std@@P6APAXXZU?$less@V?$basic_string@DU?$char_traits@D@std@@V?$allocator@D@2@@std@@@2@V?$allocator@U?$pair@$$CBV?$basic_string@DU?$char_traits@D@std@@V?$allocator@D@2@@std@@P6APAXXZ@std@@@2@$0A@@std@@@std@@IAEXPAU?$_Tree_node@U?$pair@$$CBV?$basic_string@DU?$char_traits@D@std@@V?$allocator@D@2@@std@@P6APAXXZ@std@@PAX@2@@Z ; std::_Tree<std::_Tmap_traits<std::basic_string<char,std::char_traits<char>,std::allocator<char> >,void * (__cdecl*)(void),std::less<std::basic_string<char,std::char_traits<char>,std::allocator<char> > >,std::allocator<std::pair<std::basic_string<char,std::char_traits<char>,std::allocator<char> > const ,void * (__cdecl*)(void)> >,0> >::_Orphan_ptr

; 1271 : 
; 1272 :  #else /* _ITERATOR_DEBUG_LEVEL == 2 */
; 1273 : 		_Nodeptr _Erasednode = _Where._Mynode();	// node to erase
; 1274 : 		++_Where;	// save successor iterator for return
; 1275 :  #endif /* _ITERATOR_DEBUG_LEVEL == 2 */
; 1276 : 
; 1277 : 		_Nodeptr _Fixnode;	// the node to recolor as needed
; 1278 : 		_Nodeptr _Fixnodeparent;	// parent of _Fixnode (which may be nil)
; 1279 : 		_Nodeptr _Pnode = _Erasednode;

  000c5	8b 55 ec	 mov	 edx, DWORD PTR __Erasednode$[ebp]
  000c8	89 55 e0	 mov	 DWORD PTR __Pnode$[ebp], edx

; 1280 : 
; 1281 : 		if (this->_Isnil(this->_Left(_Pnode)))

  000cb	8b 45 e0	 mov	 eax, DWORD PTR __Pnode$[ebp]
  000ce	50		 push	 eax
  000cf	e8 00 00 00 00	 call	 ?_Left@?$_Tree_comp_alloc@V?$_Tmap_traits@V?$basic_string@DU?$char_traits@D@std@@V?$allocator@D@2@@std@@P6APAXXZU?$less@V?$basic_string@DU?$char_traits@D@std@@V?$allocator@D@2@@std@@@2@V?$allocator@U?$pair@$$CBV?$basic_string@DU?$char_traits@D@std@@V?$allocator@D@2@@std@@P6APAXXZ@std@@@2@$0A@@std@@@std@@SAAAPAU?$_Tree_node@U?$pair@$$CBV?$basic_string@DU?$char_traits@D@std@@V?$allocator@D@2@@std@@P6APAXXZ@std@@PAX@2@PAU32@@Z ; std::_Tree_comp_alloc<std::_Tmap_traits<std::basic_string<char,std::char_traits<char>,std::allocator<char> >,void * (__cdecl*)(void),std::less<std::basic_string<char,std::char_traits<char>,std::allocator<char> > >,std::allocator<std::pair<std::basic_string<char,std::char_traits<char>,std::allocator<char> > const ,void * (__cdecl*)(void)> >,0> >::_Left
  000d4	83 c4 04	 add	 esp, 4
  000d7	8b 08		 mov	 ecx, DWORD PTR [eax]
  000d9	51		 push	 ecx
  000da	e8 00 00 00 00	 call	 ?_Isnil@?$_Tree_comp_alloc@V?$_Tmap_traits@V?$basic_string@DU?$char_traits@D@std@@V?$allocator@D@2@@std@@P6APAXXZU?$less@V?$basic_string@DU?$char_traits@D@std@@V?$allocator@D@2@@std@@@2@V?$allocator@U?$pair@$$CBV?$basic_string@DU?$char_traits@D@std@@V?$allocator@D@2@@std@@P6APAXXZ@std@@@2@$0A@@std@@@std@@SAAADPAU?$_Tree_node@U?$pair@$$CBV?$basic_string@DU?$char_traits@D@std@@V?$allocator@D@2@@std@@P6APAXXZ@std@@PAX@2@@Z ; std::_Tree_comp_alloc<std::_Tmap_traits<std::basic_string<char,std::char_traits<char>,std::allocator<char> >,void * (__cdecl*)(void),std::less<std::basic_string<char,std::char_traits<char>,std::allocator<char> > >,std::allocator<std::pair<std::basic_string<char,std::char_traits<char>,std::allocator<char> > const ,void * (__cdecl*)(void)> >,0> >::_Isnil
  000df	83 c4 04	 add	 esp, 4
  000e2	0f be 10	 movsx	 edx, BYTE PTR [eax]
  000e5	85 d2		 test	 edx, edx
  000e7	74 13		 je	 SHORT $LN7@erase

; 1282 : 			_Fixnode = this->_Right(_Pnode);	// stitch up right subtree

  000e9	8b 45 e0	 mov	 eax, DWORD PTR __Pnode$[ebp]
  000ec	50		 push	 eax
  000ed	e8 00 00 00 00	 call	 ?_Right@?$_Tree_comp_alloc@V?$_Tmap_traits@V?$basic_string@DU?$char_traits@D@std@@V?$allocator@D@2@@std@@P6APAXXZU?$less@V?$basic_string@DU?$char_traits@D@std@@V?$allocator@D@2@@std@@@2@V?$allocator@U?$pair@$$CBV?$basic_string@DU?$char_traits@D@std@@V?$allocator@D@2@@std@@P6APAXXZ@std@@@2@$0A@@std@@@std@@SAAAPAU?$_Tree_node@U?$pair@$$CBV?$basic_string@DU?$char_traits@D@std@@V?$allocator@D@2@@std@@P6APAXXZ@std@@PAX@2@PAU32@@Z ; std::_Tree_comp_alloc<std::_Tmap_traits<std::basic_string<char,std::char_traits<char>,std::allocator<char> >,void * (__cdecl*)(void),std::less<std::basic_string<char,std::char_traits<char>,std::allocator<char> > >,std::allocator<std::pair<std::basic_string<char,std::char_traits<char>,std::allocator<char> > const ,void * (__cdecl*)(void)> >,0> >::_Right
  000f2	83 c4 04	 add	 esp, 4
  000f5	8b 08		 mov	 ecx, DWORD PTR [eax]
  000f7	89 4d e8	 mov	 DWORD PTR __Fixnode$[ebp], ecx
  000fa	eb 4d		 jmp	 SHORT $LN8@erase
$LN7@erase:

; 1283 : 		else if (this->_Isnil(this->_Right(_Pnode)))

  000fc	8b 55 e0	 mov	 edx, DWORD PTR __Pnode$[ebp]
  000ff	52		 push	 edx
  00100	e8 00 00 00 00	 call	 ?_Right@?$_Tree_comp_alloc@V?$_Tmap_traits@V?$basic_string@DU?$char_traits@D@std@@V?$allocator@D@2@@std@@P6APAXXZU?$less@V?$basic_string@DU?$char_traits@D@std@@V?$allocator@D@2@@std@@@2@V?$allocator@U?$pair@$$CBV?$basic_string@DU?$char_traits@D@std@@V?$allocator@D@2@@std@@P6APAXXZ@std@@@2@$0A@@std@@@std@@SAAAPAU?$_Tree_node@U?$pair@$$CBV?$basic_string@DU?$char_traits@D@std@@V?$allocator@D@2@@std@@P6APAXXZ@std@@PAX@2@PAU32@@Z ; std::_Tree_comp_alloc<std::_Tmap_traits<std::basic_string<char,std::char_traits<char>,std::allocator<char> >,void * (__cdecl*)(void),std::less<std::basic_string<char,std::char_traits<char>,std::allocator<char> > >,std::allocator<std::pair<std::basic_string<char,std::char_traits<char>,std::allocator<char> > const ,void * (__cdecl*)(void)> >,0> >::_Right
  00105	83 c4 04	 add	 esp, 4
  00108	8b 00		 mov	 eax, DWORD PTR [eax]
  0010a	50		 push	 eax
  0010b	e8 00 00 00 00	 call	 ?_Isnil@?$_Tree_comp_alloc@V?$_Tmap_traits@V?$basic_string@DU?$char_traits@D@std@@V?$allocator@D@2@@std@@P6APAXXZU?$less@V?$basic_string@DU?$char_traits@D@std@@V?$allocator@D@2@@std@@@2@V?$allocator@U?$pair@$$CBV?$basic_string@DU?$char_traits@D@std@@V?$allocator@D@2@@std@@P6APAXXZ@std@@@2@$0A@@std@@@std@@SAAADPAU?$_Tree_node@U?$pair@$$CBV?$basic_string@DU?$char_traits@D@std@@V?$allocator@D@2@@std@@P6APAXXZ@std@@PAX@2@@Z ; std::_Tree_comp_alloc<std::_Tmap_traits<std::basic_string<char,std::char_traits<char>,std::allocator<char> >,void * (__cdecl*)(void),std::less<std::basic_string<char,std::char_traits<char>,std::allocator<char> > >,std::allocator<std::pair<std::basic_string<char,std::char_traits<char>,std::allocator<char> > const ,void * (__cdecl*)(void)> >,0> >::_Isnil
  00110	83 c4 04	 add	 esp, 4
  00113	0f be 08	 movsx	 ecx, BYTE PTR [eax]
  00116	85 c9		 test	 ecx, ecx
  00118	74 13		 je	 SHORT $LN9@erase

; 1284 : 			_Fixnode = this->_Left(_Pnode);	// stitch up left subtree

  0011a	8b 55 e0	 mov	 edx, DWORD PTR __Pnode$[ebp]
  0011d	52		 push	 edx
  0011e	e8 00 00 00 00	 call	 ?_Left@?$_Tree_comp_alloc@V?$_Tmap_traits@V?$basic_string@DU?$char_traits@D@std@@V?$allocator@D@2@@std@@P6APAXXZU?$less@V?$basic_string@DU?$char_traits@D@std@@V?$allocator@D@2@@std@@@2@V?$allocator@U?$pair@$$CBV?$basic_string@DU?$char_traits@D@std@@V?$allocator@D@2@@std@@P6APAXXZ@std@@@2@$0A@@std@@@std@@SAAAPAU?$_Tree_node@U?$pair@$$CBV?$basic_string@DU?$char_traits@D@std@@V?$allocator@D@2@@std@@P6APAXXZ@std@@PAX@2@PAU32@@Z ; std::_Tree_comp_alloc<std::_Tmap_traits<std::basic_string<char,std::char_traits<char>,std::allocator<char> >,void * (__cdecl*)(void),std::less<std::basic_string<char,std::char_traits<char>,std::allocator<char> > >,std::allocator<std::pair<std::basic_string<char,std::char_traits<char>,std::allocator<char> > const ,void * (__cdecl*)(void)> >,0> >::_Left
  00123	83 c4 04	 add	 esp, 4
  00126	8b 00		 mov	 eax, DWORD PTR [eax]
  00128	89 45 e8	 mov	 DWORD PTR __Fixnode$[ebp], eax

; 1285 : 		else

  0012b	eb 1c		 jmp	 SHORT $LN8@erase
$LN9@erase:

; 1286 : 			{	// two subtrees, must lift successor node to replace erased
; 1287 : 			_Pnode = _Where._Mynode();	// _Pnode is successor node

  0012d	8d 4d 0c	 lea	 ecx, DWORD PTR __Where$[ebp]
  00130	e8 00 00 00 00	 call	 ?_Mynode@?$_Tree_unchecked_const_iterator@V?$_Tree_val@U?$_Tree_simple_types@U?$pair@$$CBV?$basic_string@DU?$char_traits@D@std@@V?$allocator@D@2@@std@@P6APAXXZ@std@@@std@@@std@@U_Iterator_base12@2@@std@@QBEPAU?$_Tree_node@U?$pair@$$CBV?$basic_string@DU?$char_traits@D@std@@V?$allocator@D@2@@std@@P6APAXXZ@std@@PAX@2@XZ ; std::_Tree_unchecked_const_iterator<std::_Tree_val<std::_Tree_simple_types<std::pair<std::basic_string<char,std::char_traits<char>,std::allocator<char> > const ,void * (__cdecl*)(void)> > >,std::_Iterator_base12>::_Mynode
  00135	89 45 e0	 mov	 DWORD PTR __Pnode$[ebp], eax

; 1288 : 			_Fixnode = this->_Right(_Pnode);	// _Fixnode is only subtree

  00138	8b 4d e0	 mov	 ecx, DWORD PTR __Pnode$[ebp]
  0013b	51		 push	 ecx
  0013c	e8 00 00 00 00	 call	 ?_Right@?$_Tree_comp_alloc@V?$_Tmap_traits@V?$basic_string@DU?$char_traits@D@std@@V?$allocator@D@2@@std@@P6APAXXZU?$less@V?$basic_string@DU?$char_traits@D@std@@V?$allocator@D@2@@std@@@2@V?$allocator@U?$pair@$$CBV?$basic_string@DU?$char_traits@D@std@@V?$allocator@D@2@@std@@P6APAXXZ@std@@@2@$0A@@std@@@std@@SAAAPAU?$_Tree_node@U?$pair@$$CBV?$basic_string@DU?$char_traits@D@std@@V?$allocator@D@2@@std@@P6APAXXZ@std@@PAX@2@PAU32@@Z ; std::_Tree_comp_alloc<std::_Tmap_traits<std::basic_string<char,std::char_traits<char>,std::allocator<char> >,void * (__cdecl*)(void),std::less<std::basic_string<char,std::char_traits<char>,std::allocator<char> > >,std::allocator<std::pair<std::basic_string<char,std::char_traits<char>,std::allocator<char> > const ,void * (__cdecl*)(void)> >,0> >::_Right
  00141	83 c4 04	 add	 esp, 4
  00144	8b 10		 mov	 edx, DWORD PTR [eax]
  00146	89 55 e8	 mov	 DWORD PTR __Fixnode$[ebp], edx
$LN8@erase:

; 1289 : 			}
; 1290 : 
; 1291 : 		if (_Pnode == _Erasednode)

  00149	8b 45 e0	 mov	 eax, DWORD PTR __Pnode$[ebp]
  0014c	3b 45 ec	 cmp	 eax, DWORD PTR __Erasednode$[ebp]
  0014f	0f 85 1b 01 00
	00		 jne	 $LN11@erase

; 1292 : 			{	// at most one subtree, relink it
; 1293 : 			_Fixnodeparent = this->_Parent(_Erasednode);

  00155	8b 4d ec	 mov	 ecx, DWORD PTR __Erasednode$[ebp]
  00158	51		 push	 ecx
  00159	e8 00 00 00 00	 call	 ?_Parent@?$_Tree_comp_alloc@V?$_Tmap_traits@V?$basic_string@DU?$char_traits@D@std@@V?$allocator@D@2@@std@@P6APAXXZU?$less@V?$basic_string@DU?$char_traits@D@std@@V?$allocator@D@2@@std@@@2@V?$allocator@U?$pair@$$CBV?$basic_string@DU?$char_traits@D@std@@V?$allocator@D@2@@std@@P6APAXXZ@std@@@2@$0A@@std@@@std@@SAAAPAU?$_Tree_node@U?$pair@$$CBV?$basic_string@DU?$char_traits@D@std@@V?$allocator@D@2@@std@@P6APAXXZ@std@@PAX@2@PAU32@@Z ; std::_Tree_comp_alloc<std::_Tmap_traits<std::basic_string<char,std::char_traits<char>,std::allocator<char> >,void * (__cdecl*)(void),std::less<std::basic_string<char,std::char_traits<char>,std::allocator<char> > >,std::allocator<std::pair<std::basic_string<char,std::char_traits<char>,std::allocator<char> > const ,void * (__cdecl*)(void)> >,0> >::_Parent
  0015e	83 c4 04	 add	 esp, 4
  00161	8b 10		 mov	 edx, DWORD PTR [eax]
  00163	89 55 e4	 mov	 DWORD PTR __Fixnodeparent$[ebp], edx

; 1294 : 			if (!this->_Isnil(_Fixnode))

  00166	8b 45 e8	 mov	 eax, DWORD PTR __Fixnode$[ebp]
  00169	50		 push	 eax
  0016a	e8 00 00 00 00	 call	 ?_Isnil@?$_Tree_comp_alloc@V?$_Tmap_traits@V?$basic_string@DU?$char_traits@D@std@@V?$allocator@D@2@@std@@P6APAXXZU?$less@V?$basic_string@DU?$char_traits@D@std@@V?$allocator@D@2@@std@@@2@V?$allocator@U?$pair@$$CBV?$basic_string@DU?$char_traits@D@std@@V?$allocator@D@2@@std@@P6APAXXZ@std@@@2@$0A@@std@@@std@@SAAADPAU?$_Tree_node@U?$pair@$$CBV?$basic_string@DU?$char_traits@D@std@@V?$allocator@D@2@@std@@P6APAXXZ@std@@PAX@2@@Z ; std::_Tree_comp_alloc<std::_Tmap_traits<std::basic_string<char,std::char_traits<char>,std::allocator<char> >,void * (__cdecl*)(void),std::less<std::basic_string<char,std::char_traits<char>,std::allocator<char> > >,std::allocator<std::pair<std::basic_string<char,std::char_traits<char>,std::allocator<char> > const ,void * (__cdecl*)(void)> >,0> >::_Isnil
  0016f	83 c4 04	 add	 esp, 4
  00172	0f be 08	 movsx	 ecx, BYTE PTR [eax]
  00175	85 c9		 test	 ecx, ecx
  00177	75 11		 jne	 SHORT $LN13@erase

; 1295 : 				this->_Parent(_Fixnode) = _Fixnodeparent;	// link up

  00179	8b 55 e8	 mov	 edx, DWORD PTR __Fixnode$[ebp]
  0017c	52		 push	 edx
  0017d	e8 00 00 00 00	 call	 ?_Parent@?$_Tree_comp_alloc@V?$_Tmap_traits@V?$basic_string@DU?$char_traits@D@std@@V?$allocator@D@2@@std@@P6APAXXZU?$less@V?$basic_string@DU?$char_traits@D@std@@V?$allocator@D@2@@std@@@2@V?$allocator@U?$pair@$$CBV?$basic_string@DU?$char_traits@D@std@@V?$allocator@D@2@@std@@P6APAXXZ@std@@@2@$0A@@std@@@std@@SAAAPAU?$_Tree_node@U?$pair@$$CBV?$basic_string@DU?$char_traits@D@std@@V?$allocator@D@2@@std@@P6APAXXZ@std@@PAX@2@PAU32@@Z ; std::_Tree_comp_alloc<std::_Tmap_traits<std::basic_string<char,std::char_traits<char>,std::allocator<char> >,void * (__cdecl*)(void),std::less<std::basic_string<char,std::char_traits<char>,std::allocator<char> > >,std::allocator<std::pair<std::basic_string<char,std::char_traits<char>,std::allocator<char> > const ,void * (__cdecl*)(void)> >,0> >::_Parent
  00182	83 c4 04	 add	 esp, 4
  00185	8b 4d e4	 mov	 ecx, DWORD PTR __Fixnodeparent$[ebp]
  00188	89 08		 mov	 DWORD PTR [eax], ecx
$LN13@erase:

; 1296 : 
; 1297 : 			if (_Root() == _Erasednode)

  0018a	8b 4d f0	 mov	 ecx, DWORD PTR _this$[ebp]
  0018d	e8 00 00 00 00	 call	 ?_Root@?$_Tree@V?$_Tmap_traits@V?$basic_string@DU?$char_traits@D@std@@V?$allocator@D@2@@std@@P6APAXXZU?$less@V?$basic_string@DU?$char_traits@D@std@@V?$allocator@D@2@@std@@@2@V?$allocator@U?$pair@$$CBV?$basic_string@DU?$char_traits@D@std@@V?$allocator@D@2@@std@@P6APAXXZ@std@@@2@$0A@@std@@@std@@IBEAAPAU?$_Tree_node@U?$pair@$$CBV?$basic_string@DU?$char_traits@D@std@@V?$allocator@D@2@@std@@P6APAXXZ@std@@PAX@2@XZ ; std::_Tree<std::_Tmap_traits<std::basic_string<char,std::char_traits<char>,std::allocator<char> >,void * (__cdecl*)(void),std::less<std::basic_string<char,std::char_traits<char>,std::allocator<char> > >,std::allocator<std::pair<std::basic_string<char,std::char_traits<char>,std::allocator<char> > const ,void * (__cdecl*)(void)> >,0> >::_Root
  00192	8b 10		 mov	 edx, DWORD PTR [eax]
  00194	3b 55 ec	 cmp	 edx, DWORD PTR __Erasednode$[ebp]
  00197	75 0f		 jne	 SHORT $LN14@erase

; 1298 : 				_Root() = _Fixnode;	// link down from root

  00199	8b 4d f0	 mov	 ecx, DWORD PTR _this$[ebp]
  0019c	e8 00 00 00 00	 call	 ?_Root@?$_Tree@V?$_Tmap_traits@V?$basic_string@DU?$char_traits@D@std@@V?$allocator@D@2@@std@@P6APAXXZU?$less@V?$basic_string@DU?$char_traits@D@std@@V?$allocator@D@2@@std@@@2@V?$allocator@U?$pair@$$CBV?$basic_string@DU?$char_traits@D@std@@V?$allocator@D@2@@std@@P6APAXXZ@std@@@2@$0A@@std@@@std@@IBEAAPAU?$_Tree_node@U?$pair@$$CBV?$basic_string@DU?$char_traits@D@std@@V?$allocator@D@2@@std@@P6APAXXZ@std@@PAX@2@XZ ; std::_Tree<std::_Tmap_traits<std::basic_string<char,std::char_traits<char>,std::allocator<char> >,void * (__cdecl*)(void),std::less<std::basic_string<char,std::char_traits<char>,std::allocator<char> > >,std::allocator<std::pair<std::basic_string<char,std::char_traits<char>,std::allocator<char> > const ,void * (__cdecl*)(void)> >,0> >::_Root
  001a1	8b 4d e8	 mov	 ecx, DWORD PTR __Fixnode$[ebp]
  001a4	89 08		 mov	 DWORD PTR [eax], ecx
  001a6	eb 37		 jmp	 SHORT $LN15@erase
$LN14@erase:

; 1299 : 			else if (this->_Left(_Fixnodeparent) == _Erasednode)

  001a8	8b 55 e4	 mov	 edx, DWORD PTR __Fixnodeparent$[ebp]
  001ab	52		 push	 edx
  001ac	e8 00 00 00 00	 call	 ?_Left@?$_Tree_comp_alloc@V?$_Tmap_traits@V?$basic_string@DU?$char_traits@D@std@@V?$allocator@D@2@@std@@P6APAXXZU?$less@V?$basic_string@DU?$char_traits@D@std@@V?$allocator@D@2@@std@@@2@V?$allocator@U?$pair@$$CBV?$basic_string@DU?$char_traits@D@std@@V?$allocator@D@2@@std@@P6APAXXZ@std@@@2@$0A@@std@@@std@@SAAAPAU?$_Tree_node@U?$pair@$$CBV?$basic_string@DU?$char_traits@D@std@@V?$allocator@D@2@@std@@P6APAXXZ@std@@PAX@2@PAU32@@Z ; std::_Tree_comp_alloc<std::_Tmap_traits<std::basic_string<char,std::char_traits<char>,std::allocator<char> >,void * (__cdecl*)(void),std::less<std::basic_string<char,std::char_traits<char>,std::allocator<char> > >,std::allocator<std::pair<std::basic_string<char,std::char_traits<char>,std::allocator<char> > const ,void * (__cdecl*)(void)> >,0> >::_Left
  001b1	83 c4 04	 add	 esp, 4
  001b4	8b 00		 mov	 eax, DWORD PTR [eax]
  001b6	3b 45 ec	 cmp	 eax, DWORD PTR __Erasednode$[ebp]
  001b9	75 13		 jne	 SHORT $LN16@erase

; 1300 : 				this->_Left(_Fixnodeparent) = _Fixnode;	// link down to left

  001bb	8b 4d e4	 mov	 ecx, DWORD PTR __Fixnodeparent$[ebp]
  001be	51		 push	 ecx
  001bf	e8 00 00 00 00	 call	 ?_Left@?$_Tree_comp_alloc@V?$_Tmap_traits@V?$basic_string@DU?$char_traits@D@std@@V?$allocator@D@2@@std@@P6APAXXZU?$less@V?$basic_string@DU?$char_traits@D@std@@V?$allocator@D@2@@std@@@2@V?$allocator@U?$pair@$$CBV?$basic_string@DU?$char_traits@D@std@@V?$allocator@D@2@@std@@P6APAXXZ@std@@@2@$0A@@std@@@std@@SAAAPAU?$_Tree_node@U?$pair@$$CBV?$basic_string@DU?$char_traits@D@std@@V?$allocator@D@2@@std@@P6APAXXZ@std@@PAX@2@PAU32@@Z ; std::_Tree_comp_alloc<std::_Tmap_traits<std::basic_string<char,std::char_traits<char>,std::allocator<char> >,void * (__cdecl*)(void),std::less<std::basic_string<char,std::char_traits<char>,std::allocator<char> > >,std::allocator<std::pair<std::basic_string<char,std::char_traits<char>,std::allocator<char> > const ,void * (__cdecl*)(void)> >,0> >::_Left
  001c4	83 c4 04	 add	 esp, 4
  001c7	8b 55 e8	 mov	 edx, DWORD PTR __Fixnode$[ebp]
  001ca	89 10		 mov	 DWORD PTR [eax], edx

; 1301 : 			else

  001cc	eb 11		 jmp	 SHORT $LN15@erase
$LN16@erase:

; 1302 : 				this->_Right(_Fixnodeparent) =

  001ce	8b 45 e4	 mov	 eax, DWORD PTR __Fixnodeparent$[ebp]
  001d1	50		 push	 eax
  001d2	e8 00 00 00 00	 call	 ?_Right@?$_Tree_comp_alloc@V?$_Tmap_traits@V?$basic_string@DU?$char_traits@D@std@@V?$allocator@D@2@@std@@P6APAXXZU?$less@V?$basic_string@DU?$char_traits@D@std@@V?$allocator@D@2@@std@@@2@V?$allocator@U?$pair@$$CBV?$basic_string@DU?$char_traits@D@std@@V?$allocator@D@2@@std@@P6APAXXZ@std@@@2@$0A@@std@@@std@@SAAAPAU?$_Tree_node@U?$pair@$$CBV?$basic_string@DU?$char_traits@D@std@@V?$allocator@D@2@@std@@P6APAXXZ@std@@PAX@2@PAU32@@Z ; std::_Tree_comp_alloc<std::_Tmap_traits<std::basic_string<char,std::char_traits<char>,std::allocator<char> >,void * (__cdecl*)(void),std::less<std::basic_string<char,std::char_traits<char>,std::allocator<char> > >,std::allocator<std::pair<std::basic_string<char,std::char_traits<char>,std::allocator<char> > const ,void * (__cdecl*)(void)> >,0> >::_Right
  001d7	83 c4 04	 add	 esp, 4
  001da	8b 4d e8	 mov	 ecx, DWORD PTR __Fixnode$[ebp]
  001dd	89 08		 mov	 DWORD PTR [eax], ecx
$LN15@erase:

; 1303 : 					_Fixnode;	// link down to right
; 1304 : 
; 1305 : 			if (_Lmost() == _Erasednode)

  001df	8b 4d f0	 mov	 ecx, DWORD PTR _this$[ebp]
  001e2	e8 00 00 00 00	 call	 ?_Lmost@?$_Tree@V?$_Tmap_traits@V?$basic_string@DU?$char_traits@D@std@@V?$allocator@D@2@@std@@P6APAXXZU?$less@V?$basic_string@DU?$char_traits@D@std@@V?$allocator@D@2@@std@@@2@V?$allocator@U?$pair@$$CBV?$basic_string@DU?$char_traits@D@std@@V?$allocator@D@2@@std@@P6APAXXZ@std@@@2@$0A@@std@@@std@@IBEAAPAU?$_Tree_node@U?$pair@$$CBV?$basic_string@DU?$char_traits@D@std@@V?$allocator@D@2@@std@@P6APAXXZ@std@@PAX@2@XZ ; std::_Tree<std::_Tmap_traits<std::basic_string<char,std::char_traits<char>,std::allocator<char> >,void * (__cdecl*)(void),std::less<std::basic_string<char,std::char_traits<char>,std::allocator<char> > >,std::allocator<std::pair<std::basic_string<char,std::char_traits<char>,std::allocator<char> > const ,void * (__cdecl*)(void)> >,0> >::_Lmost
  001e7	8b 10		 mov	 edx, DWORD PTR [eax]
  001e9	3b 55 ec	 cmp	 edx, DWORD PTR __Erasednode$[ebp]
  001ec	75 37		 jne	 SHORT $LN18@erase

; 1306 : 				_Lmost() = this->_Isnil(_Fixnode)

  001ee	8b 45 e8	 mov	 eax, DWORD PTR __Fixnode$[ebp]
  001f1	50		 push	 eax
  001f2	e8 00 00 00 00	 call	 ?_Isnil@?$_Tree_comp_alloc@V?$_Tmap_traits@V?$basic_string@DU?$char_traits@D@std@@V?$allocator@D@2@@std@@P6APAXXZU?$less@V?$basic_string@DU?$char_traits@D@std@@V?$allocator@D@2@@std@@@2@V?$allocator@U?$pair@$$CBV?$basic_string@DU?$char_traits@D@std@@V?$allocator@D@2@@std@@P6APAXXZ@std@@@2@$0A@@std@@@std@@SAAADPAU?$_Tree_node@U?$pair@$$CBV?$basic_string@DU?$char_traits@D@std@@V?$allocator@D@2@@std@@P6APAXXZ@std@@PAX@2@@Z ; std::_Tree_comp_alloc<std::_Tmap_traits<std::basic_string<char,std::char_traits<char>,std::allocator<char> >,void * (__cdecl*)(void),std::less<std::basic_string<char,std::char_traits<char>,std::allocator<char> > >,std::allocator<std::pair<std::basic_string<char,std::char_traits<char>,std::allocator<char> > const ,void * (__cdecl*)(void)> >,0> >::_Isnil
  001f7	83 c4 04	 add	 esp, 4
  001fa	0f be 08	 movsx	 ecx, BYTE PTR [eax]
  001fd	85 c9		 test	 ecx, ecx
  001ff	74 08		 je	 SHORT $LN44@erase
  00201	8b 55 e4	 mov	 edx, DWORD PTR __Fixnodeparent$[ebp]
  00204	89 55 d8	 mov	 DWORD PTR tv192[ebp], edx
  00207	eb 0f		 jmp	 SHORT $LN45@erase
$LN44@erase:
  00209	8b 45 e8	 mov	 eax, DWORD PTR __Fixnode$[ebp]
  0020c	50		 push	 eax
  0020d	e8 00 00 00 00	 call	 ?_Min@?$_Tree_comp_alloc@V?$_Tmap_traits@V?$basic_string@DU?$char_traits@D@std@@V?$allocator@D@2@@std@@P6APAXXZU?$less@V?$basic_string@DU?$char_traits@D@std@@V?$allocator@D@2@@std@@@2@V?$allocator@U?$pair@$$CBV?$basic_string@DU?$char_traits@D@std@@V?$allocator@D@2@@std@@P6APAXXZ@std@@@2@$0A@@std@@@std@@SAPAU?$_Tree_node@U?$pair@$$CBV?$basic_string@DU?$char_traits@D@std@@V?$allocator@D@2@@std@@P6APAXXZ@std@@PAX@2@PAU32@@Z ; std::_Tree_comp_alloc<std::_Tmap_traits<std::basic_string<char,std::char_traits<char>,std::allocator<char> >,void * (__cdecl*)(void),std::less<std::basic_string<char,std::char_traits<char>,std::allocator<char> > >,std::allocator<std::pair<std::basic_string<char,std::char_traits<char>,std::allocator<char> > const ,void * (__cdecl*)(void)> >,0> >::_Min
  00212	83 c4 04	 add	 esp, 4
  00215	89 45 d8	 mov	 DWORD PTR tv192[ebp], eax
$LN45@erase:
  00218	8b 4d f0	 mov	 ecx, DWORD PTR _this$[ebp]
  0021b	e8 00 00 00 00	 call	 ?_Lmost@?$_Tree@V?$_Tmap_traits@V?$basic_string@DU?$char_traits@D@std@@V?$allocator@D@2@@std@@P6APAXXZU?$less@V?$basic_string@DU?$char_traits@D@std@@V?$allocator@D@2@@std@@@2@V?$allocator@U?$pair@$$CBV?$basic_string@DU?$char_traits@D@std@@V?$allocator@D@2@@std@@P6APAXXZ@std@@@2@$0A@@std@@@std@@IBEAAPAU?$_Tree_node@U?$pair@$$CBV?$basic_string@DU?$char_traits@D@std@@V?$allocator@D@2@@std@@P6APAXXZ@std@@PAX@2@XZ ; std::_Tree<std::_Tmap_traits<std::basic_string<char,std::char_traits<char>,std::allocator<char> >,void * (__cdecl*)(void),std::less<std::basic_string<char,std::char_traits<char>,std::allocator<char> > >,std::allocator<std::pair<std::basic_string<char,std::char_traits<char>,std::allocator<char> > const ,void * (__cdecl*)(void)> >,0> >::_Lmost
  00220	8b 4d d8	 mov	 ecx, DWORD PTR tv192[ebp]
  00223	89 08		 mov	 DWORD PTR [eax], ecx
$LN18@erase:

; 1307 : 					? _Fixnodeparent	// smallest is parent of erased node
; 1308 : 					: this->_Min(_Fixnode);	// smallest in relinked subtree
; 1309 : 
; 1310 : 			if (_Rmost() == _Erasednode)

  00225	8b 4d f0	 mov	 ecx, DWORD PTR _this$[ebp]
  00228	e8 00 00 00 00	 call	 ?_Rmost@?$_Tree@V?$_Tmap_traits@V?$basic_string@DU?$char_traits@D@std@@V?$allocator@D@2@@std@@P6APAXXZU?$less@V?$basic_string@DU?$char_traits@D@std@@V?$allocator@D@2@@std@@@2@V?$allocator@U?$pair@$$CBV?$basic_string@DU?$char_traits@D@std@@V?$allocator@D@2@@std@@P6APAXXZ@std@@@2@$0A@@std@@@std@@IBEAAPAU?$_Tree_node@U?$pair@$$CBV?$basic_string@DU?$char_traits@D@std@@V?$allocator@D@2@@std@@P6APAXXZ@std@@PAX@2@XZ ; std::_Tree<std::_Tmap_traits<std::basic_string<char,std::char_traits<char>,std::allocator<char> >,void * (__cdecl*)(void),std::less<std::basic_string<char,std::char_traits<char>,std::allocator<char> > >,std::allocator<std::pair<std::basic_string<char,std::char_traits<char>,std::allocator<char> > const ,void * (__cdecl*)(void)> >,0> >::_Rmost
  0022d	8b 10		 mov	 edx, DWORD PTR [eax]
  0022f	3b 55 ec	 cmp	 edx, DWORD PTR __Erasednode$[ebp]
  00232	75 37		 jne	 SHORT $LN19@erase

; 1311 : 				_Rmost() = this->_Isnil(_Fixnode)

  00234	8b 45 e8	 mov	 eax, DWORD PTR __Fixnode$[ebp]
  00237	50		 push	 eax
  00238	e8 00 00 00 00	 call	 ?_Isnil@?$_Tree_comp_alloc@V?$_Tmap_traits@V?$basic_string@DU?$char_traits@D@std@@V?$allocator@D@2@@std@@P6APAXXZU?$less@V?$basic_string@DU?$char_traits@D@std@@V?$allocator@D@2@@std@@@2@V?$allocator@U?$pair@$$CBV?$basic_string@DU?$char_traits@D@std@@V?$allocator@D@2@@std@@P6APAXXZ@std@@@2@$0A@@std@@@std@@SAAADPAU?$_Tree_node@U?$pair@$$CBV?$basic_string@DU?$char_traits@D@std@@V?$allocator@D@2@@std@@P6APAXXZ@std@@PAX@2@@Z ; std::_Tree_comp_alloc<std::_Tmap_traits<std::basic_string<char,std::char_traits<char>,std::allocator<char> >,void * (__cdecl*)(void),std::less<std::basic_string<char,std::char_traits<char>,std::allocator<char> > >,std::allocator<std::pair<std::basic_string<char,std::char_traits<char>,std::allocator<char> > const ,void * (__cdecl*)(void)> >,0> >::_Isnil
  0023d	83 c4 04	 add	 esp, 4
  00240	0f be 08	 movsx	 ecx, BYTE PTR [eax]
  00243	85 c9		 test	 ecx, ecx
  00245	74 08		 je	 SHORT $LN46@erase
  00247	8b 55 e4	 mov	 edx, DWORD PTR __Fixnodeparent$[ebp]
  0024a	89 55 d4	 mov	 DWORD PTR tv204[ebp], edx
  0024d	eb 0f		 jmp	 SHORT $LN47@erase
$LN46@erase:
  0024f	8b 45 e8	 mov	 eax, DWORD PTR __Fixnode$[ebp]
  00252	50		 push	 eax
  00253	e8 00 00 00 00	 call	 ?_Max@?$_Tree_comp_alloc@V?$_Tmap_traits@V?$basic_string@DU?$char_traits@D@std@@V?$allocator@D@2@@std@@P6APAXXZU?$less@V?$basic_string@DU?$char_traits@D@std@@V?$allocator@D@2@@std@@@2@V?$allocator@U?$pair@$$CBV?$basic_string@DU?$char_traits@D@std@@V?$allocator@D@2@@std@@P6APAXXZ@std@@@2@$0A@@std@@@std@@SAPAU?$_Tree_node@U?$pair@$$CBV?$basic_string@DU?$char_traits@D@std@@V?$allocator@D@2@@std@@P6APAXXZ@std@@PAX@2@PAU32@@Z ; std::_Tree_comp_alloc<std::_Tmap_traits<std::basic_string<char,std::char_traits<char>,std::allocator<char> >,void * (__cdecl*)(void),std::less<std::basic_string<char,std::char_traits<char>,std::allocator<char> > >,std::allocator<std::pair<std::basic_string<char,std::char_traits<char>,std::allocator<char> > const ,void * (__cdecl*)(void)> >,0> >::_Max
  00258	83 c4 04	 add	 esp, 4
  0025b	89 45 d4	 mov	 DWORD PTR tv204[ebp], eax
$LN47@erase:
  0025e	8b 4d f0	 mov	 ecx, DWORD PTR _this$[ebp]
  00261	e8 00 00 00 00	 call	 ?_Rmost@?$_Tree@V?$_Tmap_traits@V?$basic_string@DU?$char_traits@D@std@@V?$allocator@D@2@@std@@P6APAXXZU?$less@V?$basic_string@DU?$char_traits@D@std@@V?$allocator@D@2@@std@@@2@V?$allocator@U?$pair@$$CBV?$basic_string@DU?$char_traits@D@std@@V?$allocator@D@2@@std@@P6APAXXZ@std@@@2@$0A@@std@@@std@@IBEAAPAU?$_Tree_node@U?$pair@$$CBV?$basic_string@DU?$char_traits@D@std@@V?$allocator@D@2@@std@@P6APAXXZ@std@@PAX@2@XZ ; std::_Tree<std::_Tmap_traits<std::basic_string<char,std::char_traits<char>,std::allocator<char> >,void * (__cdecl*)(void),std::less<std::basic_string<char,std::char_traits<char>,std::allocator<char> > >,std::allocator<std::pair<std::basic_string<char,std::char_traits<char>,std::allocator<char> > const ,void * (__cdecl*)(void)> >,0> >::_Rmost
  00266	8b 4d d4	 mov	 ecx, DWORD PTR tv204[ebp]
  00269	89 08		 mov	 DWORD PTR [eax], ecx
$LN19@erase:

; 1312 : 					? _Fixnodeparent	// largest is parent of erased node
; 1313 : 					: this->_Max(_Fixnode);	// largest in relinked subtree
; 1314 : 			}
; 1315 : 		else

  0026b	e9 8e 01 00 00	 jmp	 $LN12@erase
$LN11@erase:

; 1316 : 			{	// erased has two subtrees, _Pnode is successor to erased
; 1317 : 			this->_Parent(this->_Left(_Erasednode)) =

  00270	8b 55 ec	 mov	 edx, DWORD PTR __Erasednode$[ebp]
  00273	52		 push	 edx
  00274	e8 00 00 00 00	 call	 ?_Left@?$_Tree_comp_alloc@V?$_Tmap_traits@V?$basic_string@DU?$char_traits@D@std@@V?$allocator@D@2@@std@@P6APAXXZU?$less@V?$basic_string@DU?$char_traits@D@std@@V?$allocator@D@2@@std@@@2@V?$allocator@U?$pair@$$CBV?$basic_string@DU?$char_traits@D@std@@V?$allocator@D@2@@std@@P6APAXXZ@std@@@2@$0A@@std@@@std@@SAAAPAU?$_Tree_node@U?$pair@$$CBV?$basic_string@DU?$char_traits@D@std@@V?$allocator@D@2@@std@@P6APAXXZ@std@@PAX@2@PAU32@@Z ; std::_Tree_comp_alloc<std::_Tmap_traits<std::basic_string<char,std::char_traits<char>,std::allocator<char> >,void * (__cdecl*)(void),std::less<std::basic_string<char,std::char_traits<char>,std::allocator<char> > >,std::allocator<std::pair<std::basic_string<char,std::char_traits<char>,std::allocator<char> > const ,void * (__cdecl*)(void)> >,0> >::_Left
  00279	83 c4 04	 add	 esp, 4
  0027c	8b 00		 mov	 eax, DWORD PTR [eax]
  0027e	50		 push	 eax
  0027f	e8 00 00 00 00	 call	 ?_Parent@?$_Tree_comp_alloc@V?$_Tmap_traits@V?$basic_string@DU?$char_traits@D@std@@V?$allocator@D@2@@std@@P6APAXXZU?$less@V?$basic_string@DU?$char_traits@D@std@@V?$allocator@D@2@@std@@@2@V?$allocator@U?$pair@$$CBV?$basic_string@DU?$char_traits@D@std@@V?$allocator@D@2@@std@@P6APAXXZ@std@@@2@$0A@@std@@@std@@SAAAPAU?$_Tree_node@U?$pair@$$CBV?$basic_string@DU?$char_traits@D@std@@V?$allocator@D@2@@std@@P6APAXXZ@std@@PAX@2@PAU32@@Z ; std::_Tree_comp_alloc<std::_Tmap_traits<std::basic_string<char,std::char_traits<char>,std::allocator<char> >,void * (__cdecl*)(void),std::less<std::basic_string<char,std::char_traits<char>,std::allocator<char> > >,std::allocator<std::pair<std::basic_string<char,std::char_traits<char>,std::allocator<char> > const ,void * (__cdecl*)(void)> >,0> >::_Parent
  00284	83 c4 04	 add	 esp, 4
  00287	8b 4d e0	 mov	 ecx, DWORD PTR __Pnode$[ebp]
  0028a	89 08		 mov	 DWORD PTR [eax], ecx

; 1318 : 				_Pnode;	// link left up
; 1319 : 			this->_Left(_Pnode) =

  0028c	8b 55 ec	 mov	 edx, DWORD PTR __Erasednode$[ebp]
  0028f	52		 push	 edx
  00290	e8 00 00 00 00	 call	 ?_Left@?$_Tree_comp_alloc@V?$_Tmap_traits@V?$basic_string@DU?$char_traits@D@std@@V?$allocator@D@2@@std@@P6APAXXZU?$less@V?$basic_string@DU?$char_traits@D@std@@V?$allocator@D@2@@std@@@2@V?$allocator@U?$pair@$$CBV?$basic_string@DU?$char_traits@D@std@@V?$allocator@D@2@@std@@P6APAXXZ@std@@@2@$0A@@std@@@std@@SAAAPAU?$_Tree_node@U?$pair@$$CBV?$basic_string@DU?$char_traits@D@std@@V?$allocator@D@2@@std@@P6APAXXZ@std@@PAX@2@PAU32@@Z ; std::_Tree_comp_alloc<std::_Tmap_traits<std::basic_string<char,std::char_traits<char>,std::allocator<char> >,void * (__cdecl*)(void),std::less<std::basic_string<char,std::char_traits<char>,std::allocator<char> > >,std::allocator<std::pair<std::basic_string<char,std::char_traits<char>,std::allocator<char> > const ,void * (__cdecl*)(void)> >,0> >::_Left
  00295	83 c4 04	 add	 esp, 4
  00298	8b f0		 mov	 esi, eax
  0029a	8b 45 e0	 mov	 eax, DWORD PTR __Pnode$[ebp]
  0029d	50		 push	 eax
  0029e	e8 00 00 00 00	 call	 ?_Left@?$_Tree_comp_alloc@V?$_Tmap_traits@V?$basic_string@DU?$char_traits@D@std@@V?$allocator@D@2@@std@@P6APAXXZU?$less@V?$basic_string@DU?$char_traits@D@std@@V?$allocator@D@2@@std@@@2@V?$allocator@U?$pair@$$CBV?$basic_string@DU?$char_traits@D@std@@V?$allocator@D@2@@std@@P6APAXXZ@std@@@2@$0A@@std@@@std@@SAAAPAU?$_Tree_node@U?$pair@$$CBV?$basic_string@DU?$char_traits@D@std@@V?$allocator@D@2@@std@@P6APAXXZ@std@@PAX@2@PAU32@@Z ; std::_Tree_comp_alloc<std::_Tmap_traits<std::basic_string<char,std::char_traits<char>,std::allocator<char> >,void * (__cdecl*)(void),std::less<std::basic_string<char,std::char_traits<char>,std::allocator<char> > >,std::allocator<std::pair<std::basic_string<char,std::char_traits<char>,std::allocator<char> > const ,void * (__cdecl*)(void)> >,0> >::_Left
  002a3	83 c4 04	 add	 esp, 4
  002a6	8b 0e		 mov	 ecx, DWORD PTR [esi]
  002a8	89 08		 mov	 DWORD PTR [eax], ecx

; 1320 : 				this->_Left(_Erasednode);	// link successor down
; 1321 : 
; 1322 : 			if (_Pnode == this->_Right(_Erasednode))

  002aa	8b 55 ec	 mov	 edx, DWORD PTR __Erasednode$[ebp]
  002ad	52		 push	 edx
  002ae	e8 00 00 00 00	 call	 ?_Right@?$_Tree_comp_alloc@V?$_Tmap_traits@V?$basic_string@DU?$char_traits@D@std@@V?$allocator@D@2@@std@@P6APAXXZU?$less@V?$basic_string@DU?$char_traits@D@std@@V?$allocator@D@2@@std@@@2@V?$allocator@U?$pair@$$CBV?$basic_string@DU?$char_traits@D@std@@V?$allocator@D@2@@std@@P6APAXXZ@std@@@2@$0A@@std@@@std@@SAAAPAU?$_Tree_node@U?$pair@$$CBV?$basic_string@DU?$char_traits@D@std@@V?$allocator@D@2@@std@@P6APAXXZ@std@@PAX@2@PAU32@@Z ; std::_Tree_comp_alloc<std::_Tmap_traits<std::basic_string<char,std::char_traits<char>,std::allocator<char> >,void * (__cdecl*)(void),std::less<std::basic_string<char,std::char_traits<char>,std::allocator<char> > >,std::allocator<std::pair<std::basic_string<char,std::char_traits<char>,std::allocator<char> > const ,void * (__cdecl*)(void)> >,0> >::_Right
  002b3	83 c4 04	 add	 esp, 4
  002b6	8b 4d e0	 mov	 ecx, DWORD PTR __Pnode$[ebp]
  002b9	3b 08		 cmp	 ecx, DWORD PTR [eax]
  002bb	75 0b		 jne	 SHORT $LN20@erase

; 1323 : 				_Fixnodeparent = _Pnode;	// successor is next to erased

  002bd	8b 55 e0	 mov	 edx, DWORD PTR __Pnode$[ebp]
  002c0	89 55 e4	 mov	 DWORD PTR __Fixnodeparent$[ebp], edx

; 1324 : 			else

  002c3	e9 80 00 00 00	 jmp	 $LN21@erase
$LN20@erase:

; 1325 : 				{	// successor further down, link in place of erased
; 1326 : 				_Fixnodeparent =

  002c8	8b 45 e0	 mov	 eax, DWORD PTR __Pnode$[ebp]
  002cb	50		 push	 eax
  002cc	e8 00 00 00 00	 call	 ?_Parent@?$_Tree_comp_alloc@V?$_Tmap_traits@V?$basic_string@DU?$char_traits@D@std@@V?$allocator@D@2@@std@@P6APAXXZU?$less@V?$basic_string@DU?$char_traits@D@std@@V?$allocator@D@2@@std@@@2@V?$allocator@U?$pair@$$CBV?$basic_string@DU?$char_traits@D@std@@V?$allocator@D@2@@std@@P6APAXXZ@std@@@2@$0A@@std@@@std@@SAAAPAU?$_Tree_node@U?$pair@$$CBV?$basic_string@DU?$char_traits@D@std@@V?$allocator@D@2@@std@@P6APAXXZ@std@@PAX@2@PAU32@@Z ; std::_Tree_comp_alloc<std::_Tmap_traits<std::basic_string<char,std::char_traits<char>,std::allocator<char> >,void * (__cdecl*)(void),std::less<std::basic_string<char,std::char_traits<char>,std::allocator<char> > >,std::allocator<std::pair<std::basic_string<char,std::char_traits<char>,std::allocator<char> > const ,void * (__cdecl*)(void)> >,0> >::_Parent
  002d1	83 c4 04	 add	 esp, 4
  002d4	8b 08		 mov	 ecx, DWORD PTR [eax]
  002d6	89 4d e4	 mov	 DWORD PTR __Fixnodeparent$[ebp], ecx

; 1327 : 					this->_Parent(_Pnode);	// parent is successor's
; 1328 : 				if (!this->_Isnil(_Fixnode))

  002d9	8b 55 e8	 mov	 edx, DWORD PTR __Fixnode$[ebp]
  002dc	52		 push	 edx
  002dd	e8 00 00 00 00	 call	 ?_Isnil@?$_Tree_comp_alloc@V?$_Tmap_traits@V?$basic_string@DU?$char_traits@D@std@@V?$allocator@D@2@@std@@P6APAXXZU?$less@V?$basic_string@DU?$char_traits@D@std@@V?$allocator@D@2@@std@@@2@V?$allocator@U?$pair@$$CBV?$basic_string@DU?$char_traits@D@std@@V?$allocator@D@2@@std@@P6APAXXZ@std@@@2@$0A@@std@@@std@@SAAADPAU?$_Tree_node@U?$pair@$$CBV?$basic_string@DU?$char_traits@D@std@@V?$allocator@D@2@@std@@P6APAXXZ@std@@PAX@2@@Z ; std::_Tree_comp_alloc<std::_Tmap_traits<std::basic_string<char,std::char_traits<char>,std::allocator<char> >,void * (__cdecl*)(void),std::less<std::basic_string<char,std::char_traits<char>,std::allocator<char> > >,std::allocator<std::pair<std::basic_string<char,std::char_traits<char>,std::allocator<char> > const ,void * (__cdecl*)(void)> >,0> >::_Isnil
  002e2	83 c4 04	 add	 esp, 4
  002e5	0f be 00	 movsx	 eax, BYTE PTR [eax]
  002e8	85 c0		 test	 eax, eax
  002ea	75 11		 jne	 SHORT $LN22@erase

; 1329 : 					this->_Parent(_Fixnode) = _Fixnodeparent;	// link fix up

  002ec	8b 4d e8	 mov	 ecx, DWORD PTR __Fixnode$[ebp]
  002ef	51		 push	 ecx
  002f0	e8 00 00 00 00	 call	 ?_Parent@?$_Tree_comp_alloc@V?$_Tmap_traits@V?$basic_string@DU?$char_traits@D@std@@V?$allocator@D@2@@std@@P6APAXXZU?$less@V?$basic_string@DU?$char_traits@D@std@@V?$allocator@D@2@@std@@@2@V?$allocator@U?$pair@$$CBV?$basic_string@DU?$char_traits@D@std@@V?$allocator@D@2@@std@@P6APAXXZ@std@@@2@$0A@@std@@@std@@SAAAPAU?$_Tree_node@U?$pair@$$CBV?$basic_string@DU?$char_traits@D@std@@V?$allocator@D@2@@std@@P6APAXXZ@std@@PAX@2@PAU32@@Z ; std::_Tree_comp_alloc<std::_Tmap_traits<std::basic_string<char,std::char_traits<char>,std::allocator<char> >,void * (__cdecl*)(void),std::less<std::basic_string<char,std::char_traits<char>,std::allocator<char> > >,std::allocator<std::pair<std::basic_string<char,std::char_traits<char>,std::allocator<char> > const ,void * (__cdecl*)(void)> >,0> >::_Parent
  002f5	83 c4 04	 add	 esp, 4
  002f8	8b 55 e4	 mov	 edx, DWORD PTR __Fixnodeparent$[ebp]
  002fb	89 10		 mov	 DWORD PTR [eax], edx
$LN22@erase:

; 1330 : 				this->_Left(_Fixnodeparent) = _Fixnode;	// link fix down

  002fd	8b 45 e4	 mov	 eax, DWORD PTR __Fixnodeparent$[ebp]
  00300	50		 push	 eax
  00301	e8 00 00 00 00	 call	 ?_Left@?$_Tree_comp_alloc@V?$_Tmap_traits@V?$basic_string@DU?$char_traits@D@std@@V?$allocator@D@2@@std@@P6APAXXZU?$less@V?$basic_string@DU?$char_traits@D@std@@V?$allocator@D@2@@std@@@2@V?$allocator@U?$pair@$$CBV?$basic_string@DU?$char_traits@D@std@@V?$allocator@D@2@@std@@P6APAXXZ@std@@@2@$0A@@std@@@std@@SAAAPAU?$_Tree_node@U?$pair@$$CBV?$basic_string@DU?$char_traits@D@std@@V?$allocator@D@2@@std@@P6APAXXZ@std@@PAX@2@PAU32@@Z ; std::_Tree_comp_alloc<std::_Tmap_traits<std::basic_string<char,std::char_traits<char>,std::allocator<char> >,void * (__cdecl*)(void),std::less<std::basic_string<char,std::char_traits<char>,std::allocator<char> > >,std::allocator<std::pair<std::basic_string<char,std::char_traits<char>,std::allocator<char> > const ,void * (__cdecl*)(void)> >,0> >::_Left
  00306	83 c4 04	 add	 esp, 4
  00309	8b 4d e8	 mov	 ecx, DWORD PTR __Fixnode$[ebp]
  0030c	89 08		 mov	 DWORD PTR [eax], ecx

; 1331 : 				this->_Right(_Pnode) =

  0030e	8b 55 ec	 mov	 edx, DWORD PTR __Erasednode$[ebp]
  00311	52		 push	 edx
  00312	e8 00 00 00 00	 call	 ?_Right@?$_Tree_comp_alloc@V?$_Tmap_traits@V?$basic_string@DU?$char_traits@D@std@@V?$allocator@D@2@@std@@P6APAXXZU?$less@V?$basic_string@DU?$char_traits@D@std@@V?$allocator@D@2@@std@@@2@V?$allocator@U?$pair@$$CBV?$basic_string@DU?$char_traits@D@std@@V?$allocator@D@2@@std@@P6APAXXZ@std@@@2@$0A@@std@@@std@@SAAAPAU?$_Tree_node@U?$pair@$$CBV?$basic_string@DU?$char_traits@D@std@@V?$allocator@D@2@@std@@P6APAXXZ@std@@PAX@2@PAU32@@Z ; std::_Tree_comp_alloc<std::_Tmap_traits<std::basic_string<char,std::char_traits<char>,std::allocator<char> >,void * (__cdecl*)(void),std::less<std::basic_string<char,std::char_traits<char>,std::allocator<char> > >,std::allocator<std::pair<std::basic_string<char,std::char_traits<char>,std::allocator<char> > const ,void * (__cdecl*)(void)> >,0> >::_Right
  00317	83 c4 04	 add	 esp, 4
  0031a	8b f0		 mov	 esi, eax
  0031c	8b 45 e0	 mov	 eax, DWORD PTR __Pnode$[ebp]
  0031f	50		 push	 eax
  00320	e8 00 00 00 00	 call	 ?_Right@?$_Tree_comp_alloc@V?$_Tmap_traits@V?$basic_string@DU?$char_traits@D@std@@V?$allocator@D@2@@std@@P6APAXXZU?$less@V?$basic_string@DU?$char_traits@D@std@@V?$allocator@D@2@@std@@@2@V?$allocator@U?$pair@$$CBV?$basic_string@DU?$char_traits@D@std@@V?$allocator@D@2@@std@@P6APAXXZ@std@@@2@$0A@@std@@@std@@SAAAPAU?$_Tree_node@U?$pair@$$CBV?$basic_string@DU?$char_traits@D@std@@V?$allocator@D@2@@std@@P6APAXXZ@std@@PAX@2@PAU32@@Z ; std::_Tree_comp_alloc<std::_Tmap_traits<std::basic_string<char,std::char_traits<char>,std::allocator<char> >,void * (__cdecl*)(void),std::less<std::basic_string<char,std::char_traits<char>,std::allocator<char> > >,std::allocator<std::pair<std::basic_string<char,std::char_traits<char>,std::allocator<char> > const ,void * (__cdecl*)(void)> >,0> >::_Right
  00325	83 c4 04	 add	 esp, 4
  00328	8b 0e		 mov	 ecx, DWORD PTR [esi]
  0032a	89 08		 mov	 DWORD PTR [eax], ecx

; 1332 : 					this->_Right(_Erasednode);	// link next down
; 1333 : 				this->_Parent(this->_Right(_Erasednode)) =

  0032c	8b 55 ec	 mov	 edx, DWORD PTR __Erasednode$[ebp]
  0032f	52		 push	 edx
  00330	e8 00 00 00 00	 call	 ?_Right@?$_Tree_comp_alloc@V?$_Tmap_traits@V?$basic_string@DU?$char_traits@D@std@@V?$allocator@D@2@@std@@P6APAXXZU?$less@V?$basic_string@DU?$char_traits@D@std@@V?$allocator@D@2@@std@@@2@V?$allocator@U?$pair@$$CBV?$basic_string@DU?$char_traits@D@std@@V?$allocator@D@2@@std@@P6APAXXZ@std@@@2@$0A@@std@@@std@@SAAAPAU?$_Tree_node@U?$pair@$$CBV?$basic_string@DU?$char_traits@D@std@@V?$allocator@D@2@@std@@P6APAXXZ@std@@PAX@2@PAU32@@Z ; std::_Tree_comp_alloc<std::_Tmap_traits<std::basic_string<char,std::char_traits<char>,std::allocator<char> >,void * (__cdecl*)(void),std::less<std::basic_string<char,std::char_traits<char>,std::allocator<char> > >,std::allocator<std::pair<std::basic_string<char,std::char_traits<char>,std::allocator<char> > const ,void * (__cdecl*)(void)> >,0> >::_Right
  00335	83 c4 04	 add	 esp, 4
  00338	8b 00		 mov	 eax, DWORD PTR [eax]
  0033a	50		 push	 eax
  0033b	e8 00 00 00 00	 call	 ?_Parent@?$_Tree_comp_alloc@V?$_Tmap_traits@V?$basic_string@DU?$char_traits@D@std@@V?$allocator@D@2@@std@@P6APAXXZU?$less@V?$basic_string@DU?$char_traits@D@std@@V?$allocator@D@2@@std@@@2@V?$allocator@U?$pair@$$CBV?$basic_string@DU?$char_traits@D@std@@V?$allocator@D@2@@std@@P6APAXXZ@std@@@2@$0A@@std@@@std@@SAAAPAU?$_Tree_node@U?$pair@$$CBV?$basic_string@DU?$char_traits@D@std@@V?$allocator@D@2@@std@@P6APAXXZ@std@@PAX@2@PAU32@@Z ; std::_Tree_comp_alloc<std::_Tmap_traits<std::basic_string<char,std::char_traits<char>,std::allocator<char> >,void * (__cdecl*)(void),std::less<std::basic_string<char,std::char_traits<char>,std::allocator<char> > >,std::allocator<std::pair<std::basic_string<char,std::char_traits<char>,std::allocator<char> > const ,void * (__cdecl*)(void)> >,0> >::_Parent
  00340	83 c4 04	 add	 esp, 4
  00343	8b 4d e0	 mov	 ecx, DWORD PTR __Pnode$[ebp]
  00346	89 08		 mov	 DWORD PTR [eax], ecx
$LN21@erase:

; 1334 : 					_Pnode;	// right up
; 1335 : 				}
; 1336 : 
; 1337 : 			if (_Root() == _Erasednode)

  00348	8b 4d f0	 mov	 ecx, DWORD PTR _this$[ebp]
  0034b	e8 00 00 00 00	 call	 ?_Root@?$_Tree@V?$_Tmap_traits@V?$basic_string@DU?$char_traits@D@std@@V?$allocator@D@2@@std@@P6APAXXZU?$less@V?$basic_string@DU?$char_traits@D@std@@V?$allocator@D@2@@std@@@2@V?$allocator@U?$pair@$$CBV?$basic_string@DU?$char_traits@D@std@@V?$allocator@D@2@@std@@P6APAXXZ@std@@@2@$0A@@std@@@std@@IBEAAPAU?$_Tree_node@U?$pair@$$CBV?$basic_string@DU?$char_traits@D@std@@V?$allocator@D@2@@std@@P6APAXXZ@std@@PAX@2@XZ ; std::_Tree<std::_Tmap_traits<std::basic_string<char,std::char_traits<char>,std::allocator<char> >,void * (__cdecl*)(void),std::less<std::basic_string<char,std::char_traits<char>,std::allocator<char> > >,std::allocator<std::pair<std::basic_string<char,std::char_traits<char>,std::allocator<char> > const ,void * (__cdecl*)(void)> >,0> >::_Root
  00350	8b 10		 mov	 edx, DWORD PTR [eax]
  00352	3b 55 ec	 cmp	 edx, DWORD PTR __Erasednode$[ebp]
  00355	75 0f		 jne	 SHORT $LN23@erase

; 1338 : 				_Root() = _Pnode;	// link down from root

  00357	8b 4d f0	 mov	 ecx, DWORD PTR _this$[ebp]
  0035a	e8 00 00 00 00	 call	 ?_Root@?$_Tree@V?$_Tmap_traits@V?$basic_string@DU?$char_traits@D@std@@V?$allocator@D@2@@std@@P6APAXXZU?$less@V?$basic_string@DU?$char_traits@D@std@@V?$allocator@D@2@@std@@@2@V?$allocator@U?$pair@$$CBV?$basic_string@DU?$char_traits@D@std@@V?$allocator@D@2@@std@@P6APAXXZ@std@@@2@$0A@@std@@@std@@IBEAAPAU?$_Tree_node@U?$pair@$$CBV?$basic_string@DU?$char_traits@D@std@@V?$allocator@D@2@@std@@P6APAXXZ@std@@PAX@2@XZ ; std::_Tree<std::_Tmap_traits<std::basic_string<char,std::char_traits<char>,std::allocator<char> >,void * (__cdecl*)(void),std::less<std::basic_string<char,std::char_traits<char>,std::allocator<char> > >,std::allocator<std::pair<std::basic_string<char,std::char_traits<char>,std::allocator<char> > const ,void * (__cdecl*)(void)> >,0> >::_Root
  0035f	8b 4d e0	 mov	 ecx, DWORD PTR __Pnode$[ebp]
  00362	89 08		 mov	 DWORD PTR [eax], ecx
  00364	eb 58		 jmp	 SHORT $LN24@erase
$LN23@erase:

; 1339 : 			else if (this->_Left(this->_Parent(_Erasednode)) == _Erasednode)

  00366	8b 55 ec	 mov	 edx, DWORD PTR __Erasednode$[ebp]
  00369	52		 push	 edx
  0036a	e8 00 00 00 00	 call	 ?_Parent@?$_Tree_comp_alloc@V?$_Tmap_traits@V?$basic_string@DU?$char_traits@D@std@@V?$allocator@D@2@@std@@P6APAXXZU?$less@V?$basic_string@DU?$char_traits@D@std@@V?$allocator@D@2@@std@@@2@V?$allocator@U?$pair@$$CBV?$basic_string@DU?$char_traits@D@std@@V?$allocator@D@2@@std@@P6APAXXZ@std@@@2@$0A@@std@@@std@@SAAAPAU?$_Tree_node@U?$pair@$$CBV?$basic_string@DU?$char_traits@D@std@@V?$allocator@D@2@@std@@P6APAXXZ@std@@PAX@2@PAU32@@Z ; std::_Tree_comp_alloc<std::_Tmap_traits<std::basic_string<char,std::char_traits<char>,std::allocator<char> >,void * (__cdecl*)(void),std::less<std::basic_string<char,std::char_traits<char>,std::allocator<char> > >,std::allocator<std::pair<std::basic_string<char,std::char_traits<char>,std::allocator<char> > const ,void * (__cdecl*)(void)> >,0> >::_Parent
  0036f	83 c4 04	 add	 esp, 4
  00372	8b 00		 mov	 eax, DWORD PTR [eax]
  00374	50		 push	 eax
  00375	e8 00 00 00 00	 call	 ?_Left@?$_Tree_comp_alloc@V?$_Tmap_traits@V?$basic_string@DU?$char_traits@D@std@@V?$allocator@D@2@@std@@P6APAXXZU?$less@V?$basic_string@DU?$char_traits@D@std@@V?$allocator@D@2@@std@@@2@V?$allocator@U?$pair@$$CBV?$basic_string@DU?$char_traits@D@std@@V?$allocator@D@2@@std@@P6APAXXZ@std@@@2@$0A@@std@@@std@@SAAAPAU?$_Tree_node@U?$pair@$$CBV?$basic_string@DU?$char_traits@D@std@@V?$allocator@D@2@@std@@P6APAXXZ@std@@PAX@2@PAU32@@Z ; std::_Tree_comp_alloc<std::_Tmap_traits<std::basic_string<char,std::char_traits<char>,std::allocator<char> >,void * (__cdecl*)(void),std::less<std::basic_string<char,std::char_traits<char>,std::allocator<char> > >,std::allocator<std::pair<std::basic_string<char,std::char_traits<char>,std::allocator<char> > const ,void * (__cdecl*)(void)> >,0> >::_Left
  0037a	83 c4 04	 add	 esp, 4
  0037d	8b 08		 mov	 ecx, DWORD PTR [eax]
  0037f	3b 4d ec	 cmp	 ecx, DWORD PTR __Erasednode$[ebp]
  00382	75 1e		 jne	 SHORT $LN25@erase

; 1340 : 				this->_Left(this->_Parent(_Erasednode)) =

  00384	8b 55 ec	 mov	 edx, DWORD PTR __Erasednode$[ebp]
  00387	52		 push	 edx
  00388	e8 00 00 00 00	 call	 ?_Parent@?$_Tree_comp_alloc@V?$_Tmap_traits@V?$basic_string@DU?$char_traits@D@std@@V?$allocator@D@2@@std@@P6APAXXZU?$less@V?$basic_string@DU?$char_traits@D@std@@V?$allocator@D@2@@std@@@2@V?$allocator@U?$pair@$$CBV?$basic_string@DU?$char_traits@D@std@@V?$allocator@D@2@@std@@P6APAXXZ@std@@@2@$0A@@std@@@std@@SAAAPAU?$_Tree_node@U?$pair@$$CBV?$basic_string@DU?$char_traits@D@std@@V?$allocator@D@2@@std@@P6APAXXZ@std@@PAX@2@PAU32@@Z ; std::_Tree_comp_alloc<std::_Tmap_traits<std::basic_string<char,std::char_traits<char>,std::allocator<char> >,void * (__cdecl*)(void),std::less<std::basic_string<char,std::char_traits<char>,std::allocator<char> > >,std::allocator<std::pair<std::basic_string<char,std::char_traits<char>,std::allocator<char> > const ,void * (__cdecl*)(void)> >,0> >::_Parent
  0038d	83 c4 04	 add	 esp, 4
  00390	8b 00		 mov	 eax, DWORD PTR [eax]
  00392	50		 push	 eax
  00393	e8 00 00 00 00	 call	 ?_Left@?$_Tree_comp_alloc@V?$_Tmap_traits@V?$basic_string@DU?$char_traits@D@std@@V?$allocator@D@2@@std@@P6APAXXZU?$less@V?$basic_string@DU?$char_traits@D@std@@V?$allocator@D@2@@std@@@2@V?$allocator@U?$pair@$$CBV?$basic_string@DU?$char_traits@D@std@@V?$allocator@D@2@@std@@P6APAXXZ@std@@@2@$0A@@std@@@std@@SAAAPAU?$_Tree_node@U?$pair@$$CBV?$basic_string@DU?$char_traits@D@std@@V?$allocator@D@2@@std@@P6APAXXZ@std@@PAX@2@PAU32@@Z ; std::_Tree_comp_alloc<std::_Tmap_traits<std::basic_string<char,std::char_traits<char>,std::allocator<char> >,void * (__cdecl*)(void),std::less<std::basic_string<char,std::char_traits<char>,std::allocator<char> > >,std::allocator<std::pair<std::basic_string<char,std::char_traits<char>,std::allocator<char> > const ,void * (__cdecl*)(void)> >,0> >::_Left
  00398	83 c4 04	 add	 esp, 4
  0039b	8b 4d e0	 mov	 ecx, DWORD PTR __Pnode$[ebp]
  0039e	89 08		 mov	 DWORD PTR [eax], ecx

; 1341 : 					_Pnode;	// link down to left
; 1342 : 			else

  003a0	eb 1c		 jmp	 SHORT $LN24@erase
$LN25@erase:

; 1343 : 				this->_Right(this->_Parent(_Erasednode)) =

  003a2	8b 55 ec	 mov	 edx, DWORD PTR __Erasednode$[ebp]
  003a5	52		 push	 edx
  003a6	e8 00 00 00 00	 call	 ?_Parent@?$_Tree_comp_alloc@V?$_Tmap_traits@V?$basic_string@DU?$char_traits@D@std@@V?$allocator@D@2@@std@@P6APAXXZU?$less@V?$basic_string@DU?$char_traits@D@std@@V?$allocator@D@2@@std@@@2@V?$allocator@U?$pair@$$CBV?$basic_string@DU?$char_traits@D@std@@V?$allocator@D@2@@std@@P6APAXXZ@std@@@2@$0A@@std@@@std@@SAAAPAU?$_Tree_node@U?$pair@$$CBV?$basic_string@DU?$char_traits@D@std@@V?$allocator@D@2@@std@@P6APAXXZ@std@@PAX@2@PAU32@@Z ; std::_Tree_comp_alloc<std::_Tmap_traits<std::basic_string<char,std::char_traits<char>,std::allocator<char> >,void * (__cdecl*)(void),std::less<std::basic_string<char,std::char_traits<char>,std::allocator<char> > >,std::allocator<std::pair<std::basic_string<char,std::char_traits<char>,std::allocator<char> > const ,void * (__cdecl*)(void)> >,0> >::_Parent
  003ab	83 c4 04	 add	 esp, 4
  003ae	8b 00		 mov	 eax, DWORD PTR [eax]
  003b0	50		 push	 eax
  003b1	e8 00 00 00 00	 call	 ?_Right@?$_Tree_comp_alloc@V?$_Tmap_traits@V?$basic_string@DU?$char_traits@D@std@@V?$allocator@D@2@@std@@P6APAXXZU?$less@V?$basic_string@DU?$char_traits@D@std@@V?$allocator@D@2@@std@@@2@V?$allocator@U?$pair@$$CBV?$basic_string@DU?$char_traits@D@std@@V?$allocator@D@2@@std@@P6APAXXZ@std@@@2@$0A@@std@@@std@@SAAAPAU?$_Tree_node@U?$pair@$$CBV?$basic_string@DU?$char_traits@D@std@@V?$allocator@D@2@@std@@P6APAXXZ@std@@PAX@2@PAU32@@Z ; std::_Tree_comp_alloc<std::_Tmap_traits<std::basic_string<char,std::char_traits<char>,std::allocator<char> >,void * (__cdecl*)(void),std::less<std::basic_string<char,std::char_traits<char>,std::allocator<char> > >,std::allocator<std::pair<std::basic_string<char,std::char_traits<char>,std::allocator<char> > const ,void * (__cdecl*)(void)> >,0> >::_Right
  003b6	83 c4 04	 add	 esp, 4
  003b9	8b 4d e0	 mov	 ecx, DWORD PTR __Pnode$[ebp]
  003bc	89 08		 mov	 DWORD PTR [eax], ecx
$LN24@erase:

; 1344 : 					_Pnode;	// link down to right
; 1345 : 
; 1346 : 			this->_Parent(_Pnode) =

  003be	8b 55 ec	 mov	 edx, DWORD PTR __Erasednode$[ebp]
  003c1	52		 push	 edx
  003c2	e8 00 00 00 00	 call	 ?_Parent@?$_Tree_comp_alloc@V?$_Tmap_traits@V?$basic_string@DU?$char_traits@D@std@@V?$allocator@D@2@@std@@P6APAXXZU?$less@V?$basic_string@DU?$char_traits@D@std@@V?$allocator@D@2@@std@@@2@V?$allocator@U?$pair@$$CBV?$basic_string@DU?$char_traits@D@std@@V?$allocator@D@2@@std@@P6APAXXZ@std@@@2@$0A@@std@@@std@@SAAAPAU?$_Tree_node@U?$pair@$$CBV?$basic_string@DU?$char_traits@D@std@@V?$allocator@D@2@@std@@P6APAXXZ@std@@PAX@2@PAU32@@Z ; std::_Tree_comp_alloc<std::_Tmap_traits<std::basic_string<char,std::char_traits<char>,std::allocator<char> >,void * (__cdecl*)(void),std::less<std::basic_string<char,std::char_traits<char>,std::allocator<char> > >,std::allocator<std::pair<std::basic_string<char,std::char_traits<char>,std::allocator<char> > const ,void * (__cdecl*)(void)> >,0> >::_Parent
  003c7	83 c4 04	 add	 esp, 4
  003ca	8b f0		 mov	 esi, eax
  003cc	8b 45 e0	 mov	 eax, DWORD PTR __Pnode$[ebp]
  003cf	50		 push	 eax
  003d0	e8 00 00 00 00	 call	 ?_Parent@?$_Tree_comp_alloc@V?$_Tmap_traits@V?$basic_string@DU?$char_traits@D@std@@V?$allocator@D@2@@std@@P6APAXXZU?$less@V?$basic_string@DU?$char_traits@D@std@@V?$allocator@D@2@@std@@@2@V?$allocator@U?$pair@$$CBV?$basic_string@DU?$char_traits@D@std@@V?$allocator@D@2@@std@@P6APAXXZ@std@@@2@$0A@@std@@@std@@SAAAPAU?$_Tree_node@U?$pair@$$CBV?$basic_string@DU?$char_traits@D@std@@V?$allocator@D@2@@std@@P6APAXXZ@std@@PAX@2@PAU32@@Z ; std::_Tree_comp_alloc<std::_Tmap_traits<std::basic_string<char,std::char_traits<char>,std::allocator<char> >,void * (__cdecl*)(void),std::less<std::basic_string<char,std::char_traits<char>,std::allocator<char> > >,std::allocator<std::pair<std::basic_string<char,std::char_traits<char>,std::allocator<char> > const ,void * (__cdecl*)(void)> >,0> >::_Parent
  003d5	83 c4 04	 add	 esp, 4
  003d8	8b 0e		 mov	 ecx, DWORD PTR [esi]
  003da	89 08		 mov	 DWORD PTR [eax], ecx

; 1347 : 				this->_Parent(_Erasednode);	// link successor up
; 1348 : 			_STD swap(this->_Color(_Pnode),

  003dc	8b 55 ec	 mov	 edx, DWORD PTR __Erasednode$[ebp]
  003df	52		 push	 edx
  003e0	e8 00 00 00 00	 call	 ?_Color@?$_Tree_comp_alloc@V?$_Tmap_traits@V?$basic_string@DU?$char_traits@D@std@@V?$allocator@D@2@@std@@P6APAXXZU?$less@V?$basic_string@DU?$char_traits@D@std@@V?$allocator@D@2@@std@@@2@V?$allocator@U?$pair@$$CBV?$basic_string@DU?$char_traits@D@std@@V?$allocator@D@2@@std@@P6APAXXZ@std@@@2@$0A@@std@@@std@@SAAADPAU?$_Tree_node@U?$pair@$$CBV?$basic_string@DU?$char_traits@D@std@@V?$allocator@D@2@@std@@P6APAXXZ@std@@PAX@2@@Z ; std::_Tree_comp_alloc<std::_Tmap_traits<std::basic_string<char,std::char_traits<char>,std::allocator<char> >,void * (__cdecl*)(void),std::less<std::basic_string<char,std::char_traits<char>,std::allocator<char> > >,std::allocator<std::pair<std::basic_string<char,std::char_traits<char>,std::allocator<char> > const ,void * (__cdecl*)(void)> >,0> >::_Color
  003e5	83 c4 04	 add	 esp, 4
  003e8	50		 push	 eax
  003e9	8b 45 e0	 mov	 eax, DWORD PTR __Pnode$[ebp]
  003ec	50		 push	 eax
  003ed	e8 00 00 00 00	 call	 ?_Color@?$_Tree_comp_alloc@V?$_Tmap_traits@V?$basic_string@DU?$char_traits@D@std@@V?$allocator@D@2@@std@@P6APAXXZU?$less@V?$basic_string@DU?$char_traits@D@std@@V?$allocator@D@2@@std@@@2@V?$allocator@U?$pair@$$CBV?$basic_string@DU?$char_traits@D@std@@V?$allocator@D@2@@std@@P6APAXXZ@std@@@2@$0A@@std@@@std@@SAAADPAU?$_Tree_node@U?$pair@$$CBV?$basic_string@DU?$char_traits@D@std@@V?$allocator@D@2@@std@@P6APAXXZ@std@@PAX@2@@Z ; std::_Tree_comp_alloc<std::_Tmap_traits<std::basic_string<char,std::char_traits<char>,std::allocator<char> >,void * (__cdecl*)(void),std::less<std::basic_string<char,std::char_traits<char>,std::allocator<char> > >,std::allocator<std::pair<std::basic_string<char,std::char_traits<char>,std::allocator<char> > const ,void * (__cdecl*)(void)> >,0> >::_Color
  003f2	83 c4 04	 add	 esp, 4
  003f5	50		 push	 eax
  003f6	e8 00 00 00 00	 call	 ??$swap@D@std@@YAXAAD0@Z ; std::swap<char>
  003fb	83 c4 08	 add	 esp, 8
$LN12@erase:

; 1349 : 				this->_Color(_Erasednode));	// recolor it
; 1350 : 			}
; 1351 : 
; 1352 : 		if (this->_Color(_Erasednode) == this->_Black)

  003fe	8b 4d ec	 mov	 ecx, DWORD PTR __Erasednode$[ebp]
  00401	51		 push	 ecx
  00402	e8 00 00 00 00	 call	 ?_Color@?$_Tree_comp_alloc@V?$_Tmap_traits@V?$basic_string@DU?$char_traits@D@std@@V?$allocator@D@2@@std@@P6APAXXZU?$less@V?$basic_string@DU?$char_traits@D@std@@V?$allocator@D@2@@std@@@2@V?$allocator@U?$pair@$$CBV?$basic_string@DU?$char_traits@D@std@@V?$allocator@D@2@@std@@P6APAXXZ@std@@@2@$0A@@std@@@std@@SAAADPAU?$_Tree_node@U?$pair@$$CBV?$basic_string@DU?$char_traits@D@std@@V?$allocator@D@2@@std@@P6APAXXZ@std@@PAX@2@@Z ; std::_Tree_comp_alloc<std::_Tmap_traits<std::basic_string<char,std::char_traits<char>,std::allocator<char> >,void * (__cdecl*)(void),std::less<std::basic_string<char,std::char_traits<char>,std::allocator<char> > >,std::allocator<std::pair<std::basic_string<char,std::char_traits<char>,std::allocator<char> > const ,void * (__cdecl*)(void)> >,0> >::_Color
  00407	83 c4 04	 add	 esp, 4
  0040a	0f be 10	 movsx	 edx, BYTE PTR [eax]
  0040d	83 fa 01	 cmp	 edx, 1
  00410	0f 85 8f 03 00
	00		 jne	 $LN27@erase

; 1353 : 			{	// erasing black link, must recolor/rebalance tree
; 1354 : 			for (; _Fixnode != _Root()

  00416	eb 11		 jmp	 SHORT $LN4@erase
$LN2@erase:

; 1356 : 				_Fixnodeparent = this->_Parent(_Fixnode))

  00418	8b 45 e8	 mov	 eax, DWORD PTR __Fixnode$[ebp]
  0041b	50		 push	 eax
  0041c	e8 00 00 00 00	 call	 ?_Parent@?$_Tree_comp_alloc@V?$_Tmap_traits@V?$basic_string@DU?$char_traits@D@std@@V?$allocator@D@2@@std@@P6APAXXZU?$less@V?$basic_string@DU?$char_traits@D@std@@V?$allocator@D@2@@std@@@2@V?$allocator@U?$pair@$$CBV?$basic_string@DU?$char_traits@D@std@@V?$allocator@D@2@@std@@P6APAXXZ@std@@@2@$0A@@std@@@std@@SAAAPAU?$_Tree_node@U?$pair@$$CBV?$basic_string@DU?$char_traits@D@std@@V?$allocator@D@2@@std@@P6APAXXZ@std@@PAX@2@PAU32@@Z ; std::_Tree_comp_alloc<std::_Tmap_traits<std::basic_string<char,std::char_traits<char>,std::allocator<char> >,void * (__cdecl*)(void),std::less<std::basic_string<char,std::char_traits<char>,std::allocator<char> > >,std::allocator<std::pair<std::basic_string<char,std::char_traits<char>,std::allocator<char> > const ,void * (__cdecl*)(void)> >,0> >::_Parent
  00421	83 c4 04	 add	 esp, 4
  00424	8b 08		 mov	 ecx, DWORD PTR [eax]
  00426	89 4d e4	 mov	 DWORD PTR __Fixnodeparent$[ebp], ecx
$LN4@erase:

; 1355 : 				&& this->_Color(_Fixnode) == this->_Black;

  00429	8b 4d f0	 mov	 ecx, DWORD PTR _this$[ebp]
  0042c	e8 00 00 00 00	 call	 ?_Root@?$_Tree@V?$_Tmap_traits@V?$basic_string@DU?$char_traits@D@std@@V?$allocator@D@2@@std@@P6APAXXZU?$less@V?$basic_string@DU?$char_traits@D@std@@V?$allocator@D@2@@std@@@2@V?$allocator@U?$pair@$$CBV?$basic_string@DU?$char_traits@D@std@@V?$allocator@D@2@@std@@P6APAXXZ@std@@@2@$0A@@std@@@std@@IBEAAPAU?$_Tree_node@U?$pair@$$CBV?$basic_string@DU?$char_traits@D@std@@V?$allocator@D@2@@std@@P6APAXXZ@std@@PAX@2@XZ ; std::_Tree<std::_Tmap_traits<std::basic_string<char,std::char_traits<char>,std::allocator<char> >,void * (__cdecl*)(void),std::less<std::basic_string<char,std::char_traits<char>,std::allocator<char> > >,std::allocator<std::pair<std::basic_string<char,std::char_traits<char>,std::allocator<char> > const ,void * (__cdecl*)(void)> >,0> >::_Root
  00431	8b 55 e8	 mov	 edx, DWORD PTR __Fixnode$[ebp]
  00434	3b 10		 cmp	 edx, DWORD PTR [eax]
  00436	0f 84 5a 03 00
	00		 je	 $LN3@erase
  0043c	8b 45 e8	 mov	 eax, DWORD PTR __Fixnode$[ebp]
  0043f	50		 push	 eax
  00440	e8 00 00 00 00	 call	 ?_Color@?$_Tree_comp_alloc@V?$_Tmap_traits@V?$basic_string@DU?$char_traits@D@std@@V?$allocator@D@2@@std@@P6APAXXZU?$less@V?$basic_string@DU?$char_traits@D@std@@V?$allocator@D@2@@std@@@2@V?$allocator@U?$pair@$$CBV?$basic_string@DU?$char_traits@D@std@@V?$allocator@D@2@@std@@P6APAXXZ@std@@@2@$0A@@std@@@std@@SAAADPAU?$_Tree_node@U?$pair@$$CBV?$basic_string@DU?$char_traits@D@std@@V?$allocator@D@2@@std@@P6APAXXZ@std@@PAX@2@@Z ; std::_Tree_comp_alloc<std::_Tmap_traits<std::basic_string<char,std::char_traits<char>,std::allocator<char> >,void * (__cdecl*)(void),std::less<std::basic_string<char,std::char_traits<char>,std::allocator<char> > >,std::allocator<std::pair<std::basic_string<char,std::char_traits<char>,std::allocator<char> > const ,void * (__cdecl*)(void)> >,0> >::_Color
  00445	83 c4 04	 add	 esp, 4
  00448	0f be 08	 movsx	 ecx, BYTE PTR [eax]
  0044b	83 f9 01	 cmp	 ecx, 1
  0044e	0f 85 42 03 00
	00		 jne	 $LN3@erase

; 1357 : 				if (_Fixnode == this->_Left(_Fixnodeparent))

  00454	8b 55 e4	 mov	 edx, DWORD PTR __Fixnodeparent$[ebp]
  00457	52		 push	 edx
  00458	e8 00 00 00 00	 call	 ?_Left@?$_Tree_comp_alloc@V?$_Tmap_traits@V?$basic_string@DU?$char_traits@D@std@@V?$allocator@D@2@@std@@P6APAXXZU?$less@V?$basic_string@DU?$char_traits@D@std@@V?$allocator@D@2@@std@@@2@V?$allocator@U?$pair@$$CBV?$basic_string@DU?$char_traits@D@std@@V?$allocator@D@2@@std@@P6APAXXZ@std@@@2@$0A@@std@@@std@@SAAAPAU?$_Tree_node@U?$pair@$$CBV?$basic_string@DU?$char_traits@D@std@@V?$allocator@D@2@@std@@P6APAXXZ@std@@PAX@2@PAU32@@Z ; std::_Tree_comp_alloc<std::_Tmap_traits<std::basic_string<char,std::char_traits<char>,std::allocator<char> >,void * (__cdecl*)(void),std::less<std::basic_string<char,std::char_traits<char>,std::allocator<char> > >,std::allocator<std::pair<std::basic_string<char,std::char_traits<char>,std::allocator<char> > const ,void * (__cdecl*)(void)> >,0> >::_Left
  0045d	83 c4 04	 add	 esp, 4
  00460	8b 4d e8	 mov	 ecx, DWORD PTR __Fixnode$[ebp]
  00463	3b 08		 cmp	 ecx, DWORD PTR [eax]
  00465	0f 85 97 01 00
	00		 jne	 $LN28@erase

; 1358 : 					{	// fixup left subtree
; 1359 : 					_Pnode = this->_Right(_Fixnodeparent);

  0046b	8b 55 e4	 mov	 edx, DWORD PTR __Fixnodeparent$[ebp]
  0046e	52		 push	 edx
  0046f	e8 00 00 00 00	 call	 ?_Right@?$_Tree_comp_alloc@V?$_Tmap_traits@V?$basic_string@DU?$char_traits@D@std@@V?$allocator@D@2@@std@@P6APAXXZU?$less@V?$basic_string@DU?$char_traits@D@std@@V?$allocator@D@2@@std@@@2@V?$allocator@U?$pair@$$CBV?$basic_string@DU?$char_traits@D@std@@V?$allocator@D@2@@std@@P6APAXXZ@std@@@2@$0A@@std@@@std@@SAAAPAU?$_Tree_node@U?$pair@$$CBV?$basic_string@DU?$char_traits@D@std@@V?$allocator@D@2@@std@@P6APAXXZ@std@@PAX@2@PAU32@@Z ; std::_Tree_comp_alloc<std::_Tmap_traits<std::basic_string<char,std::char_traits<char>,std::allocator<char> >,void * (__cdecl*)(void),std::less<std::basic_string<char,std::char_traits<char>,std::allocator<char> > >,std::allocator<std::pair<std::basic_string<char,std::char_traits<char>,std::allocator<char> > const ,void * (__cdecl*)(void)> >,0> >::_Right
  00474	83 c4 04	 add	 esp, 4
  00477	8b 00		 mov	 eax, DWORD PTR [eax]
  00479	89 45 e0	 mov	 DWORD PTR __Pnode$[ebp], eax

; 1360 : 					if (this->_Color(_Pnode) == this->_Red)

  0047c	8b 4d e0	 mov	 ecx, DWORD PTR __Pnode$[ebp]
  0047f	51		 push	 ecx
  00480	e8 00 00 00 00	 call	 ?_Color@?$_Tree_comp_alloc@V?$_Tmap_traits@V?$basic_string@DU?$char_traits@D@std@@V?$allocator@D@2@@std@@P6APAXXZU?$less@V?$basic_string@DU?$char_traits@D@std@@V?$allocator@D@2@@std@@@2@V?$allocator@U?$pair@$$CBV?$basic_string@DU?$char_traits@D@std@@V?$allocator@D@2@@std@@P6APAXXZ@std@@@2@$0A@@std@@@std@@SAAADPAU?$_Tree_node@U?$pair@$$CBV?$basic_string@DU?$char_traits@D@std@@V?$allocator@D@2@@std@@P6APAXXZ@std@@PAX@2@@Z ; std::_Tree_comp_alloc<std::_Tmap_traits<std::basic_string<char,std::char_traits<char>,std::allocator<char> >,void * (__cdecl*)(void),std::less<std::basic_string<char,std::char_traits<char>,std::allocator<char> > >,std::allocator<std::pair<std::basic_string<char,std::char_traits<char>,std::allocator<char> > const ,void * (__cdecl*)(void)> >,0> >::_Color
  00485	83 c4 04	 add	 esp, 4
  00488	0f be 10	 movsx	 edx, BYTE PTR [eax]
  0048b	85 d2		 test	 edx, edx
  0048d	75 3b		 jne	 SHORT $LN30@erase

; 1361 : 						{	// rotate red up from right subtree
; 1362 : 						this->_Color(_Pnode) = this->_Black;

  0048f	8b 45 e0	 mov	 eax, DWORD PTR __Pnode$[ebp]
  00492	50		 push	 eax
  00493	e8 00 00 00 00	 call	 ?_Color@?$_Tree_comp_alloc@V?$_Tmap_traits@V?$basic_string@DU?$char_traits@D@std@@V?$allocator@D@2@@std@@P6APAXXZU?$less@V?$basic_string@DU?$char_traits@D@std@@V?$allocator@D@2@@std@@@2@V?$allocator@U?$pair@$$CBV?$basic_string@DU?$char_traits@D@std@@V?$allocator@D@2@@std@@P6APAXXZ@std@@@2@$0A@@std@@@std@@SAAADPAU?$_Tree_node@U?$pair@$$CBV?$basic_string@DU?$char_traits@D@std@@V?$allocator@D@2@@std@@P6APAXXZ@std@@PAX@2@@Z ; std::_Tree_comp_alloc<std::_Tmap_traits<std::basic_string<char,std::char_traits<char>,std::allocator<char> >,void * (__cdecl*)(void),std::less<std::basic_string<char,std::char_traits<char>,std::allocator<char> > >,std::allocator<std::pair<std::basic_string<char,std::char_traits<char>,std::allocator<char> > const ,void * (__cdecl*)(void)> >,0> >::_Color
  00498	83 c4 04	 add	 esp, 4
  0049b	c6 00 01	 mov	 BYTE PTR [eax], 1

; 1363 : 						this->_Color(_Fixnodeparent) = this->_Red;

  0049e	8b 4d e4	 mov	 ecx, DWORD PTR __Fixnodeparent$[ebp]
  004a1	51		 push	 ecx
  004a2	e8 00 00 00 00	 call	 ?_Color@?$_Tree_comp_alloc@V?$_Tmap_traits@V?$basic_string@DU?$char_traits@D@std@@V?$allocator@D@2@@std@@P6APAXXZU?$less@V?$basic_string@DU?$char_traits@D@std@@V?$allocator@D@2@@std@@@2@V?$allocator@U?$pair@$$CBV?$basic_string@DU?$char_traits@D@std@@V?$allocator@D@2@@std@@P6APAXXZ@std@@@2@$0A@@std@@@std@@SAAADPAU?$_Tree_node@U?$pair@$$CBV?$basic_string@DU?$char_traits@D@std@@V?$allocator@D@2@@std@@P6APAXXZ@std@@PAX@2@@Z ; std::_Tree_comp_alloc<std::_Tmap_traits<std::basic_string<char,std::char_traits<char>,std::allocator<char> >,void * (__cdecl*)(void),std::less<std::basic_string<char,std::char_traits<char>,std::allocator<char> > >,std::allocator<std::pair<std::basic_string<char,std::char_traits<char>,std::allocator<char> > const ,void * (__cdecl*)(void)> >,0> >::_Color
  004a7	83 c4 04	 add	 esp, 4
  004aa	c6 00 00	 mov	 BYTE PTR [eax], 0

; 1364 : 						_Lrotate(_Fixnodeparent);

  004ad	8b 55 e4	 mov	 edx, DWORD PTR __Fixnodeparent$[ebp]
  004b0	52		 push	 edx
  004b1	8b 4d f0	 mov	 ecx, DWORD PTR _this$[ebp]
  004b4	e8 00 00 00 00	 call	 ?_Lrotate@?$_Tree@V?$_Tmap_traits@V?$basic_string@DU?$char_traits@D@std@@V?$allocator@D@2@@std@@P6APAXXZU?$less@V?$basic_string@DU?$char_traits@D@std@@V?$allocator@D@2@@std@@@2@V?$allocator@U?$pair@$$CBV?$basic_string@DU?$char_traits@D@std@@V?$allocator@D@2@@std@@P6APAXXZ@std@@@2@$0A@@std@@@std@@IAEXPAU?$_Tree_node@U?$pair@$$CBV?$basic_string@DU?$char_traits@D@std@@V?$allocator@D@2@@std@@P6APAXXZ@std@@PAX@2@@Z ; std::_Tree<std::_Tmap_traits<std::basic_string<char,std::char_traits<char>,std::allocator<char> >,void * (__cdecl*)(void),std::less<std::basic_string<char,std::char_traits<char>,std::allocator<char> > >,std::allocator<std::pair<std::basic_string<char,std::char_traits<char>,std::allocator<char> > const ,void * (__cdecl*)(void)> >,0> >::_Lrotate

; 1365 : 						_Pnode = this->_Right(_Fixnodeparent);

  004b9	8b 45 e4	 mov	 eax, DWORD PTR __Fixnodeparent$[ebp]
  004bc	50		 push	 eax
  004bd	e8 00 00 00 00	 call	 ?_Right@?$_Tree_comp_alloc@V?$_Tmap_traits@V?$basic_string@DU?$char_traits@D@std@@V?$allocator@D@2@@std@@P6APAXXZU?$less@V?$basic_string@DU?$char_traits@D@std@@V?$allocator@D@2@@std@@@2@V?$allocator@U?$pair@$$CBV?$basic_string@DU?$char_traits@D@std@@V?$allocator@D@2@@std@@P6APAXXZ@std@@@2@$0A@@std@@@std@@SAAAPAU?$_Tree_node@U?$pair@$$CBV?$basic_string@DU?$char_traits@D@std@@V?$allocator@D@2@@std@@P6APAXXZ@std@@PAX@2@PAU32@@Z ; std::_Tree_comp_alloc<std::_Tmap_traits<std::basic_string<char,std::char_traits<char>,std::allocator<char> >,void * (__cdecl*)(void),std::less<std::basic_string<char,std::char_traits<char>,std::allocator<char> > >,std::allocator<std::pair<std::basic_string<char,std::char_traits<char>,std::allocator<char> > const ,void * (__cdecl*)(void)> >,0> >::_Right
  004c2	83 c4 04	 add	 esp, 4
  004c5	8b 08		 mov	 ecx, DWORD PTR [eax]
  004c7	89 4d e0	 mov	 DWORD PTR __Pnode$[ebp], ecx
$LN30@erase:

; 1366 : 						}
; 1367 : 
; 1368 : 					if (this->_Isnil(_Pnode))

  004ca	8b 55 e0	 mov	 edx, DWORD PTR __Pnode$[ebp]
  004cd	52		 push	 edx
  004ce	e8 00 00 00 00	 call	 ?_Isnil@?$_Tree_comp_alloc@V?$_Tmap_traits@V?$basic_string@DU?$char_traits@D@std@@V?$allocator@D@2@@std@@P6APAXXZU?$less@V?$basic_string@DU?$char_traits@D@std@@V?$allocator@D@2@@std@@@2@V?$allocator@U?$pair@$$CBV?$basic_string@DU?$char_traits@D@std@@V?$allocator@D@2@@std@@P6APAXXZ@std@@@2@$0A@@std@@@std@@SAAADPAU?$_Tree_node@U?$pair@$$CBV?$basic_string@DU?$char_traits@D@std@@V?$allocator@D@2@@std@@P6APAXXZ@std@@PAX@2@@Z ; std::_Tree_comp_alloc<std::_Tmap_traits<std::basic_string<char,std::char_traits<char>,std::allocator<char> >,void * (__cdecl*)(void),std::less<std::basic_string<char,std::char_traits<char>,std::allocator<char> > >,std::allocator<std::pair<std::basic_string<char,std::char_traits<char>,std::allocator<char> > const ,void * (__cdecl*)(void)> >,0> >::_Isnil
  004d3	83 c4 04	 add	 esp, 4
  004d6	0f be 00	 movsx	 eax, BYTE PTR [eax]
  004d9	85 c0		 test	 eax, eax
  004db	74 0b		 je	 SHORT $LN31@erase

; 1369 : 						_Fixnode = _Fixnodeparent;	// shouldn't happen

  004dd	8b 4d e4	 mov	 ecx, DWORD PTR __Fixnodeparent$[ebp]
  004e0	89 4d e8	 mov	 DWORD PTR __Fixnode$[ebp], ecx

; 1370 : 					else if (this->_Color(this->_Left(_Pnode)) == this->_Black

  004e3	e9 15 01 00 00	 jmp	 $LN32@erase
$LN31@erase:

; 1371 : 						&& this->_Color(this->_Right(_Pnode)) == this->_Black)

  004e8	8b 55 e0	 mov	 edx, DWORD PTR __Pnode$[ebp]
  004eb	52		 push	 edx
  004ec	e8 00 00 00 00	 call	 ?_Left@?$_Tree_comp_alloc@V?$_Tmap_traits@V?$basic_string@DU?$char_traits@D@std@@V?$allocator@D@2@@std@@P6APAXXZU?$less@V?$basic_string@DU?$char_traits@D@std@@V?$allocator@D@2@@std@@@2@V?$allocator@U?$pair@$$CBV?$basic_string@DU?$char_traits@D@std@@V?$allocator@D@2@@std@@P6APAXXZ@std@@@2@$0A@@std@@@std@@SAAAPAU?$_Tree_node@U?$pair@$$CBV?$basic_string@DU?$char_traits@D@std@@V?$allocator@D@2@@std@@P6APAXXZ@std@@PAX@2@PAU32@@Z ; std::_Tree_comp_alloc<std::_Tmap_traits<std::basic_string<char,std::char_traits<char>,std::allocator<char> >,void * (__cdecl*)(void),std::less<std::basic_string<char,std::char_traits<char>,std::allocator<char> > >,std::allocator<std::pair<std::basic_string<char,std::char_traits<char>,std::allocator<char> > const ,void * (__cdecl*)(void)> >,0> >::_Left
  004f1	83 c4 04	 add	 esp, 4
  004f4	8b 00		 mov	 eax, DWORD PTR [eax]
  004f6	50		 push	 eax
  004f7	e8 00 00 00 00	 call	 ?_Color@?$_Tree_comp_alloc@V?$_Tmap_traits@V?$basic_string@DU?$char_traits@D@std@@V?$allocator@D@2@@std@@P6APAXXZU?$less@V?$basic_string@DU?$char_traits@D@std@@V?$allocator@D@2@@std@@@2@V?$allocator@U?$pair@$$CBV?$basic_string@DU?$char_traits@D@std@@V?$allocator@D@2@@std@@P6APAXXZ@std@@@2@$0A@@std@@@std@@SAAADPAU?$_Tree_node@U?$pair@$$CBV?$basic_string@DU?$char_traits@D@std@@V?$allocator@D@2@@std@@P6APAXXZ@std@@PAX@2@@Z ; std::_Tree_comp_alloc<std::_Tmap_traits<std::basic_string<char,std::char_traits<char>,std::allocator<char> >,void * (__cdecl*)(void),std::less<std::basic_string<char,std::char_traits<char>,std::allocator<char> > >,std::allocator<std::pair<std::basic_string<char,std::char_traits<char>,std::allocator<char> > const ,void * (__cdecl*)(void)> >,0> >::_Color
  004fc	83 c4 04	 add	 esp, 4
  004ff	0f be 08	 movsx	 ecx, BYTE PTR [eax]
  00502	83 f9 01	 cmp	 ecx, 1
  00505	75 39		 jne	 SHORT $LN33@erase
  00507	8b 55 e0	 mov	 edx, DWORD PTR __Pnode$[ebp]
  0050a	52		 push	 edx
  0050b	e8 00 00 00 00	 call	 ?_Right@?$_Tree_comp_alloc@V?$_Tmap_traits@V?$basic_string@DU?$char_traits@D@std@@V?$allocator@D@2@@std@@P6APAXXZU?$less@V?$basic_string@DU?$char_traits@D@std@@V?$allocator@D@2@@std@@@2@V?$allocator@U?$pair@$$CBV?$basic_string@DU?$char_traits@D@std@@V?$allocator@D@2@@std@@P6APAXXZ@std@@@2@$0A@@std@@@std@@SAAAPAU?$_Tree_node@U?$pair@$$CBV?$basic_string@DU?$char_traits@D@std@@V?$allocator@D@2@@std@@P6APAXXZ@std@@PAX@2@PAU32@@Z ; std::_Tree_comp_alloc<std::_Tmap_traits<std::basic_string<char,std::char_traits<char>,std::allocator<char> >,void * (__cdecl*)(void),std::less<std::basic_string<char,std::char_traits<char>,std::allocator<char> > >,std::allocator<std::pair<std::basic_string<char,std::char_traits<char>,std::allocator<char> > const ,void * (__cdecl*)(void)> >,0> >::_Right
  00510	83 c4 04	 add	 esp, 4
  00513	8b 00		 mov	 eax, DWORD PTR [eax]
  00515	50		 push	 eax
  00516	e8 00 00 00 00	 call	 ?_Color@?$_Tree_comp_alloc@V?$_Tmap_traits@V?$basic_string@DU?$char_traits@D@std@@V?$allocator@D@2@@std@@P6APAXXZU?$less@V?$basic_string@DU?$char_traits@D@std@@V?$allocator@D@2@@std@@@2@V?$allocator@U?$pair@$$CBV?$basic_string@DU?$char_traits@D@std@@V?$allocator@D@2@@std@@P6APAXXZ@std@@@2@$0A@@std@@@std@@SAAADPAU?$_Tree_node@U?$pair@$$CBV?$basic_string@DU?$char_traits@D@std@@V?$allocator@D@2@@std@@P6APAXXZ@std@@PAX@2@@Z ; std::_Tree_comp_alloc<std::_Tmap_traits<std::basic_string<char,std::char_traits<char>,std::allocator<char> >,void * (__cdecl*)(void),std::less<std::basic_string<char,std::char_traits<char>,std::allocator<char> > >,std::allocator<std::pair<std::basic_string<char,std::char_traits<char>,std::allocator<char> > const ,void * (__cdecl*)(void)> >,0> >::_Color
  0051b	83 c4 04	 add	 esp, 4
  0051e	0f be 08	 movsx	 ecx, BYTE PTR [eax]
  00521	83 f9 01	 cmp	 ecx, 1
  00524	75 1a		 jne	 SHORT $LN33@erase

; 1372 : 						{	// redden right subtree with black children
; 1373 : 						this->_Color(_Pnode) = this->_Red;

  00526	8b 55 e0	 mov	 edx, DWORD PTR __Pnode$[ebp]
  00529	52		 push	 edx
  0052a	e8 00 00 00 00	 call	 ?_Color@?$_Tree_comp_alloc@V?$_Tmap_traits@V?$basic_string@DU?$char_traits@D@std@@V?$allocator@D@2@@std@@P6APAXXZU?$less@V?$basic_string@DU?$char_traits@D@std@@V?$allocator@D@2@@std@@@2@V?$allocator@U?$pair@$$CBV?$basic_string@DU?$char_traits@D@std@@V?$allocator@D@2@@std@@P6APAXXZ@std@@@2@$0A@@std@@@std@@SAAADPAU?$_Tree_node@U?$pair@$$CBV?$basic_string@DU?$char_traits@D@std@@V?$allocator@D@2@@std@@P6APAXXZ@std@@PAX@2@@Z ; std::_Tree_comp_alloc<std::_Tmap_traits<std::basic_string<char,std::char_traits<char>,std::allocator<char> >,void * (__cdecl*)(void),std::less<std::basic_string<char,std::char_traits<char>,std::allocator<char> > >,std::allocator<std::pair<std::basic_string<char,std::char_traits<char>,std::allocator<char> > const ,void * (__cdecl*)(void)> >,0> >::_Color
  0052f	83 c4 04	 add	 esp, 4
  00532	c6 00 00	 mov	 BYTE PTR [eax], 0

; 1374 : 						_Fixnode = _Fixnodeparent;

  00535	8b 45 e4	 mov	 eax, DWORD PTR __Fixnodeparent$[ebp]
  00538	89 45 e8	 mov	 DWORD PTR __Fixnode$[ebp], eax

; 1375 : 						}
; 1376 : 					else

  0053b	e9 bd 00 00 00	 jmp	 $LN32@erase
$LN33@erase:

; 1377 : 						{	// must rearrange right subtree
; 1378 : 						if (this->_Color(this->_Right(_Pnode))
; 1379 : 							== this->_Black)

  00540	8b 4d e0	 mov	 ecx, DWORD PTR __Pnode$[ebp]
  00543	51		 push	 ecx
  00544	e8 00 00 00 00	 call	 ?_Right@?$_Tree_comp_alloc@V?$_Tmap_traits@V?$basic_string@DU?$char_traits@D@std@@V?$allocator@D@2@@std@@P6APAXXZU?$less@V?$basic_string@DU?$char_traits@D@std@@V?$allocator@D@2@@std@@@2@V?$allocator@U?$pair@$$CBV?$basic_string@DU?$char_traits@D@std@@V?$allocator@D@2@@std@@P6APAXXZ@std@@@2@$0A@@std@@@std@@SAAAPAU?$_Tree_node@U?$pair@$$CBV?$basic_string@DU?$char_traits@D@std@@V?$allocator@D@2@@std@@P6APAXXZ@std@@PAX@2@PAU32@@Z ; std::_Tree_comp_alloc<std::_Tmap_traits<std::basic_string<char,std::char_traits<char>,std::allocator<char> >,void * (__cdecl*)(void),std::less<std::basic_string<char,std::char_traits<char>,std::allocator<char> > >,std::allocator<std::pair<std::basic_string<char,std::char_traits<char>,std::allocator<char> > const ,void * (__cdecl*)(void)> >,0> >::_Right
  00549	83 c4 04	 add	 esp, 4
  0054c	8b 10		 mov	 edx, DWORD PTR [eax]
  0054e	52		 push	 edx
  0054f	e8 00 00 00 00	 call	 ?_Color@?$_Tree_comp_alloc@V?$_Tmap_traits@V?$basic_string@DU?$char_traits@D@std@@V?$allocator@D@2@@std@@P6APAXXZU?$less@V?$basic_string@DU?$char_traits@D@std@@V?$allocator@D@2@@std@@@2@V?$allocator@U?$pair@$$CBV?$basic_string@DU?$char_traits@D@std@@V?$allocator@D@2@@std@@P6APAXXZ@std@@@2@$0A@@std@@@std@@SAAADPAU?$_Tree_node@U?$pair@$$CBV?$basic_string@DU?$char_traits@D@std@@V?$allocator@D@2@@std@@P6APAXXZ@std@@PAX@2@@Z ; std::_Tree_comp_alloc<std::_Tmap_traits<std::basic_string<char,std::char_traits<char>,std::allocator<char> >,void * (__cdecl*)(void),std::less<std::basic_string<char,std::char_traits<char>,std::allocator<char> > >,std::allocator<std::pair<std::basic_string<char,std::char_traits<char>,std::allocator<char> > const ,void * (__cdecl*)(void)> >,0> >::_Color
  00554	83 c4 04	 add	 esp, 4
  00557	0f be 00	 movsx	 eax, BYTE PTR [eax]
  0055a	83 f8 01	 cmp	 eax, 1
  0055d	75 46		 jne	 SHORT $LN35@erase

; 1380 : 							{	// rotate red up from left sub-subtree
; 1381 : 							this->_Color(this->_Left(_Pnode)) = this->_Black;

  0055f	8b 4d e0	 mov	 ecx, DWORD PTR __Pnode$[ebp]
  00562	51		 push	 ecx
  00563	e8 00 00 00 00	 call	 ?_Left@?$_Tree_comp_alloc@V?$_Tmap_traits@V?$basic_string@DU?$char_traits@D@std@@V?$allocator@D@2@@std@@P6APAXXZU?$less@V?$basic_string@DU?$char_traits@D@std@@V?$allocator@D@2@@std@@@2@V?$allocator@U?$pair@$$CBV?$basic_string@DU?$char_traits@D@std@@V?$allocator@D@2@@std@@P6APAXXZ@std@@@2@$0A@@std@@@std@@SAAAPAU?$_Tree_node@U?$pair@$$CBV?$basic_string@DU?$char_traits@D@std@@V?$allocator@D@2@@std@@P6APAXXZ@std@@PAX@2@PAU32@@Z ; std::_Tree_comp_alloc<std::_Tmap_traits<std::basic_string<char,std::char_traits<char>,std::allocator<char> >,void * (__cdecl*)(void),std::less<std::basic_string<char,std::char_traits<char>,std::allocator<char> > >,std::allocator<std::pair<std::basic_string<char,std::char_traits<char>,std::allocator<char> > const ,void * (__cdecl*)(void)> >,0> >::_Left
  00568	83 c4 04	 add	 esp, 4
  0056b	8b 10		 mov	 edx, DWORD PTR [eax]
  0056d	52		 push	 edx
  0056e	e8 00 00 00 00	 call	 ?_Color@?$_Tree_comp_alloc@V?$_Tmap_traits@V?$basic_string@DU?$char_traits@D@std@@V?$allocator@D@2@@std@@P6APAXXZU?$less@V?$basic_string@DU?$char_traits@D@std@@V?$allocator@D@2@@std@@@2@V?$allocator@U?$pair@$$CBV?$basic_string@DU?$char_traits@D@std@@V?$allocator@D@2@@std@@P6APAXXZ@std@@@2@$0A@@std@@@std@@SAAADPAU?$_Tree_node@U?$pair@$$CBV?$basic_string@DU?$char_traits@D@std@@V?$allocator@D@2@@std@@P6APAXXZ@std@@PAX@2@@Z ; std::_Tree_comp_alloc<std::_Tmap_traits<std::basic_string<char,std::char_traits<char>,std::allocator<char> >,void * (__cdecl*)(void),std::less<std::basic_string<char,std::char_traits<char>,std::allocator<char> > >,std::allocator<std::pair<std::basic_string<char,std::char_traits<char>,std::allocator<char> > const ,void * (__cdecl*)(void)> >,0> >::_Color
  00573	83 c4 04	 add	 esp, 4
  00576	c6 00 01	 mov	 BYTE PTR [eax], 1

; 1382 : 							this->_Color(_Pnode) = this->_Red;

  00579	8b 45 e0	 mov	 eax, DWORD PTR __Pnode$[ebp]
  0057c	50		 push	 eax
  0057d	e8 00 00 00 00	 call	 ?_Color@?$_Tree_comp_alloc@V?$_Tmap_traits@V?$basic_string@DU?$char_traits@D@std@@V?$allocator@D@2@@std@@P6APAXXZU?$less@V?$basic_string@DU?$char_traits@D@std@@V?$allocator@D@2@@std@@@2@V?$allocator@U?$pair@$$CBV?$basic_string@DU?$char_traits@D@std@@V?$allocator@D@2@@std@@P6APAXXZ@std@@@2@$0A@@std@@@std@@SAAADPAU?$_Tree_node@U?$pair@$$CBV?$basic_string@DU?$char_traits@D@std@@V?$allocator@D@2@@std@@P6APAXXZ@std@@PAX@2@@Z ; std::_Tree_comp_alloc<std::_Tmap_traits<std::basic_string<char,std::char_traits<char>,std::allocator<char> >,void * (__cdecl*)(void),std::less<std::basic_string<char,std::char_traits<char>,std::allocator<char> > >,std::allocator<std::pair<std::basic_string<char,std::char_traits<char>,std::allocator<char> > const ,void * (__cdecl*)(void)> >,0> >::_Color
  00582	83 c4 04	 add	 esp, 4
  00585	c6 00 00	 mov	 BYTE PTR [eax], 0

; 1383 : 							_Rrotate(_Pnode);

  00588	8b 4d e0	 mov	 ecx, DWORD PTR __Pnode$[ebp]
  0058b	51		 push	 ecx
  0058c	8b 4d f0	 mov	 ecx, DWORD PTR _this$[ebp]
  0058f	e8 00 00 00 00	 call	 ?_Rrotate@?$_Tree@V?$_Tmap_traits@V?$basic_string@DU?$char_traits@D@std@@V?$allocator@D@2@@std@@P6APAXXZU?$less@V?$basic_string@DU?$char_traits@D@std@@V?$allocator@D@2@@std@@@2@V?$allocator@U?$pair@$$CBV?$basic_string@DU?$char_traits@D@std@@V?$allocator@D@2@@std@@P6APAXXZ@std@@@2@$0A@@std@@@std@@IAEXPAU?$_Tree_node@U?$pair@$$CBV?$basic_string@DU?$char_traits@D@std@@V?$allocator@D@2@@std@@P6APAXXZ@std@@PAX@2@@Z ; std::_Tree<std::_Tmap_traits<std::basic_string<char,std::char_traits<char>,std::allocator<char> >,void * (__cdecl*)(void),std::less<std::basic_string<char,std::char_traits<char>,std::allocator<char> > >,std::allocator<std::pair<std::basic_string<char,std::char_traits<char>,std::allocator<char> > const ,void * (__cdecl*)(void)> >,0> >::_Rrotate

; 1384 : 							_Pnode = this->_Right(_Fixnodeparent);

  00594	8b 55 e4	 mov	 edx, DWORD PTR __Fixnodeparent$[ebp]
  00597	52		 push	 edx
  00598	e8 00 00 00 00	 call	 ?_Right@?$_Tree_comp_alloc@V?$_Tmap_traits@V?$basic_string@DU?$char_traits@D@std@@V?$allocator@D@2@@std@@P6APAXXZU?$less@V?$basic_string@DU?$char_traits@D@std@@V?$allocator@D@2@@std@@@2@V?$allocator@U?$pair@$$CBV?$basic_string@DU?$char_traits@D@std@@V?$allocator@D@2@@std@@P6APAXXZ@std@@@2@$0A@@std@@@std@@SAAAPAU?$_Tree_node@U?$pair@$$CBV?$basic_string@DU?$char_traits@D@std@@V?$allocator@D@2@@std@@P6APAXXZ@std@@PAX@2@PAU32@@Z ; std::_Tree_comp_alloc<std::_Tmap_traits<std::basic_string<char,std::char_traits<char>,std::allocator<char> >,void * (__cdecl*)(void),std::less<std::basic_string<char,std::char_traits<char>,std::allocator<char> > >,std::allocator<std::pair<std::basic_string<char,std::char_traits<char>,std::allocator<char> > const ,void * (__cdecl*)(void)> >,0> >::_Right
  0059d	83 c4 04	 add	 esp, 4
  005a0	8b 00		 mov	 eax, DWORD PTR [eax]
  005a2	89 45 e0	 mov	 DWORD PTR __Pnode$[ebp], eax
$LN35@erase:

; 1385 : 							}
; 1386 : 
; 1387 : 						this->_Color(_Pnode) = this->_Color(_Fixnodeparent);

  005a5	8b 4d e4	 mov	 ecx, DWORD PTR __Fixnodeparent$[ebp]
  005a8	51		 push	 ecx
  005a9	e8 00 00 00 00	 call	 ?_Color@?$_Tree_comp_alloc@V?$_Tmap_traits@V?$basic_string@DU?$char_traits@D@std@@V?$allocator@D@2@@std@@P6APAXXZU?$less@V?$basic_string@DU?$char_traits@D@std@@V?$allocator@D@2@@std@@@2@V?$allocator@U?$pair@$$CBV?$basic_string@DU?$char_traits@D@std@@V?$allocator@D@2@@std@@P6APAXXZ@std@@@2@$0A@@std@@@std@@SAAADPAU?$_Tree_node@U?$pair@$$CBV?$basic_string@DU?$char_traits@D@std@@V?$allocator@D@2@@std@@P6APAXXZ@std@@PAX@2@@Z ; std::_Tree_comp_alloc<std::_Tmap_traits<std::basic_string<char,std::char_traits<char>,std::allocator<char> >,void * (__cdecl*)(void),std::less<std::basic_string<char,std::char_traits<char>,std::allocator<char> > >,std::allocator<std::pair<std::basic_string<char,std::char_traits<char>,std::allocator<char> > const ,void * (__cdecl*)(void)> >,0> >::_Color
  005ae	83 c4 04	 add	 esp, 4
  005b1	8b f0		 mov	 esi, eax
  005b3	8b 55 e0	 mov	 edx, DWORD PTR __Pnode$[ebp]
  005b6	52		 push	 edx
  005b7	e8 00 00 00 00	 call	 ?_Color@?$_Tree_comp_alloc@V?$_Tmap_traits@V?$basic_string@DU?$char_traits@D@std@@V?$allocator@D@2@@std@@P6APAXXZU?$less@V?$basic_string@DU?$char_traits@D@std@@V?$allocator@D@2@@std@@@2@V?$allocator@U?$pair@$$CBV?$basic_string@DU?$char_traits@D@std@@V?$allocator@D@2@@std@@P6APAXXZ@std@@@2@$0A@@std@@@std@@SAAADPAU?$_Tree_node@U?$pair@$$CBV?$basic_string@DU?$char_traits@D@std@@V?$allocator@D@2@@std@@P6APAXXZ@std@@PAX@2@@Z ; std::_Tree_comp_alloc<std::_Tmap_traits<std::basic_string<char,std::char_traits<char>,std::allocator<char> >,void * (__cdecl*)(void),std::less<std::basic_string<char,std::char_traits<char>,std::allocator<char> > >,std::allocator<std::pair<std::basic_string<char,std::char_traits<char>,std::allocator<char> > const ,void * (__cdecl*)(void)> >,0> >::_Color
  005bc	83 c4 04	 add	 esp, 4
  005bf	8a 0e		 mov	 cl, BYTE PTR [esi]
  005c1	88 08		 mov	 BYTE PTR [eax], cl

; 1388 : 						this->_Color(_Fixnodeparent) = this->_Black;

  005c3	8b 55 e4	 mov	 edx, DWORD PTR __Fixnodeparent$[ebp]
  005c6	52		 push	 edx
  005c7	e8 00 00 00 00	 call	 ?_Color@?$_Tree_comp_alloc@V?$_Tmap_traits@V?$basic_string@DU?$char_traits@D@std@@V?$allocator@D@2@@std@@P6APAXXZU?$less@V?$basic_string@DU?$char_traits@D@std@@V?$allocator@D@2@@std@@@2@V?$allocator@U?$pair@$$CBV?$basic_string@DU?$char_traits@D@std@@V?$allocator@D@2@@std@@P6APAXXZ@std@@@2@$0A@@std@@@std@@SAAADPAU?$_Tree_node@U?$pair@$$CBV?$basic_string@DU?$char_traits@D@std@@V?$allocator@D@2@@std@@P6APAXXZ@std@@PAX@2@@Z ; std::_Tree_comp_alloc<std::_Tmap_traits<std::basic_string<char,std::char_traits<char>,std::allocator<char> >,void * (__cdecl*)(void),std::less<std::basic_string<char,std::char_traits<char>,std::allocator<char> > >,std::allocator<std::pair<std::basic_string<char,std::char_traits<char>,std::allocator<char> > const ,void * (__cdecl*)(void)> >,0> >::_Color
  005cc	83 c4 04	 add	 esp, 4
  005cf	c6 00 01	 mov	 BYTE PTR [eax], 1

; 1389 : 						this->_Color(this->_Right(_Pnode)) = this->_Black;

  005d2	8b 45 e0	 mov	 eax, DWORD PTR __Pnode$[ebp]
  005d5	50		 push	 eax
  005d6	e8 00 00 00 00	 call	 ?_Right@?$_Tree_comp_alloc@V?$_Tmap_traits@V?$basic_string@DU?$char_traits@D@std@@V?$allocator@D@2@@std@@P6APAXXZU?$less@V?$basic_string@DU?$char_traits@D@std@@V?$allocator@D@2@@std@@@2@V?$allocator@U?$pair@$$CBV?$basic_string@DU?$char_traits@D@std@@V?$allocator@D@2@@std@@P6APAXXZ@std@@@2@$0A@@std@@@std@@SAAAPAU?$_Tree_node@U?$pair@$$CBV?$basic_string@DU?$char_traits@D@std@@V?$allocator@D@2@@std@@P6APAXXZ@std@@PAX@2@PAU32@@Z ; std::_Tree_comp_alloc<std::_Tmap_traits<std::basic_string<char,std::char_traits<char>,std::allocator<char> >,void * (__cdecl*)(void),std::less<std::basic_string<char,std::char_traits<char>,std::allocator<char> > >,std::allocator<std::pair<std::basic_string<char,std::char_traits<char>,std::allocator<char> > const ,void * (__cdecl*)(void)> >,0> >::_Right
  005db	83 c4 04	 add	 esp, 4
  005de	8b 08		 mov	 ecx, DWORD PTR [eax]
  005e0	51		 push	 ecx
  005e1	e8 00 00 00 00	 call	 ?_Color@?$_Tree_comp_alloc@V?$_Tmap_traits@V?$basic_string@DU?$char_traits@D@std@@V?$allocator@D@2@@std@@P6APAXXZU?$less@V?$basic_string@DU?$char_traits@D@std@@V?$allocator@D@2@@std@@@2@V?$allocator@U?$pair@$$CBV?$basic_string@DU?$char_traits@D@std@@V?$allocator@D@2@@std@@P6APAXXZ@std@@@2@$0A@@std@@@std@@SAAADPAU?$_Tree_node@U?$pair@$$CBV?$basic_string@DU?$char_traits@D@std@@V?$allocator@D@2@@std@@P6APAXXZ@std@@PAX@2@@Z ; std::_Tree_comp_alloc<std::_Tmap_traits<std::basic_string<char,std::char_traits<char>,std::allocator<char> >,void * (__cdecl*)(void),std::less<std::basic_string<char,std::char_traits<char>,std::allocator<char> > >,std::allocator<std::pair<std::basic_string<char,std::char_traits<char>,std::allocator<char> > const ,void * (__cdecl*)(void)> >,0> >::_Color
  005e6	83 c4 04	 add	 esp, 4
  005e9	c6 00 01	 mov	 BYTE PTR [eax], 1

; 1390 : 						_Lrotate(_Fixnodeparent);

  005ec	8b 55 e4	 mov	 edx, DWORD PTR __Fixnodeparent$[ebp]
  005ef	52		 push	 edx
  005f0	8b 4d f0	 mov	 ecx, DWORD PTR _this$[ebp]
  005f3	e8 00 00 00 00	 call	 ?_Lrotate@?$_Tree@V?$_Tmap_traits@V?$basic_string@DU?$char_traits@D@std@@V?$allocator@D@2@@std@@P6APAXXZU?$less@V?$basic_string@DU?$char_traits@D@std@@V?$allocator@D@2@@std@@@2@V?$allocator@U?$pair@$$CBV?$basic_string@DU?$char_traits@D@std@@V?$allocator@D@2@@std@@P6APAXXZ@std@@@2@$0A@@std@@@std@@IAEXPAU?$_Tree_node@U?$pair@$$CBV?$basic_string@DU?$char_traits@D@std@@V?$allocator@D@2@@std@@P6APAXXZ@std@@PAX@2@@Z ; std::_Tree<std::_Tmap_traits<std::basic_string<char,std::char_traits<char>,std::allocator<char> >,void * (__cdecl*)(void),std::less<std::basic_string<char,std::char_traits<char>,std::allocator<char> > >,std::allocator<std::pair<std::basic_string<char,std::char_traits<char>,std::allocator<char> > const ,void * (__cdecl*)(void)> >,0> >::_Lrotate

; 1391 : 						break;	// tree now recolored/rebalanced

  005f8	e9 99 01 00 00	 jmp	 $LN3@erase
$LN32@erase:

; 1392 : 						}
; 1393 : 					}
; 1394 : 				else

  005fd	e9 8f 01 00 00	 jmp	 $LN29@erase
$LN28@erase:

; 1395 : 					{	// fixup right subtree
; 1396 : 					_Pnode = this->_Left(_Fixnodeparent);

  00602	8b 45 e4	 mov	 eax, DWORD PTR __Fixnodeparent$[ebp]
  00605	50		 push	 eax
  00606	e8 00 00 00 00	 call	 ?_Left@?$_Tree_comp_alloc@V?$_Tmap_traits@V?$basic_string@DU?$char_traits@D@std@@V?$allocator@D@2@@std@@P6APAXXZU?$less@V?$basic_string@DU?$char_traits@D@std@@V?$allocator@D@2@@std@@@2@V?$allocator@U?$pair@$$CBV?$basic_string@DU?$char_traits@D@std@@V?$allocator@D@2@@std@@P6APAXXZ@std@@@2@$0A@@std@@@std@@SAAAPAU?$_Tree_node@U?$pair@$$CBV?$basic_string@DU?$char_traits@D@std@@V?$allocator@D@2@@std@@P6APAXXZ@std@@PAX@2@PAU32@@Z ; std::_Tree_comp_alloc<std::_Tmap_traits<std::basic_string<char,std::char_traits<char>,std::allocator<char> >,void * (__cdecl*)(void),std::less<std::basic_string<char,std::char_traits<char>,std::allocator<char> > >,std::allocator<std::pair<std::basic_string<char,std::char_traits<char>,std::allocator<char> > const ,void * (__cdecl*)(void)> >,0> >::_Left
  0060b	83 c4 04	 add	 esp, 4
  0060e	8b 08		 mov	 ecx, DWORD PTR [eax]
  00610	89 4d e0	 mov	 DWORD PTR __Pnode$[ebp], ecx

; 1397 : 					if (this->_Color(_Pnode) == this->_Red)

  00613	8b 55 e0	 mov	 edx, DWORD PTR __Pnode$[ebp]
  00616	52		 push	 edx
  00617	e8 00 00 00 00	 call	 ?_Color@?$_Tree_comp_alloc@V?$_Tmap_traits@V?$basic_string@DU?$char_traits@D@std@@V?$allocator@D@2@@std@@P6APAXXZU?$less@V?$basic_string@DU?$char_traits@D@std@@V?$allocator@D@2@@std@@@2@V?$allocator@U?$pair@$$CBV?$basic_string@DU?$char_traits@D@std@@V?$allocator@D@2@@std@@P6APAXXZ@std@@@2@$0A@@std@@@std@@SAAADPAU?$_Tree_node@U?$pair@$$CBV?$basic_string@DU?$char_traits@D@std@@V?$allocator@D@2@@std@@P6APAXXZ@std@@PAX@2@@Z ; std::_Tree_comp_alloc<std::_Tmap_traits<std::basic_string<char,std::char_traits<char>,std::allocator<char> >,void * (__cdecl*)(void),std::less<std::basic_string<char,std::char_traits<char>,std::allocator<char> > >,std::allocator<std::pair<std::basic_string<char,std::char_traits<char>,std::allocator<char> > const ,void * (__cdecl*)(void)> >,0> >::_Color
  0061c	83 c4 04	 add	 esp, 4
  0061f	0f be 00	 movsx	 eax, BYTE PTR [eax]
  00622	85 c0		 test	 eax, eax
  00624	75 3b		 jne	 SHORT $LN36@erase

; 1398 : 						{	// rotate red up from left subtree
; 1399 : 						this->_Color(_Pnode) = this->_Black;

  00626	8b 4d e0	 mov	 ecx, DWORD PTR __Pnode$[ebp]
  00629	51		 push	 ecx
  0062a	e8 00 00 00 00	 call	 ?_Color@?$_Tree_comp_alloc@V?$_Tmap_traits@V?$basic_string@DU?$char_traits@D@std@@V?$allocator@D@2@@std@@P6APAXXZU?$less@V?$basic_string@DU?$char_traits@D@std@@V?$allocator@D@2@@std@@@2@V?$allocator@U?$pair@$$CBV?$basic_string@DU?$char_traits@D@std@@V?$allocator@D@2@@std@@P6APAXXZ@std@@@2@$0A@@std@@@std@@SAAADPAU?$_Tree_node@U?$pair@$$CBV?$basic_string@DU?$char_traits@D@std@@V?$allocator@D@2@@std@@P6APAXXZ@std@@PAX@2@@Z ; std::_Tree_comp_alloc<std::_Tmap_traits<std::basic_string<char,std::char_traits<char>,std::allocator<char> >,void * (__cdecl*)(void),std::less<std::basic_string<char,std::char_traits<char>,std::allocator<char> > >,std::allocator<std::pair<std::basic_string<char,std::char_traits<char>,std::allocator<char> > const ,void * (__cdecl*)(void)> >,0> >::_Color
  0062f	83 c4 04	 add	 esp, 4
  00632	c6 00 01	 mov	 BYTE PTR [eax], 1

; 1400 : 						this->_Color(_Fixnodeparent) = this->_Red;

  00635	8b 55 e4	 mov	 edx, DWORD PTR __Fixnodeparent$[ebp]
  00638	52		 push	 edx
  00639	e8 00 00 00 00	 call	 ?_Color@?$_Tree_comp_alloc@V?$_Tmap_traits@V?$basic_string@DU?$char_traits@D@std@@V?$allocator@D@2@@std@@P6APAXXZU?$less@V?$basic_string@DU?$char_traits@D@std@@V?$allocator@D@2@@std@@@2@V?$allocator@U?$pair@$$CBV?$basic_string@DU?$char_traits@D@std@@V?$allocator@D@2@@std@@P6APAXXZ@std@@@2@$0A@@std@@@std@@SAAADPAU?$_Tree_node@U?$pair@$$CBV?$basic_string@DU?$char_traits@D@std@@V?$allocator@D@2@@std@@P6APAXXZ@std@@PAX@2@@Z ; std::_Tree_comp_alloc<std::_Tmap_traits<std::basic_string<char,std::char_traits<char>,std::allocator<char> >,void * (__cdecl*)(void),std::less<std::basic_string<char,std::char_traits<char>,std::allocator<char> > >,std::allocator<std::pair<std::basic_string<char,std::char_traits<char>,std::allocator<char> > const ,void * (__cdecl*)(void)> >,0> >::_Color
  0063e	83 c4 04	 add	 esp, 4
  00641	c6 00 00	 mov	 BYTE PTR [eax], 0

; 1401 : 						_Rrotate(_Fixnodeparent);

  00644	8b 45 e4	 mov	 eax, DWORD PTR __Fixnodeparent$[ebp]
  00647	50		 push	 eax
  00648	8b 4d f0	 mov	 ecx, DWORD PTR _this$[ebp]
  0064b	e8 00 00 00 00	 call	 ?_Rrotate@?$_Tree@V?$_Tmap_traits@V?$basic_string@DU?$char_traits@D@std@@V?$allocator@D@2@@std@@P6APAXXZU?$less@V?$basic_string@DU?$char_traits@D@std@@V?$allocator@D@2@@std@@@2@V?$allocator@U?$pair@$$CBV?$basic_string@DU?$char_traits@D@std@@V?$allocator@D@2@@std@@P6APAXXZ@std@@@2@$0A@@std@@@std@@IAEXPAU?$_Tree_node@U?$pair@$$CBV?$basic_string@DU?$char_traits@D@std@@V?$allocator@D@2@@std@@P6APAXXZ@std@@PAX@2@@Z ; std::_Tree<std::_Tmap_traits<std::basic_string<char,std::char_traits<char>,std::allocator<char> >,void * (__cdecl*)(void),std::less<std::basic_string<char,std::char_traits<char>,std::allocator<char> > >,std::allocator<std::pair<std::basic_string<char,std::char_traits<char>,std::allocator<char> > const ,void * (__cdecl*)(void)> >,0> >::_Rrotate

; 1402 : 						_Pnode = this->_Left(_Fixnodeparent);

  00650	8b 4d e4	 mov	 ecx, DWORD PTR __Fixnodeparent$[ebp]
  00653	51		 push	 ecx
  00654	e8 00 00 00 00	 call	 ?_Left@?$_Tree_comp_alloc@V?$_Tmap_traits@V?$basic_string@DU?$char_traits@D@std@@V?$allocator@D@2@@std@@P6APAXXZU?$less@V?$basic_string@DU?$char_traits@D@std@@V?$allocator@D@2@@std@@@2@V?$allocator@U?$pair@$$CBV?$basic_string@DU?$char_traits@D@std@@V?$allocator@D@2@@std@@P6APAXXZ@std@@@2@$0A@@std@@@std@@SAAAPAU?$_Tree_node@U?$pair@$$CBV?$basic_string@DU?$char_traits@D@std@@V?$allocator@D@2@@std@@P6APAXXZ@std@@PAX@2@PAU32@@Z ; std::_Tree_comp_alloc<std::_Tmap_traits<std::basic_string<char,std::char_traits<char>,std::allocator<char> >,void * (__cdecl*)(void),std::less<std::basic_string<char,std::char_traits<char>,std::allocator<char> > >,std::allocator<std::pair<std::basic_string<char,std::char_traits<char>,std::allocator<char> > const ,void * (__cdecl*)(void)> >,0> >::_Left
  00659	83 c4 04	 add	 esp, 4
  0065c	8b 10		 mov	 edx, DWORD PTR [eax]
  0065e	89 55 e0	 mov	 DWORD PTR __Pnode$[ebp], edx
$LN36@erase:

; 1403 : 						}
; 1404 : 
; 1405 : 					if (this->_Isnil(_Pnode))

  00661	8b 45 e0	 mov	 eax, DWORD PTR __Pnode$[ebp]
  00664	50		 push	 eax
  00665	e8 00 00 00 00	 call	 ?_Isnil@?$_Tree_comp_alloc@V?$_Tmap_traits@V?$basic_string@DU?$char_traits@D@std@@V?$allocator@D@2@@std@@P6APAXXZU?$less@V?$basic_string@DU?$char_traits@D@std@@V?$allocator@D@2@@std@@@2@V?$allocator@U?$pair@$$CBV?$basic_string@DU?$char_traits@D@std@@V?$allocator@D@2@@std@@P6APAXXZ@std@@@2@$0A@@std@@@std@@SAAADPAU?$_Tree_node@U?$pair@$$CBV?$basic_string@DU?$char_traits@D@std@@V?$allocator@D@2@@std@@P6APAXXZ@std@@PAX@2@@Z ; std::_Tree_comp_alloc<std::_Tmap_traits<std::basic_string<char,std::char_traits<char>,std::allocator<char> >,void * (__cdecl*)(void),std::less<std::basic_string<char,std::char_traits<char>,std::allocator<char> > >,std::allocator<std::pair<std::basic_string<char,std::char_traits<char>,std::allocator<char> > const ,void * (__cdecl*)(void)> >,0> >::_Isnil
  0066a	83 c4 04	 add	 esp, 4
  0066d	0f be 08	 movsx	 ecx, BYTE PTR [eax]
  00670	85 c9		 test	 ecx, ecx
  00672	74 0b		 je	 SHORT $LN37@erase

; 1406 : 						_Fixnode = _Fixnodeparent;	// shouldn't happen

  00674	8b 55 e4	 mov	 edx, DWORD PTR __Fixnodeparent$[ebp]
  00677	89 55 e8	 mov	 DWORD PTR __Fixnode$[ebp], edx

; 1407 : 					else if (this->_Color(this->_Right(_Pnode)) ==

  0067a	e9 12 01 00 00	 jmp	 $LN29@erase
$LN37@erase:

; 1408 : 						this->_Black
; 1409 : 						&& this->_Color(this->_Left(_Pnode)) == this->_Black)

  0067f	8b 45 e0	 mov	 eax, DWORD PTR __Pnode$[ebp]
  00682	50		 push	 eax
  00683	e8 00 00 00 00	 call	 ?_Right@?$_Tree_comp_alloc@V?$_Tmap_traits@V?$basic_string@DU?$char_traits@D@std@@V?$allocator@D@2@@std@@P6APAXXZU?$less@V?$basic_string@DU?$char_traits@D@std@@V?$allocator@D@2@@std@@@2@V?$allocator@U?$pair@$$CBV?$basic_string@DU?$char_traits@D@std@@V?$allocator@D@2@@std@@P6APAXXZ@std@@@2@$0A@@std@@@std@@SAAAPAU?$_Tree_node@U?$pair@$$CBV?$basic_string@DU?$char_traits@D@std@@V?$allocator@D@2@@std@@P6APAXXZ@std@@PAX@2@PAU32@@Z ; std::_Tree_comp_alloc<std::_Tmap_traits<std::basic_string<char,std::char_traits<char>,std::allocator<char> >,void * (__cdecl*)(void),std::less<std::basic_string<char,std::char_traits<char>,std::allocator<char> > >,std::allocator<std::pair<std::basic_string<char,std::char_traits<char>,std::allocator<char> > const ,void * (__cdecl*)(void)> >,0> >::_Right
  00688	83 c4 04	 add	 esp, 4
  0068b	8b 08		 mov	 ecx, DWORD PTR [eax]
  0068d	51		 push	 ecx
  0068e	e8 00 00 00 00	 call	 ?_Color@?$_Tree_comp_alloc@V?$_Tmap_traits@V?$basic_string@DU?$char_traits@D@std@@V?$allocator@D@2@@std@@P6APAXXZU?$less@V?$basic_string@DU?$char_traits@D@std@@V?$allocator@D@2@@std@@@2@V?$allocator@U?$pair@$$CBV?$basic_string@DU?$char_traits@D@std@@V?$allocator@D@2@@std@@P6APAXXZ@std@@@2@$0A@@std@@@std@@SAAADPAU?$_Tree_node@U?$pair@$$CBV?$basic_string@DU?$char_traits@D@std@@V?$allocator@D@2@@std@@P6APAXXZ@std@@PAX@2@@Z ; std::_Tree_comp_alloc<std::_Tmap_traits<std::basic_string<char,std::char_traits<char>,std::allocator<char> >,void * (__cdecl*)(void),std::less<std::basic_string<char,std::char_traits<char>,std::allocator<char> > >,std::allocator<std::pair<std::basic_string<char,std::char_traits<char>,std::allocator<char> > const ,void * (__cdecl*)(void)> >,0> >::_Color
  00693	83 c4 04	 add	 esp, 4
  00696	0f be 10	 movsx	 edx, BYTE PTR [eax]
  00699	83 fa 01	 cmp	 edx, 1
  0069c	75 39		 jne	 SHORT $LN39@erase
  0069e	8b 45 e0	 mov	 eax, DWORD PTR __Pnode$[ebp]
  006a1	50		 push	 eax
  006a2	e8 00 00 00 00	 call	 ?_Left@?$_Tree_comp_alloc@V?$_Tmap_traits@V?$basic_string@DU?$char_traits@D@std@@V?$allocator@D@2@@std@@P6APAXXZU?$less@V?$basic_string@DU?$char_traits@D@std@@V?$allocator@D@2@@std@@@2@V?$allocator@U?$pair@$$CBV?$basic_string@DU?$char_traits@D@std@@V?$allocator@D@2@@std@@P6APAXXZ@std@@@2@$0A@@std@@@std@@SAAAPAU?$_Tree_node@U?$pair@$$CBV?$basic_string@DU?$char_traits@D@std@@V?$allocator@D@2@@std@@P6APAXXZ@std@@PAX@2@PAU32@@Z ; std::_Tree_comp_alloc<std::_Tmap_traits<std::basic_string<char,std::char_traits<char>,std::allocator<char> >,void * (__cdecl*)(void),std::less<std::basic_string<char,std::char_traits<char>,std::allocator<char> > >,std::allocator<std::pair<std::basic_string<char,std::char_traits<char>,std::allocator<char> > const ,void * (__cdecl*)(void)> >,0> >::_Left
  006a7	83 c4 04	 add	 esp, 4
  006aa	8b 08		 mov	 ecx, DWORD PTR [eax]
  006ac	51		 push	 ecx
  006ad	e8 00 00 00 00	 call	 ?_Color@?$_Tree_comp_alloc@V?$_Tmap_traits@V?$basic_string@DU?$char_traits@D@std@@V?$allocator@D@2@@std@@P6APAXXZU?$less@V?$basic_string@DU?$char_traits@D@std@@V?$allocator@D@2@@std@@@2@V?$allocator@U?$pair@$$CBV?$basic_string@DU?$char_traits@D@std@@V?$allocator@D@2@@std@@P6APAXXZ@std@@@2@$0A@@std@@@std@@SAAADPAU?$_Tree_node@U?$pair@$$CBV?$basic_string@DU?$char_traits@D@std@@V?$allocator@D@2@@std@@P6APAXXZ@std@@PAX@2@@Z ; std::_Tree_comp_alloc<std::_Tmap_traits<std::basic_string<char,std::char_traits<char>,std::allocator<char> >,void * (__cdecl*)(void),std::less<std::basic_string<char,std::char_traits<char>,std::allocator<char> > >,std::allocator<std::pair<std::basic_string<char,std::char_traits<char>,std::allocator<char> > const ,void * (__cdecl*)(void)> >,0> >::_Color
  006b2	83 c4 04	 add	 esp, 4
  006b5	0f be 10	 movsx	 edx, BYTE PTR [eax]
  006b8	83 fa 01	 cmp	 edx, 1
  006bb	75 1a		 jne	 SHORT $LN39@erase

; 1410 : 						{	// redden left subtree with black children
; 1411 : 						this->_Color(_Pnode) = this->_Red;

  006bd	8b 45 e0	 mov	 eax, DWORD PTR __Pnode$[ebp]
  006c0	50		 push	 eax
  006c1	e8 00 00 00 00	 call	 ?_Color@?$_Tree_comp_alloc@V?$_Tmap_traits@V?$basic_string@DU?$char_traits@D@std@@V?$allocator@D@2@@std@@P6APAXXZU?$less@V?$basic_string@DU?$char_traits@D@std@@V?$allocator@D@2@@std@@@2@V?$allocator@U?$pair@$$CBV?$basic_string@DU?$char_traits@D@std@@V?$allocator@D@2@@std@@P6APAXXZ@std@@@2@$0A@@std@@@std@@SAAADPAU?$_Tree_node@U?$pair@$$CBV?$basic_string@DU?$char_traits@D@std@@V?$allocator@D@2@@std@@P6APAXXZ@std@@PAX@2@@Z ; std::_Tree_comp_alloc<std::_Tmap_traits<std::basic_string<char,std::char_traits<char>,std::allocator<char> >,void * (__cdecl*)(void),std::less<std::basic_string<char,std::char_traits<char>,std::allocator<char> > >,std::allocator<std::pair<std::basic_string<char,std::char_traits<char>,std::allocator<char> > const ,void * (__cdecl*)(void)> >,0> >::_Color
  006c6	83 c4 04	 add	 esp, 4
  006c9	c6 00 00	 mov	 BYTE PTR [eax], 0

; 1412 : 						_Fixnode = _Fixnodeparent;

  006cc	8b 4d e4	 mov	 ecx, DWORD PTR __Fixnodeparent$[ebp]
  006cf	89 4d e8	 mov	 DWORD PTR __Fixnode$[ebp], ecx

; 1413 : 						}
; 1414 : 					else

  006d2	e9 ba 00 00 00	 jmp	 $LN29@erase
$LN39@erase:

; 1415 : 						{	// must rearrange left subtree
; 1416 : 						if (this->_Color(this->_Left(_Pnode)) == this->_Black)

  006d7	8b 55 e0	 mov	 edx, DWORD PTR __Pnode$[ebp]
  006da	52		 push	 edx
  006db	e8 00 00 00 00	 call	 ?_Left@?$_Tree_comp_alloc@V?$_Tmap_traits@V?$basic_string@DU?$char_traits@D@std@@V?$allocator@D@2@@std@@P6APAXXZU?$less@V?$basic_string@DU?$char_traits@D@std@@V?$allocator@D@2@@std@@@2@V?$allocator@U?$pair@$$CBV?$basic_string@DU?$char_traits@D@std@@V?$allocator@D@2@@std@@P6APAXXZ@std@@@2@$0A@@std@@@std@@SAAAPAU?$_Tree_node@U?$pair@$$CBV?$basic_string@DU?$char_traits@D@std@@V?$allocator@D@2@@std@@P6APAXXZ@std@@PAX@2@PAU32@@Z ; std::_Tree_comp_alloc<std::_Tmap_traits<std::basic_string<char,std::char_traits<char>,std::allocator<char> >,void * (__cdecl*)(void),std::less<std::basic_string<char,std::char_traits<char>,std::allocator<char> > >,std::allocator<std::pair<std::basic_string<char,std::char_traits<char>,std::allocator<char> > const ,void * (__cdecl*)(void)> >,0> >::_Left
  006e0	83 c4 04	 add	 esp, 4
  006e3	8b 00		 mov	 eax, DWORD PTR [eax]
  006e5	50		 push	 eax
  006e6	e8 00 00 00 00	 call	 ?_Color@?$_Tree_comp_alloc@V?$_Tmap_traits@V?$basic_string@DU?$char_traits@D@std@@V?$allocator@D@2@@std@@P6APAXXZU?$less@V?$basic_string@DU?$char_traits@D@std@@V?$allocator@D@2@@std@@@2@V?$allocator@U?$pair@$$CBV?$basic_string@DU?$char_traits@D@std@@V?$allocator@D@2@@std@@P6APAXXZ@std@@@2@$0A@@std@@@std@@SAAADPAU?$_Tree_node@U?$pair@$$CBV?$basic_string@DU?$char_traits@D@std@@V?$allocator@D@2@@std@@P6APAXXZ@std@@PAX@2@@Z ; std::_Tree_comp_alloc<std::_Tmap_traits<std::basic_string<char,std::char_traits<char>,std::allocator<char> >,void * (__cdecl*)(void),std::less<std::basic_string<char,std::char_traits<char>,std::allocator<char> > >,std::allocator<std::pair<std::basic_string<char,std::char_traits<char>,std::allocator<char> > const ,void * (__cdecl*)(void)> >,0> >::_Color
  006eb	83 c4 04	 add	 esp, 4
  006ee	0f be 08	 movsx	 ecx, BYTE PTR [eax]
  006f1	83 f9 01	 cmp	 ecx, 1
  006f4	75 46		 jne	 SHORT $LN41@erase

; 1417 : 							{	// rotate red up from right sub-subtree
; 1418 : 							this->_Color(this->_Right(_Pnode)) = this->_Black;

  006f6	8b 55 e0	 mov	 edx, DWORD PTR __Pnode$[ebp]
  006f9	52		 push	 edx
  006fa	e8 00 00 00 00	 call	 ?_Right@?$_Tree_comp_alloc@V?$_Tmap_traits@V?$basic_string@DU?$char_traits@D@std@@V?$allocator@D@2@@std@@P6APAXXZU?$less@V?$basic_string@DU?$char_traits@D@std@@V?$allocator@D@2@@std@@@2@V?$allocator@U?$pair@$$CBV?$basic_string@DU?$char_traits@D@std@@V?$allocator@D@2@@std@@P6APAXXZ@std@@@2@$0A@@std@@@std@@SAAAPAU?$_Tree_node@U?$pair@$$CBV?$basic_string@DU?$char_traits@D@std@@V?$allocator@D@2@@std@@P6APAXXZ@std@@PAX@2@PAU32@@Z ; std::_Tree_comp_alloc<std::_Tmap_traits<std::basic_string<char,std::char_traits<char>,std::allocator<char> >,void * (__cdecl*)(void),std::less<std::basic_string<char,std::char_traits<char>,std::allocator<char> > >,std::allocator<std::pair<std::basic_string<char,std::char_traits<char>,std::allocator<char> > const ,void * (__cdecl*)(void)> >,0> >::_Right
  006ff	83 c4 04	 add	 esp, 4
  00702	8b 00		 mov	 eax, DWORD PTR [eax]
  00704	50		 push	 eax
  00705	e8 00 00 00 00	 call	 ?_Color@?$_Tree_comp_alloc@V?$_Tmap_traits@V?$basic_string@DU?$char_traits@D@std@@V?$allocator@D@2@@std@@P6APAXXZU?$less@V?$basic_string@DU?$char_traits@D@std@@V?$allocator@D@2@@std@@@2@V?$allocator@U?$pair@$$CBV?$basic_string@DU?$char_traits@D@std@@V?$allocator@D@2@@std@@P6APAXXZ@std@@@2@$0A@@std@@@std@@SAAADPAU?$_Tree_node@U?$pair@$$CBV?$basic_string@DU?$char_traits@D@std@@V?$allocator@D@2@@std@@P6APAXXZ@std@@PAX@2@@Z ; std::_Tree_comp_alloc<std::_Tmap_traits<std::basic_string<char,std::char_traits<char>,std::allocator<char> >,void * (__cdecl*)(void),std::less<std::basic_string<char,std::char_traits<char>,std::allocator<char> > >,std::allocator<std::pair<std::basic_string<char,std::char_traits<char>,std::allocator<char> > const ,void * (__cdecl*)(void)> >,0> >::_Color
  0070a	83 c4 04	 add	 esp, 4
  0070d	c6 00 01	 mov	 BYTE PTR [eax], 1

; 1419 : 							this->_Color(_Pnode) = this->_Red;

  00710	8b 4d e0	 mov	 ecx, DWORD PTR __Pnode$[ebp]
  00713	51		 push	 ecx
  00714	e8 00 00 00 00	 call	 ?_Color@?$_Tree_comp_alloc@V?$_Tmap_traits@V?$basic_string@DU?$char_traits@D@std@@V?$allocator@D@2@@std@@P6APAXXZU?$less@V?$basic_string@DU?$char_traits@D@std@@V?$allocator@D@2@@std@@@2@V?$allocator@U?$pair@$$CBV?$basic_string@DU?$char_traits@D@std@@V?$allocator@D@2@@std@@P6APAXXZ@std@@@2@$0A@@std@@@std@@SAAADPAU?$_Tree_node@U?$pair@$$CBV?$basic_string@DU?$char_traits@D@std@@V?$allocator@D@2@@std@@P6APAXXZ@std@@PAX@2@@Z ; std::_Tree_comp_alloc<std::_Tmap_traits<std::basic_string<char,std::char_traits<char>,std::allocator<char> >,void * (__cdecl*)(void),std::less<std::basic_string<char,std::char_traits<char>,std::allocator<char> > >,std::allocator<std::pair<std::basic_string<char,std::char_traits<char>,std::allocator<char> > const ,void * (__cdecl*)(void)> >,0> >::_Color
  00719	83 c4 04	 add	 esp, 4
  0071c	c6 00 00	 mov	 BYTE PTR [eax], 0

; 1420 : 							_Lrotate(_Pnode);

  0071f	8b 55 e0	 mov	 edx, DWORD PTR __Pnode$[ebp]
  00722	52		 push	 edx
  00723	8b 4d f0	 mov	 ecx, DWORD PTR _this$[ebp]
  00726	e8 00 00 00 00	 call	 ?_Lrotate@?$_Tree@V?$_Tmap_traits@V?$basic_string@DU?$char_traits@D@std@@V?$allocator@D@2@@std@@P6APAXXZU?$less@V?$basic_string@DU?$char_traits@D@std@@V?$allocator@D@2@@std@@@2@V?$allocator@U?$pair@$$CBV?$basic_string@DU?$char_traits@D@std@@V?$allocator@D@2@@std@@P6APAXXZ@std@@@2@$0A@@std@@@std@@IAEXPAU?$_Tree_node@U?$pair@$$CBV?$basic_string@DU?$char_traits@D@std@@V?$allocator@D@2@@std@@P6APAXXZ@std@@PAX@2@@Z ; std::_Tree<std::_Tmap_traits<std::basic_string<char,std::char_traits<char>,std::allocator<char> >,void * (__cdecl*)(void),std::less<std::basic_string<char,std::char_traits<char>,std::allocator<char> > >,std::allocator<std::pair<std::basic_string<char,std::char_traits<char>,std::allocator<char> > const ,void * (__cdecl*)(void)> >,0> >::_Lrotate

; 1421 : 							_Pnode = this->_Left(_Fixnodeparent);

  0072b	8b 45 e4	 mov	 eax, DWORD PTR __Fixnodeparent$[ebp]
  0072e	50		 push	 eax
  0072f	e8 00 00 00 00	 call	 ?_Left@?$_Tree_comp_alloc@V?$_Tmap_traits@V?$basic_string@DU?$char_traits@D@std@@V?$allocator@D@2@@std@@P6APAXXZU?$less@V?$basic_string@DU?$char_traits@D@std@@V?$allocator@D@2@@std@@@2@V?$allocator@U?$pair@$$CBV?$basic_string@DU?$char_traits@D@std@@V?$allocator@D@2@@std@@P6APAXXZ@std@@@2@$0A@@std@@@std@@SAAAPAU?$_Tree_node@U?$pair@$$CBV?$basic_string@DU?$char_traits@D@std@@V?$allocator@D@2@@std@@P6APAXXZ@std@@PAX@2@PAU32@@Z ; std::_Tree_comp_alloc<std::_Tmap_traits<std::basic_string<char,std::char_traits<char>,std::allocator<char> >,void * (__cdecl*)(void),std::less<std::basic_string<char,std::char_traits<char>,std::allocator<char> > >,std::allocator<std::pair<std::basic_string<char,std::char_traits<char>,std::allocator<char> > const ,void * (__cdecl*)(void)> >,0> >::_Left
  00734	83 c4 04	 add	 esp, 4
  00737	8b 08		 mov	 ecx, DWORD PTR [eax]
  00739	89 4d e0	 mov	 DWORD PTR __Pnode$[ebp], ecx
$LN41@erase:

; 1422 : 							}
; 1423 : 
; 1424 : 						this->_Color(_Pnode) = this->_Color(_Fixnodeparent);

  0073c	8b 55 e4	 mov	 edx, DWORD PTR __Fixnodeparent$[ebp]
  0073f	52		 push	 edx
  00740	e8 00 00 00 00	 call	 ?_Color@?$_Tree_comp_alloc@V?$_Tmap_traits@V?$basic_string@DU?$char_traits@D@std@@V?$allocator@D@2@@std@@P6APAXXZU?$less@V?$basic_string@DU?$char_traits@D@std@@V?$allocator@D@2@@std@@@2@V?$allocator@U?$pair@$$CBV?$basic_string@DU?$char_traits@D@std@@V?$allocator@D@2@@std@@P6APAXXZ@std@@@2@$0A@@std@@@std@@SAAADPAU?$_Tree_node@U?$pair@$$CBV?$basic_string@DU?$char_traits@D@std@@V?$allocator@D@2@@std@@P6APAXXZ@std@@PAX@2@@Z ; std::_Tree_comp_alloc<std::_Tmap_traits<std::basic_string<char,std::char_traits<char>,std::allocator<char> >,void * (__cdecl*)(void),std::less<std::basic_string<char,std::char_traits<char>,std::allocator<char> > >,std::allocator<std::pair<std::basic_string<char,std::char_traits<char>,std::allocator<char> > const ,void * (__cdecl*)(void)> >,0> >::_Color
  00745	83 c4 04	 add	 esp, 4
  00748	8b f0		 mov	 esi, eax
  0074a	8b 45 e0	 mov	 eax, DWORD PTR __Pnode$[ebp]
  0074d	50		 push	 eax
  0074e	e8 00 00 00 00	 call	 ?_Color@?$_Tree_comp_alloc@V?$_Tmap_traits@V?$basic_string@DU?$char_traits@D@std@@V?$allocator@D@2@@std@@P6APAXXZU?$less@V?$basic_string@DU?$char_traits@D@std@@V?$allocator@D@2@@std@@@2@V?$allocator@U?$pair@$$CBV?$basic_string@DU?$char_traits@D@std@@V?$allocator@D@2@@std@@P6APAXXZ@std@@@2@$0A@@std@@@std@@SAAADPAU?$_Tree_node@U?$pair@$$CBV?$basic_string@DU?$char_traits@D@std@@V?$allocator@D@2@@std@@P6APAXXZ@std@@PAX@2@@Z ; std::_Tree_comp_alloc<std::_Tmap_traits<std::basic_string<char,std::char_traits<char>,std::allocator<char> >,void * (__cdecl*)(void),std::less<std::basic_string<char,std::char_traits<char>,std::allocator<char> > >,std::allocator<std::pair<std::basic_string<char,std::char_traits<char>,std::allocator<char> > const ,void * (__cdecl*)(void)> >,0> >::_Color
  00753	83 c4 04	 add	 esp, 4
  00756	8a 0e		 mov	 cl, BYTE PTR [esi]
  00758	88 08		 mov	 BYTE PTR [eax], cl

; 1425 : 						this->_Color(_Fixnodeparent) = this->_Black;

  0075a	8b 55 e4	 mov	 edx, DWORD PTR __Fixnodeparent$[ebp]
  0075d	52		 push	 edx
  0075e	e8 00 00 00 00	 call	 ?_Color@?$_Tree_comp_alloc@V?$_Tmap_traits@V?$basic_string@DU?$char_traits@D@std@@V?$allocator@D@2@@std@@P6APAXXZU?$less@V?$basic_string@DU?$char_traits@D@std@@V?$allocator@D@2@@std@@@2@V?$allocator@U?$pair@$$CBV?$basic_string@DU?$char_traits@D@std@@V?$allocator@D@2@@std@@P6APAXXZ@std@@@2@$0A@@std@@@std@@SAAADPAU?$_Tree_node@U?$pair@$$CBV?$basic_string@DU?$char_traits@D@std@@V?$allocator@D@2@@std@@P6APAXXZ@std@@PAX@2@@Z ; std::_Tree_comp_alloc<std::_Tmap_traits<std::basic_string<char,std::char_traits<char>,std::allocator<char> >,void * (__cdecl*)(void),std::less<std::basic_string<char,std::char_traits<char>,std::allocator<char> > >,std::allocator<std::pair<std::basic_string<char,std::char_traits<char>,std::allocator<char> > const ,void * (__cdecl*)(void)> >,0> >::_Color
  00763	83 c4 04	 add	 esp, 4
  00766	c6 00 01	 mov	 BYTE PTR [eax], 1

; 1426 : 						this->_Color(this->_Left(_Pnode)) = this->_Black;

  00769	8b 45 e0	 mov	 eax, DWORD PTR __Pnode$[ebp]
  0076c	50		 push	 eax
  0076d	e8 00 00 00 00	 call	 ?_Left@?$_Tree_comp_alloc@V?$_Tmap_traits@V?$basic_string@DU?$char_traits@D@std@@V?$allocator@D@2@@std@@P6APAXXZU?$less@V?$basic_string@DU?$char_traits@D@std@@V?$allocator@D@2@@std@@@2@V?$allocator@U?$pair@$$CBV?$basic_string@DU?$char_traits@D@std@@V?$allocator@D@2@@std@@P6APAXXZ@std@@@2@$0A@@std@@@std@@SAAAPAU?$_Tree_node@U?$pair@$$CBV?$basic_string@DU?$char_traits@D@std@@V?$allocator@D@2@@std@@P6APAXXZ@std@@PAX@2@PAU32@@Z ; std::_Tree_comp_alloc<std::_Tmap_traits<std::basic_string<char,std::char_traits<char>,std::allocator<char> >,void * (__cdecl*)(void),std::less<std::basic_string<char,std::char_traits<char>,std::allocator<char> > >,std::allocator<std::pair<std::basic_string<char,std::char_traits<char>,std::allocator<char> > const ,void * (__cdecl*)(void)> >,0> >::_Left
  00772	83 c4 04	 add	 esp, 4
  00775	8b 08		 mov	 ecx, DWORD PTR [eax]
  00777	51		 push	 ecx
  00778	e8 00 00 00 00	 call	 ?_Color@?$_Tree_comp_alloc@V?$_Tmap_traits@V?$basic_string@DU?$char_traits@D@std@@V?$allocator@D@2@@std@@P6APAXXZU?$less@V?$basic_string@DU?$char_traits@D@std@@V?$allocator@D@2@@std@@@2@V?$allocator@U?$pair@$$CBV?$basic_string@DU?$char_traits@D@std@@V?$allocator@D@2@@std@@P6APAXXZ@std@@@2@$0A@@std@@@std@@SAAADPAU?$_Tree_node@U?$pair@$$CBV?$basic_string@DU?$char_traits@D@std@@V?$allocator@D@2@@std@@P6APAXXZ@std@@PAX@2@@Z ; std::_Tree_comp_alloc<std::_Tmap_traits<std::basic_string<char,std::char_traits<char>,std::allocator<char> >,void * (__cdecl*)(void),std::less<std::basic_string<char,std::char_traits<char>,std::allocator<char> > >,std::allocator<std::pair<std::basic_string<char,std::char_traits<char>,std::allocator<char> > const ,void * (__cdecl*)(void)> >,0> >::_Color
  0077d	83 c4 04	 add	 esp, 4
  00780	c6 00 01	 mov	 BYTE PTR [eax], 1

; 1427 : 						_Rrotate(_Fixnodeparent);

  00783	8b 55 e4	 mov	 edx, DWORD PTR __Fixnodeparent$[ebp]
  00786	52		 push	 edx
  00787	8b 4d f0	 mov	 ecx, DWORD PTR _this$[ebp]
  0078a	e8 00 00 00 00	 call	 ?_Rrotate@?$_Tree@V?$_Tmap_traits@V?$basic_string@DU?$char_traits@D@std@@V?$allocator@D@2@@std@@P6APAXXZU?$less@V?$basic_string@DU?$char_traits@D@std@@V?$allocator@D@2@@std@@@2@V?$allocator@U?$pair@$$CBV?$basic_string@DU?$char_traits@D@std@@V?$allocator@D@2@@std@@P6APAXXZ@std@@@2@$0A@@std@@@std@@IAEXPAU?$_Tree_node@U?$pair@$$CBV?$basic_string@DU?$char_traits@D@std@@V?$allocator@D@2@@std@@P6APAXXZ@std@@PAX@2@@Z ; std::_Tree<std::_Tmap_traits<std::basic_string<char,std::char_traits<char>,std::allocator<char> >,void * (__cdecl*)(void),std::less<std::basic_string<char,std::char_traits<char>,std::allocator<char> > >,std::allocator<std::pair<std::basic_string<char,std::char_traits<char>,std::allocator<char> > const ,void * (__cdecl*)(void)> >,0> >::_Rrotate

; 1428 : 						break;	// tree now recolored/rebalanced

  0078f	eb 05		 jmp	 SHORT $LN3@erase
$LN29@erase:

; 1429 : 						}
; 1430 : 					}

  00791	e9 82 fc ff ff	 jmp	 $LN2@erase
$LN3@erase:

; 1431 : 
; 1432 : 			this->_Color(_Fixnode) = this->_Black;	// stopping node is black

  00796	8b 45 e8	 mov	 eax, DWORD PTR __Fixnode$[ebp]
  00799	50		 push	 eax
  0079a	e8 00 00 00 00	 call	 ?_Color@?$_Tree_comp_alloc@V?$_Tmap_traits@V?$basic_string@DU?$char_traits@D@std@@V?$allocator@D@2@@std@@P6APAXXZU?$less@V?$basic_string@DU?$char_traits@D@std@@V?$allocator@D@2@@std@@@2@V?$allocator@U?$pair@$$CBV?$basic_string@DU?$char_traits@D@std@@V?$allocator@D@2@@std@@P6APAXXZ@std@@@2@$0A@@std@@@std@@SAAADPAU?$_Tree_node@U?$pair@$$CBV?$basic_string@DU?$char_traits@D@std@@V?$allocator@D@2@@std@@P6APAXXZ@std@@PAX@2@@Z ; std::_Tree_comp_alloc<std::_Tmap_traits<std::basic_string<char,std::char_traits<char>,std::allocator<char> >,void * (__cdecl*)(void),std::less<std::basic_string<char,std::char_traits<char>,std::allocator<char> > >,std::allocator<std::pair<std::basic_string<char,std::char_traits<char>,std::allocator<char> > const ,void * (__cdecl*)(void)> >,0> >::_Color
  0079f	83 c4 04	 add	 esp, 4
  007a2	c6 00 01	 mov	 BYTE PTR [eax], 1
$LN27@erase:

; 1433 : 			}
; 1434 : 
; 1435 : 		this->_Getal().destroy(

  007a5	8b 4d ec	 mov	 ecx, DWORD PTR __Erasednode$[ebp]
  007a8	51		 push	 ecx
  007a9	e8 00 00 00 00	 call	 ?_Myval@?$_Tree_comp_alloc@V?$_Tmap_traits@V?$basic_string@DU?$char_traits@D@std@@V?$allocator@D@2@@std@@P6APAXXZU?$less@V?$basic_string@DU?$char_traits@D@std@@V?$allocator@D@2@@std@@@2@V?$allocator@U?$pair@$$CBV?$basic_string@DU?$char_traits@D@std@@V?$allocator@D@2@@std@@P6APAXXZ@std@@@2@$0A@@std@@@std@@SAAAU?$pair@$$CBV?$basic_string@DU?$char_traits@D@std@@V?$allocator@D@2@@std@@P6APAXXZ@2@PAU?$_Tree_node@U?$pair@$$CBV?$basic_string@DU?$char_traits@D@std@@V?$allocator@D@2@@std@@P6APAXXZ@std@@PAX@2@@Z ; std::_Tree_comp_alloc<std::_Tmap_traits<std::basic_string<char,std::char_traits<char>,std::allocator<char> >,void * (__cdecl*)(void),std::less<std::basic_string<char,std::char_traits<char>,std::allocator<char> > >,std::allocator<std::pair<std::basic_string<char,std::char_traits<char>,std::allocator<char> > const ,void * (__cdecl*)(void)> >,0> >::_Myval
  007ae	83 c4 04	 add	 esp, 4
  007b1	50		 push	 eax
  007b2	e8 00 00 00 00	 call	 ??$addressof@U?$pair@$$CBV?$basic_string@DU?$char_traits@D@std@@V?$allocator@D@2@@std@@P6APAXXZ@std@@@std@@YAPAU?$pair@$$CBV?$basic_string@DU?$char_traits@D@std@@V?$allocator@D@2@@std@@P6APAXXZ@0@AAU10@@Z ; std::addressof<std::pair<std::basic_string<char,std::char_traits<char>,std::allocator<char> > const ,void * (__cdecl*)(void)> >
  007b7	83 c4 04	 add	 esp, 4
  007ba	50		 push	 eax
  007bb	8b 4d f0	 mov	 ecx, DWORD PTR _this$[ebp]
  007be	e8 00 00 00 00	 call	 ?_Getal@?$_Tree_comp_alloc@V?$_Tmap_traits@V?$basic_string@DU?$char_traits@D@std@@V?$allocator@D@2@@std@@P6APAXXZU?$less@V?$basic_string@DU?$char_traits@D@std@@V?$allocator@D@2@@std@@@2@V?$allocator@U?$pair@$$CBV?$basic_string@DU?$char_traits@D@std@@V?$allocator@D@2@@std@@P6APAXXZ@std@@@2@$0A@@std@@@std@@QAEAAU?$_Wrap_alloc@V?$allocator@U?$_Tree_node@U?$pair@$$CBV?$basic_string@DU?$char_traits@D@std@@V?$allocator@D@2@@std@@P6APAXXZ@std@@PAX@std@@@std@@@2@XZ ; std::_Tree_comp_alloc<std::_Tmap_traits<std::basic_string<char,std::char_traits<char>,std::allocator<char> >,void * (__cdecl*)(void),std::less<std::basic_string<char,std::char_traits<char>,std::allocator<char> > >,std::allocator<std::pair<std::basic_string<char,std::char_traits<char>,std::allocator<char> > const ,void * (__cdecl*)(void)> >,0> >::_Getal
  007c3	8b c8		 mov	 ecx, eax
  007c5	e8 00 00 00 00	 call	 ??$destroy@U?$pair@$$CBV?$basic_string@DU?$char_traits@D@std@@V?$allocator@D@2@@std@@P6APAXXZ@std@@@?$_Wrap_alloc@V?$allocator@U?$_Tree_node@U?$pair@$$CBV?$basic_string@DU?$char_traits@D@std@@V?$allocator@D@2@@std@@P6APAXXZ@std@@PAX@std@@@std@@@std@@QAEXPAU?$pair@$$CBV?$basic_string@DU?$char_traits@D@std@@V?$allocator@D@2@@std@@P6APAXXZ@1@@Z ; std::_Wrap_alloc<std::allocator<std::_Tree_node<std::pair<std::basic_string<char,std::char_traits<char>,std::allocator<char> > const ,void * (__cdecl*)(void)>,void *> > >::destroy<std::pair<std::basic_string<char,std::char_traits<char>,std::allocator<char> > const ,void * (__cdecl*)(void)> >

; 1436 : 			_STD addressof(this->_Myval(_Erasednode)));	// delete erased node
; 1437 : 
; 1438 : 		this->_Getal().deallocate(_Erasednode, 1);

  007ca	6a 01		 push	 1
  007cc	8b 55 ec	 mov	 edx, DWORD PTR __Erasednode$[ebp]
  007cf	52		 push	 edx
  007d0	8b 4d f0	 mov	 ecx, DWORD PTR _this$[ebp]
  007d3	e8 00 00 00 00	 call	 ?_Getal@?$_Tree_comp_alloc@V?$_Tmap_traits@V?$basic_string@DU?$char_traits@D@std@@V?$allocator@D@2@@std@@P6APAXXZU?$less@V?$basic_string@DU?$char_traits@D@std@@V?$allocator@D@2@@std@@@2@V?$allocator@U?$pair@$$CBV?$basic_string@DU?$char_traits@D@std@@V?$allocator@D@2@@std@@P6APAXXZ@std@@@2@$0A@@std@@@std@@QAEAAU?$_Wrap_alloc@V?$allocator@U?$_Tree_node@U?$pair@$$CBV?$basic_string@DU?$char_traits@D@std@@V?$allocator@D@2@@std@@P6APAXXZ@std@@PAX@std@@@std@@@2@XZ ; std::_Tree_comp_alloc<std::_Tmap_traits<std::basic_string<char,std::char_traits<char>,std::allocator<char> >,void * (__cdecl*)(void),std::less<std::basic_string<char,std::char_traits<char>,std::allocator<char> > >,std::allocator<std::pair<std::basic_string<char,std::char_traits<char>,std::allocator<char> > const ,void * (__cdecl*)(void)> >,0> >::_Getal
  007d8	8b c8		 mov	 ecx, eax
  007da	e8 00 00 00 00	 call	 ?deallocate@?$_Wrap_alloc@V?$allocator@U?$_Tree_node@U?$pair@$$CBV?$basic_string@DU?$char_traits@D@std@@V?$allocator@D@2@@std@@P6APAXXZ@std@@PAX@std@@@std@@@std@@QAEXPAU?$_Tree_node@U?$pair@$$CBV?$basic_string@DU?$char_traits@D@std@@V?$allocator@D@2@@std@@P6APAXXZ@std@@PAX@2@I@Z ; std::_Wrap_alloc<std::allocator<std::_Tree_node<std::pair<std::basic_string<char,std::char_traits<char>,std::allocator<char> > const ,void * (__cdecl*)(void)>,void *> > >::deallocate

; 1439 : 
; 1440 : 		if (0 < this->_Mysize())

  007df	8b 4d f0	 mov	 ecx, DWORD PTR _this$[ebp]
  007e2	e8 00 00 00 00	 call	 ?_Mysize@?$_Tree_comp_alloc@V?$_Tmap_traits@V?$basic_string@DU?$char_traits@D@std@@V?$allocator@D@2@@std@@P6APAXXZU?$less@V?$basic_string@DU?$char_traits@D@std@@V?$allocator@D@2@@std@@@2@V?$allocator@U?$pair@$$CBV?$basic_string@DU?$char_traits@D@std@@V?$allocator@D@2@@std@@P6APAXXZ@std@@@2@$0A@@std@@@std@@QAEAAIXZ ; std::_Tree_comp_alloc<std::_Tmap_traits<std::basic_string<char,std::char_traits<char>,std::allocator<char> >,void * (__cdecl*)(void),std::less<std::basic_string<char,std::char_traits<char>,std::allocator<char> > >,std::allocator<std::pair<std::basic_string<char,std::char_traits<char>,std::allocator<char> > const ,void * (__cdecl*)(void)> >,0> >::_Mysize
  007e7	83 38 00	 cmp	 DWORD PTR [eax], 0
  007ea	76 18		 jbe	 SHORT $LN42@erase

; 1441 : 			--this->_Mysize();

  007ec	8b 4d f0	 mov	 ecx, DWORD PTR _this$[ebp]
  007ef	e8 00 00 00 00	 call	 ?_Mysize@?$_Tree_comp_alloc@V?$_Tmap_traits@V?$basic_string@DU?$char_traits@D@std@@V?$allocator@D@2@@std@@P6APAXXZU?$less@V?$basic_string@DU?$char_traits@D@std@@V?$allocator@D@2@@std@@@2@V?$allocator@U?$pair@$$CBV?$basic_string@DU?$char_traits@D@std@@V?$allocator@D@2@@std@@P6APAXXZ@std@@@2@$0A@@std@@@std@@QAEAAIXZ ; std::_Tree_comp_alloc<std::_Tmap_traits<std::basic_string<char,std::char_traits<char>,std::allocator<char> >,void * (__cdecl*)(void),std::less<std::basic_string<char,std::char_traits<char>,std::allocator<char> > >,std::allocator<std::pair<std::basic_string<char,std::char_traits<char>,std::allocator<char> > const ,void * (__cdecl*)(void)> >,0> >::_Mysize
  007f4	89 45 d0	 mov	 DWORD PTR tv434[ebp], eax
  007f7	8b 45 d0	 mov	 eax, DWORD PTR tv434[ebp]
  007fa	8b 08		 mov	 ecx, DWORD PTR [eax]
  007fc	83 e9 01	 sub	 ecx, 1
  007ff	8b 55 d0	 mov	 edx, DWORD PTR tv434[ebp]
  00802	89 0a		 mov	 DWORD PTR [edx], ecx
$LN42@erase:

; 1442 : 
; 1443 : 		return (iterator(_Where._Ptr,

  00804	8b 4d f0	 mov	 ecx, DWORD PTR _this$[ebp]
  00807	e8 00 00 00 00	 call	 ?_Get_data@?$_Tree_comp_alloc@V?$_Tmap_traits@V?$basic_string@DU?$char_traits@D@std@@V?$allocator@D@2@@std@@P6APAXXZU?$less@V?$basic_string@DU?$char_traits@D@std@@V?$allocator@D@2@@std@@@2@V?$allocator@U?$pair@$$CBV?$basic_string@DU?$char_traits@D@std@@V?$allocator@D@2@@std@@P6APAXXZ@std@@@2@$0A@@std@@@std@@QAEAAV?$_Tree_val@U?$_Tree_simple_types@U?$pair@$$CBV?$basic_string@DU?$char_traits@D@std@@V?$allocator@D@2@@std@@P6APAXXZ@std@@@std@@@2@XZ ; std::_Tree_comp_alloc<std::_Tmap_traits<std::basic_string<char,std::char_traits<char>,std::allocator<char> >,void * (__cdecl*)(void),std::less<std::basic_string<char,std::char_traits<char>,std::allocator<char> > >,std::allocator<std::pair<std::basic_string<char,std::char_traits<char>,std::allocator<char> > const ,void * (__cdecl*)(void)> >,0> >::_Get_data
  0080c	50		 push	 eax
  0080d	8b 45 14	 mov	 eax, DWORD PTR __Where$[ebp+8]
  00810	50		 push	 eax
  00811	8b 4d 08	 mov	 ecx, DWORD PTR ___$ReturnUdt$[ebp]
  00814	e8 00 00 00 00	 call	 ??0?$_Tree_iterator@V?$_Tree_val@U?$_Tree_simple_types@U?$pair@$$CBV?$basic_string@DU?$char_traits@D@std@@V?$allocator@D@2@@std@@P6APAXXZ@std@@@std@@@std@@@std@@QAE@PAU?$_Tree_node@U?$pair@$$CBV?$basic_string@DU?$char_traits@D@std@@V?$allocator@D@2@@std@@P6APAXXZ@std@@PAX@1@PBV?$_Tree_val@U?$_Tree_simple_types@U?$pair@$$CBV?$basic_string@DU?$char_traits@D@std@@V?$allocator@D@2@@std@@P6APAXXZ@std@@@std@@@1@@Z ; std::_Tree_iterator<std::_Tree_val<std::_Tree_simple_types<std::pair<std::basic_string<char,std::char_traits<char>,std::allocator<char> > const ,void * (__cdecl*)(void)> > > >::_Tree_iterator<std::_Tree_val<std::_Tree_simple_types<std::pair<std::basic_string<char,std::char_traits<char>,std::allocator<char> > const ,void * (__cdecl*)(void)> > > >
  00819	8b 4d dc	 mov	 ecx, DWORD PTR $T2[ebp]
  0081c	83 c9 01	 or	 ecx, 1
  0081f	89 4d dc	 mov	 DWORD PTR $T2[ebp], ecx
  00822	c7 45 fc ff ff
	ff ff		 mov	 DWORD PTR __$EHRec$[ebp+8], -1
  00829	8d 4d 0c	 lea	 ecx, DWORD PTR __Where$[ebp]
  0082c	e8 00 00 00 00	 call	 ??1?$_Tree_const_iterator@V?$_Tree_val@U?$_Tree_simple_types@U?$pair@$$CBV?$basic_string@DU?$char_traits@D@std@@V?$allocator@D@2@@std@@P6APAXXZ@std@@@std@@@std@@@std@@QAE@XZ
  00831	8b 45 08	 mov	 eax, DWORD PTR ___$ReturnUdt$[ebp]

; 1444 : 			&this->_Get_data()));	// return successor iterator
; 1445 : 		}

  00834	8b 4d f4	 mov	 ecx, DWORD PTR __$EHRec$[ebp]
  00837	64 89 0d 00 00
	00 00		 mov	 DWORD PTR fs:0, ecx
  0083e	59		 pop	 ecx
  0083f	5e		 pop	 esi
  00840	83 c4 30	 add	 esp, 48			; 00000030H
  00843	3b ec		 cmp	 ebp, esp
  00845	e8 00 00 00 00	 call	 __RTC_CheckEsp
  0084a	8b e5		 mov	 esp, ebp
  0084c	5d		 pop	 ebp
  0084d	c2 10 00	 ret	 16			; 00000010H
_TEXT	ENDS
;	COMDAT text$x
text$x	SEGMENT
__unwindfunclet$?erase@?$_Tree@V?$_Tmap_traits@V?$basic_string@DU?$char_traits@D@std@@V?$allocator@D@2@@std@@P6APAXXZU?$less@V?$basic_string@DU?$char_traits@D@std@@V?$allocator@D@2@@std@@@2@V?$allocator@U?$pair@$$CBV?$basic_string@DU?$char_traits@D@std@@V?$allocator@D@2@@std@@P6APAXXZ@std@@@2@$0A@@std@@@std@@QAE?AV?$_Tree_iterator@V?$_Tree_val@U?$_Tree_simple_types@U?$pair@$$CBV?$basic_string@DU?$char_traits@D@std@@V?$allocator@D@2@@std@@P6APAXXZ@std@@@std@@@std@@@2@V?$_Tree_const_iterator@V?$_Tree_val@U?$_Tree_simple_types@U?$pair@$$CBV?$basic_string@DU?$char_traits@D@std@@V?$allocator@D@2@@std@@P6APAXXZ@std@@@std@@@std@@@2@@Z$0:
  00000	8d 4d 0c	 lea	 ecx, DWORD PTR __Where$[ebp]
  00003	e9 00 00 00 00	 jmp	 ??1?$_Tree_const_iterator@V?$_Tree_val@U?$_Tree_simple_types@U?$pair@$$CBV?$basic_string@DU?$char_traits@D@std@@V?$allocator@D@2@@std@@P6APAXXZ@std@@@std@@@std@@@std@@QAE@XZ
__ehhandler$?erase@?$_Tree@V?$_Tmap_traits@V?$basic_string@DU?$char_traits@D@std@@V?$allocator@D@2@@std@@P6APAXXZU?$less@V?$basic_string@DU?$char_traits@D@std@@V?$allocator@D@2@@std@@@2@V?$allocator@U?$pair@$$CBV?$basic_string@DU?$char_traits@D@std@@V?$allocator@D@2@@std@@P6APAXXZ@std@@@2@$0A@@std@@@std@@QAE?AV?$_Tree_iterator@V?$_Tree_val@U?$_Tree_simple_types@U?$pair@$$CBV?$basic_string@DU?$char_traits@D@std@@V?$allocator@D@2@@std@@P6APAXXZ@std@@@std@@@std@@@2@V?$_Tree_const_iterator@V?$_Tree_val@U?$_Tree_simple_types@U?$pair@$$CBV?$basic_string@DU?$char_traits@D@std@@V?$allocator@D@2@@std@@P6APAXXZ@std@@@std@@@std@@@2@@Z:
  00008	8b 54 24 08	 mov	 edx, DWORD PTR [esp+8]
  0000c	8d 42 0c	 lea	 eax, DWORD PTR [edx+12]
  0000f	8b 4a d4	 mov	 ecx, DWORD PTR [edx-44]
  00012	33 c8		 xor	 ecx, eax
  00014	e8 00 00 00 00	 call	 @__security_check_cookie@4
  00019	b8 00 00 00 00	 mov	 eax, OFFSET __ehfuncinfo$?erase@?$_Tree@V?$_Tmap_traits@V?$basic_string@DU?$char_traits@D@std@@V?$allocator@D@2@@std@@P6APAXXZU?$less@V?$basic_string@DU?$char_traits@D@std@@V?$allocator@D@2@@std@@@2@V?$allocator@U?$pair@$$CBV?$basic_string@DU?$char_traits@D@std@@V?$allocator@D@2@@std@@P6APAXXZ@std@@@2@$0A@@std@@@std@@QAE?AV?$_Tree_iterator@V?$_Tree_val@U?$_Tree_simple_types@U?$pair@$$CBV?$basic_string@DU?$char_traits@D@std@@V?$allocator@D@2@@std@@P6APAXXZ@std@@@std@@@std@@@2@V?$_Tree_const_iterator@V?$_Tree_val@U?$_Tree_simple_types@U?$pair@$$CBV?$basic_string@DU?$char_traits@D@std@@V?$allocator@D@2@@std@@P6APAXXZ@std@@@std@@@std@@@2@@Z
  0001e	e9 00 00 00 00	 jmp	 ___CxxFrameHandler3
text$x	ENDS
?erase@?$_Tree@V?$_Tmap_traits@V?$basic_string@DU?$char_traits@D@std@@V?$allocator@D@2@@std@@P6APAXXZU?$less@V?$basic_string@DU?$char_traits@D@std@@V?$allocator@D@2@@std@@@2@V?$allocator@U?$pair@$$CBV?$basic_string@DU?$char_traits@D@std@@V?$allocator@D@2@@std@@P6APAXXZ@std@@@2@$0A@@std@@@std@@QAE?AV?$_Tree_iterator@V?$_Tree_val@U?$_Tree_simple_types@U?$pair@$$CBV?$basic_string@DU?$char_traits@D@std@@V?$allocator@D@2@@std@@P6APAXXZ@std@@@std@@@std@@@2@V?$_Tree_const_iterator@V?$_Tree_val@U?$_Tree_simple_types@U?$pair@$$CBV?$basic_string@DU?$char_traits@D@std@@V?$allocator@D@2@@std@@P6APAXXZ@std@@@std@@@std@@@2@@Z ENDP ; std::_Tree<std::_Tmap_traits<std::basic_string<char,std::char_traits<char>,std::allocator<char> >,void * (__cdecl*)(void),std::less<std::basic_string<char,std::char_traits<char>,std::allocator<char> > >,std::allocator<std::pair<std::basic_string<char,std::char_traits<char>,std::allocator<char> > const ,void * (__cdecl*)(void)> >,0> >::erase
; Function compile flags: /Odtp /RTCsu
; File c:\program files (x86)\microsoft visual studio 14.0\vc\include\xtree
;	COMDAT ??E?$_Tree_const_iterator@V?$_Tree_val@U?$_Tree_simple_types@U?$pair@$$CBV?$basic_string@DU?$char_traits@D@std@@V?$allocator@D@2@@std@@P6APAXXZ@std@@@std@@@std@@@std@@QAEAAV01@XZ
_TEXT	SEGMENT
_this$ = -4						; size = 4
??E?$_Tree_const_iterator@V?$_Tree_val@U?$_Tree_simple_types@U?$pair@$$CBV?$basic_string@DU?$char_traits@D@std@@V?$allocator@D@2@@std@@P6APAXXZ@std@@@std@@@std@@@std@@QAEAAV01@XZ PROC ; std::_Tree_const_iterator<std::_Tree_val<std::_Tree_simple_types<std::pair<std::basic_string<char,std::char_traits<char>,std::allocator<char> > const ,void * (__cdecl*)(void)> > > >::operator++, COMDAT
; _this$ = ecx

; 256  : 		{	// preincrement

  00000	55		 push	 ebp
  00001	8b ec		 mov	 ebp, esp
  00003	51		 push	 ecx
  00004	56		 push	 esi
  00005	c7 45 fc cc cc
	cc cc		 mov	 DWORD PTR [ebp-4], -858993460 ; ccccccccH
  0000c	89 4d fc	 mov	 DWORD PTR _this$[ebp], ecx

; 257  :  #if _ITERATOR_DEBUG_LEVEL == 2
; 258  : 		if (this->_Getcont() == 0
; 259  : 			|| this->_Ptr == 0
; 260  : 			|| _Mytree::_Isnil(this->_Ptr))

  0000f	8b 4d fc	 mov	 ecx, DWORD PTR _this$[ebp]
  00012	e8 00 00 00 00	 call	 ?_Getcont@_Iterator_base12@std@@QBEPBU_Container_base12@2@XZ ; std::_Iterator_base12::_Getcont
  00017	85 c0		 test	 eax, eax
  00019	74 23		 je	 SHORT $LN3@operator
  0001b	8b 45 fc	 mov	 eax, DWORD PTR _this$[ebp]
  0001e	83 78 08 00	 cmp	 DWORD PTR [eax+8], 0
  00022	74 1a		 je	 SHORT $LN3@operator
  00024	8b 4d fc	 mov	 ecx, DWORD PTR _this$[ebp]
  00027	8b 51 08	 mov	 edx, DWORD PTR [ecx+8]
  0002a	52		 push	 edx
  0002b	e8 00 00 00 00	 call	 ?_Isnil@?$_Tree_val@U?$_Tree_simple_types@U?$pair@$$CBV?$basic_string@DU?$char_traits@D@std@@V?$allocator@D@2@@std@@P6APAXXZ@std@@@std@@@std@@SAAADPAU?$_Tree_node@U?$pair@$$CBV?$basic_string@DU?$char_traits@D@std@@V?$allocator@D@2@@std@@P6APAXXZ@std@@PAX@2@@Z ; std::_Tree_val<std::_Tree_simple_types<std::pair<std::basic_string<char,std::char_traits<char>,std::allocator<char> > const ,void * (__cdecl*)(void)> > >::_Isnil
  00030	83 c4 04	 add	 esp, 4
  00033	0f be 00	 movsx	 eax, BYTE PTR [eax]
  00036	85 c0		 test	 eax, eax
  00038	0f 84 86 00 00
	00		 je	 $LN2@operator
$LN3@operator:

; 261  : 			{	// report error
; 262  : 			_DEBUG_ERROR("map/set iterator not incrementable");

  0003e	8b f4		 mov	 esi, esp
  00040	68 06 01 00 00	 push	 262			; 00000106H
  00045	68 00 00 00 00	 push	 OFFSET ??_C@_1IK@BEABFJGP@?$AAC?$AA?3?$AA?2?$AAP?$AAr?$AAo?$AAg?$AAr?$AAa?$AAm?$AA?5?$AAF?$AAi?$AAl?$AAe?$AAs?$AA?5?$AA?$CI?$AAx?$AA8?$AA6?$AA?$CJ?$AA?2?$AAM?$AAi?$AAc?$AAr?$AAo?$AAs?$AAo?$AAf?$AAt@
  0004a	68 00 00 00 00	 push	 OFFSET ??_C@_1EG@EHJFMBHJ@?$AAm?$AAa?$AAp?$AA?1?$AAs?$AAe?$AAt?$AA?5?$AAi?$AAt?$AAe?$AAr?$AAa?$AAt?$AAo?$AAr?$AA?5?$AAn?$AAo?$AAt?$AA?5?$AAi?$AAn?$AAc?$AAr?$AAe?$AAm?$AAe?$AAn?$AAt?$AAa?$AAb@
  0004f	ff 15 00 00 00
	00		 call	 DWORD PTR __imp_?_Debug_message@std@@YAXPB_W0I@Z
  00055	83 c4 0c	 add	 esp, 12			; 0000000cH
  00058	3b f4		 cmp	 esi, esp
  0005a	e8 00 00 00 00	 call	 __RTC_CheckEsp

; 263  : 			_SCL_SECURE_OUT_OF_RANGE;

  0005f	b9 00 00 00 00	 mov	 ecx, OFFSET ??_C@_0CE@OFMIGAMM@Standard?5C?$CL?$CL?5Libraries?5Out?5of?5Ra@
  00064	85 c9		 test	 ecx, ecx
  00066	74 04		 je	 SHORT $LN5@operator
  00068	33 d2		 xor	 edx, edx
  0006a	75 30		 jne	 SHORT $LN6@operator
$LN5@operator:
  0006c	8b f4		 mov	 esi, esp
  0006e	68 00 00 00 00	 push	 OFFSET ??_C@_1FG@IBPIFFN@?$AA?$CC?$AAS?$AAt?$AAa?$AAn?$AAd?$AAa?$AAr?$AAd?$AA?5?$AAC?$AA?$CL?$AA?$CL?$AA?5?$AAL?$AAi?$AAb?$AAr?$AAa?$AAr?$AAi?$AAe?$AAs?$AA?5?$AAO?$AAu?$AAt?$AA?5?$AAo?$AAf?$AA?5?$AAR@
  00073	68 00 00 00 00	 push	 OFFSET ??_C@_17CNPHIMPH@?$AA?$CF?$AAl?$AAs?$AA?$AA@
  00078	6a 00		 push	 0
  0007a	68 07 01 00 00	 push	 263			; 00000107H
  0007f	68 00 00 00 00	 push	 OFFSET ??_C@_1IK@BEABFJGP@?$AAC?$AA?3?$AA?2?$AAP?$AAr?$AAo?$AAg?$AAr?$AAa?$AAm?$AA?5?$AAF?$AAi?$AAl?$AAe?$AAs?$AA?5?$AA?$CI?$AAx?$AA8?$AA6?$AA?$CJ?$AA?2?$AAM?$AAi?$AAc?$AAr?$AAo?$AAs?$AAo?$AAf?$AAt@
  00084	6a 02		 push	 2
  00086	ff 15 00 00 00
	00		 call	 DWORD PTR __imp___CrtDbgReportW
  0008c	83 c4 18	 add	 esp, 24			; 00000018H
  0008f	3b f4		 cmp	 esi, esp
  00091	e8 00 00 00 00	 call	 __RTC_CheckEsp
  00096	83 f8 01	 cmp	 eax, 1
  00099	75 01		 jne	 SHORT $LN6@operator
  0009b	cc		 int	 3
$LN6@operator:
  0009c	8b f4		 mov	 esi, esp
  0009e	6a 00		 push	 0
  000a0	68 07 01 00 00	 push	 263			; 00000107H
  000a5	68 00 00 00 00	 push	 OFFSET ??_C@_1IK@BEABFJGP@?$AAC?$AA?3?$AA?2?$AAP?$AAr?$AAo?$AAg?$AAr?$AAa?$AAm?$AA?5?$AAF?$AAi?$AAl?$AAe?$AAs?$AA?5?$AA?$CI?$AAx?$AA8?$AA6?$AA?$CJ?$AA?2?$AAM?$AAi?$AAc?$AAr?$AAo?$AAs?$AAo?$AAf?$AAt@
  000aa	68 00 00 00 00	 push	 OFFSET ??_C@_1BNE@CAHGANCJ@?$AAs?$AAt?$AAd?$AA?3?$AA?3?$AA_?$AAT?$AAr?$AAe?$AAe?$AA_?$AAc?$AAo?$AAn?$AAs?$AAt?$AA_?$AAi?$AAt?$AAe?$AAr?$AAa?$AAt?$AAo?$AAr?$AA?$DM?$AAc?$AAl?$AAa?$AAs?$AAs?$AA?5@
  000af	68 00 00 00 00	 push	 OFFSET ??_C@_1BO@MEPPHOO@?$AA?$CC?$AAo?$AAu?$AAt?$AA?5?$AAo?$AAf?$AA?5?$AAr?$AAa?$AAn?$AAg?$AAe?$AA?$CC?$AA?$AA@
  000b4	ff 15 00 00 00
	00		 call	 DWORD PTR __imp___invalid_parameter
  000ba	83 c4 14	 add	 esp, 20			; 00000014H
  000bd	3b f4		 cmp	 esi, esp
  000bf	e8 00 00 00 00	 call	 __RTC_CheckEsp
$LN2@operator:

; 264  : 			}
; 265  : 
; 266  :  #elif _ITERATOR_DEBUG_LEVEL == 1
; 267  : 		_SCL_SECURE_VALIDATE(this->_Getcont() != 0 && this->_Ptr != 0);
; 268  : 		_SCL_SECURE_VALIDATE_RANGE(!_Mytree::_Isnil(this->_Ptr));
; 269  :  #endif /* _ITERATOR_DEBUG_LEVEL */
; 270  : 
; 271  : 		++(*(_Mybase *)this);

  000c4	8b 4d fc	 mov	 ecx, DWORD PTR _this$[ebp]
  000c7	e8 00 00 00 00	 call	 ??E?$_Tree_unchecked_const_iterator@V?$_Tree_val@U?$_Tree_simple_types@U?$pair@$$CBV?$basic_string@DU?$char_traits@D@std@@V?$allocator@D@2@@std@@P6APAXXZ@std@@@std@@@std@@U_Iterator_base12@2@@std@@QAEAAV01@XZ ; std::_Tree_unchecked_const_iterator<std::_Tree_val<std::_Tree_simple_types<std::pair<std::basic_string<char,std::char_traits<char>,std::allocator<char> > const ,void * (__cdecl*)(void)> > >,std::_Iterator_base12>::operator++

; 272  : 		return (*this);

  000cc	8b 45 fc	 mov	 eax, DWORD PTR _this$[ebp]

; 273  : 		}

  000cf	5e		 pop	 esi
  000d0	83 c4 04	 add	 esp, 4
  000d3	3b ec		 cmp	 ebp, esp
  000d5	e8 00 00 00 00	 call	 __RTC_CheckEsp
  000da	8b e5		 mov	 esp, ebp
  000dc	5d		 pop	 ebp
  000dd	c3		 ret	 0
??E?$_Tree_const_iterator@V?$_Tree_val@U?$_Tree_simple_types@U?$pair@$$CBV?$basic_string@DU?$char_traits@D@std@@V?$allocator@D@2@@std@@P6APAXXZ@std@@@std@@@std@@@std@@QAEAAV01@XZ ENDP ; std::_Tree_const_iterator<std::_Tree_val<std::_Tree_simple_types<std::pair<std::basic_string<char,std::char_traits<char>,std::allocator<char> > const ,void * (__cdecl*)(void)> > > >::operator++
_TEXT	ENDS
; Function compile flags: /Odtp /RTCsu
; File c:\program files (x86)\microsoft visual studio 14.0\vc\include\xtree
;	COMDAT ?_Buyheadnode@?$_Tree_comp_alloc@V?$_Tmap_traits@V?$basic_string@DU?$char_traits@D@std@@V?$allocator@D@2@@std@@P6APAXXZU?$less@V?$basic_string@DU?$char_traits@D@std@@V?$allocator@D@2@@std@@@2@V?$allocator@U?$pair@$$CBV?$basic_string@DU?$char_traits@D@std@@V?$allocator@D@2@@std@@P6APAXXZ@std@@@2@$0A@@std@@@std@@QAEPAU?$_Tree_node@U?$pair@$$CBV?$basic_string@DU?$char_traits@D@std@@V?$allocator@D@2@@std@@P6APAXXZ@std@@PAX@2@XZ
_TEXT	SEGMENT
tv145 = -44						; size = 4
tv144 = -40						; size = 4
tv143 = -36						; size = 4
__Pnode$ = -28						; size = 4
_this$ = -20						; size = 4
__$EHRec$ = -16						; size = 16
?_Buyheadnode@?$_Tree_comp_alloc@V?$_Tmap_traits@V?$basic_string@DU?$char_traits@D@std@@V?$allocator@D@2@@std@@P6APAXXZU?$less@V?$basic_string@DU?$char_traits@D@std@@V?$allocator@D@2@@std@@@2@V?$allocator@U?$pair@$$CBV?$basic_string@DU?$char_traits@D@std@@V?$allocator@D@2@@std@@P6APAXXZ@std@@@2@$0A@@std@@@std@@QAEPAU?$_Tree_node@U?$pair@$$CBV?$basic_string@DU?$char_traits@D@std@@V?$allocator@D@2@@std@@P6APAXXZ@std@@PAX@2@XZ PROC ; std::_Tree_comp_alloc<std::_Tmap_traits<std::basic_string<char,std::char_traits<char>,std::allocator<char> >,void * (__cdecl*)(void),std::less<std::basic_string<char,std::char_traits<char>,std::allocator<char> > >,std::allocator<std::pair<std::basic_string<char,std::char_traits<char>,std::allocator<char> > const ,void * (__cdecl*)(void)> >,0> >::_Buyheadnode, COMDAT
; _this$ = ecx

; 824  : 		{	// get head node using current allocator

  00000	55		 push	 ebp
  00001	8b ec		 mov	 ebp, esp
  00003	6a ff		 push	 -1
  00005	68 00 00 00 00	 push	 __ehhandler$?_Buyheadnode@?$_Tree_comp_alloc@V?$_Tmap_traits@V?$basic_string@DU?$char_traits@D@std@@V?$allocator@D@2@@std@@P6APAXXZU?$less@V?$basic_string@DU?$char_traits@D@std@@V?$allocator@D@2@@std@@@2@V?$allocator@U?$pair@$$CBV?$basic_string@DU?$char_traits@D@std@@V?$allocator@D@2@@std@@P6APAXXZ@std@@@2@$0A@@std@@@std@@QAEPAU?$_Tree_node@U?$pair@$$CBV?$basic_string@DU?$char_traits@D@std@@V?$allocator@D@2@@std@@P6APAXXZ@std@@PAX@2@XZ
  0000a	64 a1 00 00 00
	00		 mov	 eax, DWORD PTR fs:0
  00010	50		 push	 eax
  00011	51		 push	 ecx
  00012	83 ec 1c	 sub	 esp, 28			; 0000001cH
  00015	53		 push	 ebx
  00016	56		 push	 esi
  00017	57		 push	 edi
  00018	b8 cc cc cc cc	 mov	 eax, -858993460		; ccccccccH
  0001d	89 45 d4	 mov	 DWORD PTR [ebp-44], eax
  00020	89 45 d8	 mov	 DWORD PTR [ebp-40], eax
  00023	89 45 dc	 mov	 DWORD PTR [ebp-36], eax
  00026	89 45 e0	 mov	 DWORD PTR [ebp-32], eax
  00029	89 45 e4	 mov	 DWORD PTR [ebp-28], eax
  0002c	89 45 e8	 mov	 DWORD PTR [ebp-24], eax
  0002f	89 45 ec	 mov	 DWORD PTR [ebp-20], eax
  00032	a1 00 00 00 00	 mov	 eax, DWORD PTR ___security_cookie
  00037	33 c5		 xor	 eax, ebp
  00039	50		 push	 eax
  0003a	8d 45 f4	 lea	 eax, DWORD PTR __$EHRec$[ebp+4]
  0003d	64 a3 00 00 00
	00		 mov	 DWORD PTR fs:0, eax
  00043	89 65 f0	 mov	 DWORD PTR __$EHRec$[ebp], esp
  00046	89 4d ec	 mov	 DWORD PTR _this$[ebp], ecx

; 825  : 		_Nodeptr _Pnode = _Getal().allocate(1);

  00049	6a 01		 push	 1
  0004b	8b 4d ec	 mov	 ecx, DWORD PTR _this$[ebp]
  0004e	e8 00 00 00 00	 call	 ?_Getal@?$_Tree_comp_alloc@V?$_Tmap_traits@V?$basic_string@DU?$char_traits@D@std@@V?$allocator@D@2@@std@@P6APAXXZU?$less@V?$basic_string@DU?$char_traits@D@std@@V?$allocator@D@2@@std@@@2@V?$allocator@U?$pair@$$CBV?$basic_string@DU?$char_traits@D@std@@V?$allocator@D@2@@std@@P6APAXXZ@std@@@2@$0A@@std@@@std@@QAEAAU?$_Wrap_alloc@V?$allocator@U?$_Tree_node@U?$pair@$$CBV?$basic_string@DU?$char_traits@D@std@@V?$allocator@D@2@@std@@P6APAXXZ@std@@PAX@std@@@std@@@2@XZ ; std::_Tree_comp_alloc<std::_Tmap_traits<std::basic_string<char,std::char_traits<char>,std::allocator<char> >,void * (__cdecl*)(void),std::less<std::basic_string<char,std::char_traits<char>,std::allocator<char> > >,std::allocator<std::pair<std::basic_string<char,std::char_traits<char>,std::allocator<char> > const ,void * (__cdecl*)(void)> >,0> >::_Getal
  00053	8b c8		 mov	 ecx, eax
  00055	e8 00 00 00 00	 call	 ?allocate@?$_Wrap_alloc@V?$allocator@U?$_Tree_node@U?$pair@$$CBV?$basic_string@DU?$char_traits@D@std@@V?$allocator@D@2@@std@@P6APAXXZ@std@@PAX@std@@@std@@@std@@QAEPAU?$_Tree_node@U?$pair@$$CBV?$basic_string@DU?$char_traits@D@std@@V?$allocator@D@2@@std@@P6APAXXZ@std@@PAX@2@I@Z ; std::_Wrap_alloc<std::allocator<std::_Tree_node<std::pair<std::basic_string<char,std::char_traits<char>,std::allocator<char> > const ,void * (__cdecl*)(void)>,void *> > >::allocate
  0005a	89 45 e4	 mov	 DWORD PTR __Pnode$[ebp], eax

; 826  : 
; 827  : 		_TRY_BEGIN

  0005d	c7 45 fc 00 00
	00 00		 mov	 DWORD PTR __$EHRec$[ebp+12], 0

; 828  : 		_Getal().construct(

  00064	8b 45 e4	 mov	 eax, DWORD PTR __Pnode$[ebp]
  00067	50		 push	 eax
  00068	e8 00 00 00 00	 call	 ?_Left@?$_Tree_comp_alloc@V?$_Tmap_traits@V?$basic_string@DU?$char_traits@D@std@@V?$allocator@D@2@@std@@P6APAXXZU?$less@V?$basic_string@DU?$char_traits@D@std@@V?$allocator@D@2@@std@@@2@V?$allocator@U?$pair@$$CBV?$basic_string@DU?$char_traits@D@std@@V?$allocator@D@2@@std@@P6APAXXZ@std@@@2@$0A@@std@@@std@@SAAAPAU?$_Tree_node@U?$pair@$$CBV?$basic_string@DU?$char_traits@D@std@@V?$allocator@D@2@@std@@P6APAXXZ@std@@PAX@2@PAU32@@Z ; std::_Tree_comp_alloc<std::_Tmap_traits<std::basic_string<char,std::char_traits<char>,std::allocator<char> >,void * (__cdecl*)(void),std::less<std::basic_string<char,std::char_traits<char>,std::allocator<char> > >,std::allocator<std::pair<std::basic_string<char,std::char_traits<char>,std::allocator<char> > const ,void * (__cdecl*)(void)> >,0> >::_Left
  0006d	83 c4 04	 add	 esp, 4
  00070	89 45 dc	 mov	 DWORD PTR tv143[ebp], eax
  00073	8d 4d e4	 lea	 ecx, DWORD PTR __Pnode$[ebp]
  00076	51		 push	 ecx
  00077	8b 55 dc	 mov	 edx, DWORD PTR tv143[ebp]
  0007a	52		 push	 edx
  0007b	e8 00 00 00 00	 call	 ??$addressof@PAU?$_Tree_node@U?$pair@$$CBV?$basic_string@DU?$char_traits@D@std@@V?$allocator@D@2@@std@@P6APAXXZ@std@@PAX@std@@@std@@YAPAPAU?$_Tree_node@U?$pair@$$CBV?$basic_string@DU?$char_traits@D@std@@V?$allocator@D@2@@std@@P6APAXXZ@std@@PAX@0@AAPAU10@@Z ; std::addressof<std::_Tree_node<std::pair<std::basic_string<char,std::char_traits<char>,std::allocator<char> > const ,void * (__cdecl*)(void)>,void *> *>
  00080	83 c4 04	 add	 esp, 4
  00083	50		 push	 eax
  00084	8b 4d ec	 mov	 ecx, DWORD PTR _this$[ebp]
  00087	e8 00 00 00 00	 call	 ?_Getal@?$_Tree_comp_alloc@V?$_Tmap_traits@V?$basic_string@DU?$char_traits@D@std@@V?$allocator@D@2@@std@@P6APAXXZU?$less@V?$basic_string@DU?$char_traits@D@std@@V?$allocator@D@2@@std@@@2@V?$allocator@U?$pair@$$CBV?$basic_string@DU?$char_traits@D@std@@V?$allocator@D@2@@std@@P6APAXXZ@std@@@2@$0A@@std@@@std@@QAEAAU?$_Wrap_alloc@V?$allocator@U?$_Tree_node@U?$pair@$$CBV?$basic_string@DU?$char_traits@D@std@@V?$allocator@D@2@@std@@P6APAXXZ@std@@PAX@std@@@std@@@2@XZ ; std::_Tree_comp_alloc<std::_Tmap_traits<std::basic_string<char,std::char_traits<char>,std::allocator<char> >,void * (__cdecl*)(void),std::less<std::basic_string<char,std::char_traits<char>,std::allocator<char> > >,std::allocator<std::pair<std::basic_string<char,std::char_traits<char>,std::allocator<char> > const ,void * (__cdecl*)(void)> >,0> >::_Getal
  0008c	8b c8		 mov	 ecx, eax
  0008e	e8 00 00 00 00	 call	 ??$construct@PAU?$_Tree_node@U?$pair@$$CBV?$basic_string@DU?$char_traits@D@std@@V?$allocator@D@2@@std@@P6APAXXZ@std@@PAX@std@@AAPAU12@@?$_Wrap_alloc@V?$allocator@U?$_Tree_node@U?$pair@$$CBV?$basic_string@DU?$char_traits@D@std@@V?$allocator@D@2@@std@@P6APAXXZ@std@@PAX@std@@@std@@@std@@QAEXPAPAU?$_Tree_node@U?$pair@$$CBV?$basic_string@DU?$char_traits@D@std@@V?$allocator@D@2@@std@@P6APAXXZ@std@@PAX@1@AAPAU21@@Z ; std::_Wrap_alloc<std::allocator<std::_Tree_node<std::pair<std::basic_string<char,std::char_traits<char>,std::allocator<char> > const ,void * (__cdecl*)(void)>,void *> > >::construct<std::_Tree_node<std::pair<std::basic_string<char,std::char_traits<char>,std::allocator<char> > const ,void * (__cdecl*)(void)>,void *> *,std::_Tree_node<std::pair<std::basic_string<char,std::char_traits<char>,std::allocator<char> > const ,void * (__cdecl*)(void)>,void *> * &>

; 829  : 			_STD addressof(_Left(_Pnode)), _Pnode);
; 830  : 		_Getal().construct(

  00093	8b 45 e4	 mov	 eax, DWORD PTR __Pnode$[ebp]
  00096	50		 push	 eax
  00097	e8 00 00 00 00	 call	 ?_Parent@?$_Tree_comp_alloc@V?$_Tmap_traits@V?$basic_string@DU?$char_traits@D@std@@V?$allocator@D@2@@std@@P6APAXXZU?$less@V?$basic_string@DU?$char_traits@D@std@@V?$allocator@D@2@@std@@@2@V?$allocator@U?$pair@$$CBV?$basic_string@DU?$char_traits@D@std@@V?$allocator@D@2@@std@@P6APAXXZ@std@@@2@$0A@@std@@@std@@SAAAPAU?$_Tree_node@U?$pair@$$CBV?$basic_string@DU?$char_traits@D@std@@V?$allocator@D@2@@std@@P6APAXXZ@std@@PAX@2@PAU32@@Z ; std::_Tree_comp_alloc<std::_Tmap_traits<std::basic_string<char,std::char_traits<char>,std::allocator<char> >,void * (__cdecl*)(void),std::less<std::basic_string<char,std::char_traits<char>,std::allocator<char> > >,std::allocator<std::pair<std::basic_string<char,std::char_traits<char>,std::allocator<char> > const ,void * (__cdecl*)(void)> >,0> >::_Parent
  0009c	83 c4 04	 add	 esp, 4
  0009f	89 45 d8	 mov	 DWORD PTR tv144[ebp], eax
  000a2	8d 4d e4	 lea	 ecx, DWORD PTR __Pnode$[ebp]
  000a5	51		 push	 ecx
  000a6	8b 55 d8	 mov	 edx, DWORD PTR tv144[ebp]
  000a9	52		 push	 edx
  000aa	e8 00 00 00 00	 call	 ??$addressof@PAU?$_Tree_node@U?$pair@$$CBV?$basic_string@DU?$char_traits@D@std@@V?$allocator@D@2@@std@@P6APAXXZ@std@@PAX@std@@@std@@YAPAPAU?$_Tree_node@U?$pair@$$CBV?$basic_string@DU?$char_traits@D@std@@V?$allocator@D@2@@std@@P6APAXXZ@std@@PAX@0@AAPAU10@@Z ; std::addressof<std::_Tree_node<std::pair<std::basic_string<char,std::char_traits<char>,std::allocator<char> > const ,void * (__cdecl*)(void)>,void *> *>
  000af	83 c4 04	 add	 esp, 4
  000b2	50		 push	 eax
  000b3	8b 4d ec	 mov	 ecx, DWORD PTR _this$[ebp]
  000b6	e8 00 00 00 00	 call	 ?_Getal@?$_Tree_comp_alloc@V?$_Tmap_traits@V?$basic_string@DU?$char_traits@D@std@@V?$allocator@D@2@@std@@P6APAXXZU?$less@V?$basic_string@DU?$char_traits@D@std@@V?$allocator@D@2@@std@@@2@V?$allocator@U?$pair@$$CBV?$basic_string@DU?$char_traits@D@std@@V?$allocator@D@2@@std@@P6APAXXZ@std@@@2@$0A@@std@@@std@@QAEAAU?$_Wrap_alloc@V?$allocator@U?$_Tree_node@U?$pair@$$CBV?$basic_string@DU?$char_traits@D@std@@V?$allocator@D@2@@std@@P6APAXXZ@std@@PAX@std@@@std@@@2@XZ ; std::_Tree_comp_alloc<std::_Tmap_traits<std::basic_string<char,std::char_traits<char>,std::allocator<char> >,void * (__cdecl*)(void),std::less<std::basic_string<char,std::char_traits<char>,std::allocator<char> > >,std::allocator<std::pair<std::basic_string<char,std::char_traits<char>,std::allocator<char> > const ,void * (__cdecl*)(void)> >,0> >::_Getal
  000bb	8b c8		 mov	 ecx, eax
  000bd	e8 00 00 00 00	 call	 ??$construct@PAU?$_Tree_node@U?$pair@$$CBV?$basic_string@DU?$char_traits@D@std@@V?$allocator@D@2@@std@@P6APAXXZ@std@@PAX@std@@AAPAU12@@?$_Wrap_alloc@V?$allocator@U?$_Tree_node@U?$pair@$$CBV?$basic_string@DU?$char_traits@D@std@@V?$allocator@D@2@@std@@P6APAXXZ@std@@PAX@std@@@std@@@std@@QAEXPAPAU?$_Tree_node@U?$pair@$$CBV?$basic_string@DU?$char_traits@D@std@@V?$allocator@D@2@@std@@P6APAXXZ@std@@PAX@1@AAPAU21@@Z ; std::_Wrap_alloc<std::allocator<std::_Tree_node<std::pair<std::basic_string<char,std::char_traits<char>,std::allocator<char> > const ,void * (__cdecl*)(void)>,void *> > >::construct<std::_Tree_node<std::pair<std::basic_string<char,std::char_traits<char>,std::allocator<char> > const ,void * (__cdecl*)(void)>,void *> *,std::_Tree_node<std::pair<std::basic_string<char,std::char_traits<char>,std::allocator<char> > const ,void * (__cdecl*)(void)>,void *> * &>

; 831  : 			_STD addressof(_Parent(_Pnode)), _Pnode);
; 832  : 		_Getal().construct(

  000c2	8b 45 e4	 mov	 eax, DWORD PTR __Pnode$[ebp]
  000c5	50		 push	 eax
  000c6	e8 00 00 00 00	 call	 ?_Right@?$_Tree_comp_alloc@V?$_Tmap_traits@V?$basic_string@DU?$char_traits@D@std@@V?$allocator@D@2@@std@@P6APAXXZU?$less@V?$basic_string@DU?$char_traits@D@std@@V?$allocator@D@2@@std@@@2@V?$allocator@U?$pair@$$CBV?$basic_string@DU?$char_traits@D@std@@V?$allocator@D@2@@std@@P6APAXXZ@std@@@2@$0A@@std@@@std@@SAAAPAU?$_Tree_node@U?$pair@$$CBV?$basic_string@DU?$char_traits@D@std@@V?$allocator@D@2@@std@@P6APAXXZ@std@@PAX@2@PAU32@@Z ; std::_Tree_comp_alloc<std::_Tmap_traits<std::basic_string<char,std::char_traits<char>,std::allocator<char> >,void * (__cdecl*)(void),std::less<std::basic_string<char,std::char_traits<char>,std::allocator<char> > >,std::allocator<std::pair<std::basic_string<char,std::char_traits<char>,std::allocator<char> > const ,void * (__cdecl*)(void)> >,0> >::_Right
  000cb	83 c4 04	 add	 esp, 4
  000ce	89 45 d4	 mov	 DWORD PTR tv145[ebp], eax
  000d1	8d 4d e4	 lea	 ecx, DWORD PTR __Pnode$[ebp]
  000d4	51		 push	 ecx
  000d5	8b 55 d4	 mov	 edx, DWORD PTR tv145[ebp]
  000d8	52		 push	 edx
  000d9	e8 00 00 00 00	 call	 ??$addressof@PAU?$_Tree_node@U?$pair@$$CBV?$basic_string@DU?$char_traits@D@std@@V?$allocator@D@2@@std@@P6APAXXZ@std@@PAX@std@@@std@@YAPAPAU?$_Tree_node@U?$pair@$$CBV?$basic_string@DU?$char_traits@D@std@@V?$allocator@D@2@@std@@P6APAXXZ@std@@PAX@0@AAPAU10@@Z ; std::addressof<std::_Tree_node<std::pair<std::basic_string<char,std::char_traits<char>,std::allocator<char> > const ,void * (__cdecl*)(void)>,void *> *>
  000de	83 c4 04	 add	 esp, 4
  000e1	50		 push	 eax
  000e2	8b 4d ec	 mov	 ecx, DWORD PTR _this$[ebp]
  000e5	e8 00 00 00 00	 call	 ?_Getal@?$_Tree_comp_alloc@V?$_Tmap_traits@V?$basic_string@DU?$char_traits@D@std@@V?$allocator@D@2@@std@@P6APAXXZU?$less@V?$basic_string@DU?$char_traits@D@std@@V?$allocator@D@2@@std@@@2@V?$allocator@U?$pair@$$CBV?$basic_string@DU?$char_traits@D@std@@V?$allocator@D@2@@std@@P6APAXXZ@std@@@2@$0A@@std@@@std@@QAEAAU?$_Wrap_alloc@V?$allocator@U?$_Tree_node@U?$pair@$$CBV?$basic_string@DU?$char_traits@D@std@@V?$allocator@D@2@@std@@P6APAXXZ@std@@PAX@std@@@std@@@2@XZ ; std::_Tree_comp_alloc<std::_Tmap_traits<std::basic_string<char,std::char_traits<char>,std::allocator<char> >,void * (__cdecl*)(void),std::less<std::basic_string<char,std::char_traits<char>,std::allocator<char> > >,std::allocator<std::pair<std::basic_string<char,std::char_traits<char>,std::allocator<char> > const ,void * (__cdecl*)(void)> >,0> >::_Getal
  000ea	8b c8		 mov	 ecx, eax
  000ec	e8 00 00 00 00	 call	 ??$construct@PAU?$_Tree_node@U?$pair@$$CBV?$basic_string@DU?$char_traits@D@std@@V?$allocator@D@2@@std@@P6APAXXZ@std@@PAX@std@@AAPAU12@@?$_Wrap_alloc@V?$allocator@U?$_Tree_node@U?$pair@$$CBV?$basic_string@DU?$char_traits@D@std@@V?$allocator@D@2@@std@@P6APAXXZ@std@@PAX@std@@@std@@@std@@QAEXPAPAU?$_Tree_node@U?$pair@$$CBV?$basic_string@DU?$char_traits@D@std@@V?$allocator@D@2@@std@@P6APAXXZ@std@@PAX@1@AAPAU21@@Z ; std::_Wrap_alloc<std::allocator<std::_Tree_node<std::pair<std::basic_string<char,std::char_traits<char>,std::allocator<char> > const ,void * (__cdecl*)(void)>,void *> > >::construct<std::_Tree_node<std::pair<std::basic_string<char,std::char_traits<char>,std::allocator<char> > const ,void * (__cdecl*)(void)>,void *> *,std::_Tree_node<std::pair<std::basic_string<char,std::char_traits<char>,std::allocator<char> > const ,void * (__cdecl*)(void)>,void *> * &>
  000f1	eb 24		 jmp	 SHORT $LN4@Buyheadnod
__catch$?_Buyheadnode@?$_Tree_comp_alloc@V?$_Tmap_traits@V?$basic_string@DU?$char_traits@D@std@@V?$allocator@D@2@@std@@P6APAXXZU?$less@V?$basic_string@DU?$char_traits@D@std@@V?$allocator@D@2@@std@@@2@V?$allocator@U?$pair@$$CBV?$basic_string@DU?$char_traits@D@std@@V?$allocator@D@2@@std@@P6APAXXZ@std@@@2@$0A@@std@@@std@@QAEPAU?$_Tree_node@U?$pair@$$CBV?$basic_string@DU?$char_traits@D@std@@V?$allocator@D@2@@std@@P6APAXXZ@std@@PAX@2@XZ$0:

; 833  : 			_STD addressof(_Right(_Pnode)), _Pnode);
; 834  : 		_CATCH_ALL
; 835  : 		_Getal().deallocate(_Pnode, 1);

  000f3	6a 01		 push	 1
  000f5	8b 45 e4	 mov	 eax, DWORD PTR __Pnode$[ebp]
  000f8	50		 push	 eax
  000f9	8b 4d ec	 mov	 ecx, DWORD PTR _this$[ebp]
  000fc	e8 00 00 00 00	 call	 ?_Getal@?$_Tree_comp_alloc@V?$_Tmap_traits@V?$basic_string@DU?$char_traits@D@std@@V?$allocator@D@2@@std@@P6APAXXZU?$less@V?$basic_string@DU?$char_traits@D@std@@V?$allocator@D@2@@std@@@2@V?$allocator@U?$pair@$$CBV?$basic_string@DU?$char_traits@D@std@@V?$allocator@D@2@@std@@P6APAXXZ@std@@@2@$0A@@std@@@std@@QAEAAU?$_Wrap_alloc@V?$allocator@U?$_Tree_node@U?$pair@$$CBV?$basic_string@DU?$char_traits@D@std@@V?$allocator@D@2@@std@@P6APAXXZ@std@@PAX@std@@@std@@@2@XZ ; std::_Tree_comp_alloc<std::_Tmap_traits<std::basic_string<char,std::char_traits<char>,std::allocator<char> >,void * (__cdecl*)(void),std::less<std::basic_string<char,std::char_traits<char>,std::allocator<char> > >,std::allocator<std::pair<std::basic_string<char,std::char_traits<char>,std::allocator<char> > const ,void * (__cdecl*)(void)> >,0> >::_Getal
  00101	8b c8		 mov	 ecx, eax
  00103	e8 00 00 00 00	 call	 ?deallocate@?$_Wrap_alloc@V?$allocator@U?$_Tree_node@U?$pair@$$CBV?$basic_string@DU?$char_traits@D@std@@V?$allocator@D@2@@std@@P6APAXXZ@std@@PAX@std@@@std@@@std@@QAEXPAU?$_Tree_node@U?$pair@$$CBV?$basic_string@DU?$char_traits@D@std@@V?$allocator@D@2@@std@@P6APAXXZ@std@@PAX@2@I@Z ; std::_Wrap_alloc<std::allocator<std::_Tree_node<std::pair<std::basic_string<char,std::char_traits<char>,std::allocator<char> > const ,void * (__cdecl*)(void)>,void *> > >::deallocate

; 836  : 		_RERAISE;

  00108	6a 00		 push	 0
  0010a	6a 00		 push	 0
  0010c	e8 00 00 00 00	 call	 __CxxThrowException@8

; 837  : 		_CATCH_END

  00111	b8 00 00 00 00	 mov	 eax, $LN7@Buyheadnod
  00116	c3		 ret	 0
$LN4@Buyheadnod:
  00117	c7 45 fc ff ff
	ff ff		 mov	 DWORD PTR __$EHRec$[ebp+12], -1
  0011e	eb 07		 jmp	 SHORT __tryend$?_Buyheadnode@?$_Tree_comp_alloc@V?$_Tmap_traits@V?$basic_string@DU?$char_traits@D@std@@V?$allocator@D@2@@std@@P6APAXXZU?$less@V?$basic_string@DU?$char_traits@D@std@@V?$allocator@D@2@@std@@@2@V?$allocator@U?$pair@$$CBV?$basic_string@DU?$char_traits@D@std@@V?$allocator@D@2@@std@@P6APAXXZ@std@@@2@$0A@@std@@@std@@QAEPAU?$_Tree_node@U?$pair@$$CBV?$basic_string@DU?$char_traits@D@std@@V?$allocator@D@2@@std@@P6APAXXZ@std@@PAX@2@XZ$1
$LN7@Buyheadnod:
  00120	c7 45 fc ff ff
	ff ff		 mov	 DWORD PTR __$EHRec$[ebp+12], -1
__tryend$?_Buyheadnode@?$_Tree_comp_alloc@V?$_Tmap_traits@V?$basic_string@DU?$char_traits@D@std@@V?$allocator@D@2@@std@@P6APAXXZU?$less@V?$basic_string@DU?$char_traits@D@std@@V?$allocator@D@2@@std@@@2@V?$allocator@U?$pair@$$CBV?$basic_string@DU?$char_traits@D@std@@V?$allocator@D@2@@std@@P6APAXXZ@std@@@2@$0A@@std@@@std@@QAEPAU?$_Tree_node@U?$pair@$$CBV?$basic_string@DU?$char_traits@D@std@@V?$allocator@D@2@@std@@P6APAXXZ@std@@PAX@2@XZ$1:

; 838  : 
; 839  : 		_Color(_Pnode) = _Black;

  00127	8b 4d e4	 mov	 ecx, DWORD PTR __Pnode$[ebp]
  0012a	51		 push	 ecx
  0012b	e8 00 00 00 00	 call	 ?_Color@?$_Tree_comp_alloc@V?$_Tmap_traits@V?$basic_string@DU?$char_traits@D@std@@V?$allocator@D@2@@std@@P6APAXXZU?$less@V?$basic_string@DU?$char_traits@D@std@@V?$allocator@D@2@@std@@@2@V?$allocator@U?$pair@$$CBV?$basic_string@DU?$char_traits@D@std@@V?$allocator@D@2@@std@@P6APAXXZ@std@@@2@$0A@@std@@@std@@SAAADPAU?$_Tree_node@U?$pair@$$CBV?$basic_string@DU?$char_traits@D@std@@V?$allocator@D@2@@std@@P6APAXXZ@std@@PAX@2@@Z ; std::_Tree_comp_alloc<std::_Tmap_traits<std::basic_string<char,std::char_traits<char>,std::allocator<char> >,void * (__cdecl*)(void),std::less<std::basic_string<char,std::char_traits<char>,std::allocator<char> > >,std::allocator<std::pair<std::basic_string<char,std::char_traits<char>,std::allocator<char> > const ,void * (__cdecl*)(void)> >,0> >::_Color
  00130	83 c4 04	 add	 esp, 4
  00133	c6 00 01	 mov	 BYTE PTR [eax], 1

; 840  : 		_Isnil(_Pnode) = true;

  00136	8b 55 e4	 mov	 edx, DWORD PTR __Pnode$[ebp]
  00139	52		 push	 edx
  0013a	e8 00 00 00 00	 call	 ?_Isnil@?$_Tree_comp_alloc@V?$_Tmap_traits@V?$basic_string@DU?$char_traits@D@std@@V?$allocator@D@2@@std@@P6APAXXZU?$less@V?$basic_string@DU?$char_traits@D@std@@V?$allocator@D@2@@std@@@2@V?$allocator@U?$pair@$$CBV?$basic_string@DU?$char_traits@D@std@@V?$allocator@D@2@@std@@P6APAXXZ@std@@@2@$0A@@std@@@std@@SAAADPAU?$_Tree_node@U?$pair@$$CBV?$basic_string@DU?$char_traits@D@std@@V?$allocator@D@2@@std@@P6APAXXZ@std@@PAX@2@@Z ; std::_Tree_comp_alloc<std::_Tmap_traits<std::basic_string<char,std::char_traits<char>,std::allocator<char> >,void * (__cdecl*)(void),std::less<std::basic_string<char,std::char_traits<char>,std::allocator<char> > >,std::allocator<std::pair<std::basic_string<char,std::char_traits<char>,std::allocator<char> > const ,void * (__cdecl*)(void)> >,0> >::_Isnil
  0013f	83 c4 04	 add	 esp, 4
  00142	c6 00 01	 mov	 BYTE PTR [eax], 1

; 841  : 		return (_Pnode);

  00145	8b 45 e4	 mov	 eax, DWORD PTR __Pnode$[ebp]
$LN3@Buyheadnod:

; 842  : 		}

  00148	52		 push	 edx
  00149	8b cd		 mov	 ecx, ebp
  0014b	50		 push	 eax
  0014c	8d 15 00 00 00
	00		 lea	 edx, DWORD PTR $LN11@Buyheadnod
  00152	e8 00 00 00 00	 call	 @_RTC_CheckStackVars@8
  00157	58		 pop	 eax
  00158	5a		 pop	 edx
  00159	8b 4d f4	 mov	 ecx, DWORD PTR __$EHRec$[ebp+4]
  0015c	64 89 0d 00 00
	00 00		 mov	 DWORD PTR fs:0, ecx
  00163	59		 pop	 ecx
  00164	5f		 pop	 edi
  00165	5e		 pop	 esi
  00166	5b		 pop	 ebx
  00167	83 c4 2c	 add	 esp, 44			; 0000002cH
  0016a	3b ec		 cmp	 ebp, esp
  0016c	e8 00 00 00 00	 call	 __RTC_CheckEsp
  00171	8b e5		 mov	 esp, ebp
  00173	5d		 pop	 ebp
  00174	c3		 ret	 0
  00175	0f 1f 00	 npad	 3
$LN11@Buyheadnod:
  00178	01 00 00 00	 DD	 1
  0017c	00 00 00 00	 DD	 $LN10@Buyheadnod
$LN10@Buyheadnod:
  00180	e4 ff ff ff	 DD	 -28			; ffffffe4H
  00184	04 00 00 00	 DD	 4
  00188	00 00 00 00	 DD	 $LN8@Buyheadnod
$LN8@Buyheadnod:
  0018c	5f		 DB	 95			; 0000005fH
  0018d	50		 DB	 80			; 00000050H
  0018e	6e		 DB	 110			; 0000006eH
  0018f	6f		 DB	 111			; 0000006fH
  00190	64		 DB	 100			; 00000064H
  00191	65		 DB	 101			; 00000065H
  00192	00		 DB	 0
_TEXT	ENDS
;	COMDAT text$x
text$x	SEGMENT
__ehhandler$?_Buyheadnode@?$_Tree_comp_alloc@V?$_Tmap_traits@V?$basic_string@DU?$char_traits@D@std@@V?$allocator@D@2@@std@@P6APAXXZU?$less@V?$basic_string@DU?$char_traits@D@std@@V?$allocator@D@2@@std@@@2@V?$allocator@U?$pair@$$CBV?$basic_string@DU?$char_traits@D@std@@V?$allocator@D@2@@std@@P6APAXXZ@std@@@2@$0A@@std@@@std@@QAEPAU?$_Tree_node@U?$pair@$$CBV?$basic_string@DU?$char_traits@D@std@@V?$allocator@D@2@@std@@P6APAXXZ@std@@PAX@2@XZ:
  00000	8b 54 24 08	 mov	 edx, DWORD PTR [esp+8]
  00004	8d 42 0c	 lea	 eax, DWORD PTR [edx+12]
  00007	8b 4a d0	 mov	 ecx, DWORD PTR [edx-48]
  0000a	33 c8		 xor	 ecx, eax
  0000c	e8 00 00 00 00	 call	 @__security_check_cookie@4
  00011	b8 00 00 00 00	 mov	 eax, OFFSET __ehfuncinfo$?_Buyheadnode@?$_Tree_comp_alloc@V?$_Tmap_traits@V?$basic_string@DU?$char_traits@D@std@@V?$allocator@D@2@@std@@P6APAXXZU?$less@V?$basic_string@DU?$char_traits@D@std@@V?$allocator@D@2@@std@@@2@V?$allocator@U?$pair@$$CBV?$basic_string@DU?$char_traits@D@std@@V?$allocator@D@2@@std@@P6APAXXZ@std@@@2@$0A@@std@@@std@@QAEPAU?$_Tree_node@U?$pair@$$CBV?$basic_string@DU?$char_traits@D@std@@V?$allocator@D@2@@std@@P6APAXXZ@std@@PAX@2@XZ
  00016	e9 00 00 00 00	 jmp	 ___CxxFrameHandler3
text$x	ENDS
?_Buyheadnode@?$_Tree_comp_alloc@V?$_Tmap_traits@V?$basic_string@DU?$char_traits@D@std@@V?$allocator@D@2@@std@@P6APAXXZU?$less@V?$basic_string@DU?$char_traits@D@std@@V?$allocator@D@2@@std@@@2@V?$allocator@U?$pair@$$CBV?$basic_string@DU?$char_traits@D@std@@V?$allocator@D@2@@std@@P6APAXXZ@std@@@2@$0A@@std@@@std@@QAEPAU?$_Tree_node@U?$pair@$$CBV?$basic_string@DU?$char_traits@D@std@@V?$allocator@D@2@@std@@P6APAXXZ@std@@PAX@2@XZ ENDP ; std::_Tree_comp_alloc<std::_Tmap_traits<std::basic_string<char,std::char_traits<char>,std::allocator<char> >,void * (__cdecl*)(void),std::less<std::basic_string<char,std::char_traits<char>,std::allocator<char> > >,std::allocator<std::pair<std::basic_string<char,std::char_traits<char>,std::allocator<char> > const ,void * (__cdecl*)(void)> >,0> >::_Buyheadnode
; Function compile flags: /Odtp /RTCsu
; File c:\program files (x86)\microsoft visual studio 14.0\vc\include\xtree
;	COMDAT ?_Alloc_proxy@?$_Tree_comp_alloc@V?$_Tmap_traits@V?$basic_string@DU?$char_traits@D@std@@V?$allocator@D@2@@std@@P6APAXXZU?$less@V?$basic_string@DU?$char_traits@D@std@@V?$allocator@D@2@@std@@@2@V?$allocator@U?$pair@$$CBV?$basic_string@DU?$char_traits@D@std@@V?$allocator@D@2@@std@@P6APAXXZ@std@@@2@$0A@@std@@@std@@QAEXXZ
_TEXT	SEGMENT
$T1 = -24						; size = 8
__Alproxy$ = -9						; size = 1
_this$ = -4						; size = 4
?_Alloc_proxy@?$_Tree_comp_alloc@V?$_Tmap_traits@V?$basic_string@DU?$char_traits@D@std@@V?$allocator@D@2@@std@@P6APAXXZU?$less@V?$basic_string@DU?$char_traits@D@std@@V?$allocator@D@2@@std@@@2@V?$allocator@U?$pair@$$CBV?$basic_string@DU?$char_traits@D@std@@V?$allocator@D@2@@std@@P6APAXXZ@std@@@2@$0A@@std@@@std@@QAEXXZ PROC ; std::_Tree_comp_alloc<std::_Tmap_traits<std::basic_string<char,std::char_traits<char>,std::allocator<char> >,void * (__cdecl*)(void),std::less<std::basic_string<char,std::char_traits<char>,std::allocator<char> > >,std::allocator<std::pair<std::basic_string<char,std::char_traits<char>,std::allocator<char> > const ,void * (__cdecl*)(void)> >,0> >::_Alloc_proxy, COMDAT
; _this$ = ecx

; 779  : 		{	// construct proxy

  00000	55		 push	 ebp
  00001	8b ec		 mov	 ebp, esp
  00003	83 ec 18	 sub	 esp, 24			; 00000018H
  00006	56		 push	 esi
  00007	b8 cc cc cc cc	 mov	 eax, -858993460		; ccccccccH
  0000c	89 45 e8	 mov	 DWORD PTR [ebp-24], eax
  0000f	89 45 ec	 mov	 DWORD PTR [ebp-20], eax
  00012	89 45 f0	 mov	 DWORD PTR [ebp-16], eax
  00015	89 45 f4	 mov	 DWORD PTR [ebp-12], eax
  00018	89 45 f8	 mov	 DWORD PTR [ebp-8], eax
  0001b	89 45 fc	 mov	 DWORD PTR [ebp-4], eax
  0001e	89 4d fc	 mov	 DWORD PTR _this$[ebp], ecx

; 780  : 		typename _Alty::template rebind<_Container_proxy>::other
; 781  : 			_Alproxy(_Getal());

  00021	8b 4d fc	 mov	 ecx, DWORD PTR _this$[ebp]
  00024	e8 00 00 00 00	 call	 ?_Getal@?$_Tree_comp_alloc@V?$_Tmap_traits@V?$basic_string@DU?$char_traits@D@std@@V?$allocator@D@2@@std@@P6APAXXZU?$less@V?$basic_string@DU?$char_traits@D@std@@V?$allocator@D@2@@std@@@2@V?$allocator@U?$pair@$$CBV?$basic_string@DU?$char_traits@D@std@@V?$allocator@D@2@@std@@P6APAXXZ@std@@@2@$0A@@std@@@std@@QAEAAU?$_Wrap_alloc@V?$allocator@U?$_Tree_node@U?$pair@$$CBV?$basic_string@DU?$char_traits@D@std@@V?$allocator@D@2@@std@@P6APAXXZ@std@@PAX@std@@@std@@@2@XZ ; std::_Tree_comp_alloc<std::_Tmap_traits<std::basic_string<char,std::char_traits<char>,std::allocator<char> >,void * (__cdecl*)(void),std::less<std::basic_string<char,std::char_traits<char>,std::allocator<char> > >,std::allocator<std::pair<std::basic_string<char,std::char_traits<char>,std::allocator<char> > const ,void * (__cdecl*)(void)> >,0> >::_Getal
  00029	50		 push	 eax
  0002a	8d 4d f7	 lea	 ecx, DWORD PTR __Alproxy$[ebp]
  0002d	e8 00 00 00 00	 call	 ??$?0U?$_Wrap_alloc@V?$allocator@U?$_Tree_node@U?$pair@$$CBV?$basic_string@DU?$char_traits@D@std@@V?$allocator@D@2@@std@@P6APAXXZ@std@@PAX@std@@@std@@@std@@@?$_Wrap_alloc@V?$allocator@U_Container_proxy@std@@@std@@@std@@QAE@AAU?$_Wrap_alloc@V?$allocator@U?$_Tree_node@U?$pair@$$CBV?$basic_string@DU?$char_traits@D@std@@V?$allocator@D@2@@std@@P6APAXXZ@std@@PAX@std@@@std@@@1@@Z ; std::_Wrap_alloc<std::allocator<std::_Container_proxy> >::_Wrap_alloc<std::allocator<std::_Container_proxy> ><std::_Wrap_alloc<std::allocator<std::_Tree_node<std::pair<std::basic_string<char,std::char_traits<char>,std::allocator<char> > const ,void * (__cdecl*)(void)>,void *> > > >

; 782  : 		_Myproxy() = _Alproxy.allocate(1);

  00032	6a 01		 push	 1
  00034	8d 4d f7	 lea	 ecx, DWORD PTR __Alproxy$[ebp]
  00037	e8 00 00 00 00	 call	 ?allocate@?$_Wrap_alloc@V?$allocator@U_Container_proxy@std@@@std@@@std@@QAEPAU_Container_proxy@2@I@Z ; std::_Wrap_alloc<std::allocator<std::_Container_proxy> >::allocate
  0003c	8b f0		 mov	 esi, eax
  0003e	8b 4d fc	 mov	 ecx, DWORD PTR _this$[ebp]
  00041	e8 00 00 00 00	 call	 ?_Myproxy@?$_Tree_comp_alloc@V?$_Tmap_traits@V?$basic_string@DU?$char_traits@D@std@@V?$allocator@D@2@@std@@P6APAXXZU?$less@V?$basic_string@DU?$char_traits@D@std@@V?$allocator@D@2@@std@@@2@V?$allocator@U?$pair@$$CBV?$basic_string@DU?$char_traits@D@std@@V?$allocator@D@2@@std@@P6APAXXZ@std@@@2@$0A@@std@@@std@@QAEAAPAU_Container_proxy@2@XZ ; std::_Tree_comp_alloc<std::_Tmap_traits<std::basic_string<char,std::char_traits<char>,std::allocator<char> >,void * (__cdecl*)(void),std::less<std::basic_string<char,std::char_traits<char>,std::allocator<char> > >,std::allocator<std::pair<std::basic_string<char,std::char_traits<char>,std::allocator<char> > const ,void * (__cdecl*)(void)> >,0> >::_Myproxy
  00046	89 30		 mov	 DWORD PTR [eax], esi

; 783  : 		_Alproxy.construct(_Myproxy(), _Container_proxy());

  00048	8d 4d e8	 lea	 ecx, DWORD PTR $T1[ebp]
  0004b	e8 00 00 00 00	 call	 ??0_Container_proxy@std@@QAE@XZ ; std::_Container_proxy::_Container_proxy
  00050	50		 push	 eax
  00051	8b 4d fc	 mov	 ecx, DWORD PTR _this$[ebp]
  00054	e8 00 00 00 00	 call	 ?_Myproxy@?$_Tree_comp_alloc@V?$_Tmap_traits@V?$basic_string@DU?$char_traits@D@std@@V?$allocator@D@2@@std@@P6APAXXZU?$less@V?$basic_string@DU?$char_traits@D@std@@V?$allocator@D@2@@std@@@2@V?$allocator@U?$pair@$$CBV?$basic_string@DU?$char_traits@D@std@@V?$allocator@D@2@@std@@P6APAXXZ@std@@@2@$0A@@std@@@std@@QAEAAPAU_Container_proxy@2@XZ ; std::_Tree_comp_alloc<std::_Tmap_traits<std::basic_string<char,std::char_traits<char>,std::allocator<char> >,void * (__cdecl*)(void),std::less<std::basic_string<char,std::char_traits<char>,std::allocator<char> > >,std::allocator<std::pair<std::basic_string<char,std::char_traits<char>,std::allocator<char> > const ,void * (__cdecl*)(void)> >,0> >::_Myproxy
  00059	8b 00		 mov	 eax, DWORD PTR [eax]
  0005b	50		 push	 eax
  0005c	8d 4d f7	 lea	 ecx, DWORD PTR __Alproxy$[ebp]
  0005f	e8 00 00 00 00	 call	 ??$construct@U_Container_proxy@std@@U12@@?$_Wrap_alloc@V?$allocator@U_Container_proxy@std@@@std@@@std@@QAEXPAU_Container_proxy@1@$$QAU21@@Z ; std::_Wrap_alloc<std::allocator<std::_Container_proxy> >::construct<std::_Container_proxy,std::_Container_proxy>

; 784  : 		_Myproxy()->_Mycont = &_Get_data();

  00064	8b 4d fc	 mov	 ecx, DWORD PTR _this$[ebp]
  00067	e8 00 00 00 00	 call	 ?_Get_data@?$_Tree_comp_alloc@V?$_Tmap_traits@V?$basic_string@DU?$char_traits@D@std@@V?$allocator@D@2@@std@@P6APAXXZU?$less@V?$basic_string@DU?$char_traits@D@std@@V?$allocator@D@2@@std@@@2@V?$allocator@U?$pair@$$CBV?$basic_string@DU?$char_traits@D@std@@V?$allocator@D@2@@std@@P6APAXXZ@std@@@2@$0A@@std@@@std@@QAEAAV?$_Tree_val@U?$_Tree_simple_types@U?$pair@$$CBV?$basic_string@DU?$char_traits@D@std@@V?$allocator@D@2@@std@@P6APAXXZ@std@@@std@@@2@XZ ; std::_Tree_comp_alloc<std::_Tmap_traits<std::basic_string<char,std::char_traits<char>,std::allocator<char> >,void * (__cdecl*)(void),std::less<std::basic_string<char,std::char_traits<char>,std::allocator<char> > >,std::allocator<std::pair<std::basic_string<char,std::char_traits<char>,std::allocator<char> > const ,void * (__cdecl*)(void)> >,0> >::_Get_data
  0006c	8b f0		 mov	 esi, eax
  0006e	8b 4d fc	 mov	 ecx, DWORD PTR _this$[ebp]
  00071	e8 00 00 00 00	 call	 ?_Myproxy@?$_Tree_comp_alloc@V?$_Tmap_traits@V?$basic_string@DU?$char_traits@D@std@@V?$allocator@D@2@@std@@P6APAXXZU?$less@V?$basic_string@DU?$char_traits@D@std@@V?$allocator@D@2@@std@@@2@V?$allocator@U?$pair@$$CBV?$basic_string@DU?$char_traits@D@std@@V?$allocator@D@2@@std@@P6APAXXZ@std@@@2@$0A@@std@@@std@@QAEAAPAU_Container_proxy@2@XZ ; std::_Tree_comp_alloc<std::_Tmap_traits<std::basic_string<char,std::char_traits<char>,std::allocator<char> >,void * (__cdecl*)(void),std::less<std::basic_string<char,std::char_traits<char>,std::allocator<char> > >,std::allocator<std::pair<std::basic_string<char,std::char_traits<char>,std::allocator<char> > const ,void * (__cdecl*)(void)> >,0> >::_Myproxy
  00076	8b 08		 mov	 ecx, DWORD PTR [eax]
  00078	89 31		 mov	 DWORD PTR [ecx], esi

; 785  : 		}

  0007a	52		 push	 edx
  0007b	8b cd		 mov	 ecx, ebp
  0007d	50		 push	 eax
  0007e	8d 15 00 00 00
	00		 lea	 edx, DWORD PTR $LN5@Alloc_prox
  00084	e8 00 00 00 00	 call	 @_RTC_CheckStackVars@8
  00089	58		 pop	 eax
  0008a	5a		 pop	 edx
  0008b	5e		 pop	 esi
  0008c	83 c4 18	 add	 esp, 24			; 00000018H
  0008f	3b ec		 cmp	 ebp, esp
  00091	e8 00 00 00 00	 call	 __RTC_CheckEsp
  00096	8b e5		 mov	 esp, ebp
  00098	5d		 pop	 ebp
  00099	c3		 ret	 0
  0009a	66 90		 npad	 2
$LN5@Alloc_prox:
  0009c	01 00 00 00	 DD	 1
  000a0	00 00 00 00	 DD	 $LN4@Alloc_prox
$LN4@Alloc_prox:
  000a4	f7 ff ff ff	 DD	 -9			; fffffff7H
  000a8	01 00 00 00	 DD	 1
  000ac	00 00 00 00	 DD	 $LN3@Alloc_prox
$LN3@Alloc_prox:
  000b0	5f		 DB	 95			; 0000005fH
  000b1	41		 DB	 65			; 00000041H
  000b2	6c		 DB	 108			; 0000006cH
  000b3	70		 DB	 112			; 00000070H
  000b4	72		 DB	 114			; 00000072H
  000b5	6f		 DB	 111			; 0000006fH
  000b6	78		 DB	 120			; 00000078H
  000b7	79		 DB	 121			; 00000079H
  000b8	00		 DB	 0
?_Alloc_proxy@?$_Tree_comp_alloc@V?$_Tmap_traits@V?$basic_string@DU?$char_traits@D@std@@V?$allocator@D@2@@std@@P6APAXXZU?$less@V?$basic_string@DU?$char_traits@D@std@@V?$allocator@D@2@@std@@@2@V?$allocator@U?$pair@$$CBV?$basic_string@DU?$char_traits@D@std@@V?$allocator@D@2@@std@@P6APAXXZ@std@@@2@$0A@@std@@@std@@QAEXXZ ENDP ; std::_Tree_comp_alloc<std::_Tmap_traits<std::basic_string<char,std::char_traits<char>,std::allocator<char> >,void * (__cdecl*)(void),std::less<std::basic_string<char,std::char_traits<char>,std::allocator<char> > >,std::allocator<std::pair<std::basic_string<char,std::char_traits<char>,std::allocator<char> > const ,void * (__cdecl*)(void)> >,0> >::_Alloc_proxy
_TEXT	ENDS
; Function compile flags: /Odtp /RTCsu
; File c:\program files (x86)\microsoft visual studio 14.0\vc\include\xtree
;	COMDAT ?_Min@?$_Tree_comp_alloc@V?$_Tmap_traits@V?$basic_string@DU?$char_traits@D@std@@V?$allocator@D@2@@std@@P6APAXXZU?$less@V?$basic_string@DU?$char_traits@D@std@@V?$allocator@D@2@@std@@@2@V?$allocator@U?$pair@$$CBV?$basic_string@DU?$char_traits@D@std@@V?$allocator@D@2@@std@@P6APAXXZ@std@@@2@$0A@@std@@@std@@SAPAU?$_Tree_node@U?$pair@$$CBV?$basic_string@DU?$char_traits@D@std@@V?$allocator@D@2@@std@@P6APAXXZ@std@@PAX@2@PAU32@@Z
_TEXT	SEGMENT
__Pnode$ = 8						; size = 4
?_Min@?$_Tree_comp_alloc@V?$_Tmap_traits@V?$basic_string@DU?$char_traits@D@std@@V?$allocator@D@2@@std@@P6APAXXZU?$less@V?$basic_string@DU?$char_traits@D@std@@V?$allocator@D@2@@std@@@2@V?$allocator@U?$pair@$$CBV?$basic_string@DU?$char_traits@D@std@@V?$allocator@D@2@@std@@P6APAXXZ@std@@@2@$0A@@std@@@std@@SAPAU?$_Tree_node@U?$pair@$$CBV?$basic_string@DU?$char_traits@D@std@@V?$allocator@D@2@@std@@P6APAXXZ@std@@PAX@2@PAU32@@Z PROC ; std::_Tree_comp_alloc<std::_Tmap_traits<std::basic_string<char,std::char_traits<char>,std::allocator<char> >,void * (__cdecl*)(void),std::less<std::basic_string<char,std::char_traits<char>,std::allocator<char> > >,std::allocator<std::pair<std::basic_string<char,std::char_traits<char>,std::allocator<char> > const ,void * (__cdecl*)(void)> >,0> >::_Min, COMDAT

; 696  : 		{	// return leftmost node in subtree at _Pnode

  00000	55		 push	 ebp
  00001	8b ec		 mov	 ebp, esp

; 697  : 		return (_Tree_val<_Val_types>::_Min(_Pnode));

  00003	8b 45 08	 mov	 eax, DWORD PTR __Pnode$[ebp]
  00006	50		 push	 eax
  00007	e8 00 00 00 00	 call	 ?_Min@?$_Tree_val@U?$_Tree_simple_types@U?$pair@$$CBV?$basic_string@DU?$char_traits@D@std@@V?$allocator@D@2@@std@@P6APAXXZ@std@@@std@@@std@@SAPAU?$_Tree_node@U?$pair@$$CBV?$basic_string@DU?$char_traits@D@std@@V?$allocator@D@2@@std@@P6APAXXZ@std@@PAX@2@PAU32@@Z ; std::_Tree_val<std::_Tree_simple_types<std::pair<std::basic_string<char,std::char_traits<char>,std::allocator<char> > const ,void * (__cdecl*)(void)> > >::_Min
  0000c	83 c4 04	 add	 esp, 4

; 698  : 		}

  0000f	3b ec		 cmp	 ebp, esp
  00011	e8 00 00 00 00	 call	 __RTC_CheckEsp
  00016	5d		 pop	 ebp
  00017	c3		 ret	 0
?_Min@?$_Tree_comp_alloc@V?$_Tmap_traits@V?$basic_string@DU?$char_traits@D@std@@V?$allocator@D@2@@std@@P6APAXXZU?$less@V?$basic_string@DU?$char_traits@D@std@@V?$allocator@D@2@@std@@@2@V?$allocator@U?$pair@$$CBV?$basic_string@DU?$char_traits@D@std@@V?$allocator@D@2@@std@@P6APAXXZ@std@@@2@$0A@@std@@@std@@SAPAU?$_Tree_node@U?$pair@$$CBV?$basic_string@DU?$char_traits@D@std@@V?$allocator@D@2@@std@@P6APAXXZ@std@@PAX@2@PAU32@@Z ENDP ; std::_Tree_comp_alloc<std::_Tmap_traits<std::basic_string<char,std::char_traits<char>,std::allocator<char> >,void * (__cdecl*)(void),std::less<std::basic_string<char,std::char_traits<char>,std::allocator<char> > >,std::allocator<std::pair<std::basic_string<char,std::char_traits<char>,std::allocator<char> > const ,void * (__cdecl*)(void)> >,0> >::_Min
_TEXT	ENDS
; Function compile flags: /Odtp /RTCsu
; File c:\program files (x86)\microsoft visual studio 14.0\vc\include\xtree
;	COMDAT ?_Max@?$_Tree_comp_alloc@V?$_Tmap_traits@V?$basic_string@DU?$char_traits@D@std@@V?$allocator@D@2@@std@@P6APAXXZU?$less@V?$basic_string@DU?$char_traits@D@std@@V?$allocator@D@2@@std@@@2@V?$allocator@U?$pair@$$CBV?$basic_string@DU?$char_traits@D@std@@V?$allocator@D@2@@std@@P6APAXXZ@std@@@2@$0A@@std@@@std@@SAPAU?$_Tree_node@U?$pair@$$CBV?$basic_string@DU?$char_traits@D@std@@V?$allocator@D@2@@std@@P6APAXXZ@std@@PAX@2@PAU32@@Z
_TEXT	SEGMENT
__Pnode$ = 8						; size = 4
?_Max@?$_Tree_comp_alloc@V?$_Tmap_traits@V?$basic_string@DU?$char_traits@D@std@@V?$allocator@D@2@@std@@P6APAXXZU?$less@V?$basic_string@DU?$char_traits@D@std@@V?$allocator@D@2@@std@@@2@V?$allocator@U?$pair@$$CBV?$basic_string@DU?$char_traits@D@std@@V?$allocator@D@2@@std@@P6APAXXZ@std@@@2@$0A@@std@@@std@@SAPAU?$_Tree_node@U?$pair@$$CBV?$basic_string@DU?$char_traits@D@std@@V?$allocator@D@2@@std@@P6APAXXZ@std@@PAX@2@PAU32@@Z PROC ; std::_Tree_comp_alloc<std::_Tmap_traits<std::basic_string<char,std::char_traits<char>,std::allocator<char> >,void * (__cdecl*)(void),std::less<std::basic_string<char,std::char_traits<char>,std::allocator<char> > >,std::allocator<std::pair<std::basic_string<char,std::char_traits<char>,std::allocator<char> > const ,void * (__cdecl*)(void)> >,0> >::_Max, COMDAT

; 691  : 		{	// return rightmost node in subtree at _Pnode

  00000	55		 push	 ebp
  00001	8b ec		 mov	 ebp, esp

; 692  : 		return (_Tree_val<_Val_types>::_Max(_Pnode));

  00003	8b 45 08	 mov	 eax, DWORD PTR __Pnode$[ebp]
  00006	50		 push	 eax
  00007	e8 00 00 00 00	 call	 ?_Max@?$_Tree_val@U?$_Tree_simple_types@U?$pair@$$CBV?$basic_string@DU?$char_traits@D@std@@V?$allocator@D@2@@std@@P6APAXXZ@std@@@std@@@std@@SAPAU?$_Tree_node@U?$pair@$$CBV?$basic_string@DU?$char_traits@D@std@@V?$allocator@D@2@@std@@P6APAXXZ@std@@PAX@2@PAU32@@Z ; std::_Tree_val<std::_Tree_simple_types<std::pair<std::basic_string<char,std::char_traits<char>,std::allocator<char> > const ,void * (__cdecl*)(void)> > >::_Max
  0000c	83 c4 04	 add	 esp, 4

; 693  : 		}

  0000f	3b ec		 cmp	 ebp, esp
  00011	e8 00 00 00 00	 call	 __RTC_CheckEsp
  00016	5d		 pop	 ebp
  00017	c3		 ret	 0
?_Max@?$_Tree_comp_alloc@V?$_Tmap_traits@V?$basic_string@DU?$char_traits@D@std@@V?$allocator@D@2@@std@@P6APAXXZU?$less@V?$basic_string@DU?$char_traits@D@std@@V?$allocator@D@2@@std@@@2@V?$allocator@U?$pair@$$CBV?$basic_string@DU?$char_traits@D@std@@V?$allocator@D@2@@std@@P6APAXXZ@std@@@2@$0A@@std@@@std@@SAPAU?$_Tree_node@U?$pair@$$CBV?$basic_string@DU?$char_traits@D@std@@V?$allocator@D@2@@std@@P6APAXXZ@std@@PAX@2@PAU32@@Z ENDP ; std::_Tree_comp_alloc<std::_Tmap_traits<std::basic_string<char,std::char_traits<char>,std::allocator<char> >,void * (__cdecl*)(void),std::less<std::basic_string<char,std::char_traits<char>,std::allocator<char> > >,std::allocator<std::pair<std::basic_string<char,std::char_traits<char>,std::allocator<char> > const ,void * (__cdecl*)(void)> >,0> >::_Max
_TEXT	ENDS
; Function compile flags: /Odtp /RTCsu
; File c:\program files (x86)\microsoft visual studio 14.0\vc\include\xtree
;	COMDAT ?_Orphan_ptr@?$_Tree@V?$_Tmap_traits@V?$basic_string@DU?$char_traits@D@std@@V?$allocator@D@2@@std@@P6APAXXZU?$less@V?$basic_string@DU?$char_traits@D@std@@V?$allocator@D@2@@std@@@2@V?$allocator@U?$pair@$$CBV?$basic_string@DU?$char_traits@D@std@@V?$allocator@D@2@@std@@P6APAXXZ@std@@@2@$0A@@std@@@std@@IAEXPAU?$_Tree_node@U?$pair@$$CBV?$basic_string@DU?$char_traits@D@std@@V?$allocator@D@2@@std@@P6APAXXZ@std@@PAX@2@@Z
_TEXT	SEGMENT
__Pnext$ = -32						; size = 4
__Lock$ = -24						; size = 4
_this$ = -16						; size = 4
__$EHRec$ = -12						; size = 12
__Ptr$ = 8						; size = 4
?_Orphan_ptr@?$_Tree@V?$_Tmap_traits@V?$basic_string@DU?$char_traits@D@std@@V?$allocator@D@2@@std@@P6APAXXZU?$less@V?$basic_string@DU?$char_traits@D@std@@V?$allocator@D@2@@std@@@2@V?$allocator@U?$pair@$$CBV?$basic_string@DU?$char_traits@D@std@@V?$allocator@D@2@@std@@P6APAXXZ@std@@@2@$0A@@std@@@std@@IAEXPAU?$_Tree_node@U?$pair@$$CBV?$basic_string@DU?$char_traits@D@std@@V?$allocator@D@2@@std@@P6APAXXZ@std@@PAX@2@@Z PROC ; std::_Tree<std::_Tmap_traits<std::basic_string<char,std::char_traits<char>,std::allocator<char> >,void * (__cdecl*)(void),std::less<std::basic_string<char,std::char_traits<char>,std::allocator<char> > >,std::allocator<std::pair<std::basic_string<char,std::char_traits<char>,std::allocator<char> > const ,void * (__cdecl*)(void)> >,0> >::_Orphan_ptr, COMDAT
; _this$ = ecx

; 2178 : 		{	// orphan iterators with specified node pointers

  00000	55		 push	 ebp
  00001	8b ec		 mov	 ebp, esp
  00003	6a ff		 push	 -1
  00005	68 00 00 00 00	 push	 __ehhandler$?_Orphan_ptr@?$_Tree@V?$_Tmap_traits@V?$basic_string@DU?$char_traits@D@std@@V?$allocator@D@2@@std@@P6APAXXZU?$less@V?$basic_string@DU?$char_traits@D@std@@V?$allocator@D@2@@std@@@2@V?$allocator@U?$pair@$$CBV?$basic_string@DU?$char_traits@D@std@@V?$allocator@D@2@@std@@P6APAXXZ@std@@@2@$0A@@std@@@std@@IAEXPAU?$_Tree_node@U?$pair@$$CBV?$basic_string@DU?$char_traits@D@std@@V?$allocator@D@2@@std@@P6APAXXZ@std@@PAX@2@@Z
  0000a	64 a1 00 00 00
	00		 mov	 eax, DWORD PTR fs:0
  00010	50		 push	 eax
  00011	83 ec 14	 sub	 esp, 20			; 00000014H
  00014	56		 push	 esi
  00015	b8 cc cc cc cc	 mov	 eax, -858993460		; ccccccccH
  0001a	89 45 e0	 mov	 DWORD PTR [ebp-32], eax
  0001d	89 45 e4	 mov	 DWORD PTR [ebp-28], eax
  00020	89 45 e8	 mov	 DWORD PTR [ebp-24], eax
  00023	89 45 ec	 mov	 DWORD PTR [ebp-20], eax
  00026	89 45 f0	 mov	 DWORD PTR [ebp-16], eax
  00029	a1 00 00 00 00	 mov	 eax, DWORD PTR ___security_cookie
  0002e	33 c5		 xor	 eax, ebp
  00030	50		 push	 eax
  00031	8d 45 f4	 lea	 eax, DWORD PTR __$EHRec$[ebp]
  00034	64 a3 00 00 00
	00		 mov	 DWORD PTR fs:0, eax
  0003a	89 4d f0	 mov	 DWORD PTR _this$[ebp], ecx

; 2179 : 		_Lockit _Lock(_LOCK_DEBUG);

  0003d	8b f4		 mov	 esi, esp
  0003f	6a 03		 push	 3
  00041	8d 4d e8	 lea	 ecx, DWORD PTR __Lock$[ebp]
  00044	ff 15 00 00 00
	00		 call	 DWORD PTR __imp_??0_Lockit@std@@QAE@H@Z
  0004a	3b f4		 cmp	 esi, esp
  0004c	e8 00 00 00 00	 call	 __RTC_CheckEsp
  00051	c7 45 fc 00 00
	00 00		 mov	 DWORD PTR __$EHRec$[ebp+8], 0

; 2180 : 		const_iterator **_Pnext = (const_iterator **)this->_Getpfirst();

  00058	8b 4d f0	 mov	 ecx, DWORD PTR _this$[ebp]
  0005b	e8 00 00 00 00	 call	 ?_Getpfirst@?$_Tree_comp_alloc@V?$_Tmap_traits@V?$basic_string@DU?$char_traits@D@std@@V?$allocator@D@2@@std@@P6APAXXZU?$less@V?$basic_string@DU?$char_traits@D@std@@V?$allocator@D@2@@std@@@2@V?$allocator@U?$pair@$$CBV?$basic_string@DU?$char_traits@D@std@@V?$allocator@D@2@@std@@P6APAXXZ@std@@@2@$0A@@std@@@std@@QBEPAPAU_Iterator_base12@2@XZ ; std::_Tree_comp_alloc<std::_Tmap_traits<std::basic_string<char,std::char_traits<char>,std::allocator<char> >,void * (__cdecl*)(void),std::less<std::basic_string<char,std::char_traits<char>,std::allocator<char> > >,std::allocator<std::pair<std::basic_string<char,std::char_traits<char>,std::allocator<char> > const ,void * (__cdecl*)(void)> >,0> >::_Getpfirst
  00060	89 45 e0	 mov	 DWORD PTR __Pnext$[ebp], eax

; 2181 : 		if (_Pnext != 0)

  00063	83 7d e0 00	 cmp	 DWORD PTR __Pnext$[ebp], 0
  00067	74 5b		 je	 SHORT $LN4@Orphan_ptr
$LN2@Orphan_ptr:

; 2182 : 			while (*_Pnext != 0)

  00069	8b 45 e0	 mov	 eax, DWORD PTR __Pnext$[ebp]
  0006c	83 38 00	 cmp	 DWORD PTR [eax], 0
  0006f	74 53		 je	 SHORT $LN4@Orphan_ptr

; 2183 : 				if ((*_Pnext)->_Ptr == this->_Myhead()
; 2184 : 					|| _Ptr != 0 && (*_Pnext)->_Ptr != _Ptr)

  00071	8b 4d e0	 mov	 ecx, DWORD PTR __Pnext$[ebp]
  00074	8b 31		 mov	 esi, DWORD PTR [ecx]
  00076	8b 4d f0	 mov	 ecx, DWORD PTR _this$[ebp]
  00079	e8 00 00 00 00	 call	 ?_Myhead@?$_Tree_comp_alloc@V?$_Tmap_traits@V?$basic_string@DU?$char_traits@D@std@@V?$allocator@D@2@@std@@P6APAXXZU?$less@V?$basic_string@DU?$char_traits@D@std@@V?$allocator@D@2@@std@@@2@V?$allocator@U?$pair@$$CBV?$basic_string@DU?$char_traits@D@std@@V?$allocator@D@2@@std@@P6APAXXZ@std@@@2@$0A@@std@@@std@@QAEAAPAU?$_Tree_node@U?$pair@$$CBV?$basic_string@DU?$char_traits@D@std@@V?$allocator@D@2@@std@@P6APAXXZ@std@@PAX@2@XZ ; std::_Tree_comp_alloc<std::_Tmap_traits<std::basic_string<char,std::char_traits<char>,std::allocator<char> >,void * (__cdecl*)(void),std::less<std::basic_string<char,std::char_traits<char>,std::allocator<char> > >,std::allocator<std::pair<std::basic_string<char,std::char_traits<char>,std::allocator<char> > const ,void * (__cdecl*)(void)> >,0> >::_Myhead
  0007e	8b 56 08	 mov	 edx, DWORD PTR [esi+8]
  00081	3b 10		 cmp	 edx, DWORD PTR [eax]
  00083	74 13		 je	 SHORT $LN7@Orphan_ptr
  00085	83 7d 08 00	 cmp	 DWORD PTR __Ptr$[ebp], 0
  00089	74 1c		 je	 SHORT $LN5@Orphan_ptr
  0008b	8b 45 e0	 mov	 eax, DWORD PTR __Pnext$[ebp]
  0008e	8b 08		 mov	 ecx, DWORD PTR [eax]
  00090	8b 51 08	 mov	 edx, DWORD PTR [ecx+8]
  00093	3b 55 08	 cmp	 edx, DWORD PTR __Ptr$[ebp]
  00096	74 0f		 je	 SHORT $LN5@Orphan_ptr
$LN7@Orphan_ptr:

; 2185 : 					_Pnext = (const_iterator **)(*_Pnext)->_Getpnext();

  00098	8b 45 e0	 mov	 eax, DWORD PTR __Pnext$[ebp]
  0009b	8b 08		 mov	 ecx, DWORD PTR [eax]
  0009d	e8 00 00 00 00	 call	 ?_Getpnext@_Iterator_base12@std@@QAEPAPAU12@XZ ; std::_Iterator_base12::_Getpnext
  000a2	89 45 e0	 mov	 DWORD PTR __Pnext$[ebp], eax

; 2186 : 				else

  000a5	eb 1b		 jmp	 SHORT $LN6@Orphan_ptr
$LN5@Orphan_ptr:

; 2187 : 					{	// orphan the iterator
; 2188 : 					(*_Pnext)->_Clrcont();

  000a7	8b 4d e0	 mov	 ecx, DWORD PTR __Pnext$[ebp]
  000aa	8b 09		 mov	 ecx, DWORD PTR [ecx]
  000ac	e8 00 00 00 00	 call	 ?_Clrcont@_Iterator_base12@std@@QAEXXZ ; std::_Iterator_base12::_Clrcont

; 2189 : 					*_Pnext = *(const_iterator **)(*_Pnext)->_Getpnext();

  000b1	8b 55 e0	 mov	 edx, DWORD PTR __Pnext$[ebp]
  000b4	8b 0a		 mov	 ecx, DWORD PTR [edx]
  000b6	e8 00 00 00 00	 call	 ?_Getpnext@_Iterator_base12@std@@QAEPAPAU12@XZ ; std::_Iterator_base12::_Getpnext
  000bb	8b 4d e0	 mov	 ecx, DWORD PTR __Pnext$[ebp]
  000be	8b 10		 mov	 edx, DWORD PTR [eax]
  000c0	89 11		 mov	 DWORD PTR [ecx], edx
$LN6@Orphan_ptr:

; 2190 : 					}

  000c2	eb a5		 jmp	 SHORT $LN2@Orphan_ptr
$LN4@Orphan_ptr:

; 2191 : 		}

  000c4	c7 45 fc ff ff
	ff ff		 mov	 DWORD PTR __$EHRec$[ebp+8], -1
  000cb	8b f4		 mov	 esi, esp
  000cd	8d 4d e8	 lea	 ecx, DWORD PTR __Lock$[ebp]
  000d0	ff 15 00 00 00
	00		 call	 DWORD PTR __imp_??1_Lockit@std@@QAE@XZ
  000d6	3b f4		 cmp	 esi, esp
  000d8	e8 00 00 00 00	 call	 __RTC_CheckEsp
  000dd	52		 push	 edx
  000de	8b cd		 mov	 ecx, ebp
  000e0	50		 push	 eax
  000e1	8d 15 00 00 00
	00		 lea	 edx, DWORD PTR $LN13@Orphan_ptr
  000e7	e8 00 00 00 00	 call	 @_RTC_CheckStackVars@8
  000ec	58		 pop	 eax
  000ed	5a		 pop	 edx
  000ee	8b 4d f4	 mov	 ecx, DWORD PTR __$EHRec$[ebp]
  000f1	64 89 0d 00 00
	00 00		 mov	 DWORD PTR fs:0, ecx
  000f8	59		 pop	 ecx
  000f9	5e		 pop	 esi
  000fa	83 c4 20	 add	 esp, 32			; 00000020H
  000fd	3b ec		 cmp	 ebp, esp
  000ff	e8 00 00 00 00	 call	 __RTC_CheckEsp
  00104	8b e5		 mov	 esp, ebp
  00106	5d		 pop	 ebp
  00107	c2 04 00	 ret	 4
  0010a	66 90		 npad	 2
$LN13@Orphan_ptr:
  0010c	01 00 00 00	 DD	 1
  00110	00 00 00 00	 DD	 $LN12@Orphan_ptr
$LN12@Orphan_ptr:
  00114	e8 ff ff ff	 DD	 -24			; ffffffe8H
  00118	04 00 00 00	 DD	 4
  0011c	00 00 00 00	 DD	 $LN10@Orphan_ptr
$LN10@Orphan_ptr:
  00120	5f		 DB	 95			; 0000005fH
  00121	4c		 DB	 76			; 0000004cH
  00122	6f		 DB	 111			; 0000006fH
  00123	63		 DB	 99			; 00000063H
  00124	6b		 DB	 107			; 0000006bH
  00125	00		 DB	 0
_TEXT	ENDS
;	COMDAT text$x
text$x	SEGMENT
__unwindfunclet$?_Orphan_ptr@?$_Tree@V?$_Tmap_traits@V?$basic_string@DU?$char_traits@D@std@@V?$allocator@D@2@@std@@P6APAXXZU?$less@V?$basic_string@DU?$char_traits@D@std@@V?$allocator@D@2@@std@@@2@V?$allocator@U?$pair@$$CBV?$basic_string@DU?$char_traits@D@std@@V?$allocator@D@2@@std@@P6APAXXZ@std@@@2@$0A@@std@@@std@@IAEXPAU?$_Tree_node@U?$pair@$$CBV?$basic_string@DU?$char_traits@D@std@@V?$allocator@D@2@@std@@P6APAXXZ@std@@PAX@2@@Z$0:
  00000	8b f4		 mov	 esi, esp
  00002	8d 4d e8	 lea	 ecx, DWORD PTR __Lock$[ebp]
  00005	ff 15 00 00 00
	00		 call	 DWORD PTR __imp_??1_Lockit@std@@QAE@XZ
  0000b	3b f4		 cmp	 esi, esp
  0000d	e9 00 00 00 00	 jmp	 __RTC_CheckEsp
__ehhandler$?_Orphan_ptr@?$_Tree@V?$_Tmap_traits@V?$basic_string@DU?$char_traits@D@std@@V?$allocator@D@2@@std@@P6APAXXZU?$less@V?$basic_string@DU?$char_traits@D@std@@V?$allocator@D@2@@std@@@2@V?$allocator@U?$pair@$$CBV?$basic_string@DU?$char_traits@D@std@@V?$allocator@D@2@@std@@P6APAXXZ@std@@@2@$0A@@std@@@std@@IAEXPAU?$_Tree_node@U?$pair@$$CBV?$basic_string@DU?$char_traits@D@std@@V?$allocator@D@2@@std@@P6APAXXZ@std@@PAX@2@@Z:
  00012	8b 54 24 08	 mov	 edx, DWORD PTR [esp+8]
  00016	8d 42 0c	 lea	 eax, DWORD PTR [edx+12]
  00019	8b 4a e4	 mov	 ecx, DWORD PTR [edx-28]
  0001c	33 c8		 xor	 ecx, eax
  0001e	e8 00 00 00 00	 call	 @__security_check_cookie@4
  00023	b8 00 00 00 00	 mov	 eax, OFFSET __ehfuncinfo$?_Orphan_ptr@?$_Tree@V?$_Tmap_traits@V?$basic_string@DU?$char_traits@D@std@@V?$allocator@D@2@@std@@P6APAXXZU?$less@V?$basic_string@DU?$char_traits@D@std@@V?$allocator@D@2@@std@@@2@V?$allocator@U?$pair@$$CBV?$basic_string@DU?$char_traits@D@std@@V?$allocator@D@2@@std@@P6APAXXZ@std@@@2@$0A@@std@@@std@@IAEXPAU?$_Tree_node@U?$pair@$$CBV?$basic_string@DU?$char_traits@D@std@@V?$allocator@D@2@@std@@P6APAXXZ@std@@PAX@2@@Z
  00028	e9 00 00 00 00	 jmp	 ___CxxFrameHandler3
text$x	ENDS
?_Orphan_ptr@?$_Tree@V?$_Tmap_traits@V?$basic_string@DU?$char_traits@D@std@@V?$allocator@D@2@@std@@P6APAXXZU?$less@V?$basic_string@DU?$char_traits@D@std@@V?$allocator@D@2@@std@@@2@V?$allocator@U?$pair@$$CBV?$basic_string@DU?$char_traits@D@std@@V?$allocator@D@2@@std@@P6APAXXZ@std@@@2@$0A@@std@@@std@@IAEXPAU?$_Tree_node@U?$pair@$$CBV?$basic_string@DU?$char_traits@D@std@@V?$allocator@D@2@@std@@P6APAXXZ@std@@PAX@2@@Z ENDP ; std::_Tree<std::_Tmap_traits<std::basic_string<char,std::char_traits<char>,std::allocator<char> >,void * (__cdecl*)(void),std::less<std::basic_string<char,std::char_traits<char>,std::allocator<char> > >,std::allocator<std::pair<std::basic_string<char,std::char_traits<char>,std::allocator<char> > const ,void * (__cdecl*)(void)> >,0> >::_Orphan_ptr
; Function compile flags: /Odtp /RTCsu
; File c:\program files (x86)\microsoft visual studio 14.0\vc\include\xtree
;	COMDAT ?_Erase@?$_Tree@V?$_Tmap_traits@V?$basic_string@DU?$char_traits@D@std@@V?$allocator@D@2@@std@@P6APAXXZU?$less@V?$basic_string@DU?$char_traits@D@std@@V?$allocator@D@2@@std@@@2@V?$allocator@U?$pair@$$CBV?$basic_string@DU?$char_traits@D@std@@V?$allocator@D@2@@std@@P6APAXXZ@std@@@2@$0A@@std@@@std@@IAEXPAU?$_Tree_node@U?$pair@$$CBV?$basic_string@DU?$char_traits@D@std@@V?$allocator@D@2@@std@@P6APAXXZ@std@@PAX@2@@Z
_TEXT	SEGMENT
__Pnode$1 = -8						; size = 4
_this$ = -4						; size = 4
__Rootnode$ = 8						; size = 4
?_Erase@?$_Tree@V?$_Tmap_traits@V?$basic_string@DU?$char_traits@D@std@@V?$allocator@D@2@@std@@P6APAXXZU?$less@V?$basic_string@DU?$char_traits@D@std@@V?$allocator@D@2@@std@@@2@V?$allocator@U?$pair@$$CBV?$basic_string@DU?$char_traits@D@std@@V?$allocator@D@2@@std@@P6APAXXZ@std@@@2@$0A@@std@@@std@@IAEXPAU?$_Tree_node@U?$pair@$$CBV?$basic_string@DU?$char_traits@D@std@@V?$allocator@D@2@@std@@P6APAXXZ@std@@PAX@2@@Z PROC ; std::_Tree<std::_Tmap_traits<std::basic_string<char,std::char_traits<char>,std::allocator<char> >,void * (__cdecl*)(void),std::less<std::basic_string<char,std::char_traits<char>,std::allocator<char> > >,std::allocator<std::pair<std::basic_string<char,std::char_traits<char>,std::allocator<char> > const ,void * (__cdecl*)(void)> >,0> >::_Erase, COMDAT
; _this$ = ecx

; 2060 : 		{	// free entire subtree, recursively

  00000	55		 push	 ebp
  00001	8b ec		 mov	 ebp, esp
  00003	83 ec 08	 sub	 esp, 8
  00006	c7 45 f8 cc cc
	cc cc		 mov	 DWORD PTR [ebp-8], -858993460 ; ccccccccH
  0000d	c7 45 fc cc cc
	cc cc		 mov	 DWORD PTR [ebp-4], -858993460 ; ccccccccH
  00014	89 4d fc	 mov	 DWORD PTR _this$[ebp], ecx

; 2061 : 		for (_Nodeptr _Pnode = _Rootnode;

  00017	8b 45 08	 mov	 eax, DWORD PTR __Rootnode$[ebp]
  0001a	89 45 f8	 mov	 DWORD PTR __Pnode$1[ebp], eax
  0001d	eb 06		 jmp	 SHORT $LN4@Erase
$LN2@Erase:

; 2062 : 			!this->_Isnil(_Pnode); _Rootnode = _Pnode)

  0001f	8b 4d f8	 mov	 ecx, DWORD PTR __Pnode$1[ebp]
  00022	89 4d 08	 mov	 DWORD PTR __Rootnode$[ebp], ecx
$LN4@Erase:
  00025	8b 55 f8	 mov	 edx, DWORD PTR __Pnode$1[ebp]
  00028	52		 push	 edx
  00029	e8 00 00 00 00	 call	 ?_Isnil@?$_Tree_comp_alloc@V?$_Tmap_traits@V?$basic_string@DU?$char_traits@D@std@@V?$allocator@D@2@@std@@P6APAXXZU?$less@V?$basic_string@DU?$char_traits@D@std@@V?$allocator@D@2@@std@@@2@V?$allocator@U?$pair@$$CBV?$basic_string@DU?$char_traits@D@std@@V?$allocator@D@2@@std@@P6APAXXZ@std@@@2@$0A@@std@@@std@@SAAADPAU?$_Tree_node@U?$pair@$$CBV?$basic_string@DU?$char_traits@D@std@@V?$allocator@D@2@@std@@P6APAXXZ@std@@PAX@2@@Z ; std::_Tree_comp_alloc<std::_Tmap_traits<std::basic_string<char,std::char_traits<char>,std::allocator<char> >,void * (__cdecl*)(void),std::less<std::basic_string<char,std::char_traits<char>,std::allocator<char> > >,std::allocator<std::pair<std::basic_string<char,std::char_traits<char>,std::allocator<char> > const ,void * (__cdecl*)(void)> >,0> >::_Isnil
  0002e	83 c4 04	 add	 esp, 4
  00031	0f be 00	 movsx	 eax, BYTE PTR [eax]
  00034	85 c0		 test	 eax, eax
  00036	75 64		 jne	 SHORT $LN1@Erase

; 2063 : 			{	// free subtrees, then node
; 2064 : 			_Erase(this->_Right(_Pnode));

  00038	8b 4d f8	 mov	 ecx, DWORD PTR __Pnode$1[ebp]
  0003b	51		 push	 ecx
  0003c	e8 00 00 00 00	 call	 ?_Right@?$_Tree_comp_alloc@V?$_Tmap_traits@V?$basic_string@DU?$char_traits@D@std@@V?$allocator@D@2@@std@@P6APAXXZU?$less@V?$basic_string@DU?$char_traits@D@std@@V?$allocator@D@2@@std@@@2@V?$allocator@U?$pair@$$CBV?$basic_string@DU?$char_traits@D@std@@V?$allocator@D@2@@std@@P6APAXXZ@std@@@2@$0A@@std@@@std@@SAAAPAU?$_Tree_node@U?$pair@$$CBV?$basic_string@DU?$char_traits@D@std@@V?$allocator@D@2@@std@@P6APAXXZ@std@@PAX@2@PAU32@@Z ; std::_Tree_comp_alloc<std::_Tmap_traits<std::basic_string<char,std::char_traits<char>,std::allocator<char> >,void * (__cdecl*)(void),std::less<std::basic_string<char,std::char_traits<char>,std::allocator<char> > >,std::allocator<std::pair<std::basic_string<char,std::char_traits<char>,std::allocator<char> > const ,void * (__cdecl*)(void)> >,0> >::_Right
  00041	83 c4 04	 add	 esp, 4
  00044	8b 10		 mov	 edx, DWORD PTR [eax]
  00046	52		 push	 edx
  00047	8b 4d fc	 mov	 ecx, DWORD PTR _this$[ebp]
  0004a	e8 00 00 00 00	 call	 ?_Erase@?$_Tree@V?$_Tmap_traits@V?$basic_string@DU?$char_traits@D@std@@V?$allocator@D@2@@std@@P6APAXXZU?$less@V?$basic_string@DU?$char_traits@D@std@@V?$allocator@D@2@@std@@@2@V?$allocator@U?$pair@$$CBV?$basic_string@DU?$char_traits@D@std@@V?$allocator@D@2@@std@@P6APAXXZ@std@@@2@$0A@@std@@@std@@IAEXPAU?$_Tree_node@U?$pair@$$CBV?$basic_string@DU?$char_traits@D@std@@V?$allocator@D@2@@std@@P6APAXXZ@std@@PAX@2@@Z ; std::_Tree<std::_Tmap_traits<std::basic_string<char,std::char_traits<char>,std::allocator<char> >,void * (__cdecl*)(void),std::less<std::basic_string<char,std::char_traits<char>,std::allocator<char> > >,std::allocator<std::pair<std::basic_string<char,std::char_traits<char>,std::allocator<char> > const ,void * (__cdecl*)(void)> >,0> >::_Erase

; 2065 : 			_Pnode = this->_Left(_Pnode);

  0004f	8b 45 f8	 mov	 eax, DWORD PTR __Pnode$1[ebp]
  00052	50		 push	 eax
  00053	e8 00 00 00 00	 call	 ?_Left@?$_Tree_comp_alloc@V?$_Tmap_traits@V?$basic_string@DU?$char_traits@D@std@@V?$allocator@D@2@@std@@P6APAXXZU?$less@V?$basic_string@DU?$char_traits@D@std@@V?$allocator@D@2@@std@@@2@V?$allocator@U?$pair@$$CBV?$basic_string@DU?$char_traits@D@std@@V?$allocator@D@2@@std@@P6APAXXZ@std@@@2@$0A@@std@@@std@@SAAAPAU?$_Tree_node@U?$pair@$$CBV?$basic_string@DU?$char_traits@D@std@@V?$allocator@D@2@@std@@P6APAXXZ@std@@PAX@2@PAU32@@Z ; std::_Tree_comp_alloc<std::_Tmap_traits<std::basic_string<char,std::char_traits<char>,std::allocator<char> >,void * (__cdecl*)(void),std::less<std::basic_string<char,std::char_traits<char>,std::allocator<char> > >,std::allocator<std::pair<std::basic_string<char,std::char_traits<char>,std::allocator<char> > const ,void * (__cdecl*)(void)> >,0> >::_Left
  00058	83 c4 04	 add	 esp, 4
  0005b	8b 08		 mov	 ecx, DWORD PTR [eax]
  0005d	89 4d f8	 mov	 DWORD PTR __Pnode$1[ebp], ecx

; 2066 : 			this->_Getal().destroy(

  00060	8b 55 08	 mov	 edx, DWORD PTR __Rootnode$[ebp]
  00063	52		 push	 edx
  00064	e8 00 00 00 00	 call	 ?_Myval@?$_Tree_comp_alloc@V?$_Tmap_traits@V?$basic_string@DU?$char_traits@D@std@@V?$allocator@D@2@@std@@P6APAXXZU?$less@V?$basic_string@DU?$char_traits@D@std@@V?$allocator@D@2@@std@@@2@V?$allocator@U?$pair@$$CBV?$basic_string@DU?$char_traits@D@std@@V?$allocator@D@2@@std@@P6APAXXZ@std@@@2@$0A@@std@@@std@@SAAAU?$pair@$$CBV?$basic_string@DU?$char_traits@D@std@@V?$allocator@D@2@@std@@P6APAXXZ@2@PAU?$_Tree_node@U?$pair@$$CBV?$basic_string@DU?$char_traits@D@std@@V?$allocator@D@2@@std@@P6APAXXZ@std@@PAX@2@@Z ; std::_Tree_comp_alloc<std::_Tmap_traits<std::basic_string<char,std::char_traits<char>,std::allocator<char> >,void * (__cdecl*)(void),std::less<std::basic_string<char,std::char_traits<char>,std::allocator<char> > >,std::allocator<std::pair<std::basic_string<char,std::char_traits<char>,std::allocator<char> > const ,void * (__cdecl*)(void)> >,0> >::_Myval
  00069	83 c4 04	 add	 esp, 4
  0006c	50		 push	 eax
  0006d	e8 00 00 00 00	 call	 ??$addressof@U?$pair@$$CBV?$basic_string@DU?$char_traits@D@std@@V?$allocator@D@2@@std@@P6APAXXZ@std@@@std@@YAPAU?$pair@$$CBV?$basic_string@DU?$char_traits@D@std@@V?$allocator@D@2@@std@@P6APAXXZ@0@AAU10@@Z ; std::addressof<std::pair<std::basic_string<char,std::char_traits<char>,std::allocator<char> > const ,void * (__cdecl*)(void)> >
  00072	83 c4 04	 add	 esp, 4
  00075	50		 push	 eax
  00076	8b 4d fc	 mov	 ecx, DWORD PTR _this$[ebp]
  00079	e8 00 00 00 00	 call	 ?_Getal@?$_Tree_comp_alloc@V?$_Tmap_traits@V?$basic_string@DU?$char_traits@D@std@@V?$allocator@D@2@@std@@P6APAXXZU?$less@V?$basic_string@DU?$char_traits@D@std@@V?$allocator@D@2@@std@@@2@V?$allocator@U?$pair@$$CBV?$basic_string@DU?$char_traits@D@std@@V?$allocator@D@2@@std@@P6APAXXZ@std@@@2@$0A@@std@@@std@@QAEAAU?$_Wrap_alloc@V?$allocator@U?$_Tree_node@U?$pair@$$CBV?$basic_string@DU?$char_traits@D@std@@V?$allocator@D@2@@std@@P6APAXXZ@std@@PAX@std@@@std@@@2@XZ ; std::_Tree_comp_alloc<std::_Tmap_traits<std::basic_string<char,std::char_traits<char>,std::allocator<char> >,void * (__cdecl*)(void),std::less<std::basic_string<char,std::char_traits<char>,std::allocator<char> > >,std::allocator<std::pair<std::basic_string<char,std::char_traits<char>,std::allocator<char> > const ,void * (__cdecl*)(void)> >,0> >::_Getal
  0007e	8b c8		 mov	 ecx, eax
  00080	e8 00 00 00 00	 call	 ??$destroy@U?$pair@$$CBV?$basic_string@DU?$char_traits@D@std@@V?$allocator@D@2@@std@@P6APAXXZ@std@@@?$_Wrap_alloc@V?$allocator@U?$_Tree_node@U?$pair@$$CBV?$basic_string@DU?$char_traits@D@std@@V?$allocator@D@2@@std@@P6APAXXZ@std@@PAX@std@@@std@@@std@@QAEXPAU?$pair@$$CBV?$basic_string@DU?$char_traits@D@std@@V?$allocator@D@2@@std@@P6APAXXZ@1@@Z ; std::_Wrap_alloc<std::allocator<std::_Tree_node<std::pair<std::basic_string<char,std::char_traits<char>,std::allocator<char> > const ,void * (__cdecl*)(void)>,void *> > >::destroy<std::pair<std::basic_string<char,std::char_traits<char>,std::allocator<char> > const ,void * (__cdecl*)(void)> >

; 2067 : 				_STD addressof(this->_Myval(_Rootnode)));
; 2068 : 
; 2069 : 			this->_Getal().deallocate(_Rootnode, 1);

  00085	6a 01		 push	 1
  00087	8b 45 08	 mov	 eax, DWORD PTR __Rootnode$[ebp]
  0008a	50		 push	 eax
  0008b	8b 4d fc	 mov	 ecx, DWORD PTR _this$[ebp]
  0008e	e8 00 00 00 00	 call	 ?_Getal@?$_Tree_comp_alloc@V?$_Tmap_traits@V?$basic_string@DU?$char_traits@D@std@@V?$allocator@D@2@@std@@P6APAXXZU?$less@V?$basic_string@DU?$char_traits@D@std@@V?$allocator@D@2@@std@@@2@V?$allocator@U?$pair@$$CBV?$basic_string@DU?$char_traits@D@std@@V?$allocator@D@2@@std@@P6APAXXZ@std@@@2@$0A@@std@@@std@@QAEAAU?$_Wrap_alloc@V?$allocator@U?$_Tree_node@U?$pair@$$CBV?$basic_string@DU?$char_traits@D@std@@V?$allocator@D@2@@std@@P6APAXXZ@std@@PAX@std@@@std@@@2@XZ ; std::_Tree_comp_alloc<std::_Tmap_traits<std::basic_string<char,std::char_traits<char>,std::allocator<char> >,void * (__cdecl*)(void),std::less<std::basic_string<char,std::char_traits<char>,std::allocator<char> > >,std::allocator<std::pair<std::basic_string<char,std::char_traits<char>,std::allocator<char> > const ,void * (__cdecl*)(void)> >,0> >::_Getal
  00093	8b c8		 mov	 ecx, eax
  00095	e8 00 00 00 00	 call	 ?deallocate@?$_Wrap_alloc@V?$allocator@U?$_Tree_node@U?$pair@$$CBV?$basic_string@DU?$char_traits@D@std@@V?$allocator@D@2@@std@@P6APAXXZ@std@@PAX@std@@@std@@@std@@QAEXPAU?$_Tree_node@U?$pair@$$CBV?$basic_string@DU?$char_traits@D@std@@V?$allocator@D@2@@std@@P6APAXXZ@std@@PAX@2@I@Z ; std::_Wrap_alloc<std::allocator<std::_Tree_node<std::pair<std::basic_string<char,std::char_traits<char>,std::allocator<char> > const ,void * (__cdecl*)(void)>,void *> > >::deallocate

; 2070 : 			}

  0009a	eb 83		 jmp	 SHORT $LN2@Erase
$LN1@Erase:

; 2071 : 		}

  0009c	83 c4 08	 add	 esp, 8
  0009f	3b ec		 cmp	 ebp, esp
  000a1	e8 00 00 00 00	 call	 __RTC_CheckEsp
  000a6	8b e5		 mov	 esp, ebp
  000a8	5d		 pop	 ebp
  000a9	c2 04 00	 ret	 4
?_Erase@?$_Tree@V?$_Tmap_traits@V?$basic_string@DU?$char_traits@D@std@@V?$allocator@D@2@@std@@P6APAXXZU?$less@V?$basic_string@DU?$char_traits@D@std@@V?$allocator@D@2@@std@@@2@V?$allocator@U?$pair@$$CBV?$basic_string@DU?$char_traits@D@std@@V?$allocator@D@2@@std@@P6APAXXZ@std@@@2@$0A@@std@@@std@@IAEXPAU?$_Tree_node@U?$pair@$$CBV?$basic_string@DU?$char_traits@D@std@@V?$allocator@D@2@@std@@P6APAXXZ@std@@PAX@2@@Z ENDP ; std::_Tree<std::_Tmap_traits<std::basic_string<char,std::char_traits<char>,std::allocator<char> >,void * (__cdecl*)(void),std::less<std::basic_string<char,std::char_traits<char>,std::allocator<char> > >,std::allocator<std::pair<std::basic_string<char,std::char_traits<char>,std::allocator<char> > const ,void * (__cdecl*)(void)> >,0> >::_Erase
_TEXT	ENDS
; Function compile flags: /Odtp /RTCsu
; File c:\program files (x86)\microsoft visual studio 14.0\vc\include\xtree
;	COMDAT ??E?$_Tree_unchecked_const_iterator@V?$_Tree_val@U?$_Tree_simple_types@U?$pair@$$CBV?$basic_string@DU?$char_traits@D@std@@V?$allocator@D@2@@std@@P6APAXXZ@std@@@std@@@std@@U_Iterator_base12@2@@std@@QAEAAV01@XZ
_TEXT	SEGMENT
__Pnode$1 = -8						; size = 4
_this$ = -4						; size = 4
??E?$_Tree_unchecked_const_iterator@V?$_Tree_val@U?$_Tree_simple_types@U?$pair@$$CBV?$basic_string@DU?$char_traits@D@std@@V?$allocator@D@2@@std@@P6APAXXZ@std@@@std@@@std@@U_Iterator_base12@2@@std@@QAEAAV01@XZ PROC ; std::_Tree_unchecked_const_iterator<std::_Tree_val<std::_Tree_simple_types<std::pair<std::basic_string<char,std::char_traits<char>,std::allocator<char> > const ,void * (__cdecl*)(void)> > >,std::_Iterator_base12>::operator++, COMDAT
; _this$ = ecx

; 59   : 		{	// preincrement

  00000	55		 push	 ebp
  00001	8b ec		 mov	 ebp, esp
  00003	83 ec 08	 sub	 esp, 8
  00006	c7 45 f8 cc cc
	cc cc		 mov	 DWORD PTR [ebp-8], -858993460 ; ccccccccH
  0000d	c7 45 fc cc cc
	cc cc		 mov	 DWORD PTR [ebp-4], -858993460 ; ccccccccH
  00014	89 4d fc	 mov	 DWORD PTR _this$[ebp], ecx

; 60   : 		if (_Mytree::_Isnil(_Ptr))

  00017	8b 45 fc	 mov	 eax, DWORD PTR _this$[ebp]
  0001a	8b 48 08	 mov	 ecx, DWORD PTR [eax+8]
  0001d	51		 push	 ecx
  0001e	e8 00 00 00 00	 call	 ?_Isnil@?$_Tree_val@U?$_Tree_simple_types@U?$pair@$$CBV?$basic_string@DU?$char_traits@D@std@@V?$allocator@D@2@@std@@P6APAXXZ@std@@@std@@@std@@SAAADPAU?$_Tree_node@U?$pair@$$CBV?$basic_string@DU?$char_traits@D@std@@V?$allocator@D@2@@std@@P6APAXXZ@std@@PAX@2@@Z ; std::_Tree_val<std::_Tree_simple_types<std::pair<std::basic_string<char,std::char_traits<char>,std::allocator<char> > const ,void * (__cdecl*)(void)> > >::_Isnil
  00023	83 c4 04	 add	 esp, 4
  00026	0f be 10	 movsx	 edx, BYTE PTR [eax]
  00029	85 d2		 test	 edx, edx
  0002b	74 05		 je	 SHORT $LN4@operator
  0002d	e9 94 00 00 00	 jmp	 $LN5@operator
$LN4@operator:

; 61   : 			;	// end() shouldn't be incremented, don't move
; 62   : 		else if (!_Mytree::_Isnil(_Mytree::_Right(_Ptr)))

  00032	8b 45 fc	 mov	 eax, DWORD PTR _this$[ebp]
  00035	8b 48 08	 mov	 ecx, DWORD PTR [eax+8]
  00038	51		 push	 ecx
  00039	e8 00 00 00 00	 call	 ?_Right@?$_Tree_val@U?$_Tree_simple_types@U?$pair@$$CBV?$basic_string@DU?$char_traits@D@std@@V?$allocator@D@2@@std@@P6APAXXZ@std@@@std@@@std@@SAAAPAU?$_Tree_node@U?$pair@$$CBV?$basic_string@DU?$char_traits@D@std@@V?$allocator@D@2@@std@@P6APAXXZ@std@@PAX@2@PAU32@@Z ; std::_Tree_val<std::_Tree_simple_types<std::pair<std::basic_string<char,std::char_traits<char>,std::allocator<char> > const ,void * (__cdecl*)(void)> > >::_Right
  0003e	83 c4 04	 add	 esp, 4
  00041	8b 10		 mov	 edx, DWORD PTR [eax]
  00043	52		 push	 edx
  00044	e8 00 00 00 00	 call	 ?_Isnil@?$_Tree_val@U?$_Tree_simple_types@U?$pair@$$CBV?$basic_string@DU?$char_traits@D@std@@V?$allocator@D@2@@std@@P6APAXXZ@std@@@std@@@std@@SAAADPAU?$_Tree_node@U?$pair@$$CBV?$basic_string@DU?$char_traits@D@std@@V?$allocator@D@2@@std@@P6APAXXZ@std@@PAX@2@@Z ; std::_Tree_val<std::_Tree_simple_types<std::pair<std::basic_string<char,std::char_traits<char>,std::allocator<char> > const ,void * (__cdecl*)(void)> > >::_Isnil
  00049	83 c4 04	 add	 esp, 4
  0004c	0f be 00	 movsx	 eax, BYTE PTR [eax]
  0004f	85 c0		 test	 eax, eax
  00051	75 22		 jne	 SHORT $LN2@operator

; 63   : 			_Ptr = _Mytree::_Min(

  00053	8b 4d fc	 mov	 ecx, DWORD PTR _this$[ebp]
  00056	8b 51 08	 mov	 edx, DWORD PTR [ecx+8]
  00059	52		 push	 edx
  0005a	e8 00 00 00 00	 call	 ?_Right@?$_Tree_val@U?$_Tree_simple_types@U?$pair@$$CBV?$basic_string@DU?$char_traits@D@std@@V?$allocator@D@2@@std@@P6APAXXZ@std@@@std@@@std@@SAAAPAU?$_Tree_node@U?$pair@$$CBV?$basic_string@DU?$char_traits@D@std@@V?$allocator@D@2@@std@@P6APAXXZ@std@@PAX@2@PAU32@@Z ; std::_Tree_val<std::_Tree_simple_types<std::pair<std::basic_string<char,std::char_traits<char>,std::allocator<char> > const ,void * (__cdecl*)(void)> > >::_Right
  0005f	83 c4 04	 add	 esp, 4
  00062	8b 00		 mov	 eax, DWORD PTR [eax]
  00064	50		 push	 eax
  00065	e8 00 00 00 00	 call	 ?_Min@?$_Tree_val@U?$_Tree_simple_types@U?$pair@$$CBV?$basic_string@DU?$char_traits@D@std@@V?$allocator@D@2@@std@@P6APAXXZ@std@@@std@@@std@@SAPAU?$_Tree_node@U?$pair@$$CBV?$basic_string@DU?$char_traits@D@std@@V?$allocator@D@2@@std@@P6APAXXZ@std@@PAX@2@PAU32@@Z ; std::_Tree_val<std::_Tree_simple_types<std::pair<std::basic_string<char,std::char_traits<char>,std::allocator<char> > const ,void * (__cdecl*)(void)> > >::_Min
  0006a	83 c4 04	 add	 esp, 4
  0006d	8b 4d fc	 mov	 ecx, DWORD PTR _this$[ebp]
  00070	89 41 08	 mov	 DWORD PTR [ecx+8], eax

; 64   : 				_Mytree::_Right(_Ptr));	// ==> smallest of right subtree
; 65   : 		else

  00073	eb 51		 jmp	 SHORT $LN5@operator
$LN2@operator:

; 66   : 			{	// climb looking for right subtree
; 67   : 			_Nodeptr _Pnode;
; 68   : 			while (!_Mytree::_Isnil(_Pnode = _Mytree::_Parent(_Ptr))
; 69   : 				&& _Ptr == _Mytree::_Right(_Pnode))

  00075	8b 55 fc	 mov	 edx, DWORD PTR _this$[ebp]
  00078	8b 42 08	 mov	 eax, DWORD PTR [edx+8]
  0007b	50		 push	 eax
  0007c	e8 00 00 00 00	 call	 ?_Parent@?$_Tree_val@U?$_Tree_simple_types@U?$pair@$$CBV?$basic_string@DU?$char_traits@D@std@@V?$allocator@D@2@@std@@P6APAXXZ@std@@@std@@@std@@SAAAPAU?$_Tree_node@U?$pair@$$CBV?$basic_string@DU?$char_traits@D@std@@V?$allocator@D@2@@std@@P6APAXXZ@std@@PAX@2@PAU32@@Z ; std::_Tree_val<std::_Tree_simple_types<std::pair<std::basic_string<char,std::char_traits<char>,std::allocator<char> > const ,void * (__cdecl*)(void)> > >::_Parent
  00081	83 c4 04	 add	 esp, 4
  00084	8b 08		 mov	 ecx, DWORD PTR [eax]
  00086	89 4d f8	 mov	 DWORD PTR __Pnode$1[ebp], ecx
  00089	8b 55 f8	 mov	 edx, DWORD PTR __Pnode$1[ebp]
  0008c	52		 push	 edx
  0008d	e8 00 00 00 00	 call	 ?_Isnil@?$_Tree_val@U?$_Tree_simple_types@U?$pair@$$CBV?$basic_string@DU?$char_traits@D@std@@V?$allocator@D@2@@std@@P6APAXXZ@std@@@std@@@std@@SAAADPAU?$_Tree_node@U?$pair@$$CBV?$basic_string@DU?$char_traits@D@std@@V?$allocator@D@2@@std@@P6APAXXZ@std@@PAX@2@@Z ; std::_Tree_val<std::_Tree_simple_types<std::pair<std::basic_string<char,std::char_traits<char>,std::allocator<char> > const ,void * (__cdecl*)(void)> > >::_Isnil
  00092	83 c4 04	 add	 esp, 4
  00095	0f be 00	 movsx	 eax, BYTE PTR [eax]
  00098	85 c0		 test	 eax, eax
  0009a	75 21		 jne	 SHORT $LN3@operator
  0009c	8b 4d f8	 mov	 ecx, DWORD PTR __Pnode$1[ebp]
  0009f	51		 push	 ecx
  000a0	e8 00 00 00 00	 call	 ?_Right@?$_Tree_val@U?$_Tree_simple_types@U?$pair@$$CBV?$basic_string@DU?$char_traits@D@std@@V?$allocator@D@2@@std@@P6APAXXZ@std@@@std@@@std@@SAAAPAU?$_Tree_node@U?$pair@$$CBV?$basic_string@DU?$char_traits@D@std@@V?$allocator@D@2@@std@@P6APAXXZ@std@@PAX@2@PAU32@@Z ; std::_Tree_val<std::_Tree_simple_types<std::pair<std::basic_string<char,std::char_traits<char>,std::allocator<char> > const ,void * (__cdecl*)(void)> > >::_Right
  000a5	83 c4 04	 add	 esp, 4
  000a8	8b 55 fc	 mov	 edx, DWORD PTR _this$[ebp]
  000ab	8b 4a 08	 mov	 ecx, DWORD PTR [edx+8]
  000ae	3b 08		 cmp	 ecx, DWORD PTR [eax]
  000b0	75 0b		 jne	 SHORT $LN3@operator

; 70   : 				_Ptr = _Pnode;	// ==> parent while right subtree

  000b2	8b 55 fc	 mov	 edx, DWORD PTR _this$[ebp]
  000b5	8b 45 f8	 mov	 eax, DWORD PTR __Pnode$1[ebp]
  000b8	89 42 08	 mov	 DWORD PTR [edx+8], eax
  000bb	eb b8		 jmp	 SHORT $LN2@operator
$LN3@operator:

; 71   : 			_Ptr = _Pnode;	// ==> parent (head if end())

  000bd	8b 4d fc	 mov	 ecx, DWORD PTR _this$[ebp]
  000c0	8b 55 f8	 mov	 edx, DWORD PTR __Pnode$1[ebp]
  000c3	89 51 08	 mov	 DWORD PTR [ecx+8], edx
$LN5@operator:

; 72   : 			}
; 73   : 		return (*this);

  000c6	8b 45 fc	 mov	 eax, DWORD PTR _this$[ebp]

; 74   : 		}

  000c9	83 c4 08	 add	 esp, 8
  000cc	3b ec		 cmp	 ebp, esp
  000ce	e8 00 00 00 00	 call	 __RTC_CheckEsp
  000d3	8b e5		 mov	 esp, ebp
  000d5	5d		 pop	 ebp
  000d6	c3		 ret	 0
??E?$_Tree_unchecked_const_iterator@V?$_Tree_val@U?$_Tree_simple_types@U?$pair@$$CBV?$basic_string@DU?$char_traits@D@std@@V?$allocator@D@2@@std@@P6APAXXZ@std@@@std@@@std@@U_Iterator_base12@2@@std@@QAEAAV01@XZ ENDP ; std::_Tree_unchecked_const_iterator<std::_Tree_val<std::_Tree_simple_types<std::pair<std::basic_string<char,std::char_traits<char>,std::allocator<char> > const ,void * (__cdecl*)(void)> > >,std::_Iterator_base12>::operator++
_TEXT	ENDS
; Function compile flags: /Odtp /RTCsu
; File c:\program files (x86)\microsoft visual studio 14.0\vc\include\xtree
;	COMDAT ?_Min@?$_Tree_val@U?$_Tree_simple_types@U?$pair@$$CBV?$basic_string@DU?$char_traits@D@std@@V?$allocator@D@2@@std@@P6APAXXZ@std@@@std@@@std@@SAPAU?$_Tree_node@U?$pair@$$CBV?$basic_string@DU?$char_traits@D@std@@V?$allocator@D@2@@std@@P6APAXXZ@std@@PAX@2@PAU32@@Z
_TEXT	SEGMENT
__Pnode$ = 8						; size = 4
?_Min@?$_Tree_val@U?$_Tree_simple_types@U?$pair@$$CBV?$basic_string@DU?$char_traits@D@std@@V?$allocator@D@2@@std@@P6APAXXZ@std@@@std@@@std@@SAPAU?$_Tree_node@U?$pair@$$CBV?$basic_string@DU?$char_traits@D@std@@V?$allocator@D@2@@std@@P6APAXXZ@std@@PAX@2@PAU32@@Z PROC ; std::_Tree_val<std::_Tree_simple_types<std::pair<std::basic_string<char,std::char_traits<char>,std::allocator<char> > const ,void * (__cdecl*)(void)> > >::_Min, COMDAT

; 613  : 		{	// return leftmost node in subtree at _Pnode

  00000	55		 push	 ebp
  00001	8b ec		 mov	 ebp, esp
$LN2@Min:

; 614  : 		while (!_Isnil(_Left(_Pnode)))

  00003	8b 45 08	 mov	 eax, DWORD PTR __Pnode$[ebp]
  00006	50		 push	 eax
  00007	e8 00 00 00 00	 call	 ?_Left@?$_Tree_val@U?$_Tree_simple_types@U?$pair@$$CBV?$basic_string@DU?$char_traits@D@std@@V?$allocator@D@2@@std@@P6APAXXZ@std@@@std@@@std@@SAAAPAU?$_Tree_node@U?$pair@$$CBV?$basic_string@DU?$char_traits@D@std@@V?$allocator@D@2@@std@@P6APAXXZ@std@@PAX@2@PAU32@@Z ; std::_Tree_val<std::_Tree_simple_types<std::pair<std::basic_string<char,std::char_traits<char>,std::allocator<char> > const ,void * (__cdecl*)(void)> > >::_Left
  0000c	83 c4 04	 add	 esp, 4
  0000f	8b 08		 mov	 ecx, DWORD PTR [eax]
  00011	51		 push	 ecx
  00012	e8 00 00 00 00	 call	 ?_Isnil@?$_Tree_val@U?$_Tree_simple_types@U?$pair@$$CBV?$basic_string@DU?$char_traits@D@std@@V?$allocator@D@2@@std@@P6APAXXZ@std@@@std@@@std@@SAAADPAU?$_Tree_node@U?$pair@$$CBV?$basic_string@DU?$char_traits@D@std@@V?$allocator@D@2@@std@@P6APAXXZ@std@@PAX@2@@Z ; std::_Tree_val<std::_Tree_simple_types<std::pair<std::basic_string<char,std::char_traits<char>,std::allocator<char> > const ,void * (__cdecl*)(void)> > >::_Isnil
  00017	83 c4 04	 add	 esp, 4
  0001a	0f be 10	 movsx	 edx, BYTE PTR [eax]
  0001d	85 d2		 test	 edx, edx
  0001f	75 13		 jne	 SHORT $LN3@Min

; 615  : 			_Pnode = _Left(_Pnode);

  00021	8b 45 08	 mov	 eax, DWORD PTR __Pnode$[ebp]
  00024	50		 push	 eax
  00025	e8 00 00 00 00	 call	 ?_Left@?$_Tree_val@U?$_Tree_simple_types@U?$pair@$$CBV?$basic_string@DU?$char_traits@D@std@@V?$allocator@D@2@@std@@P6APAXXZ@std@@@std@@@std@@SAAAPAU?$_Tree_node@U?$pair@$$CBV?$basic_string@DU?$char_traits@D@std@@V?$allocator@D@2@@std@@P6APAXXZ@std@@PAX@2@PAU32@@Z ; std::_Tree_val<std::_Tree_simple_types<std::pair<std::basic_string<char,std::char_traits<char>,std::allocator<char> > const ,void * (__cdecl*)(void)> > >::_Left
  0002a	83 c4 04	 add	 esp, 4
  0002d	8b 08		 mov	 ecx, DWORD PTR [eax]
  0002f	89 4d 08	 mov	 DWORD PTR __Pnode$[ebp], ecx
  00032	eb cf		 jmp	 SHORT $LN2@Min
$LN3@Min:

; 616  : 		return (_Pnode);

  00034	8b 45 08	 mov	 eax, DWORD PTR __Pnode$[ebp]

; 617  : 		}

  00037	3b ec		 cmp	 ebp, esp
  00039	e8 00 00 00 00	 call	 __RTC_CheckEsp
  0003e	5d		 pop	 ebp
  0003f	c3		 ret	 0
?_Min@?$_Tree_val@U?$_Tree_simple_types@U?$pair@$$CBV?$basic_string@DU?$char_traits@D@std@@V?$allocator@D@2@@std@@P6APAXXZ@std@@@std@@@std@@SAPAU?$_Tree_node@U?$pair@$$CBV?$basic_string@DU?$char_traits@D@std@@V?$allocator@D@2@@std@@P6APAXXZ@std@@PAX@2@PAU32@@Z ENDP ; std::_Tree_val<std::_Tree_simple_types<std::pair<std::basic_string<char,std::char_traits<char>,std::allocator<char> > const ,void * (__cdecl*)(void)> > >::_Min
_TEXT	ENDS
; Function compile flags: /Odtp /RTCsu
; File c:\program files (x86)\microsoft visual studio 14.0\vc\include\xtree
;	COMDAT ?_Getpfirst@?$_Tree_comp_alloc@V?$_Tmap_traits@V?$basic_string@DU?$char_traits@D@std@@V?$allocator@D@2@@std@@P6APAXXZU?$less@V?$basic_string@DU?$char_traits@D@std@@V?$allocator@D@2@@std@@@2@V?$allocator@U?$pair@$$CBV?$basic_string@DU?$char_traits@D@std@@V?$allocator@D@2@@std@@P6APAXXZ@std@@@2@$0A@@std@@@std@@QBEPAPAU_Iterator_base12@2@XZ
_TEXT	SEGMENT
_this$ = -4						; size = 4
?_Getpfirst@?$_Tree_comp_alloc@V?$_Tmap_traits@V?$basic_string@DU?$char_traits@D@std@@V?$allocator@D@2@@std@@P6APAXXZU?$less@V?$basic_string@DU?$char_traits@D@std@@V?$allocator@D@2@@std@@@2@V?$allocator@U?$pair@$$CBV?$basic_string@DU?$char_traits@D@std@@V?$allocator@D@2@@std@@P6APAXXZ@std@@@2@$0A@@std@@@std@@QBEPAPAU_Iterator_base12@2@XZ PROC ; std::_Tree_comp_alloc<std::_Tmap_traits<std::basic_string<char,std::char_traits<char>,std::allocator<char> >,void * (__cdecl*)(void),std::less<std::basic_string<char,std::char_traits<char>,std::allocator<char> > >,std::allocator<std::pair<std::basic_string<char,std::char_traits<char>,std::allocator<char> > const ,void * (__cdecl*)(void)> >,0> >::_Getpfirst, COMDAT
; _this$ = ecx

; 798  : 		{	// get address of iterator chain

  00000	55		 push	 ebp
  00001	8b ec		 mov	 ebp, esp
  00003	51		 push	 ecx
  00004	c7 45 fc cc cc
	cc cc		 mov	 DWORD PTR [ebp-4], -858993460 ; ccccccccH
  0000b	89 4d fc	 mov	 DWORD PTR _this$[ebp], ecx

; 799  : 		return (_Get_data()._Getpfirst());

  0000e	8b 4d fc	 mov	 ecx, DWORD PTR _this$[ebp]
  00011	e8 00 00 00 00	 call	 ?_Get_data@?$_Tree_comp_alloc@V?$_Tmap_traits@V?$basic_string@DU?$char_traits@D@std@@V?$allocator@D@2@@std@@P6APAXXZU?$less@V?$basic_string@DU?$char_traits@D@std@@V?$allocator@D@2@@std@@@2@V?$allocator@U?$pair@$$CBV?$basic_string@DU?$char_traits@D@std@@V?$allocator@D@2@@std@@P6APAXXZ@std@@@2@$0A@@std@@@std@@QBEABV?$_Tree_val@U?$_Tree_simple_types@U?$pair@$$CBV?$basic_string@DU?$char_traits@D@std@@V?$allocator@D@2@@std@@P6APAXXZ@std@@@std@@@2@XZ ; std::_Tree_comp_alloc<std::_Tmap_traits<std::basic_string<char,std::char_traits<char>,std::allocator<char> >,void * (__cdecl*)(void),std::less<std::basic_string<char,std::char_traits<char>,std::allocator<char> > >,std::allocator<std::pair<std::basic_string<char,std::char_traits<char>,std::allocator<char> > const ,void * (__cdecl*)(void)> >,0> >::_Get_data
  00016	8b c8		 mov	 ecx, eax
  00018	e8 00 00 00 00	 call	 ?_Getpfirst@_Container_base12@std@@QBEPAPAU_Iterator_base12@2@XZ ; std::_Container_base12::_Getpfirst

; 800  : 		}

  0001d	83 c4 04	 add	 esp, 4
  00020	3b ec		 cmp	 ebp, esp
  00022	e8 00 00 00 00	 call	 __RTC_CheckEsp
  00027	8b e5		 mov	 esp, ebp
  00029	5d		 pop	 ebp
  0002a	c3		 ret	 0
?_Getpfirst@?$_Tree_comp_alloc@V?$_Tmap_traits@V?$basic_string@DU?$char_traits@D@std@@V?$allocator@D@2@@std@@P6APAXXZU?$less@V?$basic_string@DU?$char_traits@D@std@@V?$allocator@D@2@@std@@@2@V?$allocator@U?$pair@$$CBV?$basic_string@DU?$char_traits@D@std@@V?$allocator@D@2@@std@@P6APAXXZ@std@@@2@$0A@@std@@@std@@QBEPAPAU_Iterator_base12@2@XZ ENDP ; std::_Tree_comp_alloc<std::_Tmap_traits<std::basic_string<char,std::char_traits<char>,std::allocator<char> >,void * (__cdecl*)(void),std::less<std::basic_string<char,std::char_traits<char>,std::allocator<char> > >,std::allocator<std::pair<std::basic_string<char,std::char_traits<char>,std::allocator<char> > const ,void * (__cdecl*)(void)> >,0> >::_Getpfirst
_TEXT	ENDS
; Function compile flags: /Odtp /RTCsu
; File c:\program files (x86)\microsoft visual studio 14.0\vc\include\xmemory0
;	COMDAT ??$?0U?$_Wrap_alloc@V?$allocator@U?$_Tree_node@U?$pair@$$CBV?$basic_string@DU?$char_traits@D@std@@V?$allocator@D@2@@std@@P6APAXXZ@std@@PAX@std@@@std@@@std@@@?$_Wrap_alloc@V?$allocator@U_Container_proxy@std@@@std@@@std@@QAE@AAU?$_Wrap_alloc@V?$allocator@U?$_Tree_node@U?$pair@$$CBV?$basic_string@DU?$char_traits@D@std@@V?$allocator@D@2@@std@@P6APAXXZ@std@@PAX@std@@@std@@@1@@Z
_TEXT	SEGMENT
_this$ = -4						; size = 4
__Right$ = 8						; size = 4
??$?0U?$_Wrap_alloc@V?$allocator@U?$_Tree_node@U?$pair@$$CBV?$basic_string@DU?$char_traits@D@std@@V?$allocator@D@2@@std@@P6APAXXZ@std@@PAX@std@@@std@@@std@@@?$_Wrap_alloc@V?$allocator@U_Container_proxy@std@@@std@@@std@@QAE@AAU?$_Wrap_alloc@V?$allocator@U?$_Tree_node@U?$pair@$$CBV?$basic_string@DU?$char_traits@D@std@@V?$allocator@D@2@@std@@P6APAXXZ@std@@PAX@std@@@std@@@1@@Z PROC ; std::_Wrap_alloc<std::allocator<std::_Container_proxy> >::_Wrap_alloc<std::allocator<std::_Container_proxy> ><std::_Wrap_alloc<std::allocator<std::_Tree_node<std::pair<std::basic_string<char,std::char_traits<char>,std::allocator<char> > const ,void * (__cdecl*)(void)>,void *> > > >, COMDAT
; _this$ = ecx

; 874  : 		{	// construct from a related allocator

  00000	55		 push	 ebp
  00001	8b ec		 mov	 ebp, esp
  00003	51		 push	 ecx
  00004	c7 45 fc cc cc
	cc cc		 mov	 DWORD PTR [ebp-4], -858993460 ; ccccccccH
  0000b	89 4d fc	 mov	 DWORD PTR _this$[ebp], ecx

; 873  : 		: _Mybase(_Right)

  0000e	8b 45 08	 mov	 eax, DWORD PTR __Right$[ebp]
  00011	50		 push	 eax
  00012	8b 4d fc	 mov	 ecx, DWORD PTR _this$[ebp]
  00015	e8 00 00 00 00	 call	 ??$?0U?$_Tree_node@U?$pair@$$CBV?$basic_string@DU?$char_traits@D@std@@V?$allocator@D@2@@std@@P6APAXXZ@std@@PAX@std@@@?$allocator@U_Container_proxy@std@@@std@@QAE@ABV?$allocator@U?$_Tree_node@U?$pair@$$CBV?$basic_string@DU?$char_traits@D@std@@V?$allocator@D@2@@std@@P6APAXXZ@std@@PAX@std@@@1@@Z ; std::allocator<std::_Container_proxy>::allocator<std::_Container_proxy><std::_Tree_node<std::pair<std::basic_string<char,std::char_traits<char>,std::allocator<char> > const ,void * (__cdecl*)(void)>,void *> >

; 875  : 		}

  0001a	8b 45 fc	 mov	 eax, DWORD PTR _this$[ebp]
  0001d	83 c4 04	 add	 esp, 4
  00020	3b ec		 cmp	 ebp, esp
  00022	e8 00 00 00 00	 call	 __RTC_CheckEsp
  00027	8b e5		 mov	 esp, ebp
  00029	5d		 pop	 ebp
  0002a	c2 04 00	 ret	 4
??$?0U?$_Wrap_alloc@V?$allocator@U?$_Tree_node@U?$pair@$$CBV?$basic_string@DU?$char_traits@D@std@@V?$allocator@D@2@@std@@P6APAXXZ@std@@PAX@std@@@std@@@std@@@?$_Wrap_alloc@V?$allocator@U_Container_proxy@std@@@std@@@std@@QAE@AAU?$_Wrap_alloc@V?$allocator@U?$_Tree_node@U?$pair@$$CBV?$basic_string@DU?$char_traits@D@std@@V?$allocator@D@2@@std@@P6APAXXZ@std@@PAX@std@@@std@@@1@@Z ENDP ; std::_Wrap_alloc<std::allocator<std::_Container_proxy> >::_Wrap_alloc<std::allocator<std::_Container_proxy> ><std::_Wrap_alloc<std::allocator<std::_Tree_node<std::pair<std::basic_string<char,std::char_traits<char>,std::allocator<char> > const ,void * (__cdecl*)(void)>,void *> > > >
_TEXT	ENDS
; Function compile flags: /Odtp /RTCsu
; File c:\program files (x86)\microsoft visual studio 14.0\vc\include\xutility
;	COMDAT ??$?0ABU?$less@V?$basic_string@DU?$char_traits@D@std@@V?$allocator@D@2@@std@@@std@@U_One_then_variadic_args_t@1@ABV?$allocator@U?$pair@$$CBV?$basic_string@DU?$char_traits@D@std@@V?$allocator@D@2@@std@@P6APAXXZ@std@@@1@@?$_Compressed_pair@U?$less@V?$basic_string@DU?$char_traits@D@std@@V?$allocator@D@2@@std@@@std@@V?$_Compressed_pair@U?$_Wrap_alloc@V?$allocator@U?$_Tree_node@U?$pair@$$CBV?$basic_string@DU?$char_traits@D@std@@V?$allocator@D@2@@std@@P6APAXXZ@std@@PAX@std@@@std@@@std@@V?$_Tree_val@U?$_Tree_simple_types@U?$pair@$$CBV?$basic_string@DU?$char_traits@D@std@@V?$allocator@D@2@@std@@P6APAXXZ@std@@@std@@@2@$00@2@$00@std@@QAE@U_One_then_variadic_args_t@1@ABU?$less@V?$basic_string@DU?$char_traits@D@std@@V?$allocator@D@2@@std@@@1@$$QAU21@ABV?$allocator@U?$pair@$$CBV?$basic_string@DU?$char_traits@D@std@@V?$allocator@D@2@@std@@P6APAXXZ@std@@@1@@Z
_TEXT	SEGMENT
_this$ = -4						; size = 4
___formal$ = 8						; size = 1
__Val1$ = 12						; size = 4
_<_Val2_0>$ = 16					; size = 4
_<_Val2_1>$ = 20					; size = 4
??$?0ABU?$less@V?$basic_string@DU?$char_traits@D@std@@V?$allocator@D@2@@std@@@std@@U_One_then_variadic_args_t@1@ABV?$allocator@U?$pair@$$CBV?$basic_string@DU?$char_traits@D@std@@V?$allocator@D@2@@std@@P6APAXXZ@std@@@1@@?$_Compressed_pair@U?$less@V?$basic_string@DU?$char_traits@D@std@@V?$allocator@D@2@@std@@@std@@V?$_Compressed_pair@U?$_Wrap_alloc@V?$allocator@U?$_Tree_node@U?$pair@$$CBV?$basic_string@DU?$char_traits@D@std@@V?$allocator@D@2@@std@@P6APAXXZ@std@@PAX@std@@@std@@@std@@V?$_Tree_val@U?$_Tree_simple_types@U?$pair@$$CBV?$basic_string@DU?$char_traits@D@std@@V?$allocator@D@2@@std@@P6APAXXZ@std@@@std@@@2@$00@2@$00@std@@QAE@U_One_then_variadic_args_t@1@ABU?$less@V?$basic_string@DU?$char_traits@D@std@@V?$allocator@D@2@@std@@@1@$$QAU21@ABV?$allocator@U?$pair@$$CBV?$basic_string@DU?$char_traits@D@std@@V?$allocator@D@2@@std@@P6APAXXZ@std@@@1@@Z PROC ; std::_Compressed_pair<std::less<std::basic_string<char,std::char_traits<char>,std::allocator<char> > >,std::_Compressed_pair<std::_Wrap_alloc<std::allocator<std::_Tree_node<std::pair<std::basic_string<char,std::char_traits<char>,std::allocator<char> > const ,void * (__cdecl*)(void)>,void *> > >,std::_Tree_val<std::_Tree_simple_types<std::pair<std::basic_string<char,std::char_traits<char>,std::allocator<char> > const ,void * (__cdecl*)(void)> > >,1>,1>::_Compressed_pair<std::less<std::basic_string<char,std::char_traits<char>,std::allocator<char> > >,std::_Compressed_pair<std::_Wrap_alloc<std::allocator<std::_Tree_node<std::pair<std::basic_string<char,std::char_traits<char>,std::allocator<char> > const ,void * (__cdecl*)(void)>,void *> > >,std::_Tree_val<std::_Tree_simple_types<std::pair<std::basic_string<char,std::char_traits<char>,std::allocator<char> > const ,void * (__cdecl*)(void)> > >,1>,1><std::less<std::basic_string<char,std::char_traits<char>,std::allocator<char> > > const &,std::_One_then_variadic_args_t,std::allocator<std::pair<std::basic_string<char,std::char_traits<char>,std::allocator<char> > const ,void * (__cdecl*)(void)> > const &>, COMDAT
; _this$ = ecx

; 288  : 		{	// construct from forwarded values

  00000	55		 push	 ebp
  00001	8b ec		 mov	 ebp, esp
  00003	51		 push	 ecx
  00004	c7 45 fc cc cc
	cc cc		 mov	 DWORD PTR [ebp-4], -858993460 ; ccccccccH
  0000b	89 4d fc	 mov	 DWORD PTR _this$[ebp], ecx

; 286  : 		: _Ty1(_STD forward<_Other1>(_Val1)),

  0000e	8b 45 0c	 mov	 eax, DWORD PTR __Val1$[ebp]
  00011	50		 push	 eax
  00012	e8 00 00 00 00	 call	 ??$forward@ABU?$less@V?$basic_string@DU?$char_traits@D@std@@V?$allocator@D@2@@std@@@std@@@std@@YAABU?$less@V?$basic_string@DU?$char_traits@D@std@@V?$allocator@D@2@@std@@@0@ABU10@@Z ; std::forward<std::less<std::basic_string<char,std::char_traits<char>,std::allocator<char> > > const &>
  00017	83 c4 04	 add	 esp, 4

; 287  : 			_Myval2(_STD forward<_Other2>(_Val2)...)

  0001a	8b 4d 14	 mov	 ecx, DWORD PTR _<_Val2_1>$[ebp]
  0001d	51		 push	 ecx
  0001e	e8 00 00 00 00	 call	 ??$forward@ABV?$allocator@U?$pair@$$CBV?$basic_string@DU?$char_traits@D@std@@V?$allocator@D@2@@std@@P6APAXXZ@std@@@std@@@std@@YAABV?$allocator@U?$pair@$$CBV?$basic_string@DU?$char_traits@D@std@@V?$allocator@D@2@@std@@P6APAXXZ@std@@@0@ABV10@@Z ; std::forward<std::allocator<std::pair<std::basic_string<char,std::char_traits<char>,std::allocator<char> > const ,void * (__cdecl*)(void)> > const &>
  00023	83 c4 04	 add	 esp, 4
  00026	50		 push	 eax
  00027	8b 55 10	 mov	 edx, DWORD PTR _<_Val2_0>$[ebp]
  0002a	52		 push	 edx
  0002b	e8 00 00 00 00	 call	 ??$forward@U_One_then_variadic_args_t@std@@@std@@YA$$QAU_One_then_variadic_args_t@0@AAU10@@Z ; std::forward<std::_One_then_variadic_args_t>
  00030	83 c4 04	 add	 esp, 4
  00033	8a 00		 mov	 al, BYTE PTR [eax]
  00035	0f b6 c8	 movzx	 ecx, al
  00038	51		 push	 ecx
  00039	8b 4d fc	 mov	 ecx, DWORD PTR _this$[ebp]
  0003c	e8 00 00 00 00	 call	 ??$?0ABV?$allocator@U?$pair@$$CBV?$basic_string@DU?$char_traits@D@std@@V?$allocator@D@2@@std@@P6APAXXZ@std@@@std@@$$V@?$_Compressed_pair@U?$_Wrap_alloc@V?$allocator@U?$_Tree_node@U?$pair@$$CBV?$basic_string@DU?$char_traits@D@std@@V?$allocator@D@2@@std@@P6APAXXZ@std@@PAX@std@@@std@@@std@@V?$_Tree_val@U?$_Tree_simple_types@U?$pair@$$CBV?$basic_string@DU?$char_traits@D@std@@V?$allocator@D@2@@std@@P6APAXXZ@std@@@std@@@2@$00@std@@QAE@U_One_then_variadic_args_t@1@ABV?$allocator@U?$pair@$$CBV?$basic_string@DU?$char_traits@D@std@@V?$allocator@D@2@@std@@P6APAXXZ@std@@@1@@Z ; std::_Compressed_pair<std::_Wrap_alloc<std::allocator<std::_Tree_node<std::pair<std::basic_string<char,std::char_traits<char>,std::allocator<char> > const ,void * (__cdecl*)(void)>,void *> > >,std::_Tree_val<std::_Tree_simple_types<std::pair<std::basic_string<char,std::char_traits<char>,std::allocator<char> > const ,void * (__cdecl*)(void)> > >,1>::_Compressed_pair<std::_Wrap_alloc<std::allocator<std::_Tree_node<std::pair<std::basic_string<char,std::char_traits<char>,std::allocator<char> > const ,void * (__cdecl*)(void)>,void *> > >,std::_Tree_val<std::_Tree_simple_types<std::pair<std::basic_string<char,std::char_traits<char>,std::allocator<char> > const ,void * (__cdecl*)(void)> > >,1><std::allocator<std::pair<std::basic_string<char,std::char_traits<char>,std::allocator<char> > const ,void * (__cdecl*)(void)> > const &>

; 289  : 		}

  00041	8b 45 fc	 mov	 eax, DWORD PTR _this$[ebp]
  00044	83 c4 04	 add	 esp, 4
  00047	3b ec		 cmp	 ebp, esp
  00049	e8 00 00 00 00	 call	 __RTC_CheckEsp
  0004e	8b e5		 mov	 esp, ebp
  00050	5d		 pop	 ebp
  00051	c2 10 00	 ret	 16			; 00000010H
??$?0ABU?$less@V?$basic_string@DU?$char_traits@D@std@@V?$allocator@D@2@@std@@@std@@U_One_then_variadic_args_t@1@ABV?$allocator@U?$pair@$$CBV?$basic_string@DU?$char_traits@D@std@@V?$allocator@D@2@@std@@P6APAXXZ@std@@@1@@?$_Compressed_pair@U?$less@V?$basic_string@DU?$char_traits@D@std@@V?$allocator@D@2@@std@@@std@@V?$_Compressed_pair@U?$_Wrap_alloc@V?$allocator@U?$_Tree_node@U?$pair@$$CBV?$basic_string@DU?$char_traits@D@std@@V?$allocator@D@2@@std@@P6APAXXZ@std@@PAX@std@@@std@@@std@@V?$_Tree_val@U?$_Tree_simple_types@U?$pair@$$CBV?$basic_string@DU?$char_traits@D@std@@V?$allocator@D@2@@std@@P6APAXXZ@std@@@std@@@2@$00@2@$00@std@@QAE@U_One_then_variadic_args_t@1@ABU?$less@V?$basic_string@DU?$char_traits@D@std@@V?$allocator@D@2@@std@@@1@$$QAU21@ABV?$allocator@U?$pair@$$CBV?$basic_string@DU?$char_traits@D@std@@V?$allocator@D@2@@std@@P6APAXXZ@std@@@1@@Z ENDP ; std::_Compressed_pair<std::less<std::basic_string<char,std::char_traits<char>,std::allocator<char> > >,std::_Compressed_pair<std::_Wrap_alloc<std::allocator<std::_Tree_node<std::pair<std::basic_string<char,std::char_traits<char>,std::allocator<char> > const ,void * (__cdecl*)(void)>,void *> > >,std::_Tree_val<std::_Tree_simple_types<std::pair<std::basic_string<char,std::char_traits<char>,std::allocator<char> > const ,void * (__cdecl*)(void)> > >,1>,1>::_Compressed_pair<std::less<std::basic_string<char,std::char_traits<char>,std::allocator<char> > >,std::_Compressed_pair<std::_Wrap_alloc<std::allocator<std::_Tree_node<std::pair<std::basic_string<char,std::char_traits<char>,std::allocator<char> > const ,void * (__cdecl*)(void)>,void *> > >,std::_Tree_val<std::_Tree_simple_types<std::pair<std::basic_string<char,std::char_traits<char>,std::allocator<char> > const ,void * (__cdecl*)(void)> > >,1>,1><std::less<std::basic_string<char,std::char_traits<char>,std::allocator<char> > > const &,std::_One_then_variadic_args_t,std::allocator<std::pair<std::basic_string<char,std::char_traits<char>,std::allocator<char> > const ,void * (__cdecl*)(void)> > const &>
_TEXT	ENDS
; Function compile flags: /Odtp /RTCsu
; File c:\program files (x86)\microsoft visual studio 14.0\vc\include\xmemory0
;	COMDAT ??$?0U?$_Tree_node@U?$pair@$$CBV?$basic_string@DU?$char_traits@D@std@@V?$allocator@D@2@@std@@P6APAXXZ@std@@PAX@std@@@?$allocator@U_Container_proxy@std@@@std@@QAE@ABV?$allocator@U?$_Tree_node@U?$pair@$$CBV?$basic_string@DU?$char_traits@D@std@@V?$allocator@D@2@@std@@P6APAXXZ@std@@PAX@std@@@1@@Z
_TEXT	SEGMENT
_this$ = -4						; size = 4
___formal$ = 8						; size = 4
??$?0U?$_Tree_node@U?$pair@$$CBV?$basic_string@DU?$char_traits@D@std@@V?$allocator@D@2@@std@@P6APAXXZ@std@@PAX@std@@@?$allocator@U_Container_proxy@std@@@std@@QAE@ABV?$allocator@U?$_Tree_node@U?$pair@$$CBV?$basic_string@DU?$char_traits@D@std@@V?$allocator@D@2@@std@@P6APAXXZ@std@@PAX@std@@@1@@Z PROC ; std::allocator<std::_Container_proxy>::allocator<std::_Container_proxy><std::_Tree_node<std::pair<std::basic_string<char,std::char_traits<char>,std::allocator<char> > const ,void * (__cdecl*)(void)>,void *> >, COMDAT
; _this$ = ecx

; 627  : 		{	// construct from a related allocator (do nothing)

  00000	55		 push	 ebp
  00001	8b ec		 mov	 ebp, esp
  00003	51		 push	 ecx
  00004	c7 45 fc cc cc
	cc cc		 mov	 DWORD PTR [ebp-4], -858993460 ; ccccccccH
  0000b	89 4d fc	 mov	 DWORD PTR _this$[ebp], ecx

; 628  : 		}

  0000e	8b 45 fc	 mov	 eax, DWORD PTR _this$[ebp]
  00011	8b e5		 mov	 esp, ebp
  00013	5d		 pop	 ebp
  00014	c2 04 00	 ret	 4
??$?0U?$_Tree_node@U?$pair@$$CBV?$basic_string@DU?$char_traits@D@std@@V?$allocator@D@2@@std@@P6APAXXZ@std@@PAX@std@@@?$allocator@U_Container_proxy@std@@@std@@QAE@ABV?$allocator@U?$_Tree_node@U?$pair@$$CBV?$basic_string@DU?$char_traits@D@std@@V?$allocator@D@2@@std@@P6APAXXZ@std@@PAX@std@@@1@@Z ENDP ; std::allocator<std::_Container_proxy>::allocator<std::_Container_proxy><std::_Tree_node<std::pair<std::basic_string<char,std::char_traits<char>,std::allocator<char> > const ,void * (__cdecl*)(void)>,void *> >
_TEXT	ENDS
; Function compile flags: /Odtp /RTCsu
; File c:\program files (x86)\microsoft visual studio 14.0\vc\include\type_traits
;	COMDAT ??$forward@ABV?$allocator@U?$pair@$$CBV?$basic_string@DU?$char_traits@D@std@@V?$allocator@D@2@@std@@P6APAXXZ@std@@@std@@@std@@YAABV?$allocator@U?$pair@$$CBV?$basic_string@DU?$char_traits@D@std@@V?$allocator@D@2@@std@@P6APAXXZ@std@@@0@ABV10@@Z
_TEXT	SEGMENT
__Arg$ = 8						; size = 4
??$forward@ABV?$allocator@U?$pair@$$CBV?$basic_string@DU?$char_traits@D@std@@V?$allocator@D@2@@std@@P6APAXXZ@std@@@std@@@std@@YAABV?$allocator@U?$pair@$$CBV?$basic_string@DU?$char_traits@D@std@@V?$allocator@D@2@@std@@P6APAXXZ@std@@@0@ABV10@@Z PROC ; std::forward<std::allocator<std::pair<std::basic_string<char,std::char_traits<char>,std::allocator<char> > const ,void * (__cdecl*)(void)> > const &>, COMDAT

; 1233 : 	{	// forward an lvalue as either an lvalue or an rvalue

  00000	55		 push	 ebp
  00001	8b ec		 mov	 ebp, esp

; 1234 : 	return (static_cast<_Ty&&>(_Arg));

  00003	8b 45 08	 mov	 eax, DWORD PTR __Arg$[ebp]

; 1235 : 	}

  00006	5d		 pop	 ebp
  00007	c3		 ret	 0
??$forward@ABV?$allocator@U?$pair@$$CBV?$basic_string@DU?$char_traits@D@std@@V?$allocator@D@2@@std@@P6APAXXZ@std@@@std@@@std@@YAABV?$allocator@U?$pair@$$CBV?$basic_string@DU?$char_traits@D@std@@V?$allocator@D@2@@std@@P6APAXXZ@std@@@0@ABV10@@Z ENDP ; std::forward<std::allocator<std::pair<std::basic_string<char,std::char_traits<char>,std::allocator<char> > const ,void * (__cdecl*)(void)> > const &>
_TEXT	ENDS
; Function compile flags: /Odtp /RTCsu
; File c:\program files (x86)\microsoft visual studio 14.0\vc\include\xutility
;	COMDAT ??$?0ABV?$allocator@U?$pair@$$CBV?$basic_string@DU?$char_traits@D@std@@V?$allocator@D@2@@std@@P6APAXXZ@std@@@std@@$$V@?$_Compressed_pair@U?$_Wrap_alloc@V?$allocator@U?$_Tree_node@U?$pair@$$CBV?$basic_string@DU?$char_traits@D@std@@V?$allocator@D@2@@std@@P6APAXXZ@std@@PAX@std@@@std@@@std@@V?$_Tree_val@U?$_Tree_simple_types@U?$pair@$$CBV?$basic_string@DU?$char_traits@D@std@@V?$allocator@D@2@@std@@P6APAXXZ@std@@@std@@@2@$00@std@@QAE@U_One_then_variadic_args_t@1@ABV?$allocator@U?$pair@$$CBV?$basic_string@DU?$char_traits@D@std@@V?$allocator@D@2@@std@@P6APAXXZ@std@@@1@@Z
_TEXT	SEGMENT
_this$ = -4						; size = 4
___formal$ = 8						; size = 1
__Val1$ = 12						; size = 4
??$?0ABV?$allocator@U?$pair@$$CBV?$basic_string@DU?$char_traits@D@std@@V?$allocator@D@2@@std@@P6APAXXZ@std@@@std@@$$V@?$_Compressed_pair@U?$_Wrap_alloc@V?$allocator@U?$_Tree_node@U?$pair@$$CBV?$basic_string@DU?$char_traits@D@std@@V?$allocator@D@2@@std@@P6APAXXZ@std@@PAX@std@@@std@@@std@@V?$_Tree_val@U?$_Tree_simple_types@U?$pair@$$CBV?$basic_string@DU?$char_traits@D@std@@V?$allocator@D@2@@std@@P6APAXXZ@std@@@std@@@2@$00@std@@QAE@U_One_then_variadic_args_t@1@ABV?$allocator@U?$pair@$$CBV?$basic_string@DU?$char_traits@D@std@@V?$allocator@D@2@@std@@P6APAXXZ@std@@@1@@Z PROC ; std::_Compressed_pair<std::_Wrap_alloc<std::allocator<std::_Tree_node<std::pair<std::basic_string<char,std::char_traits<char>,std::allocator<char> > const ,void * (__cdecl*)(void)>,void *> > >,std::_Tree_val<std::_Tree_simple_types<std::pair<std::basic_string<char,std::char_traits<char>,std::allocator<char> > const ,void * (__cdecl*)(void)> > >,1>::_Compressed_pair<std::_Wrap_alloc<std::allocator<std::_Tree_node<std::pair<std::basic_string<char,std::char_traits<char>,std::allocator<char> > const ,void * (__cdecl*)(void)>,void *> > >,std::_Tree_val<std::_Tree_simple_types<std::pair<std::basic_string<char,std::char_traits<char>,std::allocator<char> > const ,void * (__cdecl*)(void)> > >,1><std::allocator<std::pair<std::basic_string<char,std::char_traits<char>,std::allocator<char> > const ,void * (__cdecl*)(void)> > const &>, COMDAT
; _this$ = ecx

; 288  : 		{	// construct from forwarded values

  00000	55		 push	 ebp
  00001	8b ec		 mov	 ebp, esp
  00003	51		 push	 ecx
  00004	c7 45 fc cc cc
	cc cc		 mov	 DWORD PTR [ebp-4], -858993460 ; ccccccccH
  0000b	89 4d fc	 mov	 DWORD PTR _this$[ebp], ecx

; 286  : 		: _Ty1(_STD forward<_Other1>(_Val1)),

  0000e	8b 45 0c	 mov	 eax, DWORD PTR __Val1$[ebp]
  00011	50		 push	 eax
  00012	e8 00 00 00 00	 call	 ??$forward@ABV?$allocator@U?$pair@$$CBV?$basic_string@DU?$char_traits@D@std@@V?$allocator@D@2@@std@@P6APAXXZ@std@@@std@@@std@@YAABV?$allocator@U?$pair@$$CBV?$basic_string@DU?$char_traits@D@std@@V?$allocator@D@2@@std@@P6APAXXZ@std@@@0@ABV10@@Z ; std::forward<std::allocator<std::pair<std::basic_string<char,std::char_traits<char>,std::allocator<char> > const ,void * (__cdecl*)(void)> > const &>
  00017	83 c4 04	 add	 esp, 4
  0001a	50		 push	 eax
  0001b	8b 4d fc	 mov	 ecx, DWORD PTR _this$[ebp]
  0001e	e8 00 00 00 00	 call	 ??$?0V?$allocator@U?$pair@$$CBV?$basic_string@DU?$char_traits@D@std@@V?$allocator@D@2@@std@@P6APAXXZ@std@@@std@@@?$_Wrap_alloc@V?$allocator@U?$_Tree_node@U?$pair@$$CBV?$basic_string@DU?$char_traits@D@std@@V?$allocator@D@2@@std@@P6APAXXZ@std@@PAX@std@@@std@@@std@@QAE@ABV?$allocator@U?$pair@$$CBV?$basic_string@DU?$char_traits@D@std@@V?$allocator@D@2@@std@@P6APAXXZ@std@@@1@@Z ; std::_Wrap_alloc<std::allocator<std::_Tree_node<std::pair<std::basic_string<char,std::char_traits<char>,std::allocator<char> > const ,void * (__cdecl*)(void)>,void *> > >::_Wrap_alloc<std::allocator<std::_Tree_node<std::pair<std::basic_string<char,std::char_traits<char>,std::allocator<char> > const ,void * (__cdecl*)(void)>,void *> > ><std::allocator<std::pair<std::basic_string<char,std::char_traits<char>,std::allocator<char> > const ,void * (__cdecl*)(void)> > >

; 287  : 			_Myval2(_STD forward<_Other2>(_Val2)...)

  00023	8b 4d fc	 mov	 ecx, DWORD PTR _this$[ebp]
  00026	e8 00 00 00 00	 call	 ??0?$_Tree_val@U?$_Tree_simple_types@U?$pair@$$CBV?$basic_string@DU?$char_traits@D@std@@V?$allocator@D@2@@std@@P6APAXXZ@std@@@std@@@std@@QAE@XZ ; std::_Tree_val<std::_Tree_simple_types<std::pair<std::basic_string<char,std::char_traits<char>,std::allocator<char> > const ,void * (__cdecl*)(void)> > >::_Tree_val<std::_Tree_simple_types<std::pair<std::basic_string<char,std::char_traits<char>,std::allocator<char> > const ,void * (__cdecl*)(void)> > >

; 289  : 		}

  0002b	8b 45 fc	 mov	 eax, DWORD PTR _this$[ebp]
  0002e	83 c4 04	 add	 esp, 4
  00031	3b ec		 cmp	 ebp, esp
  00033	e8 00 00 00 00	 call	 __RTC_CheckEsp
  00038	8b e5		 mov	 esp, ebp
  0003a	5d		 pop	 ebp
  0003b	c2 08 00	 ret	 8
??$?0ABV?$allocator@U?$pair@$$CBV?$basic_string@DU?$char_traits@D@std@@V?$allocator@D@2@@std@@P6APAXXZ@std@@@std@@$$V@?$_Compressed_pair@U?$_Wrap_alloc@V?$allocator@U?$_Tree_node@U?$pair@$$CBV?$basic_string@DU?$char_traits@D@std@@V?$allocator@D@2@@std@@P6APAXXZ@std@@PAX@std@@@std@@@std@@V?$_Tree_val@U?$_Tree_simple_types@U?$pair@$$CBV?$basic_string@DU?$char_traits@D@std@@V?$allocator@D@2@@std@@P6APAXXZ@std@@@std@@@2@$00@std@@QAE@U_One_then_variadic_args_t@1@ABV?$allocator@U?$pair@$$CBV?$basic_string@DU?$char_traits@D@std@@V?$allocator@D@2@@std@@P6APAXXZ@std@@@1@@Z ENDP ; std::_Compressed_pair<std::_Wrap_alloc<std::allocator<std::_Tree_node<std::pair<std::basic_string<char,std::char_traits<char>,std::allocator<char> > const ,void * (__cdecl*)(void)>,void *> > >,std::_Tree_val<std::_Tree_simple_types<std::pair<std::basic_string<char,std::char_traits<char>,std::allocator<char> > const ,void * (__cdecl*)(void)> > >,1>::_Compressed_pair<std::_Wrap_alloc<std::allocator<std::_Tree_node<std::pair<std::basic_string<char,std::char_traits<char>,std::allocator<char> > const ,void * (__cdecl*)(void)>,void *> > >,std::_Tree_val<std::_Tree_simple_types<std::pair<std::basic_string<char,std::char_traits<char>,std::allocator<char> > const ,void * (__cdecl*)(void)> > >,1><std::allocator<std::pair<std::basic_string<char,std::char_traits<char>,std::allocator<char> > const ,void * (__cdecl*)(void)> > const &>
_TEXT	ENDS
; Function compile flags: /Odtp /RTCsu
; File c:\program files (x86)\microsoft visual studio 14.0\vc\include\xtree
;	COMDAT ??0?$_Tree_val@U?$_Tree_simple_types@U?$pair@$$CBV?$basic_string@DU?$char_traits@D@std@@V?$allocator@D@2@@std@@P6APAXXZ@std@@@std@@@std@@QAE@XZ
_TEXT	SEGMENT
_this$ = -4						; size = 4
??0?$_Tree_val@U?$_Tree_simple_types@U?$pair@$$CBV?$basic_string@DU?$char_traits@D@std@@V?$allocator@D@2@@std@@P6APAXXZ@std@@@std@@@std@@QAE@XZ PROC ; std::_Tree_val<std::_Tree_simple_types<std::pair<std::basic_string<char,std::char_traits<char>,std::allocator<char> > const ,void * (__cdecl*)(void)> > >::_Tree_val<std::_Tree_simple_types<std::pair<std::basic_string<char,std::char_traits<char>,std::allocator<char> > const ,void * (__cdecl*)(void)> > >, COMDAT
; _this$ = ecx

; 565  : 	_Tree_val()

  00000	55		 push	 ebp
  00001	8b ec		 mov	 ebp, esp
  00003	51		 push	 ecx
  00004	c7 45 fc cc cc
	cc cc		 mov	 DWORD PTR [ebp-4], -858993460 ; ccccccccH
  0000b	89 4d fc	 mov	 DWORD PTR _this$[ebp], ecx

; 566  : 		{	// initialize data

  0000e	8b 4d fc	 mov	 ecx, DWORD PTR _this$[ebp]
  00011	e8 00 00 00 00	 call	 ??0_Container_base12@std@@QAE@XZ ; std::_Container_base12::_Container_base12

; 567  : 		this->_Myhead = 0;

  00016	8b 45 fc	 mov	 eax, DWORD PTR _this$[ebp]
  00019	c7 40 04 00 00
	00 00		 mov	 DWORD PTR [eax+4], 0

; 568  : 		this->_Mysize = 0;

  00020	8b 4d fc	 mov	 ecx, DWORD PTR _this$[ebp]
  00023	c7 41 08 00 00
	00 00		 mov	 DWORD PTR [ecx+8], 0

; 569  : 		}

  0002a	8b 45 fc	 mov	 eax, DWORD PTR _this$[ebp]
  0002d	83 c4 04	 add	 esp, 4
  00030	3b ec		 cmp	 ebp, esp
  00032	e8 00 00 00 00	 call	 __RTC_CheckEsp
  00037	8b e5		 mov	 esp, ebp
  00039	5d		 pop	 ebp
  0003a	c3		 ret	 0
??0?$_Tree_val@U?$_Tree_simple_types@U?$pair@$$CBV?$basic_string@DU?$char_traits@D@std@@V?$allocator@D@2@@std@@P6APAXXZ@std@@@std@@@std@@QAE@XZ ENDP ; std::_Tree_val<std::_Tree_simple_types<std::pair<std::basic_string<char,std::char_traits<char>,std::allocator<char> > const ,void * (__cdecl*)(void)> > >::_Tree_val<std::_Tree_simple_types<std::pair<std::basic_string<char,std::char_traits<char>,std::allocator<char> > const ,void * (__cdecl*)(void)> > >
_TEXT	ENDS
; Function compile flags: /Odtp /RTCsu
; File c:\program files (x86)\microsoft visual studio 14.0\vc\include\xmemory0
;	COMDAT ??$?0V?$allocator@U?$pair@$$CBV?$basic_string@DU?$char_traits@D@std@@V?$allocator@D@2@@std@@P6APAXXZ@std@@@std@@@?$_Wrap_alloc@V?$allocator@U?$_Tree_node@U?$pair@$$CBV?$basic_string@DU?$char_traits@D@std@@V?$allocator@D@2@@std@@P6APAXXZ@std@@PAX@std@@@std@@@std@@QAE@ABV?$allocator@U?$pair@$$CBV?$basic_string@DU?$char_traits@D@std@@V?$allocator@D@2@@std@@P6APAXXZ@std@@@1@@Z
_TEXT	SEGMENT
_this$ = -4						; size = 4
__Right$ = 8						; size = 4
??$?0V?$allocator@U?$pair@$$CBV?$basic_string@DU?$char_traits@D@std@@V?$allocator@D@2@@std@@P6APAXXZ@std@@@std@@@?$_Wrap_alloc@V?$allocator@U?$_Tree_node@U?$pair@$$CBV?$basic_string@DU?$char_traits@D@std@@V?$allocator@D@2@@std@@P6APAXXZ@std@@PAX@std@@@std@@@std@@QAE@ABV?$allocator@U?$pair@$$CBV?$basic_string@DU?$char_traits@D@std@@V?$allocator@D@2@@std@@P6APAXXZ@std@@@1@@Z PROC ; std::_Wrap_alloc<std::allocator<std::_Tree_node<std::pair<std::basic_string<char,std::char_traits<char>,std::allocator<char> > const ,void * (__cdecl*)(void)>,void *> > >::_Wrap_alloc<std::allocator<std::_Tree_node<std::pair<std::basic_string<char,std::char_traits<char>,std::allocator<char> > const ,void * (__cdecl*)(void)>,void *> > ><std::allocator<std::pair<std::basic_string<char,std::char_traits<char>,std::allocator<char> > const ,void * (__cdecl*)(void)> > >, COMDAT
; _this$ = ecx

; 868  : 		{	// construct from a related allocator

  00000	55		 push	 ebp
  00001	8b ec		 mov	 ebp, esp
  00003	51		 push	 ecx
  00004	c7 45 fc cc cc
	cc cc		 mov	 DWORD PTR [ebp-4], -858993460 ; ccccccccH
  0000b	89 4d fc	 mov	 DWORD PTR _this$[ebp], ecx

; 867  : 		: _Mybase(_Right)

  0000e	8b 45 08	 mov	 eax, DWORD PTR __Right$[ebp]
  00011	50		 push	 eax
  00012	8b 4d fc	 mov	 ecx, DWORD PTR _this$[ebp]
  00015	e8 00 00 00 00	 call	 ??$?0U?$pair@$$CBV?$basic_string@DU?$char_traits@D@std@@V?$allocator@D@2@@std@@P6APAXXZ@std@@@?$allocator@U?$_Tree_node@U?$pair@$$CBV?$basic_string@DU?$char_traits@D@std@@V?$allocator@D@2@@std@@P6APAXXZ@std@@PAX@std@@@std@@QAE@ABV?$allocator@U?$pair@$$CBV?$basic_string@DU?$char_traits@D@std@@V?$allocator@D@2@@std@@P6APAXXZ@std@@@1@@Z ; std::allocator<std::_Tree_node<std::pair<std::basic_string<char,std::char_traits<char>,std::allocator<char> > const ,void * (__cdecl*)(void)>,void *> >::allocator<std::_Tree_node<std::pair<std::basic_string<char,std::char_traits<char>,std::allocator<char> > const ,void * (__cdecl*)(void)>,void *> ><std::pair<std::basic_string<char,std::char_traits<char>,std::allocator<char> > const ,void * (__cdecl*)(void)> >

; 869  : 		}

  0001a	8b 45 fc	 mov	 eax, DWORD PTR _this$[ebp]
  0001d	83 c4 04	 add	 esp, 4
  00020	3b ec		 cmp	 ebp, esp
  00022	e8 00 00 00 00	 call	 __RTC_CheckEsp
  00027	8b e5		 mov	 esp, ebp
  00029	5d		 pop	 ebp
  0002a	c2 04 00	 ret	 4
??$?0V?$allocator@U?$pair@$$CBV?$basic_string@DU?$char_traits@D@std@@V?$allocator@D@2@@std@@P6APAXXZ@std@@@std@@@?$_Wrap_alloc@V?$allocator@U?$_Tree_node@U?$pair@$$CBV?$basic_string@DU?$char_traits@D@std@@V?$allocator@D@2@@std@@P6APAXXZ@std@@PAX@std@@@std@@@std@@QAE@ABV?$allocator@U?$pair@$$CBV?$basic_string@DU?$char_traits@D@std@@V?$allocator@D@2@@std@@P6APAXXZ@std@@@1@@Z ENDP ; std::_Wrap_alloc<std::allocator<std::_Tree_node<std::pair<std::basic_string<char,std::char_traits<char>,std::allocator<char> > const ,void * (__cdecl*)(void)>,void *> > >::_Wrap_alloc<std::allocator<std::_Tree_node<std::pair<std::basic_string<char,std::char_traits<char>,std::allocator<char> > const ,void * (__cdecl*)(void)>,void *> > ><std::allocator<std::pair<std::basic_string<char,std::char_traits<char>,std::allocator<char> > const ,void * (__cdecl*)(void)> > >
_TEXT	ENDS
; Function compile flags: /Odtp /RTCsu
; File c:\program files (x86)\microsoft visual studio 14.0\vc\include\xmemory0
;	COMDAT ??$?0U?$pair@$$CBV?$basic_string@DU?$char_traits@D@std@@V?$allocator@D@2@@std@@P6APAXXZ@std@@@?$allocator@U?$_Tree_node@U?$pair@$$CBV?$basic_string@DU?$char_traits@D@std@@V?$allocator@D@2@@std@@P6APAXXZ@std@@PAX@std@@@std@@QAE@ABV?$allocator@U?$pair@$$CBV?$basic_string@DU?$char_traits@D@std@@V?$allocator@D@2@@std@@P6APAXXZ@std@@@1@@Z
_TEXT	SEGMENT
_this$ = -4						; size = 4
___formal$ = 8						; size = 4
??$?0U?$pair@$$CBV?$basic_string@DU?$char_traits@D@std@@V?$allocator@D@2@@std@@P6APAXXZ@std@@@?$allocator@U?$_Tree_node@U?$pair@$$CBV?$basic_string@DU?$char_traits@D@std@@V?$allocator@D@2@@std@@P6APAXXZ@std@@PAX@std@@@std@@QAE@ABV?$allocator@U?$pair@$$CBV?$basic_string@DU?$char_traits@D@std@@V?$allocator@D@2@@std@@P6APAXXZ@std@@@1@@Z PROC ; std::allocator<std::_Tree_node<std::pair<std::basic_string<char,std::char_traits<char>,std::allocator<char> > const ,void * (__cdecl*)(void)>,void *> >::allocator<std::_Tree_node<std::pair<std::basic_string<char,std::char_traits<char>,std::allocator<char> > const ,void * (__cdecl*)(void)>,void *> ><std::pair<std::basic_string<char,std::char_traits<char>,std::allocator<char> > const ,void * (__cdecl*)(void)> >, COMDAT
; _this$ = ecx

; 627  : 		{	// construct from a related allocator (do nothing)

  00000	55		 push	 ebp
  00001	8b ec		 mov	 ebp, esp
  00003	51		 push	 ecx
  00004	c7 45 fc cc cc
	cc cc		 mov	 DWORD PTR [ebp-4], -858993460 ; ccccccccH
  0000b	89 4d fc	 mov	 DWORD PTR _this$[ebp], ecx

; 628  : 		}

  0000e	8b 45 fc	 mov	 eax, DWORD PTR _this$[ebp]
  00011	8b e5		 mov	 esp, ebp
  00013	5d		 pop	 ebp
  00014	c2 04 00	 ret	 4
??$?0U?$pair@$$CBV?$basic_string@DU?$char_traits@D@std@@V?$allocator@D@2@@std@@P6APAXXZ@std@@@?$allocator@U?$_Tree_node@U?$pair@$$CBV?$basic_string@DU?$char_traits@D@std@@V?$allocator@D@2@@std@@P6APAXXZ@std@@PAX@std@@@std@@QAE@ABV?$allocator@U?$pair@$$CBV?$basic_string@DU?$char_traits@D@std@@V?$allocator@D@2@@std@@P6APAXXZ@std@@@1@@Z ENDP ; std::allocator<std::_Tree_node<std::pair<std::basic_string<char,std::char_traits<char>,std::allocator<char> > const ,void * (__cdecl*)(void)>,void *> >::allocator<std::_Tree_node<std::pair<std::basic_string<char,std::char_traits<char>,std::allocator<char> > const ,void * (__cdecl*)(void)>,void *> ><std::pair<std::basic_string<char,std::char_traits<char>,std::allocator<char> > const ,void * (__cdecl*)(void)> >
_TEXT	ENDS
END
