; Listing generated by Microsoft (R) Optimizing Compiler Version 19.00.23506.0 

	TITLE	e:\fusion3d_work\engine\src\core\game.cpp
	.686P
	.XMM
	include listing.inc
	.model	flat

INCLUDELIB OLDNAMES

?piecewise_construct@std@@3Upiecewise_construct_t@1@B	ORG $+1 ; std::piecewise_construct
	ORG $+3
?btInfinityMask@@3HA DD 07f800000H			; btInfinityMask
	ORG $+3
?btNanMask@@3HA DD 07f800001H				; btNanMask
	ORG $+1
$SG4294835561 DB 'Assert e:\fusion3d_work\lib\bullet3\include\BulletColli'
	DB	'sion/BroadphaseCollision/btAxisSweep3.h:%u (!pair.m_algorithm'
	DB	')', 0aH, 00H
	ORG $+1
$SG4294835560 DB 'Assert e:\fusion3d_work\lib\bullet3\include\BulletColli'
	DB	'sion/BroadphaseCollision/btAxisSweep3.h:%u (!pair.m_algorithm'
	DB	')', 0aH, 00H
	ORG $+1
$SG4294835557 DB 'Assert e:\fusion3d_work\lib\bullet3\include\BulletColli'
	DB	'sion/BroadphaseCollision/btAxisSweep3.h:%u (m_firstFreeHandle'
	DB	')', 0aH, 00H
	ORG $+1
$SG4294835556 DB 'Assert e:\fusion3d_work\lib\bullet3\include\BulletColli'
	DB	'sion/BroadphaseCollision/btAxisSweep3.h:%u (handle > 0 && han'
	DB	'dle < m_maxHandles)', 0aH, 00H
	ORG $+2
$SG4294835559 DB 'Assert e:\fusion3d_work\lib\bullet3\include\BulletColli'
	DB	'sion/BroadphaseCollision/btAxisSweep3.h:%u (m_firstFreeHandle'
	DB	')', 0aH, 00H
	ORG $+1
$SG4294835558 DB 'Assert e:\fusion3d_work\lib\bullet3\include\BulletColli'
	DB	'sion/BroadphaseCollision/btAxisSweep3.h:%u (handle > 0 && han'
	DB	'dle < m_maxHandles)', 0aH, 00H
PUBLIC	?Render@Game@@QAEXPAVRenderingEngine@@@Z	; Game::Render
PUBLIC	?Update@Game@@QAEXM@Z				; Game::Update
PUBLIC	?ProcessInput@Game@@QAEXABVInput@@M@Z		; Game::ProcessInput
; Function compile flags: /Odtp /RTCsu
; File e:\fusion3d_work\engine\src\core\game.cpp
_TEXT	SEGMENT
_this$ = -4						; size = 4
_input$ = 8						; size = 4
_delta$ = 12						; size = 4
?ProcessInput@Game@@QAEXABVInput@@M@Z PROC		; Game::ProcessInput
; _this$ = ecx

; 24   : {

  00000	55		 push	 ebp
  00001	8b ec		 mov	 ebp, esp
  00003	51		 push	 ecx
  00004	c7 45 fc cc cc
	cc cc		 mov	 DWORD PTR [ebp-4], -858993460 ; ccccccccH
  0000b	89 4d fc	 mov	 DWORD PTR _this$[ebp], ecx

; 25   : 	m_inputTimer.StartInvocation();

  0000e	8b 4d fc	 mov	 ecx, DWORD PTR _this$[ebp]
  00011	81 c1 f8 00 00
	00		 add	 ecx, 248		; 000000f8H
  00017	e8 00 00 00 00	 call	 ?StartInvocation@ProfileTimer@@QAEXXZ ; ProfileTimer::StartInvocation

; 26   : 	m_root.ProcessInputAll(input, delta);

  0001c	51		 push	 ecx
  0001d	f3 0f 10 45 0c	 movss	 xmm0, DWORD PTR _delta$[ebp]
  00022	f3 0f 11 04 24	 movss	 DWORD PTR [esp], xmm0
  00027	8b 45 08	 mov	 eax, DWORD PTR _input$[ebp]
  0002a	50		 push	 eax
  0002b	8b 4d fc	 mov	 ecx, DWORD PTR _this$[ebp]
  0002e	83 c1 08	 add	 ecx, 8
  00031	e8 00 00 00 00	 call	 ?ProcessInputAll@Entity@@QAEXABVInput@@M@Z ; Entity::ProcessInputAll

; 27   : 	m_inputTimer.StopInvocation();

  00036	8b 4d fc	 mov	 ecx, DWORD PTR _this$[ebp]
  00039	81 c1 f8 00 00
	00		 add	 ecx, 248		; 000000f8H
  0003f	e8 00 00 00 00	 call	 ?StopInvocation@ProfileTimer@@QAEXXZ ; ProfileTimer::StopInvocation

; 28   : }

  00044	83 c4 04	 add	 esp, 4
  00047	3b ec		 cmp	 ebp, esp
  00049	e8 00 00 00 00	 call	 __RTC_CheckEsp
  0004e	8b e5		 mov	 esp, ebp
  00050	5d		 pop	 ebp
  00051	c2 08 00	 ret	 8
?ProcessInput@Game@@QAEXABVInput@@M@Z ENDP		; Game::ProcessInput
_TEXT	ENDS
; Function compile flags: /Odtp /RTCsu
; File e:\fusion3d_work\engine\src\core\game.cpp
_TEXT	SEGMENT
_this$ = -4						; size = 4
_delta$ = 8						; size = 4
?Update@Game@@QAEXM@Z PROC				; Game::Update
; _this$ = ecx

; 31   : {

  00000	55		 push	 ebp
  00001	8b ec		 mov	 ebp, esp
  00003	51		 push	 ecx
  00004	c7 45 fc cc cc
	cc cc		 mov	 DWORD PTR [ebp-4], -858993460 ; ccccccccH
  0000b	89 4d fc	 mov	 DWORD PTR _this$[ebp], ecx

; 32   : 	m_updateTimer.StartInvocation();

  0000e	8b 4d fc	 mov	 ecx, DWORD PTR _this$[ebp]
  00011	81 c1 e0 00 00
	00		 add	 ecx, 224		; 000000e0H
  00017	e8 00 00 00 00	 call	 ?StartInvocation@ProfileTimer@@QAEXXZ ; ProfileTimer::StartInvocation

; 33   : 	m_root.UpdateAll(delta);

  0001c	51		 push	 ecx
  0001d	f3 0f 10 45 08	 movss	 xmm0, DWORD PTR _delta$[ebp]
  00022	f3 0f 11 04 24	 movss	 DWORD PTR [esp], xmm0
  00027	8b 4d fc	 mov	 ecx, DWORD PTR _this$[ebp]
  0002a	83 c1 08	 add	 ecx, 8
  0002d	e8 00 00 00 00	 call	 ?UpdateAll@Entity@@QAEXM@Z ; Entity::UpdateAll

; 34   : 	m_updateTimer.StopInvocation();

  00032	8b 4d fc	 mov	 ecx, DWORD PTR _this$[ebp]
  00035	81 c1 e0 00 00
	00		 add	 ecx, 224		; 000000e0H
  0003b	e8 00 00 00 00	 call	 ?StopInvocation@ProfileTimer@@QAEXXZ ; ProfileTimer::StopInvocation

; 35   : }

  00040	83 c4 04	 add	 esp, 4
  00043	3b ec		 cmp	 ebp, esp
  00045	e8 00 00 00 00	 call	 __RTC_CheckEsp
  0004a	8b e5		 mov	 esp, ebp
  0004c	5d		 pop	 ebp
  0004d	c2 04 00	 ret	 4
?Update@Game@@QAEXM@Z ENDP				; Game::Update
_TEXT	ENDS
; Function compile flags: /Odtp /RTCsu
; File e:\fusion3d_work\engine\src\core\game.cpp
_TEXT	SEGMENT
_this$ = -4						; size = 4
_renderingEngine$ = 8					; size = 4
?Render@Game@@QAEXPAVRenderingEngine@@@Z PROC		; Game::Render
; _this$ = ecx

; 38   : {

  00000	55		 push	 ebp
  00001	8b ec		 mov	 ebp, esp
  00003	51		 push	 ecx
  00004	56		 push	 esi
  00005	c7 45 fc cc cc
	cc cc		 mov	 DWORD PTR [ebp-4], -858993460 ; ccccccccH
  0000c	89 4d fc	 mov	 DWORD PTR _this$[ebp], ecx

; 39   : 	renderingEngine->Render(m_root);

  0000f	8b 45 fc	 mov	 eax, DWORD PTR _this$[ebp]
  00012	83 c0 08	 add	 eax, 8
  00015	8b f4		 mov	 esi, esp
  00017	50		 push	 eax
  00018	8b 4d 08	 mov	 ecx, DWORD PTR _renderingEngine$[ebp]
  0001b	8b 11		 mov	 edx, DWORD PTR [ecx]
  0001d	8b 4d 08	 mov	 ecx, DWORD PTR _renderingEngine$[ebp]
  00020	8b 42 04	 mov	 eax, DWORD PTR [edx+4]
  00023	ff d0		 call	 eax
  00025	3b f4		 cmp	 esi, esp
  00027	e8 00 00 00 00	 call	 __RTC_CheckEsp

; 40   : }

  0002c	5e		 pop	 esi
  0002d	83 c4 04	 add	 esp, 4
  00030	3b ec		 cmp	 ebp, esp
  00032	e8 00 00 00 00	 call	 __RTC_CheckEsp
  00037	8b e5		 mov	 esp, ebp
  00039	5d		 pop	 ebp
  0003a	c2 04 00	 ret	 4
?Render@Game@@QAEXPAVRenderingEngine@@@Z ENDP		; Game::Render
_TEXT	ENDS
END
