; Listing generated by Microsoft (R) Optimizing Compiler Version 19.00.23506.0 

	TITLE	e:\fusion3d_work\engine\src\components\programcomponent.cpp
	.686P
	.XMM
	include listing.inc
	.model	flat

INCLUDELIB OLDNAMES

PUBLIC	?lastTime@ProgramHoster@@0NA			; ProgramHoster::lastTime
PUBLIC	?timeCounter@ProgramHoster@@0NA			; ProgramHoster::timeCounter
PUBLIC	?isUpdating@ProgramHoster@@0_NA			; ProgramHoster::isUpdating
	ALIGN	8

?lastTime@ProgramHoster@@0NA DQ 01H DUP (?)		; ProgramHoster::lastTime
?timeCounter@ProgramHoster@@0NA DQ 01H DUP (?)		; ProgramHoster::timeCounter
_BSS	ENDS
?isUpdating@ProgramHoster@@0_NA DB 01H			; ProgramHoster::isUpdating
	ORG $+3
?btInfinityMask@@3HA DD 07f800000H			; btInfinityMask
	ORG $+3
?btNanMask@@3HA DD 07f800001H				; btNanMask
$SG4294841684 DB 'Assert e:\fusion3d_work\lib\bullet3\include\BulletColli'
	DB	'sion/BroadphaseCollision/btAxisSweep3.h:%u (!pair.m_algorithm'
	DB	')', 0aH, 00H
	ORG $+1
$SG4294841685 DB 'Assert e:\fusion3d_work\lib\bullet3\include\BulletColli'
	DB	'sion/BroadphaseCollision/btAxisSweep3.h:%u (!pair.m_algorithm'
	DB	')', 0aH, 00H
	ORG $+1
$SG4294841680 DB 'Assert e:\fusion3d_work\lib\bullet3\include\BulletColli'
	DB	'sion/BroadphaseCollision/btAxisSweep3.h:%u (handle > 0 && han'
	DB	'dle < m_maxHandles)', 0aH, 00H
$SG4294841681 DB 'Assert e:\fusion3d_work\lib\bullet3\include\BulletColli'
	DB	'sion/BroadphaseCollision/btAxisSweep3.h:%u (m_firstFreeHandle'
	DB	')', 0aH, 00H
	ORG $+1
$SG4294841678 DB 'Assert e:\fusion3d_work\lib\bullet3\include\BulletColli'
	DB	'sion/BroadphaseCollision/btAxisSweep3.h:%u (handle > 0 && han'
	DB	'dle < m_maxHandles)', 0aH, 00H
$SG4294841679 DB 'Assert e:\fusion3d_work\lib\bullet3\include\BulletColli'
	DB	'sion/BroadphaseCollision/btAxisSweep3.h:%u (m_firstFreeHandle'
	DB	')', 0aH, 00H
END
