; Listing generated by Microsoft (R) Optimizing Compiler Version 19.00.23506.0 

	TITLE	e:\fusion3d_work\engine\src\rendering\renderingengine.cpp
	.686P
	.XMM
	include listing.inc
	.model	flat

INCLUDELIB OLDNAMES

PUBLIC	??_C@_0CK@OGBHDMKG@?5is?5not?5supported?5by?5the?5renderi@ ; `string'
PUBLIC	??_C@_1KK@EAEHFHOE@?$AAs?$AAt?$AAd?$AA?3?$AA?3?$AAv?$AAe?$AAc?$AAt?$AAo?$AAr?$AA?$DM?$AAc?$AAl?$AAa?$AAs?$AAs?$AA?5?$AAB?$AAa?$AAs?$AAe?$AAL?$AAi?$AAg?$AAh?$AAt?$AA?5?$AA?$CK?$AA?0?$AAc?$AAl@ ; `string'
PUBLIC	??_C@_1BMA@MMALOBMP@?$AAs?$AAt?$AAd?$AA?3?$AA?3?$AA_?$AAT?$AAr?$AAe?$AAe?$AA_?$AAc?$AAo?$AAn?$AAs?$AAt?$AA_?$AAi?$AAt?$AAe?$AAr?$AAa?$AAt?$AAo?$AAr?$AA?$DM?$AAc?$AAl?$AAa?$AAs?$AAs?$AA?5@ ; `string'
PUBLIC	??_C@_1BMC@NEDCJCDP@?$AAs?$AAt?$AAd?$AA?3?$AA?3?$AA_?$AAT?$AAr?$AAe?$AAe?$AA_?$AAc?$AAo?$AAn?$AAs?$AAt?$AA_?$AAi?$AAt?$AAe?$AAr?$AAa?$AAt?$AAo?$AAr?$AA?$DM?$AAc?$AAl?$AAa?$AAs?$AAs?$AA?5@ ; `string'
PUBLIC	??_R4RenderingEngine@@6B@			; RenderingEngine::`RTTI Complete Object Locator'
PUBLIC	??_R4GLDebugDrawer@@6B@				; GLDebugDrawer::`RTTI Complete Object Locator'
PUBLIC	??_R1A@?0A@EA@GLDebugDrawer@@8			; GLDebugDrawer::`RTTI Base Class Descriptor at (0,-1,0,64)'
PUBLIC	??_R1A@?0A@EA@RenderingEngine@@8		; RenderingEngine::`RTTI Base Class Descriptor at (0,-1,0,64)'
PUBLIC	??_R3RenderingEngine@@8				; RenderingEngine::`RTTI Class Hierarchy Descriptor'
PUBLIC	??_7GLDebugDrawer@@6B@				; GLDebugDrawer::`vftable'
PUBLIC	??_R2GLDebugDrawer@@8				; GLDebugDrawer::`RTTI Base Class Array'
PUBLIC	??_R3MappedValues@@8				; MappedValues::`RTTI Class Hierarchy Descriptor'
PUBLIC	??_R3btIDebugDraw@@8				; btIDebugDraw::`RTTI Class Hierarchy Descriptor'
PUBLIC	??_R2RenderingEngine@@8				; RenderingEngine::`RTTI Base Class Array'
PUBLIC	?rmask@@3IA					; rmask
PUBLIC	??_7btIDebugDraw@@6B@				; btIDebugDraw::`vftable'
PUBLIC	?amask@@3IA					; amask
PUBLIC	??_R1A@?0A@EA@MappedValues@@8			; MappedValues::`RTTI Base Class Descriptor at (0,-1,0,64)'
PUBLIC	??_7RenderingEngine@@6B@			; RenderingEngine::`vftable'
PUBLIC	??_R0?AVRenderingEngine@@@8			; RenderingEngine `RTTI Type Descriptor'
PUBLIC	??_R0?AVbtIDebugDraw@@@8			; btIDebugDraw `RTTI Type Descriptor'
PUBLIC	??_R1A@?0A@EA@btIDebugDraw@@8			; btIDebugDraw::`RTTI Base Class Descriptor at (0,-1,0,64)'
PUBLIC	??_R17?0A@EA@MappedValues@@8			; MappedValues::`RTTI Base Class Descriptor at (8,-1,0,64)'
PUBLIC	?bmask@@3IA					; bmask
PUBLIC	??_R0?AVMappedValues@@@8			; MappedValues `RTTI Type Descriptor'
PUBLIC	??_R4btIDebugDraw@@6B@				; btIDebugDraw::`RTTI Complete Object Locator'
PUBLIC	??_R0?AVGLDebugDrawer@@@8			; GLDebugDrawer `RTTI Type Descriptor'
PUBLIC	??_R2MappedValues@@8				; MappedValues::`RTTI Base Class Array'
PUBLIC	?gmask@@3IA					; gmask
PUBLIC	??_R2btIDebugDraw@@8				; btIDebugDraw::`RTTI Base Class Array'
PUBLIC	??_R3GLDebugDrawer@@8				; GLDebugDrawer::`RTTI Class Hierarchy Descriptor'
EXTRN	??_L@YGXPAXIIP6EX0@Z1@Z:PROC			; `eh vector constructor iterator'
EXTRN	__imp__glDepthFunc@4:PROC
EXTRN	__imp__glDisable@4:PROC
EXTRN	__imp__SDL_FillRect:PROC
EXTRN	__imp__glColor4f@16:PROC
EXTRN	__imp__SDL_CreateRenderer:PROC
EXTRN	__imp__SDL_CreateRGBSurface:PROC
EXTRN	__imp____glewDisableVertexAttribArray:DWORD
EXTRN	__imp__glDrawArrays@12:PROC
EXTRN	__imp__glClearColor@16:PROC
EXTRN	__imp__glBlendFunc@8:PROC
EXTRN	__imp__fabs:PROC
EXTRN	__imp__glFrontFace@4:PROC
EXTRN	??_M@YGXPAXIIP6EX0@Z@Z:PROC			; `eh vector destructor iterator'
EXTRN	__imp__glDepthMask@4:PROC
EXTRN	__imp__glCullFace@4:PROC
EXTRN	__imp__glEnable@4:PROC
EXTRN	__imp__cos:PROC
EXTRN	__imp__glClear@4:PROC
EXTRN	__imp__sin:PROC
?rmask@@3IA DD	01H DUP (?)				; rmask
?amask@@3IA DD	01H DUP (?)				; amask
?bmask@@3IA DD	01H DUP (?)				; bmask
?gmask@@3IA DD	01H DUP (?)				; gmask
_BSS	ENDS
;	COMDAT ??_R3GLDebugDrawer@@8
rdata$r	SEGMENT
??_R3GLDebugDrawer@@8 DD 00H				; GLDebugDrawer::`RTTI Class Hierarchy Descriptor'
	DD	00H
	DD	02H
	DD	FLAT:??_R2GLDebugDrawer@@8
rdata$r	ENDS
;	COMDAT ??_R2btIDebugDraw@@8
rdata$r	SEGMENT
??_R2btIDebugDraw@@8 DD FLAT:??_R1A@?0A@EA@btIDebugDraw@@8 ; btIDebugDraw::`RTTI Base Class Array'
rdata$r	ENDS
;	COMDAT ??_R2MappedValues@@8
rdata$r	SEGMENT
??_R2MappedValues@@8 DD FLAT:??_R1A@?0A@EA@MappedValues@@8 ; MappedValues::`RTTI Base Class Array'
rdata$r	ENDS
;	COMDAT ??_R0?AVGLDebugDrawer@@@8
data$r	SEGMENT
??_R0?AVGLDebugDrawer@@@8 DD FLAT:??_7type_info@@6B@	; GLDebugDrawer `RTTI Type Descriptor'
	DD	00H
	DB	'.?AVGLDebugDrawer@@', 00H
data$r	ENDS
;	COMDAT ??_R4btIDebugDraw@@6B@
rdata$r	SEGMENT
??_R4btIDebugDraw@@6B@ DD 00H				; btIDebugDraw::`RTTI Complete Object Locator'
	DD	00H
	DD	00H
	DD	FLAT:??_R0?AVbtIDebugDraw@@@8
	DD	FLAT:??_R3btIDebugDraw@@8
rdata$r	ENDS
;	COMDAT ??_R0?AVMappedValues@@@8
data$r	SEGMENT
??_R0?AVMappedValues@@@8 DD FLAT:??_7type_info@@6B@	; MappedValues `RTTI Type Descriptor'
	DD	00H
	DB	'.?AVMappedValues@@', 00H
data$r	ENDS
;	COMDAT ??_R17?0A@EA@MappedValues@@8
rdata$r	SEGMENT
??_R17?0A@EA@MappedValues@@8 DD FLAT:??_R0?AVMappedValues@@@8 ; MappedValues::`RTTI Base Class Descriptor at (8,-1,0,64)'
	DD	00H
	DD	08H
	DD	0ffffffffH
	DD	00H
	DD	040H
	DD	FLAT:??_R3MappedValues@@8
rdata$r	ENDS
;	COMDAT ??_R1A@?0A@EA@btIDebugDraw@@8
rdata$r	SEGMENT
??_R1A@?0A@EA@btIDebugDraw@@8 DD FLAT:??_R0?AVbtIDebugDraw@@@8 ; btIDebugDraw::`RTTI Base Class Descriptor at (0,-1,0,64)'
	DD	00H
	DD	00H
	DD	0ffffffffH
	DD	00H
	DD	040H
	DD	FLAT:??_R3btIDebugDraw@@8
rdata$r	ENDS
;	COMDAT ??_R0?AVbtIDebugDraw@@@8
data$r	SEGMENT
??_R0?AVbtIDebugDraw@@@8 DD FLAT:??_7type_info@@6B@	; btIDebugDraw `RTTI Type Descriptor'
	DD	00H
	DB	'.?AVbtIDebugDraw@@', 00H
data$r	ENDS
;	COMDAT ??_R0?AVRenderingEngine@@@8
data$r	SEGMENT
??_R0?AVRenderingEngine@@@8 DD FLAT:??_7type_info@@6B@	; RenderingEngine `RTTI Type Descriptor'
	DD	00H
	DB	'.?AVRenderingEngine@@', 00H
data$r	ENDS
;	COMDAT ??_7RenderingEngine@@6B@
CONST	SEGMENT
??_7RenderingEngine@@6B@ DD FLAT:??_R4RenderingEngine@@6B@ ; RenderingEngine::`vftable'
	DD	FLAT:??_ERenderingEngine@@UAEPAXI@Z
	DD	FLAT:?Render@RenderingEngine@@UAEXABVEntity@@@Z
	DD	FLAT:?UpdateUniformStruct@RenderingEngine@@UBEXABVTransform@@ABVMaterial@@ABVShader@@ABV?$basic_string@DU?$char_traits@D@std@@V?$allocator@D@2@@std@@3@Z
CONST	ENDS
;	COMDAT ??_R1A@?0A@EA@MappedValues@@8
rdata$r	SEGMENT
??_R1A@?0A@EA@MappedValues@@8 DD FLAT:??_R0?AVMappedValues@@@8 ; MappedValues::`RTTI Base Class Descriptor at (0,-1,0,64)'
	DD	00H
	DD	00H
	DD	0ffffffffH
	DD	00H
	DD	040H
	DD	FLAT:??_R3MappedValues@@8
rdata$r	ENDS
;	COMDAT ??_7btIDebugDraw@@6B@
CONST	SEGMENT
??_7btIDebugDraw@@6B@ DD FLAT:??_R4btIDebugDraw@@6B@	; btIDebugDraw::`vftable'
	DD	FLAT:??_EbtIDebugDraw@@UAEPAXI@Z
	DD	FLAT:?getDefaultColors@btIDebugDraw@@UBE?AUDefaultColors@1@XZ
	DD	FLAT:?setDefaultColors@btIDebugDraw@@UAEXABUDefaultColors@1@@Z
	DD	FLAT:?drawLine@btIDebugDraw@@UAEXABVbtVector3@@000@Z
	DD	FLAT:__purecall
	DD	FLAT:?drawSphere@btIDebugDraw@@UAEXABVbtVector3@@M0@Z
	DD	FLAT:?drawSphere@btIDebugDraw@@UAEXMABVbtTransform@@ABVbtVector3@@@Z
	DD	FLAT:?drawTriangle@btIDebugDraw@@UAEXABVbtVector3@@000M@Z
	DD	FLAT:?drawTriangle@btIDebugDraw@@UAEXABVbtVector3@@000000M@Z
	DD	FLAT:__purecall
	DD	FLAT:__purecall
	DD	FLAT:__purecall
	DD	FLAT:__purecall
	DD	FLAT:__purecall
	DD	FLAT:?drawAabb@btIDebugDraw@@UAEXABVbtVector3@@00@Z
	DD	FLAT:?drawTransform@btIDebugDraw@@UAEXABVbtTransform@@M@Z
	DD	FLAT:?drawArc@btIDebugDraw@@UAEXABVbtVector3@@00MMMM0_NM@Z
	DD	FLAT:?drawSpherePatch@btIDebugDraw@@UAEXABVbtVector3@@00MMMMM0M_N@Z
	DD	FLAT:?drawBox@btIDebugDraw@@UAEXABVbtVector3@@0ABVbtTransform@@0@Z
	DD	FLAT:?drawBox@btIDebugDraw@@UAEXABVbtVector3@@00@Z
	DD	FLAT:?drawCapsule@btIDebugDraw@@UAEXMMHABVbtTransform@@ABVbtVector3@@@Z
	DD	FLAT:?drawCylinder@btIDebugDraw@@UAEXMMHABVbtTransform@@ABVbtVector3@@@Z
	DD	FLAT:?drawCone@btIDebugDraw@@UAEXMMHABVbtTransform@@ABVbtVector3@@@Z
	DD	FLAT:?drawPlane@btIDebugDraw@@UAEXABVbtVector3@@MABVbtTransform@@0@Z
	DD	FLAT:?flushLines@btIDebugDraw@@UAEXXZ
CONST	ENDS
;	COMDAT ??_R2RenderingEngine@@8
rdata$r	SEGMENT
??_R2RenderingEngine@@8 DD FLAT:??_R1A@?0A@EA@RenderingEngine@@8 ; RenderingEngine::`RTTI Base Class Array'
	DD	FLAT:??_R17?0A@EA@MappedValues@@8
rdata$r	ENDS
;	COMDAT ??_R3btIDebugDraw@@8
rdata$r	SEGMENT
??_R3btIDebugDraw@@8 DD 00H				; btIDebugDraw::`RTTI Class Hierarchy Descriptor'
	DD	00H
	DD	01H
	DD	FLAT:??_R2btIDebugDraw@@8
rdata$r	ENDS
;	COMDAT ??_R3MappedValues@@8
rdata$r	SEGMENT
??_R3MappedValues@@8 DD 00H				; MappedValues::`RTTI Class Hierarchy Descriptor'
	DD	00H
	DD	01H
	DD	FLAT:??_R2MappedValues@@8
rdata$r	ENDS
;	COMDAT ??_R2GLDebugDrawer@@8
rdata$r	SEGMENT
??_R2GLDebugDrawer@@8 DD FLAT:??_R1A@?0A@EA@GLDebugDrawer@@8 ; GLDebugDrawer::`RTTI Base Class Array'
	DD	FLAT:??_R1A@?0A@EA@btIDebugDraw@@8
rdata$r	ENDS
;	COMDAT ??_7GLDebugDrawer@@6B@
CONST	SEGMENT
??_7GLDebugDrawer@@6B@ DD FLAT:??_R4GLDebugDrawer@@6B@	; GLDebugDrawer::`vftable'
	DD	FLAT:??_EGLDebugDrawer@@UAEPAXI@Z
	DD	FLAT:?getDefaultColors@btIDebugDraw@@UBE?AUDefaultColors@1@XZ
	DD	FLAT:?setDefaultColors@btIDebugDraw@@UAEXABUDefaultColors@1@@Z
	DD	FLAT:?drawLine@btIDebugDraw@@UAEXABVbtVector3@@000@Z
	DD	FLAT:?drawLine@GLDebugDrawer@@UAEXABVbtVector3@@00@Z
	DD	FLAT:?drawSphere@btIDebugDraw@@UAEXABVbtVector3@@M0@Z
	DD	FLAT:?drawSphere@btIDebugDraw@@UAEXMABVbtTransform@@ABVbtVector3@@@Z
	DD	FLAT:?drawTriangle@btIDebugDraw@@UAEXABVbtVector3@@000M@Z
	DD	FLAT:?drawTriangle@btIDebugDraw@@UAEXABVbtVector3@@000000M@Z
	DD	FLAT:?drawContactPoint@GLDebugDrawer@@UAEXABVbtVector3@@0MH0@Z
	DD	FLAT:?reportErrorWarning@GLDebugDrawer@@UAEXPBD@Z
	DD	FLAT:?draw3dText@GLDebugDrawer@@UAEXABVbtVector3@@PBD@Z
	DD	FLAT:?setDebugMode@GLDebugDrawer@@UAEXH@Z
	DD	FLAT:?getDebugMode@GLDebugDrawer@@UBEHXZ
	DD	FLAT:?drawAabb@btIDebugDraw@@UAEXABVbtVector3@@00@Z
	DD	FLAT:?drawTransform@btIDebugDraw@@UAEXABVbtTransform@@M@Z
	DD	FLAT:?drawArc@btIDebugDraw@@UAEXABVbtVector3@@00MMMM0_NM@Z
	DD	FLAT:?drawSpherePatch@btIDebugDraw@@UAEXABVbtVector3@@00MMMMM0M_N@Z
	DD	FLAT:?drawBox@btIDebugDraw@@UAEXABVbtVector3@@0ABVbtTransform@@0@Z
	DD	FLAT:?drawBox@btIDebugDraw@@UAEXABVbtVector3@@00@Z
	DD	FLAT:?drawCapsule@btIDebugDraw@@UAEXMMHABVbtTransform@@ABVbtVector3@@@Z
	DD	FLAT:?drawCylinder@btIDebugDraw@@UAEXMMHABVbtTransform@@ABVbtVector3@@@Z
	DD	FLAT:?drawCone@btIDebugDraw@@UAEXMMHABVbtTransform@@ABVbtVector3@@@Z
	DD	FLAT:?drawPlane@btIDebugDraw@@UAEXABVbtVector3@@MABVbtTransform@@0@Z
	DD	FLAT:?flushLines@btIDebugDraw@@UAEXXZ
CONST	ENDS
;	COMDAT ??_R3RenderingEngine@@8
rdata$r	SEGMENT
??_R3RenderingEngine@@8 DD 00H				; RenderingEngine::`RTTI Class Hierarchy Descriptor'
	DD	00H
	DD	02H
	DD	FLAT:??_R2RenderingEngine@@8
rdata$r	ENDS
;	COMDAT ??_R1A@?0A@EA@RenderingEngine@@8
rdata$r	SEGMENT
??_R1A@?0A@EA@RenderingEngine@@8 DD FLAT:??_R0?AVRenderingEngine@@@8 ; RenderingEngine::`RTTI Base Class Descriptor at (0,-1,0,64)'
	DD	01H
	DD	00H
	DD	0ffffffffH
	DD	00H
	DD	040H
	DD	FLAT:??_R3RenderingEngine@@8
rdata$r	ENDS
;	COMDAT ??_R1A@?0A@EA@GLDebugDrawer@@8
rdata$r	SEGMENT
??_R1A@?0A@EA@GLDebugDrawer@@8 DD FLAT:??_R0?AVGLDebugDrawer@@@8 ; GLDebugDrawer::`RTTI Base Class Descriptor at (0,-1,0,64)'
	DD	01H
	DD	00H
	DD	0ffffffffH
	DD	00H
	DD	040H
	DD	FLAT:??_R3GLDebugDrawer@@8
rdata$r	ENDS
;	COMDAT ??_R4GLDebugDrawer@@6B@
rdata$r	SEGMENT
??_R4GLDebugDrawer@@6B@ DD 00H				; GLDebugDrawer::`RTTI Complete Object Locator'
	DD	00H
	DD	00H
	DD	FLAT:??_R0?AVGLDebugDrawer@@@8
	DD	FLAT:??_R3GLDebugDrawer@@8
rdata$r	ENDS
;	COMDAT ??_R4RenderingEngine@@6B@
rdata$r	SEGMENT
??_R4RenderingEngine@@6B@ DD 00H			; RenderingEngine::`RTTI Complete Object Locator'
	DD	00H
	DD	00H
	DD	FLAT:??_R0?AVRenderingEngine@@@8
	DD	FLAT:??_R3RenderingEngine@@8
rdata$r	ENDS
;	COMDAT ??_C@_1BMC@NEDCJCDP@?$AAs?$AAt?$AAd?$AA?3?$AA?3?$AA_?$AAT?$AAr?$AAe?$AAe?$AA_?$AAc?$AAo?$AAn?$AAs?$AAt?$AA_?$AAi?$AAt?$AAe?$AAr?$AAa?$AAt?$AAo?$AAr?$AA?$DM?$AAc?$AAl?$AAa?$AAs?$AAs?$AA?5@
CONST	SEGMENT
??_C@_1BMC@NEDCJCDP@?$AAs?$AAt?$AAd?$AA?3?$AA?3?$AA_?$AAT?$AAr?$AAe?$AAe?$AA_?$AAc?$AAo?$AAn?$AAs?$AAt?$AA_?$AAi?$AAt?$AAe?$AAr?$AAa?$AAt?$AAo?$AAr?$AA?$DM?$AAc?$AAl?$AAa?$AAs?$AAs?$AA?5@ DB 's'
	DB	00H, 't', 00H, 'd', 00H, ':', 00H, ':', 00H, '_', 00H, 'T', 00H
	DB	'r', 00H, 'e', 00H, 'e', 00H, '_', 00H, 'c', 00H, 'o', 00H, 'n'
	DB	00H, 's', 00H, 't', 00H, '_', 00H, 'i', 00H, 't', 00H, 'e', 00H
	DB	'r', 00H, 'a', 00H, 't', 00H, 'o', 00H, 'r', 00H, '<', 00H, 'c'
	DB	00H, 'l', 00H, 'a', 00H, 's', 00H, 's', 00H, ' ', 00H, 's', 00H
	DB	't', 00H, 'd', 00H, ':', 00H, ':', 00H, '_', 00H, 'T', 00H, 'r'
	DB	00H, 'e', 00H, 'e', 00H, '_', 00H, 'v', 00H, 'a', 00H, 'l', 00H
	DB	'<', 00H, 's', 00H, 't', 00H, 'r', 00H, 'u', 00H, 'c', 00H, 't'
	DB	00H, ' ', 00H, 's', 00H, 't', 00H, 'd', 00H, ':', 00H, ':', 00H
	DB	'_', 00H, 'T', 00H, 'r', 00H, 'e', 00H, 'e', 00H, '_', 00H, 's'
	DB	00H, 'i', 00H, 'm', 00H, 'p', 00H, 'l', 00H, 'e', 00H, '_', 00H
	DB	't', 00H, 'y', 00H, 'p', 00H, 'e', 00H, 's', 00H, '<', 00H, 's'
	DB	00H, 't', 00H, 'r', 00H, 'u', 00H, 'c', 00H, 't', 00H, ' ', 00H
	DB	's', 00H, 't', 00H, 'd', 00H, ':', 00H, ':', 00H, 'p', 00H, 'a'
	DB	00H, 'i', 00H, 'r', 00H, '<', 00H, 'c', 00H, 'l', 00H, 'a', 00H
	DB	's', 00H, 's', 00H, ' ', 00H, 's', 00H, 't', 00H, 'd', 00H, ':'
	DB	00H, ':', 00H, 'b', 00H, 'a', 00H, 's', 00H, 'i', 00H, 'c', 00H
	DB	'_', 00H, 's', 00H, 't', 00H, 'r', 00H, 'i', 00H, 'n', 00H, 'g'
	DB	00H, '<', 00H, 'c', 00H, 'h', 00H, 'a', 00H, 'r', 00H, ',', 00H
	DB	's', 00H, 't', 00H, 'r', 00H, 'u', 00H, 'c', 00H, 't', 00H, ' '
	DB	00H, 's', 00H, 't', 00H, 'd', 00H, ':', 00H, ':', 00H, 'c', 00H
	DB	'h', 00H, 'a', 00H, 'r', 00H, '_', 00H, 't', 00H, 'r', 00H, 'a'
	DB	00H, 'i', 00H, 't', 00H, 's', 00H, '<', 00H, 'c', 00H, 'h', 00H
	DB	'a', 00H, 'r', 00H, '>', 00H, ',', 00H, 'c', 00H, 'l', 00H, 'a'
	DB	00H, 's', 00H, 's', 00H, ' ', 00H, 's', 00H, 't', 00H, 'd', 00H
	DB	':', 00H, ':', 00H, 'a', 00H, 'l', 00H, 'l', 00H, 'o', 00H, 'c'
	DB	00H, 'a', 00H, 't', 00H, 'o', 00H, 'r', 00H, '<', 00H, 'c', 00H
	DB	'h', 00H, 'a', 00H, 'r', 00H, '>', 00H, ' ', 00H, '>', 00H, ' '
	DB	00H, 'c', 00H, 'o', 00H, 'n', 00H, 's', 00H, 't', 00H, ' ', 00H
	DB	',', 00H, 'c', 00H, 'l', 00H, 'a', 00H, 's', 00H, 's', 00H, ' '
	DB	00H, 'V', 00H, 'e', 00H, 'c', 00H, 't', 00H, 'o', 00H, 'r', 00H
	DB	'3', 00H, 'f', 00H, '>', 00H, ' ', 00H, '>', 00H, ' ', 00H, '>'
	DB	00H, ' ', 00H, '>', 00H, ':', 00H, ':', 00H, 'o', 00H, 'p', 00H
	DB	'e', 00H, 'r', 00H, 'a', 00H, 't', 00H, 'o', 00H, 'r', 00H, ' '
	DB	00H, '-', 00H, '-', 00H, 00H, 00H		; `string'
CONST	ENDS
;	COMDAT ??_C@_1BMA@MMALOBMP@?$AAs?$AAt?$AAd?$AA?3?$AA?3?$AA_?$AAT?$AAr?$AAe?$AAe?$AA_?$AAc?$AAo?$AAn?$AAs?$AAt?$AA_?$AAi?$AAt?$AAe?$AAr?$AAa?$AAt?$AAo?$AAr?$AA?$DM?$AAc?$AAl?$AAa?$AAs?$AAs?$AA?5@
CONST	SEGMENT
??_C@_1BMA@MMALOBMP@?$AAs?$AAt?$AAd?$AA?3?$AA?3?$AA_?$AAT?$AAr?$AAe?$AAe?$AA_?$AAc?$AAo?$AAn?$AAs?$AAt?$AA_?$AAi?$AAt?$AAe?$AAr?$AAa?$AAt?$AAo?$AAr?$AA?$DM?$AAc?$AAl?$AAa?$AAs?$AAs?$AA?5@ DB 's'
	DB	00H, 't', 00H, 'd', 00H, ':', 00H, ':', 00H, '_', 00H, 'T', 00H
	DB	'r', 00H, 'e', 00H, 'e', 00H, '_', 00H, 'c', 00H, 'o', 00H, 'n'
	DB	00H, 's', 00H, 't', 00H, '_', 00H, 'i', 00H, 't', 00H, 'e', 00H
	DB	'r', 00H, 'a', 00H, 't', 00H, 'o', 00H, 'r', 00H, '<', 00H, 'c'
	DB	00H, 'l', 00H, 'a', 00H, 's', 00H, 's', 00H, ' ', 00H, 's', 00H
	DB	't', 00H, 'd', 00H, ':', 00H, ':', 00H, '_', 00H, 'T', 00H, 'r'
	DB	00H, 'e', 00H, 'e', 00H, '_', 00H, 'v', 00H, 'a', 00H, 'l', 00H
	DB	'<', 00H, 's', 00H, 't', 00H, 'r', 00H, 'u', 00H, 'c', 00H, 't'
	DB	00H, ' ', 00H, 's', 00H, 't', 00H, 'd', 00H, ':', 00H, ':', 00H
	DB	'_', 00H, 'T', 00H, 'r', 00H, 'e', 00H, 'e', 00H, '_', 00H, 's'
	DB	00H, 'i', 00H, 'm', 00H, 'p', 00H, 'l', 00H, 'e', 00H, '_', 00H
	DB	't', 00H, 'y', 00H, 'p', 00H, 'e', 00H, 's', 00H, '<', 00H, 's'
	DB	00H, 't', 00H, 'r', 00H, 'u', 00H, 'c', 00H, 't', 00H, ' ', 00H
	DB	's', 00H, 't', 00H, 'd', 00H, ':', 00H, ':', 00H, 'p', 00H, 'a'
	DB	00H, 'i', 00H, 'r', 00H, '<', 00H, 'c', 00H, 'l', 00H, 'a', 00H
	DB	's', 00H, 's', 00H, ' ', 00H, 's', 00H, 't', 00H, 'd', 00H, ':'
	DB	00H, ':', 00H, 'b', 00H, 'a', 00H, 's', 00H, 'i', 00H, 'c', 00H
	DB	'_', 00H, 's', 00H, 't', 00H, 'r', 00H, 'i', 00H, 'n', 00H, 'g'
	DB	00H, '<', 00H, 'c', 00H, 'h', 00H, 'a', 00H, 'r', 00H, ',', 00H
	DB	's', 00H, 't', 00H, 'r', 00H, 'u', 00H, 'c', 00H, 't', 00H, ' '
	DB	00H, 's', 00H, 't', 00H, 'd', 00H, ':', 00H, ':', 00H, 'c', 00H
	DB	'h', 00H, 'a', 00H, 'r', 00H, '_', 00H, 't', 00H, 'r', 00H, 'a'
	DB	00H, 'i', 00H, 't', 00H, 's', 00H, '<', 00H, 'c', 00H, 'h', 00H
	DB	'a', 00H, 'r', 00H, '>', 00H, ',', 00H, 'c', 00H, 'l', 00H, 'a'
	DB	00H, 's', 00H, 's', 00H, ' ', 00H, 's', 00H, 't', 00H, 'd', 00H
	DB	':', 00H, ':', 00H, 'a', 00H, 'l', 00H, 'l', 00H, 'o', 00H, 'c'
	DB	00H, 'a', 00H, 't', 00H, 'o', 00H, 'r', 00H, '<', 00H, 'c', 00H
	DB	'h', 00H, 'a', 00H, 'r', 00H, '>', 00H, ' ', 00H, '>', 00H, ' '
	DB	00H, 'c', 00H, 'o', 00H, 'n', 00H, 's', 00H, 't', 00H, ' ', 00H
	DB	',', 00H, 'c', 00H, 'l', 00H, 'a', 00H, 's', 00H, 's', 00H, ' '
	DB	00H, 'V', 00H, 'e', 00H, 'c', 00H, 't', 00H, 'o', 00H, 'r', 00H
	DB	'3', 00H, 'f', 00H, '>', 00H, ' ', 00H, '>', 00H, ' ', 00H, '>'
	DB	00H, ' ', 00H, '>', 00H, ':', 00H, ':', 00H, 'o', 00H, 'p', 00H
	DB	'e', 00H, 'r', 00H, 'a', 00H, 't', 00H, 'o', 00H, 'r', 00H, ' '
	DB	00H, '*', 00H, 00H, 00H			; `string'
CONST	ENDS
;	COMDAT ??_C@_1KK@EAEHFHOE@?$AAs?$AAt?$AAd?$AA?3?$AA?3?$AAv?$AAe?$AAc?$AAt?$AAo?$AAr?$AA?$DM?$AAc?$AAl?$AAa?$AAs?$AAs?$AA?5?$AAB?$AAa?$AAs?$AAe?$AAL?$AAi?$AAg?$AAh?$AAt?$AA?5?$AA?$CK?$AA?0?$AAc?$AAl@
CONST	SEGMENT
??_C@_1KK@EAEHFHOE@?$AAs?$AAt?$AAd?$AA?3?$AA?3?$AAv?$AAe?$AAc?$AAt?$AAo?$AAr?$AA?$DM?$AAc?$AAl?$AAa?$AAs?$AAs?$AA?5?$AAB?$AAa?$AAs?$AAe?$AAL?$AAi?$AAg?$AAh?$AAt?$AA?5?$AA?$CK?$AA?0?$AAc?$AAl@ DB 's'
	DB	00H, 't', 00H, 'd', 00H, ':', 00H, ':', 00H, 'v', 00H, 'e', 00H
	DB	'c', 00H, 't', 00H, 'o', 00H, 'r', 00H, '<', 00H, 'c', 00H, 'l'
	DB	00H, 'a', 00H, 's', 00H, 's', 00H, ' ', 00H, 'B', 00H, 'a', 00H
	DB	's', 00H, 'e', 00H, 'L', 00H, 'i', 00H, 'g', 00H, 'h', 00H, 't'
	DB	00H, ' ', 00H, '*', 00H, ',', 00H, 'c', 00H, 'l', 00H, 'a', 00H
	DB	's', 00H, 's', 00H, ' ', 00H, 's', 00H, 't', 00H, 'd', 00H, ':'
	DB	00H, ':', 00H, 'a', 00H, 'l', 00H, 'l', 00H, 'o', 00H, 'c', 00H
	DB	'a', 00H, 't', 00H, 'o', 00H, 'r', 00H, '<', 00H, 'c', 00H, 'l'
	DB	00H, 'a', 00H, 's', 00H, 's', 00H, ' ', 00H, 'B', 00H, 'a', 00H
	DB	's', 00H, 'e', 00H, 'L', 00H, 'i', 00H, 'g', 00H, 'h', 00H, 't'
	DB	00H, ' ', 00H, '*', 00H, '>', 00H, ' ', 00H, '>', 00H, ':', 00H
	DB	':', 00H, 'o', 00H, 'p', 00H, 'e', 00H, 'r', 00H, 'a', 00H, 't'
	DB	00H, 'o', 00H, 'r', 00H, ' ', 00H, '[', 00H, ']', 00H, 00H, 00H ; `string'
CONST	ENDS
;	COMDAT ??_C@_0CK@OGBHDMKG@?5is?5not?5supported?5by?5the?5renderi@
CONST	SEGMENT
??_C@_0CK@OGBHDMKG@?5is?5not?5supported?5by?5the?5renderi@ DB ' is not su'
	DB	'pported by the rendering engine', 00H	; `string'
?piecewise_construct@std@@3Upiecewise_construct_t@1@B	ORG $+1 ; std::piecewise_construct
	ORG $+2
$SG4294895282 DB 'plane.obj', 00H
	ORG $+3
$SG4294895280 DB 'default_normal.jpg', 00H
	ORG $+3
$SG4294895281 DB 'default_disp.png', 00H
	ORG $+3
$SG4294895278 DB 'forward-null', 00H
	ORG $+3
$SG4294895279 DB 'renderingEngine_filterPlane', 00H
$SG4294895276 DB 'filter-null', 00H
$SG4294895277 DB 'shadowMapGenerator', 00H
	ORG $+1
$SG4294895274 DB 'filter-fxaa', 00H
$SG4294895275 DB 'filter-gausBlur7x1', 00H
	ORG $+1
$SG4294895272 DB 'diffuse', 00H
$SG4294895273 DB 'forward-ambient', 00H
$SG4294895270 DB 'dispMap', 00H
$SG4294895271 DB 'normalMap', 00H
	ORG $+2
$SG4294895268 DB 'filterTexture', 00H
	ORG $+2
$SG4294895269 DB 'shadowMap', 00H
	ORG $+2
$SG4294895266 DB 'fxaaSpanMax', 00H
$SG4294895267 DB 'ambient', 00H
$SG4294895264 DB 'fxaaReduceMul', 00H
	ORG $+2
$SG4294895265 DB 'fxaaReduceMin', 00H
	ORG $+2
$SG4294895262 DB 'displayTexture', 00H
	ORG $+1
$SG4294895263 DB 'fxaaAspectDistortion', 00H
	ORG $+3
$SG4294895260 DB 'blurScale', 00H
	ORG $+2
$SG4294895261 DB 'blurScale', 00H
	ORG $+2
$SG4294895258 DB 'filterTexture', 00H
	ORG $+2
$SG4294895259 DB 'tempTarget', 00H
	ORG $+1
$SG4294895256 DB 'filterTexture', 00H
	ORG $+2
$SG4294895257 DB 'filterTexture', 00H
	ORG $+2
$SG4294895255 DB 'displayTexture', 00H
	ORG $+1
$SG4294895252 DB 'shadowMap', 00H
	ORG $+2
$SG4294895254 DB 's', 00H, 'r', 00H, 'c', 00H, '\', 00H, 'r', 00H, 'e', 00H
	DB	'n', 00H, 'd', 00H, 'e', 00H, 'r', 00H, 'i', 00H, 'n', 00H, 'g'
	DB	00H, '\', 00H, 'r', 00H, 'e', 00H, 'n', 00H, 'd', 00H, 'e', 00H
	DB	'r', 00H, 'i', 00H, 'n', 00H, 'g', 00H, 'E', 00H, 'n', 00H, 'g'
	DB	00H, 'i', 00H, 'n', 00H, 'e', 00H, '.', 00H, 'c', 00H, 'p', 00H
	DB	'p', 00H, 00H, 00H
$SG4294895251 DB 'shadowVarianceMin', 00H
	ORG $+2
$SG4294895253 DB 's', 00H, 'h', 00H, 'a', 00H, 'd', 00H, 'o', 00H, 'w', 00H
	DB	'M', 00H, 'a', 00H, 'p', 00H, 'I', 00H, 'n', 00H, 'd', 00H, 'e'
	DB	00H, 'x', 00H, ' ', 00H, '>', 00H, '=', 00H, ' ', 00H, '0', 00H
	DB	' ', 00H, '&', 00H, '&', 00H, ' ', 00H, 's', 00H, 'h', 00H, 'a'
	DB	00H, 'd', 00H, 'o', 00H, 'w', 00H, 'M', 00H, 'a', 00H, 'p', 00H
	DB	'I', 00H, 'n', 00H, 'd', 00H, 'e', 00H, 'x', 00H, ' ', 00H, '<'
	DB	00H, ' ', 00H, 'N', 00H, 'U', 00H, 'M', 00H, '_', 00H, 'S', 00H
	DB	'H', 00H, 'A', 00H, 'D', 00H, 'O', 00H, 'W', 00H, '_', 00H, 'M'
	DB	00H, 'A', 00H, 'P', 00H, 'S', 00H, 00H, 00H
$SG4294895250 DB 'shadowLightBleedingReduction', 00H
	ORG $+3
$SG4294895248 DB 'shadowLightBleedingReduction', 00H
	ORG $+3
$SG4294895249 DB 'shadowVarianceMin', 00H
	ORG $+2
$SG4294895246 DB 'displayTexture', 00H
	ORG $+1
$SG4294895247 DB 'displayTexture', 00H
	ORG $+1
$SG4294895244 DB 'fxaaAspectDistortion', 00H
	ORG $+3
$SG4294895245 DB 'displayTexture', 00H
	ORG $+1
$SG4294895242 DB 'displayTexture', 00H
	ORG $+1
$SG4294895243 DB 'displayTexture', 00H
	ORG $+1
$SG4294895240 DB 'displayTexture', 00H
	ORG $+1
$SG4294895241 DB 'inverseFilterTextureSize', 00H
	ORG $+3
$SG4294895238 DB 'null', 00H
	ORG $+3
$SG4294895239 DB 'displayTexture', 00H
	ORG $+1
$SG4294895198 DB 'Assert e:\fusion3d_work\lib\bullet3\include\BulletColli'
	DB	'sion/BroadphaseCollision/btAxisSweep3.h:%u (!pair.m_algorithm'
	DB	')', 0aH, 00H
	ORG $+1
$SG4294895199 DB 'Assert e:\fusion3d_work\lib\bullet3\include\BulletColli'
	DB	'sion/BroadphaseCollision/btAxisSweep3.h:%u (!pair.m_algorithm'
	DB	')', 0aH, 00H
	ORG $+1
$SG4294895194 DB 'Assert e:\fusion3d_work\lib\bullet3\include\BulletColli'
	DB	'sion/BroadphaseCollision/btAxisSweep3.h:%u (handle > 0 && han'
	DB	'dle < m_maxHandles)', 0aH, 00H
	ORG $+3
?btInfinityMask@@3HA DD 07f800000H			; btInfinityMask
$SG4294895195 DB 'Assert e:\fusion3d_work\lib\bullet3\include\BulletColli'
	DB	'sion/BroadphaseCollision/btAxisSweep3.h:%u (m_firstFreeHandle'
	DB	')', 0aH, 00H
	ORG $+1
$SG4294895192 DB 'Assert e:\fusion3d_work\lib\bullet3\include\BulletColli'
	DB	'sion/BroadphaseCollision/btAxisSweep3.h:%u (handle > 0 && han'
	DB	'dle < m_maxHandles)', 0aH, 00H
	ORG $+3
?btNanMask@@3HA DD 07f800001H				; btNanMask
$SG4294895193 DB 'Assert e:\fusion3d_work\lib\bullet3\include\BulletColli'
	DB	'sion/BroadphaseCollision/btAxisSweep3.h:%u (m_firstFreeHandle'
	DB	')', 0aH, 00H
PUBLIC	??$?0V?$tuple@ABV?$basic_string@DU?$char_traits@D@std@@V?$allocator@D@2@@std@@@std@@V?$tuple@$$V@1@$0A@$$Z$S@?$pair@$$CBV?$basic_string@DU?$char_traits@D@std@@V?$allocator@D@2@@std@@VVector3f@@@std@@QAE@AAV?$tuple@ABV?$basic_string@DU?$char_traits@D@std@@V?$allocator@D@2@@std@@@1@AAV?$tuple@$$V@1@U?$integer_sequence@I$0A@@1@U?$integer_sequence@I$S@1@@Z ; std::pair<std::basic_string<char,std::char_traits<char>,std::allocator<char> > const ,Vector3f>::pair<std::basic_string<char,std::char_traits<char>,std::allocator<char> > const ,Vector3f><std::tuple<std::basic_string<char,std::char_traits<char>,std::allocator<char> > const &>,std::tuple<>,0>
PUBLIC	??$?0V?$tuple@ABV?$basic_string@DU?$char_traits@D@std@@V?$allocator@D@2@@std@@@std@@V?$tuple@$$V@1@$0A@$$Z$S@?$pair@$$CBV?$basic_string@DU?$char_traits@D@std@@V?$allocator@D@2@@std@@I@std@@QAE@AAV?$tuple@ABV?$basic_string@DU?$char_traits@D@std@@V?$allocator@D@2@@std@@@1@AAV?$tuple@$$V@1@U?$integer_sequence@I$0A@@1@U?$integer_sequence@I$S@1@@Z ; std::pair<std::basic_string<char,std::char_traits<char>,std::allocator<char> > const ,unsigned int>::pair<std::basic_string<char,std::char_traits<char>,std::allocator<char> > const ,unsigned int><std::tuple<std::basic_string<char,std::char_traits<char>,std::allocator<char> > const &>,std::tuple<>,0>
PUBLIC	??$?0ABV?$basic_string@DU?$char_traits@D@std@@V?$allocator@D@2@@std@@$$Z$$V@?$pair@$$CBV?$basic_string@DU?$char_traits@D@std@@V?$allocator@D@2@@std@@VVector3f@@@std@@QAE@Upiecewise_construct_t@1@V?$tuple@ABV?$basic_string@DU?$char_traits@D@std@@V?$allocator@D@2@@std@@@1@V?$tuple@$$V@1@@Z ; std::pair<std::basic_string<char,std::char_traits<char>,std::allocator<char> > const ,Vector3f>::pair<std::basic_string<char,std::char_traits<char>,std::allocator<char> > const ,Vector3f><std::basic_string<char,std::char_traits<char>,std::allocator<char> > const &>
PUBLIC	??$?0ABV?$basic_string@DU?$char_traits@D@std@@V?$allocator@D@2@@std@@$$Z$$V@?$pair@$$CBV?$basic_string@DU?$char_traits@D@std@@V?$allocator@D@2@@std@@I@std@@QAE@Upiecewise_construct_t@1@V?$tuple@ABV?$basic_string@DU?$char_traits@D@std@@V?$allocator@D@2@@std@@@1@V?$tuple@$$V@1@@Z ; std::pair<std::basic_string<char,std::char_traits<char>,std::allocator<char> > const ,unsigned int>::pair<std::basic_string<char,std::char_traits<char>,std::allocator<char> > const ,unsigned int><std::basic_string<char,std::char_traits<char>,std::allocator<char> > const &>
PUBLIC	??$forward@AAV?$_Tree_iterator@V?$_Tree_val@U?$_Tree_simple_types@U?$pair@$$CBV?$basic_string@DU?$char_traits@D@std@@V?$allocator@D@2@@std@@VVector3f@@@std@@@std@@@std@@@std@@@std@@YAAAV?$_Tree_iterator@V?$_Tree_val@U?$_Tree_simple_types@U?$pair@$$CBV?$basic_string@DU?$char_traits@D@std@@V?$allocator@D@2@@std@@VVector3f@@@std@@@std@@@std@@@0@AAV10@@Z ; std::forward<std::_Tree_iterator<std::_Tree_val<std::_Tree_simple_types<std::pair<std::basic_string<char,std::char_traits<char>,std::allocator<char> > const ,Vector3f> > > > &>
PUBLIC	??$forward@V?$_Tree_iterator@V?$_Tree_val@U?$_Tree_simple_types@U?$pair@$$CBV?$basic_string@DU?$char_traits@D@std@@V?$allocator@D@2@@std@@VVector3f@@@std@@@std@@@std@@@std@@@std@@YA$$QAV?$_Tree_iterator@V?$_Tree_val@U?$_Tree_simple_types@U?$pair@$$CBV?$basic_string@DU?$char_traits@D@std@@V?$allocator@D@2@@std@@VVector3f@@@std@@@std@@@std@@@0@AAV10@@Z ; std::forward<std::_Tree_iterator<std::_Tree_val<std::_Tree_simple_types<std::pair<std::basic_string<char,std::char_traits<char>,std::allocator<char> > const ,Vector3f> > > > >
PUBLIC	??$construct@U?$pair@$$CBV?$basic_string@DU?$char_traits@D@std@@V?$allocator@D@2@@std@@VVector3f@@@std@@ABUpiecewise_construct_t@2@V?$tuple@ABV?$basic_string@DU?$char_traits@D@std@@V?$allocator@D@2@@std@@@2@V?$tuple@$$V@2@@?$allocator@U?$_Tree_node@U?$pair@$$CBV?$basic_string@DU?$char_traits@D@std@@V?$allocator@D@2@@std@@VVector3f@@@std@@PAX@std@@@std@@QAEXPAU?$pair@$$CBV?$basic_string@DU?$char_traits@D@std@@V?$allocator@D@2@@std@@VVector3f@@@1@ABUpiecewise_construct_t@1@$$QAV?$tuple@ABV?$basic_string@DU?$char_traits@D@std@@V?$allocator@D@2@@std@@@1@$$QAV?$tuple@$$V@1@@Z ; std::allocator<std::_Tree_node<std::pair<std::basic_string<char,std::char_traits<char>,std::allocator<char> > const ,Vector3f>,void *> >::construct<std::pair<std::basic_string<char,std::char_traits<char>,std::allocator<char> > const ,Vector3f>,std::piecewise_construct_t const &,std::tuple<std::basic_string<char,std::char_traits<char>,std::allocator<char> > const &>,std::tuple<> >
PUBLIC	??$construct@U?$pair@$$CBV?$basic_string@DU?$char_traits@D@std@@V?$allocator@D@2@@std@@I@std@@ABUpiecewise_construct_t@2@V?$tuple@ABV?$basic_string@DU?$char_traits@D@std@@V?$allocator@D@2@@std@@@2@V?$tuple@$$V@2@@?$allocator@U?$_Tree_node@U?$pair@$$CBV?$basic_string@DU?$char_traits@D@std@@V?$allocator@D@2@@std@@I@std@@PAX@std@@@std@@QAEXPAU?$pair@$$CBV?$basic_string@DU?$char_traits@D@std@@V?$allocator@D@2@@std@@I@1@ABUpiecewise_construct_t@1@$$QAV?$tuple@ABV?$basic_string@DU?$char_traits@D@std@@V?$allocator@D@2@@std@@@1@$$QAV?$tuple@$$V@1@@Z ; std::allocator<std::_Tree_node<std::pair<std::basic_string<char,std::char_traits<char>,std::allocator<char> > const ,unsigned int>,void *> >::construct<std::pair<std::basic_string<char,std::char_traits<char>,std::allocator<char> > const ,unsigned int>,std::piecewise_construct_t const &,std::tuple<std::basic_string<char,std::char_traits<char>,std::allocator<char> > const &>,std::tuple<> >
PUBLIC	??0?$_Tree_iterator@V?$_Tree_val@U?$_Tree_simple_types@U?$pair@$$CBV?$basic_string@DU?$char_traits@D@std@@V?$allocator@D@2@@std@@VVector3f@@@std@@@std@@@std@@@std@@QAE@ABV01@@Z ; std::_Tree_iterator<std::_Tree_val<std::_Tree_simple_types<std::pair<std::basic_string<char,std::char_traits<char>,std::allocator<char> > const ,Vector3f> > > >::_Tree_iterator<std::_Tree_val<std::_Tree_simple_types<std::pair<std::basic_string<char,std::char_traits<char>,std::allocator<char> > const ,Vector3f> > > >
PUBLIC	??$?0AAV?$_Tree_iterator@V?$_Tree_val@U?$_Tree_simple_types@U?$pair@$$CBV?$basic_string@DU?$char_traits@D@std@@V?$allocator@D@2@@std@@VVector3f@@@std@@@std@@@std@@@std@@_NX@?$pair@V?$_Tree_iterator@V?$_Tree_val@U?$_Tree_simple_types@U?$pair@$$CBV?$basic_string@DU?$char_traits@D@std@@V?$allocator@D@2@@std@@VVector3f@@@std@@@std@@@std@@@std@@_N@std@@QAE@AAV?$_Tree_iterator@V?$_Tree_val@U?$_Tree_simple_types@U?$pair@$$CBV?$basic_string@DU?$char_traits@D@std@@V?$allocator@D@2@@std@@VVector3f@@@std@@@std@@@std@@@1@$$QA_N@Z ; std::pair<std::_Tree_iterator<std::_Tree_val<std::_Tree_simple_types<std::pair<std::basic_string<char,std::char_traits<char>,std::allocator<char> > const ,Vector3f> > > >,bool>::pair<std::_Tree_iterator<std::_Tree_val<std::_Tree_simple_types<std::pair<std::basic_string<char,std::char_traits<char>,std::allocator<char> > const ,Vector3f> > > >,bool><std::_Tree_iterator<std::_Tree_val<std::_Tree_simple_types<std::pair<std::basic_string<char,std::char_traits<char>,std::allocator<char> > const ,Vector3f> > > > &,bool,void>
PUBLIC	??$?0V?$_Tree_iterator@V?$_Tree_val@U?$_Tree_simple_types@U?$pair@$$CBV?$basic_string@DU?$char_traits@D@std@@V?$allocator@D@2@@std@@VVector3f@@@std@@@std@@@std@@@std@@_NX@?$pair@V?$_Tree_iterator@V?$_Tree_val@U?$_Tree_simple_types@U?$pair@$$CBV?$basic_string@DU?$char_traits@D@std@@V?$allocator@D@2@@std@@VVector3f@@@std@@@std@@@std@@@std@@_N@std@@QAE@$$QAV?$_Tree_iterator@V?$_Tree_val@U?$_Tree_simple_types@U?$pair@$$CBV?$basic_string@DU?$char_traits@D@std@@V?$allocator@D@2@@std@@VVector3f@@@std@@@std@@@std@@@1@$$QA_N@Z ; std::pair<std::_Tree_iterator<std::_Tree_val<std::_Tree_simple_types<std::pair<std::basic_string<char,std::char_traits<char>,std::allocator<char> > const ,Vector3f> > > >,bool>::pair<std::_Tree_iterator<std::_Tree_val<std::_Tree_simple_types<std::pair<std::basic_string<char,std::char_traits<char>,std::allocator<char> > const ,Vector3f> > > >,bool><std::_Tree_iterator<std::_Tree_val<std::_Tree_simple_types<std::pair<std::basic_string<char,std::char_traits<char>,std::allocator<char> > const ,Vector3f> > > >,bool,void>
PUBLIC	??$_Buynode_if_nil@AAU?$pair@$$CBV?$basic_string@DU?$char_traits@D@std@@V?$allocator@D@2@@std@@VVector3f@@@std@@@?$_Tree@V?$_Tmap_traits@V?$basic_string@DU?$char_traits@D@std@@V?$allocator@D@2@@std@@VVector3f@@U?$less@V?$basic_string@DU?$char_traits@D@std@@V?$allocator@D@2@@std@@@2@V?$allocator@U?$pair@$$CBV?$basic_string@DU?$char_traits@D@std@@V?$allocator@D@2@@std@@VVector3f@@@std@@@2@$0A@@std@@@std@@IAEPAU?$_Tree_node@U?$pair@$$CBV?$basic_string@DU?$char_traits@D@std@@V?$allocator@D@2@@std@@VVector3f@@@std@@PAX@1@PAU21@AAU?$pair@$$CBV?$basic_string@DU?$char_traits@D@std@@V?$allocator@D@2@@std@@VVector3f@@@1@@Z ; std::_Tree<std::_Tmap_traits<std::basic_string<char,std::char_traits<char>,std::allocator<char> >,Vector3f,std::less<std::basic_string<char,std::char_traits<char>,std::allocator<char> > >,std::allocator<std::pair<std::basic_string<char,std::char_traits<char>,std::allocator<char> > const ,Vector3f> >,0> >::_Buynode_if_nil<std::pair<std::basic_string<char,std::char_traits<char>,std::allocator<char> > const ,Vector3f> &>
PUBLIC	??$construct@U?$pair@$$CBV?$basic_string@DU?$char_traits@D@std@@V?$allocator@D@2@@std@@VVector3f@@@std@@ABUpiecewise_construct_t@2@V?$tuple@ABV?$basic_string@DU?$char_traits@D@std@@V?$allocator@D@2@@std@@@2@V?$tuple@$$V@2@@?$allocator_traits@V?$allocator@U?$_Tree_node@U?$pair@$$CBV?$basic_string@DU?$char_traits@D@std@@V?$allocator@D@2@@std@@VVector3f@@@std@@PAX@std@@@std@@@std@@SAXAAV?$allocator@U?$_Tree_node@U?$pair@$$CBV?$basic_string@DU?$char_traits@D@std@@V?$allocator@D@2@@std@@VVector3f@@@std@@PAX@std@@@1@PAU?$pair@$$CBV?$basic_string@DU?$char_traits@D@std@@V?$allocator@D@2@@std@@VVector3f@@@1@ABUpiecewise_construct_t@1@$$QAV?$tuple@ABV?$basic_string@DU?$char_traits@D@std@@V?$allocator@D@2@@std@@@1@$$QAV?$tuple@$$V@1@@Z ; std::allocator_traits<std::allocator<std::_Tree_node<std::pair<std::basic_string<char,std::char_traits<char>,std::allocator<char> > const ,Vector3f>,void *> > >::construct<std::pair<std::basic_string<char,std::char_traits<char>,std::allocator<char> > const ,Vector3f>,std::piecewise_construct_t const &,std::tuple<std::basic_string<char,std::char_traits<char>,std::allocator<char> > const &>,std::tuple<> >
PUBLIC	??$construct@U?$pair@$$CBV?$basic_string@DU?$char_traits@D@std@@V?$allocator@D@2@@std@@I@std@@ABUpiecewise_construct_t@2@V?$tuple@ABV?$basic_string@DU?$char_traits@D@std@@V?$allocator@D@2@@std@@@2@V?$tuple@$$V@2@@?$allocator_traits@V?$allocator@U?$_Tree_node@U?$pair@$$CBV?$basic_string@DU?$char_traits@D@std@@V?$allocator@D@2@@std@@I@std@@PAX@std@@@std@@@std@@SAXAAV?$allocator@U?$_Tree_node@U?$pair@$$CBV?$basic_string@DU?$char_traits@D@std@@V?$allocator@D@2@@std@@I@std@@PAX@std@@@1@PAU?$pair@$$CBV?$basic_string@DU?$char_traits@D@std@@V?$allocator@D@2@@std@@I@1@ABUpiecewise_construct_t@1@$$QAV?$tuple@ABV?$basic_string@DU?$char_traits@D@std@@V?$allocator@D@2@@std@@@1@$$QAV?$tuple@$$V@1@@Z ; std::allocator_traits<std::allocator<std::_Tree_node<std::pair<std::basic_string<char,std::char_traits<char>,std::allocator<char> > const ,unsigned int>,void *> > >::construct<std::pair<std::basic_string<char,std::char_traits<char>,std::allocator<char> > const ,unsigned int>,std::piecewise_construct_t const &,std::tuple<std::basic_string<char,std::char_traits<char>,std::allocator<char> > const &>,std::tuple<> >
PUBLIC	?max_size@?$allocator@U?$_Tree_node@U?$pair@$$CBV?$basic_string@DU?$char_traits@D@std@@V?$allocator@D@2@@std@@VVector3f@@@std@@PAX@std@@@std@@QBEIXZ ; std::allocator<std::_Tree_node<std::pair<std::basic_string<char,std::char_traits<char>,std::allocator<char> > const ,Vector3f>,void *> >::max_size
PUBLIC	?max_size@?$allocator_traits@V?$allocator@U?$_Tree_node@U?$pair@$$CBV?$basic_string@DU?$char_traits@D@std@@V?$allocator@D@2@@std@@VVector3f@@@std@@PAX@std@@@std@@@std@@SAIABV?$allocator@U?$_Tree_node@U?$pair@$$CBV?$basic_string@DU?$char_traits@D@std@@V?$allocator@D@2@@std@@VVector3f@@@std@@PAX@std@@@2@@Z ; std::allocator_traits<std::allocator<std::_Tree_node<std::pair<std::basic_string<char,std::char_traits<char>,std::allocator<char> > const ,Vector3f>,void *> > >::max_size
PUBLIC	?_Get_first@?$_Compressed_pair@U?$_Wrap_alloc@V?$allocator@U?$_Tree_node@U?$pair@$$CBV?$basic_string@DU?$char_traits@D@std@@V?$allocator@D@2@@std@@VVector3f@@@std@@PAX@std@@@std@@@std@@V?$_Tree_val@U?$_Tree_simple_types@U?$pair@$$CBV?$basic_string@DU?$char_traits@D@std@@V?$allocator@D@2@@std@@VVector3f@@@std@@@std@@@2@$00@std@@QBEABU?$_Wrap_alloc@V?$allocator@U?$_Tree_node@U?$pair@$$CBV?$basic_string@DU?$char_traits@D@std@@V?$allocator@D@2@@std@@VVector3f@@@std@@PAX@std@@@std@@@2@XZ ; std::_Compressed_pair<std::_Wrap_alloc<std::allocator<std::_Tree_node<std::pair<std::basic_string<char,std::char_traits<char>,std::allocator<char> > const ,Vector3f>,void *> > >,std::_Tree_val<std::_Tree_simple_types<std::pair<std::basic_string<char,std::char_traits<char>,std::allocator<char> > const ,Vector3f> > >,1>::_Get_first
PUBLIC	?_Getal@?$_Tree_comp_alloc@V?$_Tmap_traits@V?$basic_string@DU?$char_traits@D@std@@V?$allocator@D@2@@std@@VVector3f@@U?$less@V?$basic_string@DU?$char_traits@D@std@@V?$allocator@D@2@@std@@@2@V?$allocator@U?$pair@$$CBV?$basic_string@DU?$char_traits@D@std@@V?$allocator@D@2@@std@@VVector3f@@@std@@@2@$0A@@std@@@std@@QBEABU?$_Wrap_alloc@V?$allocator@U?$_Tree_node@U?$pair@$$CBV?$basic_string@DU?$char_traits@D@std@@V?$allocator@D@2@@std@@VVector3f@@@std@@PAX@std@@@std@@@2@XZ ; std::_Tree_comp_alloc<std::_Tmap_traits<std::basic_string<char,std::char_traits<char>,std::allocator<char> >,Vector3f,std::less<std::basic_string<char,std::char_traits<char>,std::allocator<char> > >,std::allocator<std::pair<std::basic_string<char,std::char_traits<char>,std::allocator<char> > const ,Vector3f> >,0> >::_Getal
PUBLIC	?max_size@?$_Wrap_alloc@V?$allocator@U?$_Tree_node@U?$pair@$$CBV?$basic_string@DU?$char_traits@D@std@@V?$allocator@D@2@@std@@VVector3f@@@std@@PAX@std@@@std@@@std@@QBEIU_Nil@2@@Z ; std::_Wrap_alloc<std::allocator<std::_Tree_node<std::pair<std::basic_string<char,std::char_traits<char>,std::allocator<char> > const ,Vector3f>,void *> > >::max_size
PUBLIC	?max_size@?$_Tree@V?$_Tmap_traits@V?$basic_string@DU?$char_traits@D@std@@V?$allocator@D@2@@std@@VVector3f@@U?$less@V?$basic_string@DU?$char_traits@D@std@@V?$allocator@D@2@@std@@@2@V?$allocator@U?$pair@$$CBV?$basic_string@DU?$char_traits@D@std@@V?$allocator@D@2@@std@@VVector3f@@@std@@@2@$0A@@std@@@std@@QBEIXZ ; std::_Tree<std::_Tmap_traits<std::basic_string<char,std::char_traits<char>,std::allocator<char> >,Vector3f,std::less<std::basic_string<char,std::char_traits<char>,std::allocator<char> > >,std::allocator<std::pair<std::basic_string<char,std::char_traits<char>,std::allocator<char> > const ,Vector3f> >,0> >::max_size
PUBLIC	??F?$_Tree_iterator@V?$_Tree_val@U?$_Tree_simple_types@U?$pair@$$CBV?$basic_string@DU?$char_traits@D@std@@V?$allocator@D@2@@std@@VVector3f@@@std@@@std@@@std@@@std@@QAEAAV01@XZ ; std::_Tree_iterator<std::_Tree_val<std::_Tree_simple_types<std::pair<std::basic_string<char,std::char_traits<char>,std::allocator<char> > const ,Vector3f> > > >::operator--
PUBLIC	??$_Insert_nohint@AAU?$pair@$$CBV?$basic_string@DU?$char_traits@D@std@@V?$allocator@D@2@@std@@VVector3f@@@std@@PAU?$_Tree_node@U?$pair@$$CBV?$basic_string@DU?$char_traits@D@std@@V?$allocator@D@2@@std@@VVector3f@@@std@@PAX@2@@?$_Tree@V?$_Tmap_traits@V?$basic_string@DU?$char_traits@D@std@@V?$allocator@D@2@@std@@VVector3f@@U?$less@V?$basic_string@DU?$char_traits@D@std@@V?$allocator@D@2@@std@@@2@V?$allocator@U?$pair@$$CBV?$basic_string@DU?$char_traits@D@std@@V?$allocator@D@2@@std@@VVector3f@@@std@@@2@$0A@@std@@@std@@IAE?AU?$pair@V?$_Tree_iterator@V?$_Tree_val@U?$_Tree_simple_types@U?$pair@$$CBV?$basic_string@DU?$char_traits@D@std@@V?$allocator@D@2@@std@@VVector3f@@@std@@@std@@@std@@@std@@_N@1@_NAAU?$pair@$$CBV?$basic_string@DU?$char_traits@D@std@@V?$allocator@D@2@@std@@VVector3f@@@1@PAU?$_Tree_node@U?$pair@$$CBV?$basic_string@DU?$char_traits@D@std@@V?$allocator@D@2@@std@@VVector3f@@@std@@PAX@1@@Z ; std::_Tree<std::_Tmap_traits<std::basic_string<char,std::char_traits<char>,std::allocator<char> >,Vector3f,std::less<std::basic_string<char,std::char_traits<char>,std::allocator<char> > >,std::allocator<std::pair<std::basic_string<char,std::char_traits<char>,std::allocator<char> > const ,Vector3f> >,0> >::_Insert_nohint<std::pair<std::basic_string<char,std::char_traits<char>,std::allocator<char> > const ,Vector3f> &,std::_Tree_node<std::pair<std::basic_string<char,std::char_traits<char>,std::allocator<char> > const ,Vector3f>,void *> *>
PUBLIC	??$_Insert_at@AAU?$pair@$$CBV?$basic_string@DU?$char_traits@D@std@@V?$allocator@D@2@@std@@VVector3f@@@std@@PAU?$_Tree_node@U?$pair@$$CBV?$basic_string@DU?$char_traits@D@std@@V?$allocator@D@2@@std@@VVector3f@@@std@@PAX@2@@?$_Tree@V?$_Tmap_traits@V?$basic_string@DU?$char_traits@D@std@@V?$allocator@D@2@@std@@VVector3f@@U?$less@V?$basic_string@DU?$char_traits@D@std@@V?$allocator@D@2@@std@@@2@V?$allocator@U?$pair@$$CBV?$basic_string@DU?$char_traits@D@std@@V?$allocator@D@2@@std@@VVector3f@@@std@@@2@$0A@@std@@@std@@IAE?AV?$_Tree_iterator@V?$_Tree_val@U?$_Tree_simple_types@U?$pair@$$CBV?$basic_string@DU?$char_traits@D@std@@V?$allocator@D@2@@std@@VVector3f@@@std@@@std@@@std@@@1@_NPAU?$_Tree_node@U?$pair@$$CBV?$basic_string@DU?$char_traits@D@std@@V?$allocator@D@2@@std@@VVector3f@@@std@@PAX@1@AAU?$pair@$$CBV?$basic_string@DU?$char_traits@D@std@@V?$allocator@D@2@@std@@VVector3f@@@1@1@Z ; std::_Tree<std::_Tmap_traits<std::basic_string<char,std::char_traits<char>,std::allocator<char> >,Vector3f,std::less<std::basic_string<char,std::char_traits<char>,std::allocator<char> > >,std::allocator<std::pair<std::basic_string<char,std::char_traits<char>,std::allocator<char> > const ,Vector3f> >,0> >::_Insert_at<std::pair<std::basic_string<char,std::char_traits<char>,std::allocator<char> > const ,Vector3f> &,std::_Tree_node<std::pair<std::basic_string<char,std::char_traits<char>,std::allocator<char> > const ,Vector3f>,void *> *>
PUBLIC	??$forward@AAU?$pair@$$CBV?$basic_string@DU?$char_traits@D@std@@V?$allocator@D@2@@std@@VVector3f@@@std@@@std@@YAAAU?$pair@$$CBV?$basic_string@DU?$char_traits@D@std@@V?$allocator@D@2@@std@@VVector3f@@@0@AAU10@@Z ; std::forward<std::pair<std::basic_string<char,std::char_traits<char>,std::allocator<char> > const ,Vector3f> &>
PUBLIC	??$construct@U?$pair@$$CBV?$basic_string@DU?$char_traits@D@std@@V?$allocator@D@2@@std@@VVector3f@@@std@@ABUpiecewise_construct_t@2@V?$tuple@ABV?$basic_string@DU?$char_traits@D@std@@V?$allocator@D@2@@std@@@2@V?$tuple@$$V@2@@?$_Wrap_alloc@V?$allocator@U?$_Tree_node@U?$pair@$$CBV?$basic_string@DU?$char_traits@D@std@@V?$allocator@D@2@@std@@VVector3f@@@std@@PAX@std@@@std@@@std@@QAEXPAU?$pair@$$CBV?$basic_string@DU?$char_traits@D@std@@V?$allocator@D@2@@std@@VVector3f@@@1@ABUpiecewise_construct_t@1@$$QAV?$tuple@ABV?$basic_string@DU?$char_traits@D@std@@V?$allocator@D@2@@std@@@1@$$QAV?$tuple@$$V@1@@Z ; std::_Wrap_alloc<std::allocator<std::_Tree_node<std::pair<std::basic_string<char,std::char_traits<char>,std::allocator<char> > const ,Vector3f>,void *> > >::construct<std::pair<std::basic_string<char,std::char_traits<char>,std::allocator<char> > const ,Vector3f>,std::piecewise_construct_t const &,std::tuple<std::basic_string<char,std::char_traits<char>,std::allocator<char> > const &>,std::tuple<> >
PUBLIC	??$construct@U?$pair@$$CBV?$basic_string@DU?$char_traits@D@std@@V?$allocator@D@2@@std@@I@std@@ABUpiecewise_construct_t@2@V?$tuple@ABV?$basic_string@DU?$char_traits@D@std@@V?$allocator@D@2@@std@@@2@V?$tuple@$$V@2@@?$_Wrap_alloc@V?$allocator@U?$_Tree_node@U?$pair@$$CBV?$basic_string@DU?$char_traits@D@std@@V?$allocator@D@2@@std@@I@std@@PAX@std@@@std@@@std@@QAEXPAU?$pair@$$CBV?$basic_string@DU?$char_traits@D@std@@V?$allocator@D@2@@std@@I@1@ABUpiecewise_construct_t@1@$$QAV?$tuple@ABV?$basic_string@DU?$char_traits@D@std@@V?$allocator@D@2@@std@@@1@$$QAV?$tuple@$$V@1@@Z ; std::_Wrap_alloc<std::allocator<std::_Tree_node<std::pair<std::basic_string<char,std::char_traits<char>,std::allocator<char> > const ,unsigned int>,void *> > >::construct<std::pair<std::basic_string<char,std::char_traits<char>,std::allocator<char> > const ,unsigned int>,std::piecewise_construct_t const &,std::tuple<std::basic_string<char,std::char_traits<char>,std::allocator<char> > const &>,std::tuple<> >
PUBLIC	?_Mysize@?$_Tree_comp_alloc@V?$_Tmap_traits@V?$basic_string@DU?$char_traits@D@std@@V?$allocator@D@2@@std@@VVector3f@@U?$less@V?$basic_string@DU?$char_traits@D@std@@V?$allocator@D@2@@std@@@2@V?$allocator@U?$pair@$$CBV?$basic_string@DU?$char_traits@D@std@@V?$allocator@D@2@@std@@VVector3f@@@std@@@2@$0A@@std@@@std@@QBEABIXZ ; std::_Tree_comp_alloc<std::_Tmap_traits<std::basic_string<char,std::char_traits<char>,std::allocator<char> >,Vector3f,std::less<std::basic_string<char,std::char_traits<char>,std::allocator<char> > >,std::allocator<std::pair<std::basic_string<char,std::char_traits<char>,std::allocator<char> > const ,Vector3f> >,0> >::_Mysize
PUBLIC	?_Mysize@?$_Tree_comp_alloc@V?$_Tmap_traits@V?$basic_string@DU?$char_traits@D@std@@V?$allocator@D@2@@std@@IU?$less@V?$basic_string@DU?$char_traits@D@std@@V?$allocator@D@2@@std@@@2@V?$allocator@U?$pair@$$CBV?$basic_string@DU?$char_traits@D@std@@V?$allocator@D@2@@std@@I@std@@@2@$0A@@std@@@std@@QBEABIXZ ; std::_Tree_comp_alloc<std::_Tmap_traits<std::basic_string<char,std::char_traits<char>,std::allocator<char> >,unsigned int,std::less<std::basic_string<char,std::char_traits<char>,std::allocator<char> > >,std::allocator<std::pair<std::basic_string<char,std::char_traits<char>,std::allocator<char> > const ,unsigned int> >,0> >::_Mysize
PUBLIC	??0?$_Tree_unchecked_const_iterator@V?$_Tree_val@U?$_Tree_simple_types@U?$pair@$$CBV?$basic_string@DU?$char_traits@D@std@@V?$allocator@D@2@@std@@I@std@@@std@@@std@@U_Iterator_base12@2@@std@@QAE@XZ ; std::_Tree_unchecked_const_iterator<std::_Tree_val<std::_Tree_simple_types<std::pair<std::basic_string<char,std::char_traits<char>,std::allocator<char> > const ,unsigned int> > >,std::_Iterator_base12>::_Tree_unchecked_const_iterator<std::_Tree_val<std::_Tree_simple_types<std::pair<std::basic_string<char,std::char_traits<char>,std::allocator<char> > const ,unsigned int> > >,std::_Iterator_base12>
PUBLIC	??0?$_Tree_unchecked_const_iterator@V?$_Tree_val@U?$_Tree_simple_types@U?$pair@$$CBV?$basic_string@DU?$char_traits@D@std@@V?$allocator@D@2@@std@@VVector3f@@@std@@@std@@@std@@U_Iterator_base12@2@@std@@QAE@XZ ; std::_Tree_unchecked_const_iterator<std::_Tree_val<std::_Tree_simple_types<std::pair<std::basic_string<char,std::char_traits<char>,std::allocator<char> > const ,Vector3f> > >,std::_Iterator_base12>::_Tree_unchecked_const_iterator<std::_Tree_val<std::_Tree_simple_types<std::pair<std::basic_string<char,std::char_traits<char>,std::allocator<char> > const ,Vector3f> > >,std::_Iterator_base12>
PUBLIC	??F?$_Tree_unchecked_const_iterator@V?$_Tree_val@U?$_Tree_simple_types@U?$pair@$$CBV?$basic_string@DU?$char_traits@D@std@@V?$allocator@D@2@@std@@VVector3f@@@std@@@std@@@std@@U_Iterator_base12@2@@std@@QAEAAV01@XZ ; std::_Tree_unchecked_const_iterator<std::_Tree_val<std::_Tree_simple_types<std::pair<std::basic_string<char,std::char_traits<char>,std::allocator<char> > const ,Vector3f> > >,std::_Iterator_base12>::operator--
PUBLIC	?size@?$_Tree@V?$_Tmap_traits@V?$basic_string@DU?$char_traits@D@std@@V?$allocator@D@2@@std@@VVector3f@@U?$less@V?$basic_string@DU?$char_traits@D@std@@V?$allocator@D@2@@std@@@2@V?$allocator@U?$pair@$$CBV?$basic_string@DU?$char_traits@D@std@@V?$allocator@D@2@@std@@VVector3f@@@std@@@2@$0A@@std@@@std@@QBEIXZ ; std::_Tree<std::_Tmap_traits<std::basic_string<char,std::char_traits<char>,std::allocator<char> >,Vector3f,std::less<std::basic_string<char,std::char_traits<char>,std::allocator<char> > >,std::allocator<std::pair<std::basic_string<char,std::char_traits<char>,std::allocator<char> > const ,Vector3f> >,0> >::size
PUBLIC	?_Destroy_if_not_nil@?$_Tree@V?$_Tmap_traits@V?$basic_string@DU?$char_traits@D@std@@V?$allocator@D@2@@std@@VVector3f@@U?$less@V?$basic_string@DU?$char_traits@D@std@@V?$allocator@D@2@@std@@@2@V?$allocator@U?$pair@$$CBV?$basic_string@DU?$char_traits@D@std@@V?$allocator@D@2@@std@@VVector3f@@@std@@@2@$0A@@std@@@std@@IAEXPAU?$_Tree_node@U?$pair@$$CBV?$basic_string@DU?$char_traits@D@std@@V?$allocator@D@2@@std@@VVector3f@@@std@@PAX@2@@Z ; std::_Tree<std::_Tmap_traits<std::basic_string<char,std::char_traits<char>,std::allocator<char> >,Vector3f,std::less<std::basic_string<char,std::char_traits<char>,std::allocator<char> > >,std::allocator<std::pair<std::basic_string<char,std::char_traits<char>,std::allocator<char> > const ,Vector3f> >,0> >::_Destroy_if_not_nil
PUBLIC	?_Buynode0@?$_Tree_comp_alloc@V?$_Tmap_traits@V?$basic_string@DU?$char_traits@D@std@@V?$allocator@D@2@@std@@VVector3f@@U?$less@V?$basic_string@DU?$char_traits@D@std@@V?$allocator@D@2@@std@@@2@V?$allocator@U?$pair@$$CBV?$basic_string@DU?$char_traits@D@std@@V?$allocator@D@2@@std@@VVector3f@@@std@@@2@$0A@@std@@@std@@QAEPAU?$_Tree_node@U?$pair@$$CBV?$basic_string@DU?$char_traits@D@std@@V?$allocator@D@2@@std@@VVector3f@@@std@@PAX@2@XZ ; std::_Tree_comp_alloc<std::_Tmap_traits<std::basic_string<char,std::char_traits<char>,std::allocator<char> >,Vector3f,std::less<std::basic_string<char,std::char_traits<char>,std::allocator<char> > >,std::allocator<std::pair<std::basic_string<char,std::char_traits<char>,std::allocator<char> > const ,Vector3f> >,0> >::_Buynode0
PUBLIC	?_Freenode0@?$_Tree_comp_alloc@V?$_Tmap_traits@V?$basic_string@DU?$char_traits@D@std@@V?$allocator@D@2@@std@@VVector3f@@U?$less@V?$basic_string@DU?$char_traits@D@std@@V?$allocator@D@2@@std@@@2@V?$allocator@U?$pair@$$CBV?$basic_string@DU?$char_traits@D@std@@V?$allocator@D@2@@std@@VVector3f@@@std@@@2@$0A@@std@@@std@@QAEXPAU?$_Tree_node@U?$pair@$$CBV?$basic_string@DU?$char_traits@D@std@@V?$allocator@D@2@@std@@VVector3f@@@std@@PAX@2@@Z ; std::_Tree_comp_alloc<std::_Tmap_traits<std::basic_string<char,std::char_traits<char>,std::allocator<char> >,Vector3f,std::less<std::basic_string<char,std::char_traits<char>,std::allocator<char> > >,std::allocator<std::pair<std::basic_string<char,std::char_traits<char>,std::allocator<char> > const ,Vector3f> >,0> >::_Freenode0
PUBLIC	??0?$_Tree_const_iterator@V?$_Tree_val@U?$_Tree_simple_types@U?$pair@$$CBV?$basic_string@DU?$char_traits@D@std@@V?$allocator@D@2@@std@@VVector3f@@@std@@@std@@@std@@@std@@QAE@XZ ; std::_Tree_const_iterator<std::_Tree_val<std::_Tree_simple_types<std::pair<std::basic_string<char,std::char_traits<char>,std::allocator<char> > const ,Vector3f> > > >::_Tree_const_iterator<std::_Tree_val<std::_Tree_simple_types<std::pair<std::basic_string<char,std::char_traits<char>,std::allocator<char> > const ,Vector3f> > > >
PUBLIC	??F?$_Tree_const_iterator@V?$_Tree_val@U?$_Tree_simple_types@U?$pair@$$CBV?$basic_string@DU?$char_traits@D@std@@V?$allocator@D@2@@std@@VVector3f@@@std@@@std@@@std@@@std@@QAEAAV01@XZ ; std::_Tree_const_iterator<std::_Tree_val<std::_Tree_simple_types<std::pair<std::basic_string<char,std::char_traits<char>,std::allocator<char> > const ,Vector3f> > > >::operator--
PUBLIC	?size@?$_Tree@V?$_Tmap_traits@V?$basic_string@DU?$char_traits@D@std@@V?$allocator@D@2@@std@@IU?$less@V?$basic_string@DU?$char_traits@D@std@@V?$allocator@D@2@@std@@@2@V?$allocator@U?$pair@$$CBV?$basic_string@DU?$char_traits@D@std@@V?$allocator@D@2@@std@@I@std@@@2@$0A@@std@@@std@@QBEIXZ ; std::_Tree<std::_Tmap_traits<std::basic_string<char,std::char_traits<char>,std::allocator<char> >,unsigned int,std::less<std::basic_string<char,std::char_traits<char>,std::allocator<char> > >,std::allocator<std::pair<std::basic_string<char,std::char_traits<char>,std::allocator<char> > const ,unsigned int> >,0> >::size
PUBLIC	??0?$_Tree_const_iterator@V?$_Tree_val@U?$_Tree_simple_types@U?$pair@$$CBV?$basic_string@DU?$char_traits@D@std@@V?$allocator@D@2@@std@@I@std@@@std@@@std@@@std@@QAE@XZ ; std::_Tree_const_iterator<std::_Tree_val<std::_Tree_simple_types<std::pair<std::basic_string<char,std::char_traits<char>,std::allocator<char> > const ,unsigned int> > > >::_Tree_const_iterator<std::_Tree_val<std::_Tree_simple_types<std::pair<std::basic_string<char,std::char_traits<char>,std::allocator<char> > const ,unsigned int> > > >
PUBLIC	??4?$_Iterator012@Ubidirectional_iterator_tag@std@@U?$pair@$$CBV?$basic_string@DU?$char_traits@D@std@@V?$allocator@D@2@@std@@VVector3f@@@2@HPBU32@ABU32@U_Iterator_base12@2@@std@@QAEAAU01@ABU01@@Z ; std::_Iterator012<std::bidirectional_iterator_tag,std::pair<std::basic_string<char,std::char_traits<char>,std::allocator<char> > const ,Vector3f>,int,std::pair<std::basic_string<char,std::char_traits<char>,std::allocator<char> > const ,Vector3f> const *,std::pair<std::basic_string<char,std::char_traits<char>,std::allocator<char> > const ,Vector3f> const &,std::_Iterator_base12>::operator=
PUBLIC	??4?$_Iterator012@Ubidirectional_iterator_tag@std@@U?$pair@$$CBV?$basic_string@DU?$char_traits@D@std@@V?$allocator@D@2@@std@@I@2@HPBU32@ABU32@U_Iterator_base12@2@@std@@QAEAAU01@ABU01@@Z ; std::_Iterator012<std::bidirectional_iterator_tag,std::pair<std::basic_string<char,std::char_traits<char>,std::allocator<char> > const ,unsigned int>,int,std::pair<std::basic_string<char,std::char_traits<char>,std::allocator<char> > const ,unsigned int> const *,std::pair<std::basic_string<char,std::char_traits<char>,std::allocator<char> > const ,unsigned int> const &,std::_Iterator_base12>::operator=
PUBLIC	??4?$_Tree_unchecked_const_iterator@V?$_Tree_val@U?$_Tree_simple_types@U?$pair@$$CBV?$basic_string@DU?$char_traits@D@std@@V?$allocator@D@2@@std@@VVector3f@@@std@@@std@@@std@@U_Iterator_base12@2@@std@@QAEAAV01@ABV01@@Z ; std::_Tree_unchecked_const_iterator<std::_Tree_val<std::_Tree_simple_types<std::pair<std::basic_string<char,std::char_traits<char>,std::allocator<char> > const ,Vector3f> > >,std::_Iterator_base12>::operator=
PUBLIC	??4?$_Tree_unchecked_const_iterator@V?$_Tree_val@U?$_Tree_simple_types@U?$pair@$$CBV?$basic_string@DU?$char_traits@D@std@@V?$allocator@D@2@@std@@I@std@@@std@@@std@@U_Iterator_base12@2@@std@@QAEAAV01@ABV01@@Z ; std::_Tree_unchecked_const_iterator<std::_Tree_val<std::_Tree_simple_types<std::pair<std::basic_string<char,std::char_traits<char>,std::allocator<char> > const ,unsigned int> > >,std::_Iterator_base12>::operator=
PUBLIC	??0?$_Tree_iterator@V?$_Tree_val@U?$_Tree_simple_types@U?$pair@$$CBV?$basic_string@DU?$char_traits@D@std@@V?$allocator@D@2@@std@@VVector3f@@@std@@@std@@@std@@@std@@QAE@$$QAV01@@Z ; std::_Tree_iterator<std::_Tree_val<std::_Tree_simple_types<std::pair<std::basic_string<char,std::char_traits<char>,std::allocator<char> > const ,Vector3f> > > >::_Tree_iterator<std::_Tree_val<std::_Tree_simple_types<std::pair<std::basic_string<char,std::char_traits<char>,std::allocator<char> > const ,Vector3f> > > >
PUBLIC	??1?$pair@V?$_Tree_iterator@V?$_Tree_val@U?$_Tree_simple_types@U?$pair@$$CBV?$basic_string@DU?$char_traits@D@std@@V?$allocator@D@2@@std@@VVector3f@@@std@@@std@@@std@@@std@@_N@std@@QAE@XZ ; std::pair<std::_Tree_iterator<std::_Tree_val<std::_Tree_simple_types<std::pair<std::basic_string<char,std::char_traits<char>,std::allocator<char> > const ,Vector3f> > > >,bool>::~pair<std::_Tree_iterator<std::_Tree_val<std::_Tree_simple_types<std::pair<std::basic_string<char,std::char_traits<char>,std::allocator<char> > const ,Vector3f> > > >,bool>
PUBLIC	??4?$_Tree_const_iterator@V?$_Tree_val@U?$_Tree_simple_types@U?$pair@$$CBV?$basic_string@DU?$char_traits@D@std@@V?$allocator@D@2@@std@@VVector3f@@@std@@@std@@@std@@@std@@QAEAAV01@ABV01@@Z ; std::_Tree_const_iterator<std::_Tree_val<std::_Tree_simple_types<std::pair<std::basic_string<char,std::char_traits<char>,std::allocator<char> > const ,Vector3f> > > >::operator=
PUBLIC	??4?$_Tree_const_iterator@V?$_Tree_val@U?$_Tree_simple_types@U?$pair@$$CBV?$basic_string@DU?$char_traits@D@std@@V?$allocator@D@2@@std@@I@std@@@std@@@std@@@std@@QAEAAV01@ABV01@@Z ; std::_Tree_const_iterator<std::_Tree_val<std::_Tree_simple_types<std::pair<std::basic_string<char,std::char_traits<char>,std::allocator<char> > const ,unsigned int> > > >::operator=
PUBLIC	??$_Destroy_range@U?$_Wrap_alloc@V?$allocator@PAVBaseLight@@@std@@@std@@@std@@YAXPAPAVBaseLight@@0AAU?$_Wrap_alloc@V?$allocator@PAVBaseLight@@@std@@@0@U_Scalar_ptr_iterator_tag@0@@Z ; std::_Destroy_range<std::_Wrap_alloc<std::allocator<BaseLight *> > >
PUBLIC	??$_Ptr_cat@PAVBaseLight@@PAV1@@std@@YA?AU_Scalar_ptr_iterator_tag@0@PAPAVBaseLight@@0@Z ; std::_Ptr_cat<BaseLight *,BaseLight *>
PUBLIC	??$forward@ABV?$allocator@PAVBaseLight@@@std@@@std@@YAABV?$allocator@PAVBaseLight@@@0@ABV10@@Z ; std::forward<std::allocator<BaseLight *> const &>
PUBLIC	??$_Insert_hint@AAU?$pair@$$CBV?$basic_string@DU?$char_traits@D@std@@V?$allocator@D@2@@std@@VVector3f@@@std@@PAU?$_Tree_node@U?$pair@$$CBV?$basic_string@DU?$char_traits@D@std@@V?$allocator@D@2@@std@@VVector3f@@@std@@PAX@2@@?$_Tree@V?$_Tmap_traits@V?$basic_string@DU?$char_traits@D@std@@V?$allocator@D@2@@std@@VVector3f@@U?$less@V?$basic_string@DU?$char_traits@D@std@@V?$allocator@D@2@@std@@@2@V?$allocator@U?$pair@$$CBV?$basic_string@DU?$char_traits@D@std@@V?$allocator@D@2@@std@@VVector3f@@@std@@@2@$0A@@std@@@std@@IAE?AV?$_Tree_iterator@V?$_Tree_val@U?$_Tree_simple_types@U?$pair@$$CBV?$basic_string@DU?$char_traits@D@std@@V?$allocator@D@2@@std@@VVector3f@@@std@@@std@@@std@@@1@V?$_Tree_const_iterator@V?$_Tree_val@U?$_Tree_simple_types@U?$pair@$$CBV?$basic_string@DU?$char_traits@D@std@@V?$allocator@D@2@@std@@VVector3f@@@std@@@std@@@std@@@1@AAU?$pair@$$CBV?$basic_string@DU?$char_traits@D@std@@V?$allocator@D@2@@std@@VVector3f@@@1@PAU?$_Tree_node@U?$pair@$$CBV?$basic_string@DU?$char_traits@D@std@@V?$allocator@D@2@@std@@VVector3f@@@std@@PAX@1@@Z ; std::_Tree<std::_Tmap_traits<std::basic_string<char,std::char_traits<char>,std::allocator<char> >,Vector3f,std::less<std::basic_string<char,std::char_traits<char>,std::allocator<char> > >,std::allocator<std::pair<std::basic_string<char,std::char_traits<char>,std::allocator<char> > const ,Vector3f> >,0> >::_Insert_hint<std::pair<std::basic_string<char,std::char_traits<char>,std::allocator<char> > const ,Vector3f> &,std::_Tree_node<std::pair<std::basic_string<char,std::char_traits<char>,std::allocator<char> > const ,Vector3f>,void *> *>
PUBLIC	??$_Buynode@ABUpiecewise_construct_t@std@@V?$tuple@ABV?$basic_string@DU?$char_traits@D@std@@V?$allocator@D@2@@std@@@2@V?$tuple@$$V@2@@?$_Tree_comp_alloc@V?$_Tmap_traits@V?$basic_string@DU?$char_traits@D@std@@V?$allocator@D@2@@std@@VVector3f@@U?$less@V?$basic_string@DU?$char_traits@D@std@@V?$allocator@D@2@@std@@@2@V?$allocator@U?$pair@$$CBV?$basic_string@DU?$char_traits@D@std@@V?$allocator@D@2@@std@@VVector3f@@@std@@@2@$0A@@std@@@std@@QAEPAU?$_Tree_node@U?$pair@$$CBV?$basic_string@DU?$char_traits@D@std@@V?$allocator@D@2@@std@@VVector3f@@@std@@PAX@1@ABUpiecewise_construct_t@1@$$QAV?$tuple@ABV?$basic_string@DU?$char_traits@D@std@@V?$allocator@D@2@@std@@@1@$$QAV?$tuple@$$V@1@@Z ; std::_Tree_comp_alloc<std::_Tmap_traits<std::basic_string<char,std::char_traits<char>,std::allocator<char> >,Vector3f,std::less<std::basic_string<char,std::char_traits<char>,std::allocator<char> > >,std::allocator<std::pair<std::basic_string<char,std::char_traits<char>,std::allocator<char> > const ,Vector3f> >,0> >::_Buynode<std::piecewise_construct_t const &,std::tuple<std::basic_string<char,std::char_traits<char>,std::allocator<char> > const &>,std::tuple<> >
PUBLIC	??$_Insert_hint@AAU?$pair@$$CBV?$basic_string@DU?$char_traits@D@std@@V?$allocator@D@2@@std@@I@std@@PAU?$_Tree_node@U?$pair@$$CBV?$basic_string@DU?$char_traits@D@std@@V?$allocator@D@2@@std@@I@std@@PAX@2@@?$_Tree@V?$_Tmap_traits@V?$basic_string@DU?$char_traits@D@std@@V?$allocator@D@2@@std@@IU?$less@V?$basic_string@DU?$char_traits@D@std@@V?$allocator@D@2@@std@@@2@V?$allocator@U?$pair@$$CBV?$basic_string@DU?$char_traits@D@std@@V?$allocator@D@2@@std@@I@std@@@2@$0A@@std@@@std@@IAE?AV?$_Tree_iterator@V?$_Tree_val@U?$_Tree_simple_types@U?$pair@$$CBV?$basic_string@DU?$char_traits@D@std@@V?$allocator@D@2@@std@@I@std@@@std@@@std@@@1@V?$_Tree_const_iterator@V?$_Tree_val@U?$_Tree_simple_types@U?$pair@$$CBV?$basic_string@DU?$char_traits@D@std@@V?$allocator@D@2@@std@@I@std@@@std@@@std@@@1@AAU?$pair@$$CBV?$basic_string@DU?$char_traits@D@std@@V?$allocator@D@2@@std@@I@1@PAU?$_Tree_node@U?$pair@$$CBV?$basic_string@DU?$char_traits@D@std@@V?$allocator@D@2@@std@@I@std@@PAX@1@@Z ; std::_Tree<std::_Tmap_traits<std::basic_string<char,std::char_traits<char>,std::allocator<char> >,unsigned int,std::less<std::basic_string<char,std::char_traits<char>,std::allocator<char> > >,std::allocator<std::pair<std::basic_string<char,std::char_traits<char>,std::allocator<char> > const ,unsigned int> >,0> >::_Insert_hint<std::pair<std::basic_string<char,std::char_traits<char>,std::allocator<char> > const ,unsigned int> &,std::_Tree_node<std::pair<std::basic_string<char,std::char_traits<char>,std::allocator<char> > const ,unsigned int>,void *> *>
PUBLIC	??$_Buynode@ABUpiecewise_construct_t@std@@V?$tuple@ABV?$basic_string@DU?$char_traits@D@std@@V?$allocator@D@2@@std@@@2@V?$tuple@$$V@2@@?$_Tree_comp_alloc@V?$_Tmap_traits@V?$basic_string@DU?$char_traits@D@std@@V?$allocator@D@2@@std@@IU?$less@V?$basic_string@DU?$char_traits@D@std@@V?$allocator@D@2@@std@@@2@V?$allocator@U?$pair@$$CBV?$basic_string@DU?$char_traits@D@std@@V?$allocator@D@2@@std@@I@std@@@2@$0A@@std@@@std@@QAEPAU?$_Tree_node@U?$pair@$$CBV?$basic_string@DU?$char_traits@D@std@@V?$allocator@D@2@@std@@I@std@@PAX@1@ABUpiecewise_construct_t@1@$$QAV?$tuple@ABV?$basic_string@DU?$char_traits@D@std@@V?$allocator@D@2@@std@@@1@$$QAV?$tuple@$$V@1@@Z ; std::_Tree_comp_alloc<std::_Tmap_traits<std::basic_string<char,std::char_traits<char>,std::allocator<char> >,unsigned int,std::less<std::basic_string<char,std::char_traits<char>,std::allocator<char> > >,std::allocator<std::pair<std::basic_string<char,std::char_traits<char>,std::allocator<char> > const ,unsigned int> >,0> >::_Buynode<std::piecewise_construct_t const &,std::tuple<std::basic_string<char,std::char_traits<char>,std::allocator<char> > const &>,std::tuple<> >
PUBLIC	??$?0PAVBaseLight@@@?$allocator@U_Container_proxy@std@@@std@@QAE@ABV?$allocator@PAVBaseLight@@@1@@Z ; std::allocator<std::_Container_proxy>::allocator<std::_Container_proxy><BaseLight *>
PUBLIC	?_Get_first@?$_Compressed_pair@U?$less@V?$basic_string@DU?$char_traits@D@std@@V?$allocator@D@2@@std@@@std@@V?$_Compressed_pair@U?$_Wrap_alloc@V?$allocator@U?$_Tree_node@U?$pair@$$CBV?$basic_string@DU?$char_traits@D@std@@V?$allocator@D@2@@std@@VVector3f@@@std@@PAX@std@@@std@@@std@@V?$_Tree_val@U?$_Tree_simple_types@U?$pair@$$CBV?$basic_string@DU?$char_traits@D@std@@V?$allocator@D@2@@std@@VVector3f@@@std@@@std@@@2@$00@2@$00@std@@QBEABU?$less@V?$basic_string@DU?$char_traits@D@std@@V?$allocator@D@2@@std@@@2@XZ ; std::_Compressed_pair<std::less<std::basic_string<char,std::char_traits<char>,std::allocator<char> > >,std::_Compressed_pair<std::_Wrap_alloc<std::allocator<std::_Tree_node<std::pair<std::basic_string<char,std::char_traits<char>,std::allocator<char> > const ,Vector3f>,void *> > >,std::_Tree_val<std::_Tree_simple_types<std::pair<std::basic_string<char,std::char_traits<char>,std::allocator<char> > const ,Vector3f> > >,1>,1>::_Get_first
PUBLIC	?_Getcomp@?$_Tree_comp_alloc@V?$_Tmap_traits@V?$basic_string@DU?$char_traits@D@std@@V?$allocator@D@2@@std@@VVector3f@@U?$less@V?$basic_string@DU?$char_traits@D@std@@V?$allocator@D@2@@std@@@2@V?$allocator@U?$pair@$$CBV?$basic_string@DU?$char_traits@D@std@@V?$allocator@D@2@@std@@VVector3f@@@std@@@2@$0A@@std@@@std@@QBEABU?$less@V?$basic_string@DU?$char_traits@D@std@@V?$allocator@D@2@@std@@@2@XZ ; std::_Tree_comp_alloc<std::_Tmap_traits<std::basic_string<char,std::char_traits<char>,std::allocator<char> >,Vector3f,std::less<std::basic_string<char,std::char_traits<char>,std::allocator<char> > >,std::allocator<std::pair<std::basic_string<char,std::char_traits<char>,std::allocator<char> > const ,Vector3f> >,0> >::_Getcomp
PUBLIC	??0?$allocator@PAVBaseLight@@@std@@QAE@ABV01@@Z	; std::allocator<BaseLight *>::allocator<BaseLight *>
PUBLIC	?_Compare@?$_Tree@V?$_Tmap_traits@V?$basic_string@DU?$char_traits@D@std@@V?$allocator@D@2@@std@@VVector3f@@U?$less@V?$basic_string@DU?$char_traits@D@std@@V?$allocator@D@2@@std@@@2@V?$allocator@U?$pair@$$CBV?$basic_string@DU?$char_traits@D@std@@V?$allocator@D@2@@std@@VVector3f@@@std@@@2@$0A@@std@@@std@@IBE_NABV?$basic_string@DU?$char_traits@D@std@@V?$allocator@D@2@@2@0@Z ; std::_Tree<std::_Tmap_traits<std::basic_string<char,std::char_traits<char>,std::allocator<char> >,Vector3f,std::less<std::basic_string<char,std::char_traits<char>,std::allocator<char> > >,std::allocator<std::pair<std::basic_string<char,std::char_traits<char>,std::allocator<char> > const ,Vector3f> >,0> >::_Compare
PUBLIC	??0?$_Wrap_alloc@V?$allocator@PAVBaseLight@@@std@@@std@@QAE@ABV?$allocator@PAVBaseLight@@@1@@Z ; std::_Wrap_alloc<std::allocator<BaseLight *> >::_Wrap_alloc<std::allocator<BaseLight *> >
PUBLIC	??0?$_Vector_val@U?$_Simple_types@PAVBaseLight@@@std@@@std@@QAE@XZ ; std::_Vector_val<std::_Simple_types<BaseLight *> >::_Vector_val<std::_Simple_types<BaseLight *> >
PUBLIC	??$_Kfn@$$CBV?$basic_string@DU?$char_traits@D@std@@V?$allocator@D@2@@std@@VVector3f@@@?$_Tmap_traits@V?$basic_string@DU?$char_traits@D@std@@V?$allocator@D@2@@std@@VVector3f@@U?$less@V?$basic_string@DU?$char_traits@D@std@@V?$allocator@D@2@@std@@@2@V?$allocator@U?$pair@$$CBV?$basic_string@DU?$char_traits@D@std@@V?$allocator@D@2@@std@@VVector3f@@@std@@@2@$0A@@std@@SAABV?$basic_string@DU?$char_traits@D@std@@V?$allocator@D@2@@1@ABU?$pair@$$CBV?$basic_string@DU?$char_traits@D@std@@V?$allocator@D@2@@std@@VVector3f@@@1@@Z ; std::_Tmap_traits<std::basic_string<char,std::char_traits<char>,std::allocator<char> >,Vector3f,std::less<std::basic_string<char,std::char_traits<char>,std::allocator<char> > >,std::allocator<std::pair<std::basic_string<char,std::char_traits<char>,std::allocator<char> > const ,Vector3f> >,0>::_Kfn<std::basic_string<char,std::char_traits<char>,std::allocator<char> > const ,Vector3f>
PUBLIC	??$_Destroy_range@U?$_Wrap_alloc@V?$allocator@PAVBaseLight@@@std@@@std@@@std@@YAXPAPAVBaseLight@@0AAU?$_Wrap_alloc@V?$allocator@PAVBaseLight@@@std@@@0@@Z ; std::_Destroy_range<std::_Wrap_alloc<std::allocator<BaseLight *> > >
PUBLIC	??$?0U?$_Wrap_alloc@V?$allocator@PAVBaseLight@@@std@@@std@@@?$_Wrap_alloc@V?$allocator@U_Container_proxy@std@@@std@@@std@@QAE@AAU?$_Wrap_alloc@V?$allocator@PAVBaseLight@@@std@@@1@@Z ; std::_Wrap_alloc<std::allocator<std::_Container_proxy> >::_Wrap_alloc<std::allocator<std::_Container_proxy> ><std::_Wrap_alloc<std::allocator<BaseLight *> > >
PUBLIC	??$_Lbound@V?$basic_string@DU?$char_traits@D@std@@V?$allocator@D@2@@std@@@?$_Tree@V?$_Tmap_traits@V?$basic_string@DU?$char_traits@D@std@@V?$allocator@D@2@@std@@VVector3f@@U?$less@V?$basic_string@DU?$char_traits@D@std@@V?$allocator@D@2@@std@@@2@V?$allocator@U?$pair@$$CBV?$basic_string@DU?$char_traits@D@std@@V?$allocator@D@2@@std@@VVector3f@@@std@@@2@$0A@@std@@@std@@IBEPAU?$_Tree_node@U?$pair@$$CBV?$basic_string@DU?$char_traits@D@std@@V?$allocator@D@2@@std@@VVector3f@@@std@@PAX@1@ABV?$basic_string@DU?$char_traits@D@std@@V?$allocator@D@2@@1@@Z ; std::_Tree<std::_Tmap_traits<std::basic_string<char,std::char_traits<char>,std::allocator<char> >,Vector3f,std::less<std::basic_string<char,std::char_traits<char>,std::allocator<char> > >,std::allocator<std::pair<std::basic_string<char,std::char_traits<char>,std::allocator<char> > const ,Vector3f> >,0> >::_Lbound<std::basic_string<char,std::char_traits<char>,std::allocator<char> > >
PUBLIC	??$?0ABV?$allocator@PAVBaseLight@@@std@@$$V@?$_Compressed_pair@U?$_Wrap_alloc@V?$allocator@PAVBaseLight@@@std@@@std@@V?$_Vector_val@U?$_Simple_types@PAVBaseLight@@@std@@@2@$00@std@@QAE@U_One_then_variadic_args_t@1@ABV?$allocator@PAVBaseLight@@@1@@Z ; std::_Compressed_pair<std::_Wrap_alloc<std::allocator<BaseLight *> >,std::_Vector_val<std::_Simple_types<BaseLight *> >,1>::_Compressed_pair<std::_Wrap_alloc<std::allocator<BaseLight *> >,std::_Vector_val<std::_Simple_types<BaseLight *> >,1><std::allocator<BaseLight *> const &>
PUBLIC	??$emplace_hint@ABUpiecewise_construct_t@std@@V?$tuple@ABV?$basic_string@DU?$char_traits@D@std@@V?$allocator@D@2@@std@@@2@V?$tuple@$$V@2@@?$_Tree@V?$_Tmap_traits@V?$basic_string@DU?$char_traits@D@std@@V?$allocator@D@2@@std@@VVector3f@@U?$less@V?$basic_string@DU?$char_traits@D@std@@V?$allocator@D@2@@std@@@2@V?$allocator@U?$pair@$$CBV?$basic_string@DU?$char_traits@D@std@@V?$allocator@D@2@@std@@VVector3f@@@std@@@2@$0A@@std@@@std@@QAE?AV?$_Tree_iterator@V?$_Tree_val@U?$_Tree_simple_types@U?$pair@$$CBV?$basic_string@DU?$char_traits@D@std@@V?$allocator@D@2@@std@@VVector3f@@@std@@@std@@@std@@@1@V?$_Tree_const_iterator@V?$_Tree_val@U?$_Tree_simple_types@U?$pair@$$CBV?$basic_string@DU?$char_traits@D@std@@V?$allocator@D@2@@std@@VVector3f@@@std@@@std@@@std@@@1@ABUpiecewise_construct_t@1@$$QAV?$tuple@ABV?$basic_string@DU?$char_traits@D@std@@V?$allocator@D@2@@std@@@1@$$QAV?$tuple@$$V@1@@Z ; std::_Tree<std::_Tmap_traits<std::basic_string<char,std::char_traits<char>,std::allocator<char> >,Vector3f,std::less<std::basic_string<char,std::char_traits<char>,std::allocator<char> > >,std::allocator<std::pair<std::basic_string<char,std::char_traits<char>,std::allocator<char> > const ,Vector3f> >,0> >::emplace_hint<std::piecewise_construct_t const &,std::tuple<std::basic_string<char,std::char_traits<char>,std::allocator<char> > const &>,std::tuple<> >
PUBLIC	??$emplace_hint@ABUpiecewise_construct_t@std@@V?$tuple@ABV?$basic_string@DU?$char_traits@D@std@@V?$allocator@D@2@@std@@@2@V?$tuple@$$V@2@@?$_Tree@V?$_Tmap_traits@V?$basic_string@DU?$char_traits@D@std@@V?$allocator@D@2@@std@@IU?$less@V?$basic_string@DU?$char_traits@D@std@@V?$allocator@D@2@@std@@@2@V?$allocator@U?$pair@$$CBV?$basic_string@DU?$char_traits@D@std@@V?$allocator@D@2@@std@@I@std@@@2@$0A@@std@@@std@@QAE?AV?$_Tree_iterator@V?$_Tree_val@U?$_Tree_simple_types@U?$pair@$$CBV?$basic_string@DU?$char_traits@D@std@@V?$allocator@D@2@@std@@I@std@@@std@@@std@@@1@V?$_Tree_const_iterator@V?$_Tree_val@U?$_Tree_simple_types@U?$pair@$$CBV?$basic_string@DU?$char_traits@D@std@@V?$allocator@D@2@@std@@I@std@@@std@@@std@@@1@ABUpiecewise_construct_t@1@$$QAV?$tuple@ABV?$basic_string@DU?$char_traits@D@std@@V?$allocator@D@2@@std@@@1@$$QAV?$tuple@$$V@1@@Z ; std::_Tree<std::_Tmap_traits<std::basic_string<char,std::char_traits<char>,std::allocator<char> >,unsigned int,std::less<std::basic_string<char,std::char_traits<char>,std::allocator<char> > >,std::allocator<std::pair<std::basic_string<char,std::char_traits<char>,std::allocator<char> > const ,unsigned int> >,0> >::emplace_hint<std::piecewise_construct_t const &,std::tuple<std::basic_string<char,std::char_traits<char>,std::allocator<char> > const &>,std::tuple<> >
PUBLIC	??$btPlaneSpace1@VbtVector3@@@@YAXABVbtVector3@@AAV0@1@Z ; btPlaneSpace1<btVector3>
PUBLIC	??D?$_Tree_const_iterator@V?$_Tree_val@U?$_Tree_simple_types@U?$pair@$$CBV?$basic_string@DU?$char_traits@D@std@@V?$allocator@D@2@@std@@VVector3f@@@std@@@std@@@std@@@std@@QBEABU?$pair@$$CBV?$basic_string@DU?$char_traits@D@std@@V?$allocator@D@2@@std@@VVector3f@@@1@XZ ; std::_Tree_const_iterator<std::_Tree_val<std::_Tree_simple_types<std::pair<std::basic_string<char,std::char_traits<char>,std::allocator<char> > const ,Vector3f> > > >::operator*
PUBLIC	?deallocate@?$allocator@PAVBaseLight@@@std@@QAEXPAPAVBaseLight@@I@Z ; std::allocator<BaseLight *>::deallocate
PUBLIC	?_Myproxy@?$_Vector_alloc@U?$_Vec_base_types@PAVBaseLight@@V?$allocator@PAVBaseLight@@@std@@@std@@@std@@QAEAAPAU_Container_proxy@2@XZ ; std::_Vector_alloc<std::_Vec_base_types<BaseLight *,std::allocator<BaseLight *> > >::_Myproxy
PUBLIC	?_Get_second@?$_Compressed_pair@U?$_Wrap_alloc@V?$allocator@PAVBaseLight@@@std@@@std@@V?$_Vector_val@U?$_Simple_types@PAVBaseLight@@@std@@@2@$00@std@@QAEAAV?$_Vector_val@U?$_Simple_types@PAVBaseLight@@@std@@@2@XZ ; std::_Compressed_pair<std::_Wrap_alloc<std::allocator<BaseLight *> >,std::_Vector_val<std::_Simple_types<BaseLight *> >,1>::_Get_second
PUBLIC	?_Get_second@?$_Compressed_pair@U?$_Wrap_alloc@V?$allocator@PAVBaseLight@@@std@@@std@@V?$_Vector_val@U?$_Simple_types@PAVBaseLight@@@std@@@2@$00@std@@QBEABV?$_Vector_val@U?$_Simple_types@PAVBaseLight@@@std@@@2@XZ ; std::_Compressed_pair<std::_Wrap_alloc<std::allocator<BaseLight *> >,std::_Vector_val<std::_Simple_types<BaseLight *> >,1>::_Get_second
PUBLIC	?_Kfn@?$_Tree@V?$_Tmap_traits@V?$basic_string@DU?$char_traits@D@std@@V?$allocator@D@2@@std@@VVector3f@@U?$less@V?$basic_string@DU?$char_traits@D@std@@V?$allocator@D@2@@std@@@2@V?$allocator@U?$pair@$$CBV?$basic_string@DU?$char_traits@D@std@@V?$allocator@D@2@@std@@VVector3f@@@std@@@2@$0A@@std@@@std@@IBEABV?$basic_string@DU?$char_traits@D@std@@V?$allocator@D@2@@2@ABU?$pair@$$CBV?$basic_string@DU?$char_traits@D@std@@V?$allocator@D@2@@std@@VVector3f@@@2@@Z ; std::_Tree<std::_Tmap_traits<std::basic_string<char,std::char_traits<char>,std::allocator<char> >,Vector3f,std::less<std::basic_string<char,std::char_traits<char>,std::allocator<char> > >,std::allocator<std::pair<std::basic_string<char,std::char_traits<char>,std::allocator<char> > const ,Vector3f> >,0> >::_Kfn
PUBLIC	??D?$_Tree_iterator@V?$_Tree_val@U?$_Tree_simple_types@U?$pair@$$CBV?$basic_string@DU?$char_traits@D@std@@V?$allocator@D@2@@std@@VVector3f@@@std@@@std@@@std@@@std@@QBEAAU?$pair@$$CBV?$basic_string@DU?$char_traits@D@std@@V?$allocator@D@2@@std@@VVector3f@@@1@XZ ; std::_Tree_iterator<std::_Tree_val<std::_Tree_simple_types<std::pair<std::basic_string<char,std::char_traits<char>,std::allocator<char> > const ,Vector3f> > > >::operator*
PUBLIC	?_Get_first@?$_Compressed_pair@U?$less@V?$basic_string@DU?$char_traits@D@std@@V?$allocator@D@2@@std@@@std@@V?$_Compressed_pair@U?$_Wrap_alloc@V?$allocator@U?$_Tree_node@U?$pair@$$CBV?$basic_string@DU?$char_traits@D@std@@V?$allocator@D@2@@std@@VVector3f@@@std@@PAX@std@@@std@@@std@@V?$_Tree_val@U?$_Tree_simple_types@U?$pair@$$CBV?$basic_string@DU?$char_traits@D@std@@V?$allocator@D@2@@std@@VVector3f@@@std@@@std@@@2@$00@2@$00@std@@QAEAAU?$less@V?$basic_string@DU?$char_traits@D@std@@V?$allocator@D@2@@std@@@2@XZ ; std::_Compressed_pair<std::less<std::basic_string<char,std::char_traits<char>,std::allocator<char> > >,std::_Compressed_pair<std::_Wrap_alloc<std::allocator<std::_Tree_node<std::pair<std::basic_string<char,std::char_traits<char>,std::allocator<char> > const ,Vector3f>,void *> > >,std::_Tree_val<std::_Tree_simple_types<std::pair<std::basic_string<char,std::char_traits<char>,std::allocator<char> > const ,Vector3f> > >,1>,1>::_Get_first
PUBLIC	??D?$_Tree_iterator@V?$_Tree_val@U?$_Tree_simple_types@U?$pair@$$CBV?$basic_string@DU?$char_traits@D@std@@V?$allocator@D@2@@std@@I@std@@@std@@@std@@@std@@QBEAAU?$pair@$$CBV?$basic_string@DU?$char_traits@D@std@@V?$allocator@D@2@@std@@I@1@XZ ; std::_Tree_iterator<std::_Tree_val<std::_Tree_simple_types<std::pair<std::basic_string<char,std::char_traits<char>,std::allocator<char> > const ,unsigned int> > > >::operator*
PUBLIC	?_Destroy@?$vector@PAVBaseLight@@V?$allocator@PAVBaseLight@@@std@@@std@@IAEXPAPAVBaseLight@@0@Z ; std::vector<BaseLight *,std::allocator<BaseLight *> >::_Destroy
PUBLIC	?_Alloc_proxy@?$_Vector_alloc@U?$_Vec_base_types@PAVBaseLight@@V?$allocator@PAVBaseLight@@@std@@@std@@@std@@QAEXXZ ; std::_Vector_alloc<std::_Vec_base_types<BaseLight *,std::allocator<BaseLight *> > >::_Alloc_proxy
PUBLIC	?_Free_proxy@?$_Vector_alloc@U?$_Vec_base_types@PAVBaseLight@@V?$allocator@PAVBaseLight@@@std@@@std@@@std@@QAEXXZ ; std::_Vector_alloc<std::_Vec_base_types<BaseLight *,std::allocator<BaseLight *> > >::_Free_proxy
PUBLIC	?_Orphan_all@?$_Vector_alloc@U?$_Vec_base_types@PAVBaseLight@@V?$allocator@PAVBaseLight@@@std@@@std@@@std@@QAEXXZ ; std::_Vector_alloc<std::_Vec_base_types<BaseLight *,std::allocator<BaseLight *> > >::_Orphan_all
PUBLIC	?_Get_data@?$_Vector_alloc@U?$_Vec_base_types@PAVBaseLight@@V?$allocator@PAVBaseLight@@@std@@@std@@@std@@QAEAAV?$_Vector_val@U?$_Simple_types@PAVBaseLight@@@std@@@2@XZ ; std::_Vector_alloc<std::_Vec_base_types<BaseLight *,std::allocator<BaseLight *> > >::_Get_data
PUBLIC	?_Get_data@?$_Vector_alloc@U?$_Vec_base_types@PAVBaseLight@@V?$allocator@PAVBaseLight@@@std@@@std@@@std@@QBEABV?$_Vector_val@U?$_Simple_types@PAVBaseLight@@@std@@@2@XZ ; std::_Vector_alloc<std::_Vec_base_types<BaseLight *,std::allocator<BaseLight *> > >::_Get_data
PUBLIC	?deallocate@?$_Wrap_alloc@V?$allocator@PAVBaseLight@@@std@@@std@@QAEXPAPAVBaseLight@@I@Z ; std::_Wrap_alloc<std::allocator<BaseLight *> >::deallocate
PUBLIC	?_Get_first@?$_Compressed_pair@U?$_Wrap_alloc@V?$allocator@PAVBaseLight@@@std@@@std@@V?$_Vector_val@U?$_Simple_types@PAVBaseLight@@@std@@@2@$00@std@@QAEAAU?$_Wrap_alloc@V?$allocator@PAVBaseLight@@@std@@@2@XZ ; std::_Compressed_pair<std::_Wrap_alloc<std::allocator<BaseLight *> >,std::_Vector_val<std::_Simple_types<BaseLight *> >,1>::_Get_first
PUBLIC	?pointer_to@?$pointer_traits@PAU?$pair@$$CBV?$basic_string@DU?$char_traits@D@std@@V?$allocator@D@2@@std@@I@std@@@std@@SAPAU?$pair@$$CBV?$basic_string@DU?$char_traits@D@std@@V?$allocator@D@2@@std@@I@2@AAU32@@Z ; std::pointer_traits<std::pair<std::basic_string<char,std::char_traits<char>,std::allocator<char> > const ,unsigned int> *>::pointer_to
PUBLIC	?pointer_to@?$pointer_traits@PAU?$pair@$$CBV?$basic_string@DU?$char_traits@D@std@@V?$allocator@D@2@@std@@VVector3f@@@std@@@std@@SAPAU?$pair@$$CBV?$basic_string@DU?$char_traits@D@std@@V?$allocator@D@2@@std@@VVector3f@@@2@AAU32@@Z ; std::pointer_traits<std::pair<std::basic_string<char,std::char_traits<char>,std::allocator<char> > const ,Vector3f> *>::pointer_to
PUBLIC	??1?$_Vector_val@U?$_Simple_types@PAVBaseLight@@@std@@@std@@QAE@XZ ; std::_Vector_val<std::_Simple_types<BaseLight *> >::~_Vector_val<std::_Simple_types<BaseLight *> >
PUBLIC	??1?$_Compressed_pair@U?$_Wrap_alloc@V?$allocator@PAVBaseLight@@@std@@@std@@V?$_Vector_val@U?$_Simple_types@PAVBaseLight@@@std@@@2@$00@std@@QAE@XZ ; std::_Compressed_pair<std::_Wrap_alloc<std::allocator<BaseLight *> >,std::_Vector_val<std::_Simple_types<BaseLight *> >,1>::~_Compressed_pair<std::_Wrap_alloc<std::allocator<BaseLight *> >,std::_Vector_val<std::_Simple_types<BaseLight *> >,1>
PUBLIC	?lower_bound@?$_Tree@V?$_Tmap_traits@V?$basic_string@DU?$char_traits@D@std@@V?$allocator@D@2@@std@@VVector3f@@U?$less@V?$basic_string@DU?$char_traits@D@std@@V?$allocator@D@2@@std@@@2@V?$allocator@U?$pair@$$CBV?$basic_string@DU?$char_traits@D@std@@V?$allocator@D@2@@std@@VVector3f@@@std@@@2@$0A@@std@@@std@@QAE?AV?$_Tree_iterator@V?$_Tree_val@U?$_Tree_simple_types@U?$pair@$$CBV?$basic_string@DU?$char_traits@D@std@@V?$allocator@D@2@@std@@VVector3f@@@std@@@std@@@std@@@2@ABV?$basic_string@DU?$char_traits@D@std@@V?$allocator@D@2@@2@@Z ; std::_Tree<std::_Tmap_traits<std::basic_string<char,std::char_traits<char>,std::allocator<char> >,Vector3f,std::less<std::basic_string<char,std::char_traits<char>,std::allocator<char> > >,std::allocator<std::pair<std::basic_string<char,std::char_traits<char>,std::allocator<char> > const ,Vector3f> >,0> >::lower_bound
PUBLIC	?_Key@?$_Tree@V?$_Tmap_traits@V?$basic_string@DU?$char_traits@D@std@@V?$allocator@D@2@@std@@VVector3f@@U?$less@V?$basic_string@DU?$char_traits@D@std@@V?$allocator@D@2@@std@@@2@V?$allocator@U?$pair@$$CBV?$basic_string@DU?$char_traits@D@std@@V?$allocator@D@2@@std@@VVector3f@@@std@@@2@$0A@@std@@@std@@IBEABV?$basic_string@DU?$char_traits@D@std@@V?$allocator@D@2@@2@PAU?$_Tree_node@U?$pair@$$CBV?$basic_string@DU?$char_traits@D@std@@V?$allocator@D@2@@std@@VVector3f@@@std@@PAX@2@@Z ; std::_Tree<std::_Tmap_traits<std::basic_string<char,std::char_traits<char>,std::allocator<char> >,Vector3f,std::less<std::basic_string<char,std::char_traits<char>,std::allocator<char> > >,std::allocator<std::pair<std::basic_string<char,std::char_traits<char>,std::allocator<char> > const ,Vector3f> >,0> >::_Key
PUBLIC	?_Getcomp@?$_Tree_comp_alloc@V?$_Tmap_traits@V?$basic_string@DU?$char_traits@D@std@@V?$allocator@D@2@@std@@VVector3f@@U?$less@V?$basic_string@DU?$char_traits@D@std@@V?$allocator@D@2@@std@@@2@V?$allocator@U?$pair@$$CBV?$basic_string@DU?$char_traits@D@std@@V?$allocator@D@2@@std@@VVector3f@@@std@@@2@$0A@@std@@@std@@QAEAAU?$less@V?$basic_string@DU?$char_traits@D@std@@V?$allocator@D@2@@std@@@2@XZ ; std::_Tree_comp_alloc<std::_Tmap_traits<std::basic_string<char,std::char_traits<char>,std::allocator<char> >,Vector3f,std::less<std::basic_string<char,std::char_traits<char>,std::allocator<char> > >,std::allocator<std::pair<std::basic_string<char,std::char_traits<char>,std::allocator<char> > const ,Vector3f> >,0> >::_Getcomp
PUBLIC	??C?$_Tree_iterator@V?$_Tree_val@U?$_Tree_simple_types@U?$pair@$$CBV?$basic_string@DU?$char_traits@D@std@@V?$allocator@D@2@@std@@VVector3f@@@std@@@std@@@std@@@std@@QBEPAU?$pair@$$CBV?$basic_string@DU?$char_traits@D@std@@V?$allocator@D@2@@std@@VVector3f@@@1@XZ ; std::_Tree_iterator<std::_Tree_val<std::_Tree_simple_types<std::pair<std::basic_string<char,std::char_traits<char>,std::allocator<char> > const ,Vector3f> > > >::operator->
PUBLIC	?lower_bound@?$_Tree@V?$_Tmap_traits@V?$basic_string@DU?$char_traits@D@std@@V?$allocator@D@2@@std@@IU?$less@V?$basic_string@DU?$char_traits@D@std@@V?$allocator@D@2@@std@@@2@V?$allocator@U?$pair@$$CBV?$basic_string@DU?$char_traits@D@std@@V?$allocator@D@2@@std@@I@std@@@2@$0A@@std@@@std@@QAE?AV?$_Tree_iterator@V?$_Tree_val@U?$_Tree_simple_types@U?$pair@$$CBV?$basic_string@DU?$char_traits@D@std@@V?$allocator@D@2@@std@@I@std@@@std@@@std@@@2@ABV?$basic_string@DU?$char_traits@D@std@@V?$allocator@D@2@@2@@Z ; std::_Tree<std::_Tmap_traits<std::basic_string<char,std::char_traits<char>,std::allocator<char> >,unsigned int,std::less<std::basic_string<char,std::char_traits<char>,std::allocator<char> > >,std::allocator<std::pair<std::basic_string<char,std::char_traits<char>,std::allocator<char> > const ,unsigned int> >,0> >::lower_bound
PUBLIC	??C?$_Tree_iterator@V?$_Tree_val@U?$_Tree_simple_types@U?$pair@$$CBV?$basic_string@DU?$char_traits@D@std@@V?$allocator@D@2@@std@@I@std@@@std@@@std@@@std@@QBEPAU?$pair@$$CBV?$basic_string@DU?$char_traits@D@std@@V?$allocator@D@2@@std@@I@1@XZ ; std::_Tree_iterator<std::_Tree_val<std::_Tree_simple_types<std::pair<std::basic_string<char,std::char_traits<char>,std::allocator<char> > const ,unsigned int> > > >::operator->
PUBLIC	??0?$allocator@PAVBaseLight@@@std@@QAE@XZ	; std::allocator<BaseLight *>::allocator<BaseLight *>
PUBLIC	?_Tidy@?$vector@PAVBaseLight@@V?$allocator@PAVBaseLight@@@std@@@std@@IAEXXZ ; std::vector<BaseLight *,std::allocator<BaseLight *> >::_Tidy
PUBLIC	??0?$_Vector_alloc@U?$_Vec_base_types@PAVBaseLight@@V?$allocator@PAVBaseLight@@@std@@@std@@@std@@QAE@ABV?$allocator@PAVBaseLight@@@1@@Z ; std::_Vector_alloc<std::_Vec_base_types<BaseLight *,std::allocator<BaseLight *> > >::_Vector_alloc<std::_Vec_base_types<BaseLight *,std::allocator<BaseLight *> > >
PUBLIC	??1?$_Vector_alloc@U?$_Vec_base_types@PAVBaseLight@@V?$allocator@PAVBaseLight@@@std@@@std@@@std@@QAE@XZ ; std::_Vector_alloc<std::_Vec_base_types<BaseLight *,std::allocator<BaseLight *> > >::~_Vector_alloc<std::_Vec_base_types<BaseLight *,std::allocator<BaseLight *> > >
PUBLIC	?_Getal@?$_Vector_alloc@U?$_Vec_base_types@PAVBaseLight@@V?$allocator@PAVBaseLight@@@std@@@std@@@std@@QAEAAU?$_Wrap_alloc@V?$allocator@PAVBaseLight@@@std@@@2@XZ ; std::_Vector_alloc<std::_Vec_base_types<BaseLight *,std::allocator<BaseLight *> > >::_Getal
PUBLIC	?_Myfirst@?$_Vector_alloc@U?$_Vec_base_types@PAVBaseLight@@V?$allocator@PAVBaseLight@@@std@@@std@@@std@@QAEAAPAPAVBaseLight@@XZ ; std::_Vector_alloc<std::_Vec_base_types<BaseLight *,std::allocator<BaseLight *> > >::_Myfirst
PUBLIC	?_Myfirst@?$_Vector_alloc@U?$_Vec_base_types@PAVBaseLight@@V?$allocator@PAVBaseLight@@@std@@@std@@@std@@QBEABQAPAVBaseLight@@XZ ; std::_Vector_alloc<std::_Vec_base_types<BaseLight *,std::allocator<BaseLight *> > >::_Myfirst
PUBLIC	?_Mylast@?$_Vector_alloc@U?$_Vec_base_types@PAVBaseLight@@V?$allocator@PAVBaseLight@@@std@@@std@@@std@@QAEAAPAPAVBaseLight@@XZ ; std::_Vector_alloc<std::_Vec_base_types<BaseLight *,std::allocator<BaseLight *> > >::_Mylast
PUBLIC	?_Mylast@?$_Vector_alloc@U?$_Vec_base_types@PAVBaseLight@@V?$allocator@PAVBaseLight@@@std@@@std@@@std@@QBEABQAPAVBaseLight@@XZ ; std::_Vector_alloc<std::_Vec_base_types<BaseLight *,std::allocator<BaseLight *> > >::_Mylast
PUBLIC	?_Myend@?$_Vector_alloc@U?$_Vec_base_types@PAVBaseLight@@V?$allocator@PAVBaseLight@@@std@@@std@@@std@@QAEAAPAPAVBaseLight@@XZ ; std::_Vector_alloc<std::_Vec_base_types<BaseLight *,std::allocator<BaseLight *> > >::_Myend
PUBLIC	??4?$_Iterator012@Ubidirectional_iterator_tag@std@@U?$pair@$$CBV?$basic_string@DU?$char_traits@D@std@@V?$allocator@D@2@@std@@VVector3f@@@2@HPBU32@ABU32@U_Iterator_base12@2@@std@@QAEAAU01@$$QAU01@@Z ; std::_Iterator012<std::bidirectional_iterator_tag,std::pair<std::basic_string<char,std::char_traits<char>,std::allocator<char> > const ,Vector3f>,int,std::pair<std::basic_string<char,std::char_traits<char>,std::allocator<char> > const ,Vector3f> const *,std::pair<std::basic_string<char,std::char_traits<char>,std::allocator<char> > const ,Vector3f> const &,std::_Iterator_base12>::operator=
PUBLIC	??4?$_Iterator012@Ubidirectional_iterator_tag@std@@U?$pair@$$CBV?$basic_string@DU?$char_traits@D@std@@V?$allocator@D@2@@std@@I@2@HPBU32@ABU32@U_Iterator_base12@2@@std@@QAEAAU01@$$QAU01@@Z ; std::_Iterator012<std::bidirectional_iterator_tag,std::pair<std::basic_string<char,std::char_traits<char>,std::allocator<char> > const ,unsigned int>,int,std::pair<std::basic_string<char,std::char_traits<char>,std::allocator<char> > const ,unsigned int> const *,std::pair<std::basic_string<char,std::char_traits<char>,std::allocator<char> > const ,unsigned int> const &,std::_Iterator_base12>::operator=
PUBLIC	??4?$_Tree_unchecked_const_iterator@V?$_Tree_val@U?$_Tree_simple_types@U?$pair@$$CBV?$basic_string@DU?$char_traits@D@std@@V?$allocator@D@2@@std@@VVector3f@@@std@@@std@@@std@@U_Iterator_base12@2@@std@@QAEAAV01@$$QAV01@@Z ; std::_Tree_unchecked_const_iterator<std::_Tree_val<std::_Tree_simple_types<std::pair<std::basic_string<char,std::char_traits<char>,std::allocator<char> > const ,Vector3f> > >,std::_Iterator_base12>::operator=
PUBLIC	??4?$_Tree_unchecked_const_iterator@V?$_Tree_val@U?$_Tree_simple_types@U?$pair@$$CBV?$basic_string@DU?$char_traits@D@std@@V?$allocator@D@2@@std@@I@std@@@std@@@std@@U_Iterator_base12@2@@std@@QAEAAV01@$$QAV01@@Z ; std::_Tree_unchecked_const_iterator<std::_Tree_val<std::_Tree_simple_types<std::pair<std::basic_string<char,std::char_traits<char>,std::allocator<char> > const ,unsigned int> > >,std::_Iterator_base12>::operator=
PUBLIC	??4?$_Tree_const_iterator@V?$_Tree_val@U?$_Tree_simple_types@U?$pair@$$CBV?$basic_string@DU?$char_traits@D@std@@V?$allocator@D@2@@std@@VVector3f@@@std@@@std@@@std@@@std@@QAEAAV01@$$QAV01@@Z ; std::_Tree_const_iterator<std::_Tree_val<std::_Tree_simple_types<std::pair<std::basic_string<char,std::char_traits<char>,std::allocator<char> > const ,Vector3f> > > >::operator=
PUBLIC	??4?$_Tree_const_iterator@V?$_Tree_val@U?$_Tree_simple_types@U?$pair@$$CBV?$basic_string@DU?$char_traits@D@std@@V?$allocator@D@2@@std@@I@std@@@std@@@std@@@std@@QAEAAV01@$$QAV01@@Z ; std::_Tree_const_iterator<std::_Tree_val<std::_Tree_simple_types<std::pair<std::basic_string<char,std::char_traits<char>,std::allocator<char> > const ,unsigned int> > > >::operator=
PUBLIC	??4?$_Tree_iterator@V?$_Tree_val@U?$_Tree_simple_types@U?$pair@$$CBV?$basic_string@DU?$char_traits@D@std@@V?$allocator@D@2@@std@@VVector3f@@@std@@@std@@@std@@@std@@QAEAAV01@$$QAV01@@Z ; std::_Tree_iterator<std::_Tree_val<std::_Tree_simple_types<std::pair<std::basic_string<char,std::char_traits<char>,std::allocator<char> > const ,Vector3f> > > >::operator=
PUBLIC	??4?$_Tree_iterator@V?$_Tree_val@U?$_Tree_simple_types@U?$pair@$$CBV?$basic_string@DU?$char_traits@D@std@@V?$allocator@D@2@@std@@I@std@@@std@@@std@@@std@@QAEAAV01@$$QAV01@@Z ; std::_Tree_iterator<std::_Tree_val<std::_Tree_simple_types<std::pair<std::basic_string<char,std::char_traits<char>,std::allocator<char> > const ,unsigned int> > > >::operator=
PUBLIC	?InitScale@?$Matrix@M$03@@QAE?AV1@ABV?$Vector@M$02@@@Z ; Matrix<float,4>::InitScale
PUBLIC	?InitTranslation@?$Matrix@M$03@@QAE?AV1@ABV?$Vector@M$02@@@Z ; Matrix<float,4>::InitTranslation
PUBLIC	??A?$map@V?$basic_string@DU?$char_traits@D@std@@V?$allocator@D@2@@std@@VVector3f@@U?$less@V?$basic_string@DU?$char_traits@D@std@@V?$allocator@D@2@@std@@@2@V?$allocator@U?$pair@$$CBV?$basic_string@DU?$char_traits@D@std@@V?$allocator@D@2@@std@@VVector3f@@@std@@@2@@std@@QAEAAVVector3f@@ABV?$basic_string@DU?$char_traits@D@std@@V?$allocator@D@2@@1@@Z ; std::map<std::basic_string<char,std::char_traits<char>,std::allocator<char> >,Vector3f,std::less<std::basic_string<char,std::char_traits<char>,std::allocator<char> > >,std::allocator<std::pair<std::basic_string<char,std::char_traits<char>,std::allocator<char> > const ,Vector3f> > >::operator[]
PUBLIC	??A?$map@V?$basic_string@DU?$char_traits@D@std@@V?$allocator@D@2@@std@@IU?$less@V?$basic_string@DU?$char_traits@D@std@@V?$allocator@D@2@@std@@@2@V?$allocator@U?$pair@$$CBV?$basic_string@DU?$char_traits@D@std@@V?$allocator@D@2@@std@@I@std@@@2@@std@@QAEAAIABV?$basic_string@DU?$char_traits@D@std@@V?$allocator@D@2@@1@@Z ; std::map<std::basic_string<char,std::char_traits<char>,std::allocator<char> >,unsigned int,std::less<std::basic_string<char,std::char_traits<char>,std::allocator<char> > >,std::allocator<std::pair<std::basic_string<char,std::char_traits<char>,std::allocator<char> > const ,unsigned int> > >::operator[]
PUBLIC	??0?$vector@PAVBaseLight@@V?$allocator@PAVBaseLight@@@std@@@std@@QAE@XZ ; std::vector<BaseLight *,std::allocator<BaseLight *> >::vector<BaseLight *,std::allocator<BaseLight *> >
PUBLIC	??1?$vector@PAVBaseLight@@V?$allocator@PAVBaseLight@@@std@@@std@@QAE@XZ ; std::vector<BaseLight *,std::allocator<BaseLight *> >::~vector<BaseLight *,std::allocator<BaseLight *> >
PUBLIC	?size@?$vector@PAVBaseLight@@V?$allocator@PAVBaseLight@@@std@@@std@@QBEIXZ ; std::vector<BaseLight *,std::allocator<BaseLight *> >::size
PUBLIC	??A?$vector@PAVBaseLight@@V?$allocator@PAVBaseLight@@@std@@@std@@QAEAAPAVBaseLight@@I@Z ; std::vector<BaseLight *,std::allocator<BaseLight *> >::operator[]
PUBLIC	?drawContactPoint@GLDebugDrawer@@UAEXABVbtVector3@@0MH0@Z ; GLDebugDrawer::drawContactPoint
PUBLIC	?reportErrorWarning@GLDebugDrawer@@UAEXPBD@Z	; GLDebugDrawer::reportErrorWarning
PUBLIC	?draw3dText@GLDebugDrawer@@UAEXABVbtVector3@@PBD@Z ; GLDebugDrawer::draw3dText
PUBLIC	?setDebugMode@GLDebugDrawer@@UAEXH@Z		; GLDebugDrawer::setDebugMode
PUBLIC	?drawLine@GLDebugDrawer@@UAEXABVbtVector3@@00@Z	; GLDebugDrawer::drawLine
PUBLIC	??0btIDebugDraw@@QAE@XZ				; btIDebugDraw::btIDebugDraw
PUBLIC	??1GLDebugDrawer@@UAE@XZ			; GLDebugDrawer::~GLDebugDrawer
PUBLIC	??_GGLDebugDrawer@@UAEPAXI@Z			; GLDebugDrawer::`scalar deleting destructor'
PUBLIC	?Render@RenderingEngine@@UAEXABVEntity@@@Z	; RenderingEngine::Render
PUBLIC	?drawrect@RenderingEngine@@AAEXHHHHH@Z		; RenderingEngine::drawrect
PUBLIC	?ApplyFilter@RenderingEngine@@IAEXABVShader@@ABVTexture@@PBV3@@Z ; RenderingEngine::ApplyFilter
PUBLIC	?ApplyFilterInternal@RenderingEngine@@QAEXABVShader@@@Z ; RenderingEngine::ApplyFilterInternal
PUBLIC	?BlurShadowMap@RenderingEngine@@AAEXHM@Z	; RenderingEngine::BlurShadowMap
PUBLIC	??0RenderingEngine@@QAE@PAVWindow@@@Z		; RenderingEngine::RenderingEngine
PUBLIC	?getDebugMode@GLDebugDrawer@@UBEHXZ		; GLDebugDrawer::getDebugMode
PUBLIC	??_FTexture@@QAEXXZ				; Texture::`default constructor closure'
PUBLIC	??_GRenderingEngine@@UAEPAXI@Z			; RenderingEngine::`scalar deleting destructor'
PUBLIC	?SetSamplerSlot@RenderingEngine@@IAEXABV?$basic_string@DU?$char_traits@D@std@@V?$allocator@D@2@@std@@I@Z ; RenderingEngine::SetSamplerSlot
PUBLIC	?GetNullShader@RenderingEngine@@QAEPAVShader@@XZ ; RenderingEngine::GetNullShader
PUBLIC	?UpdateUniformStruct@RenderingEngine@@UBEXABVTransform@@ABVMaterial@@ABVShader@@ABV?$basic_string@DU?$char_traits@D@std@@V?$allocator@D@2@@std@@3@Z ; RenderingEngine::UpdateUniformStruct
PUBLIC	??1RenderingEngine@@UAE@XZ			; RenderingEngine::~RenderingEngine
PUBLIC	?GetSDLWindow@Window@@QAEPAUSDL_Window@@XZ	; Window::GetSDLWindow
PUBLIC	?GetShadowInfo@BaseLight@@QBEABVShadowInfo@@XZ	; BaseLight::GetShadowInfo
PUBLIC	?GetShader@BaseLight@@QBEABVShader@@XZ		; BaseLight::GetShader
PUBLIC	?GetLightBleedReductionAmount@ShadowInfo@@QBEMXZ ; ShadowInfo::GetLightBleedReductionAmount
PUBLIC	?GetMinVariance@ShadowInfo@@QBEMXZ		; ShadowInfo::GetMinVariance
PUBLIC	?GetShadowSoftness@ShadowInfo@@QBEMXZ		; ShadowInfo::GetShadowSoftness
PUBLIC	?GetShadowMapSizeAsPowerOf2@ShadowInfo@@QBEHXZ	; ShadowInfo::GetShadowMapSizeAsPowerOf2
PUBLIC	?GetFlipFaces@ShadowInfo@@QBE_NXZ		; ShadowInfo::GetFlipFaces
PUBLIC	?GetProjection@ShadowInfo@@QBEABV?$Matrix4@M@@XZ ; ShadowInfo::GetProjection
PUBLIC	?GetRot@ShadowCameraTransform@@QBEABVQuaternion@@XZ ; ShadowCameraTransform::GetRot
PUBLIC	?GetPos@ShadowCameraTransform@@QBEABVVector3f@@XZ ; ShadowCameraTransform::GetPos
PUBLIC	?SetVector3f@MappedValues@@QAEXABV?$basic_string@DU?$char_traits@D@std@@V?$allocator@D@2@@std@@ABVVector3f@@@Z ; MappedValues::SetVector3f
PUBLIC	?GetHeight@Texture@@QBEHXZ			; Texture::GetHeight
PUBLIC	?GetWidth@Texture@@QBEHXZ			; Texture::GetWidth
PUBLIC	?GetHeight@TextureData@@QBEHXZ			; TextureData::GetHeight
PUBLIC	?GetWidth@TextureData@@QBEHXZ			; TextureData::GetWidth
PUBLIC	?SetProjection@Camera@@QAEXABV?$Matrix4@M@@@Z	; Camera::SetProjection
PUBLIC	?GetTransform@Camera@@QAEPAVTransform@@XZ	; Camera::GetTransform
PUBLIC	??0Camera@@QAE@ABV?$Matrix4@M@@PAVTransform@@@Z	; Camera::Camera
PUBLIC	?SetScale@Transform@@QAEXM@Z			; Transform::SetScale
PUBLIC	??0Quaternion@@QAE@ABVVector3f@@M@Z		; Quaternion::Quaternion
PUBLIC	??_GbtIDebugDraw@@UAEPAXI@Z			; btIDebugDraw::`scalar deleting destructor'
PUBLIC	?flushLines@btIDebugDraw@@UAEXXZ		; btIDebugDraw::flushLines
PUBLIC	?drawPlane@btIDebugDraw@@UAEXABVbtVector3@@MABVbtTransform@@0@Z ; btIDebugDraw::drawPlane
PUBLIC	?drawCone@btIDebugDraw@@UAEXMMHABVbtTransform@@ABVbtVector3@@@Z ; btIDebugDraw::drawCone
PUBLIC	?drawCylinder@btIDebugDraw@@UAEXMMHABVbtTransform@@ABVbtVector3@@@Z ; btIDebugDraw::drawCylinder
PUBLIC	?drawCapsule@btIDebugDraw@@UAEXMMHABVbtTransform@@ABVbtVector3@@@Z ; btIDebugDraw::drawCapsule
PUBLIC	?drawBox@btIDebugDraw@@UAEXABVbtVector3@@0ABVbtTransform@@0@Z ; btIDebugDraw::drawBox
PUBLIC	?drawBox@btIDebugDraw@@UAEXABVbtVector3@@00@Z	; btIDebugDraw::drawBox
PUBLIC	?drawSpherePatch@btIDebugDraw@@UAEXABVbtVector3@@00MMMMM0M_N@Z ; btIDebugDraw::drawSpherePatch
PUBLIC	?drawArc@btIDebugDraw@@UAEXABVbtVector3@@00MMMM0_NM@Z ; btIDebugDraw::drawArc
PUBLIC	?drawTransform@btIDebugDraw@@UAEXABVbtTransform@@M@Z ; btIDebugDraw::drawTransform
PUBLIC	?drawAabb@btIDebugDraw@@UAEXABVbtVector3@@00@Z	; btIDebugDraw::drawAabb
PUBLIC	?drawTriangle@btIDebugDraw@@UAEXABVbtVector3@@000M@Z ; btIDebugDraw::drawTriangle
PUBLIC	?drawTriangle@btIDebugDraw@@UAEXABVbtVector3@@000000M@Z ; btIDebugDraw::drawTriangle
PUBLIC	?drawSphere@btIDebugDraw@@UAEXABVbtVector3@@M0@Z ; btIDebugDraw::drawSphere
PUBLIC	?drawSphere@btIDebugDraw@@UAEXMABVbtTransform@@ABVbtVector3@@@Z ; btIDebugDraw::drawSphere
PUBLIC	?drawLine@btIDebugDraw@@UAEXABVbtVector3@@000@Z	; btIDebugDraw::drawLine
PUBLIC	?setDefaultColors@btIDebugDraw@@UAEXABUDefaultColors@1@@Z ; btIDebugDraw::setDefaultColors
PUBLIC	?getDefaultColors@btIDebugDraw@@UBE?AUDefaultColors@1@XZ ; btIDebugDraw::getDefaultColors
PUBLIC	??1btIDebugDraw@@UAE@XZ				; btIDebugDraw::~btIDebugDraw
PUBLIC	??0DefaultColors@btIDebugDraw@@QAE@XZ		; btIDebugDraw::DefaultColors::DefaultColors
PUBLIC	?setOrigin@btTransform@@QAEXABVbtVector3@@@Z	; btTransform::setOrigin
PUBLIC	?getOrigin@btTransform@@QBEABVbtVector3@@XZ	; btTransform::getOrigin
PUBLIC	?getBasis@btTransform@@QAEAAVbtMatrix3x3@@XZ	; btTransform::getBasis
PUBLIC	??DbtTransform@@QBE?AVbtVector3@@ABV1@@Z	; btTransform::operator*
PUBLIC	?getColumn@btMatrix3x3@@QBE?AVbtVector3@@H@Z	; btMatrix3x3::getColumn
PUBLIC	??D@YA?AVbtVector3@@ABMABV0@@Z			; operator*
PUBLIC	??D@YA?AVbtVector3@@ABV0@ABM@Z			; operator*
PUBLIC	??G@YA?AVbtVector3@@ABV0@0@Z			; operator-
PUBLIC	??BbtVector3@@QAEPAMXZ				; btVector3::operator float *
PUBLIC	?cross@btVector3@@QBE?AV1@ABV1@@Z		; btVector3::cross
PUBLIC	??YbtVector3@@QAEAAV0@ABV0@@Z			; btVector3::operator+=
PUBLIC	?btSin@@YAMM@Z					; btSin
PUBLIC	?btCos@@YAMM@Z					; btCos
PUBLIC	?btFabs@@YAMM@Z					; btFabs
PUBLIC	_sinf
PUBLIC	_fabsf
PUBLIC	_cosf
PUBLIC	??0GLDebugDrawer@@QAE@PAVRenderingEngine@@@Z	; GLDebugDrawer::GLDebugDrawer
PUBLIC	?BIAS_MATRIX@RenderingEngine@@0V?$Matrix4@M@@B	; RenderingEngine::BIAS_MATRIX
EXTRN	??_EGLDebugDrawer@@UAEPAXI@Z:PROC		; GLDebugDrawer::`vector deleting destructor'
EXTRN	??_EbtIDebugDraw@@UAEPAXI@Z:PROC		; btIDebugDraw::`vector deleting destructor'
EXTRN	??_ERenderingEngine@@UAEPAXI@Z:PROC		; RenderingEngine::`vector deleting destructor'
?BIAS_MATRIX@RenderingEngine@@0V?$Matrix4@M@@B DB 040H DUP (?) ; RenderingEngine::BIAS_MATRIX
_BSS	ENDS
;	COMDAT xdata$x
xdata$x	SEGMENT
__ehfuncinfo$??1RenderingEngine@@UAE@XZ DD 019930522H
	DD	00H
	DD	00H
	DD	2 DUP(00H)
	DD	2 DUP(00H)
	DD	00H
	DD	05H
xdata$x	ENDS
;	COMDAT xdata$x
xdata$x	SEGMENT
__ehfuncinfo$??1?$vector@PAVBaseLight@@V?$allocator@PAVBaseLight@@@std@@@std@@QAE@XZ DD 019930522H
	DD	00H
	DD	00H
	DD	2 DUP(00H)
	DD	2 DUP(00H)
	DD	00H
	DD	05H
xdata$x	ENDS
;	COMDAT xdata$x
xdata$x	SEGMENT
__ehfuncinfo$??0?$vector@PAVBaseLight@@V?$allocator@PAVBaseLight@@@std@@@std@@QAE@XZ DD 019930522H
	DD	00H
	DD	00H
	DD	2 DUP(00H)
	DD	2 DUP(00H)
	DD	00H
	DD	05H
xdata$x	ENDS
;	COMDAT xdata$x
xdata$x	SEGMENT
__ehfuncinfo$??A?$map@V?$basic_string@DU?$char_traits@D@std@@V?$allocator@D@2@@std@@IU?$less@V?$basic_string@DU?$char_traits@D@std@@V?$allocator@D@2@@std@@@2@V?$allocator@U?$pair@$$CBV?$basic_string@DU?$char_traits@D@std@@V?$allocator@D@2@@std@@I@std@@@2@@std@@QAEAAIABV?$basic_string@DU?$char_traits@D@std@@V?$allocator@D@2@@1@@Z DD 019930522H
	DD	03H
	DD	FLAT:__unwindtable$??A?$map@V?$basic_string@DU?$char_traits@D@std@@V?$allocator@D@2@@std@@IU?$less@V?$basic_string@DU?$char_traits@D@std@@V?$allocator@D@2@@std@@@2@V?$allocator@U?$pair@$$CBV?$basic_string@DU?$char_traits@D@std@@V?$allocator@D@2@@std@@I@std@@@2@@std@@QAEAAIABV?$basic_string@DU?$char_traits@D@std@@V?$allocator@D@2@@1@@Z
	DD	2 DUP(00H)
	DD	2 DUP(00H)
	DD	00H
	DD	01H
__unwindtable$??A?$map@V?$basic_string@DU?$char_traits@D@std@@V?$allocator@D@2@@std@@IU?$less@V?$basic_string@DU?$char_traits@D@std@@V?$allocator@D@2@@std@@@2@V?$allocator@U?$pair@$$CBV?$basic_string@DU?$char_traits@D@std@@V?$allocator@D@2@@std@@I@std@@@2@@std@@QAEAAIABV?$basic_string@DU?$char_traits@D@std@@V?$allocator@D@2@@1@@Z DD 0ffffffffH
	DD	FLAT:__unwindfunclet$??A?$map@V?$basic_string@DU?$char_traits@D@std@@V?$allocator@D@2@@std@@IU?$less@V?$basic_string@DU?$char_traits@D@std@@V?$allocator@D@2@@std@@@2@V?$allocator@U?$pair@$$CBV?$basic_string@DU?$char_traits@D@std@@V?$allocator@D@2@@std@@I@std@@@2@@std@@QAEAAIABV?$basic_string@DU?$char_traits@D@std@@V?$allocator@D@2@@1@@Z$0
	DD	00H
	DD	FLAT:__unwindfunclet$??A?$map@V?$basic_string@DU?$char_traits@D@std@@V?$allocator@D@2@@std@@IU?$less@V?$basic_string@DU?$char_traits@D@std@@V?$allocator@D@2@@std@@@2@V?$allocator@U?$pair@$$CBV?$basic_string@DU?$char_traits@D@std@@V?$allocator@D@2@@std@@I@std@@@2@@std@@QAEAAIABV?$basic_string@DU?$char_traits@D@std@@V?$allocator@D@2@@1@@Z$1
	DD	00H
	DD	FLAT:__unwindfunclet$??A?$map@V?$basic_string@DU?$char_traits@D@std@@V?$allocator@D@2@@std@@IU?$less@V?$basic_string@DU?$char_traits@D@std@@V?$allocator@D@2@@std@@@2@V?$allocator@U?$pair@$$CBV?$basic_string@DU?$char_traits@D@std@@V?$allocator@D@2@@std@@I@std@@@2@@std@@QAEAAIABV?$basic_string@DU?$char_traits@D@std@@V?$allocator@D@2@@1@@Z$3
xdata$x	ENDS
;	COMDAT xdata$x
xdata$x	SEGMENT
__ehfuncinfo$??A?$map@V?$basic_string@DU?$char_traits@D@std@@V?$allocator@D@2@@std@@VVector3f@@U?$less@V?$basic_string@DU?$char_traits@D@std@@V?$allocator@D@2@@std@@@2@V?$allocator@U?$pair@$$CBV?$basic_string@DU?$char_traits@D@std@@V?$allocator@D@2@@std@@VVector3f@@@std@@@2@@std@@QAEAAVVector3f@@ABV?$basic_string@DU?$char_traits@D@std@@V?$allocator@D@2@@1@@Z DD 019930522H
	DD	03H
	DD	FLAT:__unwindtable$??A?$map@V?$basic_string@DU?$char_traits@D@std@@V?$allocator@D@2@@std@@VVector3f@@U?$less@V?$basic_string@DU?$char_traits@D@std@@V?$allocator@D@2@@std@@@2@V?$allocator@U?$pair@$$CBV?$basic_string@DU?$char_traits@D@std@@V?$allocator@D@2@@std@@VVector3f@@@std@@@2@@std@@QAEAAVVector3f@@ABV?$basic_string@DU?$char_traits@D@std@@V?$allocator@D@2@@1@@Z
	DD	2 DUP(00H)
	DD	2 DUP(00H)
	DD	00H
	DD	01H
__unwindtable$??A?$map@V?$basic_string@DU?$char_traits@D@std@@V?$allocator@D@2@@std@@VVector3f@@U?$less@V?$basic_string@DU?$char_traits@D@std@@V?$allocator@D@2@@std@@@2@V?$allocator@U?$pair@$$CBV?$basic_string@DU?$char_traits@D@std@@V?$allocator@D@2@@std@@VVector3f@@@std@@@2@@std@@QAEAAVVector3f@@ABV?$basic_string@DU?$char_traits@D@std@@V?$allocator@D@2@@1@@Z DD 0ffffffffH
	DD	FLAT:__unwindfunclet$??A?$map@V?$basic_string@DU?$char_traits@D@std@@V?$allocator@D@2@@std@@VVector3f@@U?$less@V?$basic_string@DU?$char_traits@D@std@@V?$allocator@D@2@@std@@@2@V?$allocator@U?$pair@$$CBV?$basic_string@DU?$char_traits@D@std@@V?$allocator@D@2@@std@@VVector3f@@@std@@@2@@std@@QAEAAVVector3f@@ABV?$basic_string@DU?$char_traits@D@std@@V?$allocator@D@2@@1@@Z$0
	DD	00H
	DD	FLAT:__unwindfunclet$??A?$map@V?$basic_string@DU?$char_traits@D@std@@V?$allocator@D@2@@std@@VVector3f@@U?$less@V?$basic_string@DU?$char_traits@D@std@@V?$allocator@D@2@@std@@@2@V?$allocator@U?$pair@$$CBV?$basic_string@DU?$char_traits@D@std@@V?$allocator@D@2@@std@@VVector3f@@@std@@@2@@std@@QAEAAVVector3f@@ABV?$basic_string@DU?$char_traits@D@std@@V?$allocator@D@2@@1@@Z$1
	DD	00H
	DD	FLAT:__unwindfunclet$??A?$map@V?$basic_string@DU?$char_traits@D@std@@V?$allocator@D@2@@std@@VVector3f@@U?$less@V?$basic_string@DU?$char_traits@D@std@@V?$allocator@D@2@@std@@@2@V?$allocator@U?$pair@$$CBV?$basic_string@DU?$char_traits@D@std@@V?$allocator@D@2@@std@@VVector3f@@@std@@@2@@std@@QAEAAVVector3f@@ABV?$basic_string@DU?$char_traits@D@std@@V?$allocator@D@2@@1@@Z$3
xdata$x	ENDS
;	COMDAT xdata$x
xdata$x	SEGMENT
__ehfuncinfo$??1?$_Vector_alloc@U?$_Vec_base_types@PAVBaseLight@@V?$allocator@PAVBaseLight@@@std@@@std@@@std@@QAE@XZ DD 019930522H
	DD	00H
	DD	00H
	DD	2 DUP(00H)
	DD	2 DUP(00H)
	DD	00H
	DD	05H
xdata$x	ENDS
;	COMDAT xdata$x
xdata$x	SEGMENT
__ehfuncinfo$??0?$_Vector_alloc@U?$_Vec_base_types@PAVBaseLight@@V?$allocator@PAVBaseLight@@@std@@@std@@@std@@QAE@ABV?$allocator@PAVBaseLight@@@1@@Z DD 019930522H
	DD	01H
	DD	FLAT:__unwindtable$??0?$_Vector_alloc@U?$_Vec_base_types@PAVBaseLight@@V?$allocator@PAVBaseLight@@@std@@@std@@@std@@QAE@ABV?$allocator@PAVBaseLight@@@1@@Z
	DD	2 DUP(00H)
	DD	2 DUP(00H)
	DD	00H
	DD	01H
__unwindtable$??0?$_Vector_alloc@U?$_Vec_base_types@PAVBaseLight@@V?$allocator@PAVBaseLight@@@std@@@std@@@std@@QAE@ABV?$allocator@PAVBaseLight@@@1@@Z DD 0ffffffffH
	DD	FLAT:__unwindfunclet$??0?$_Vector_alloc@U?$_Vec_base_types@PAVBaseLight@@V?$allocator@PAVBaseLight@@@std@@@std@@@std@@QAE@ABV?$allocator@PAVBaseLight@@@1@@Z$0
xdata$x	ENDS
;	COMDAT xdata$x
xdata$x	SEGMENT
__ehfuncinfo$??$emplace_hint@ABUpiecewise_construct_t@std@@V?$tuple@ABV?$basic_string@DU?$char_traits@D@std@@V?$allocator@D@2@@std@@@2@V?$tuple@$$V@2@@?$_Tree@V?$_Tmap_traits@V?$basic_string@DU?$char_traits@D@std@@V?$allocator@D@2@@std@@IU?$less@V?$basic_string@DU?$char_traits@D@std@@V?$allocator@D@2@@std@@@2@V?$allocator@U?$pair@$$CBV?$basic_string@DU?$char_traits@D@std@@V?$allocator@D@2@@std@@I@std@@@2@$0A@@std@@@std@@QAE?AV?$_Tree_iterator@V?$_Tree_val@U?$_Tree_simple_types@U?$pair@$$CBV?$basic_string@DU?$char_traits@D@std@@V?$allocator@D@2@@std@@I@std@@@std@@@std@@@1@V?$_Tree_const_iterator@V?$_Tree_val@U?$_Tree_simple_types@U?$pair@$$CBV?$basic_string@DU?$char_traits@D@std@@V?$allocator@D@2@@std@@I@std@@@std@@@std@@@1@ABUpiecewise_construct_t@1@$$QAV?$tuple@ABV?$basic_string@DU?$char_traits@D@std@@V?$allocator@D@2@@std@@@1@$$QAV?$tuple@$$V@1@@Z DD 019930522H
	DD	01H
	DD	FLAT:__unwindtable$??$emplace_hint@ABUpiecewise_construct_t@std@@V?$tuple@ABV?$basic_string@DU?$char_traits@D@std@@V?$allocator@D@2@@std@@@2@V?$tuple@$$V@2@@?$_Tree@V?$_Tmap_traits@V?$basic_string@DU?$char_traits@D@std@@V?$allocator@D@2@@std@@IU?$less@V?$basic_string@DU?$char_traits@D@std@@V?$allocator@D@2@@std@@@2@V?$allocator@U?$pair@$$CBV?$basic_string@DU?$char_traits@D@std@@V?$allocator@D@2@@std@@I@std@@@2@$0A@@std@@@std@@QAE?AV?$_Tree_iterator@V?$_Tree_val@U?$_Tree_simple_types@U?$pair@$$CBV?$basic_string@DU?$char_traits@D@std@@V?$allocator@D@2@@std@@I@std@@@std@@@std@@@1@V?$_Tree_const_iterator@V?$_Tree_val@U?$_Tree_simple_types@U?$pair@$$CBV?$basic_string@DU?$char_traits@D@std@@V?$allocator@D@2@@std@@I@std@@@std@@@std@@@1@ABUpiecewise_construct_t@1@$$QAV?$tuple@ABV?$basic_string@DU?$char_traits@D@std@@V?$allocator@D@2@@std@@@1@$$QAV?$tuple@$$V@1@@Z
	DD	2 DUP(00H)
	DD	2 DUP(00H)
	DD	00H
	DD	01H
__unwindtable$??$emplace_hint@ABUpiecewise_construct_t@std@@V?$tuple@ABV?$basic_string@DU?$char_traits@D@std@@V?$allocator@D@2@@std@@@2@V?$tuple@$$V@2@@?$_Tree@V?$_Tmap_traits@V?$basic_string@DU?$char_traits@D@std@@V?$allocator@D@2@@std@@IU?$less@V?$basic_string@DU?$char_traits@D@std@@V?$allocator@D@2@@std@@@2@V?$allocator@U?$pair@$$CBV?$basic_string@DU?$char_traits@D@std@@V?$allocator@D@2@@std@@I@std@@@2@$0A@@std@@@std@@QAE?AV?$_Tree_iterator@V?$_Tree_val@U?$_Tree_simple_types@U?$pair@$$CBV?$basic_string@DU?$char_traits@D@std@@V?$allocator@D@2@@std@@I@std@@@std@@@std@@@1@V?$_Tree_const_iterator@V?$_Tree_val@U?$_Tree_simple_types@U?$pair@$$CBV?$basic_string@DU?$char_traits@D@std@@V?$allocator@D@2@@std@@I@std@@@std@@@std@@@1@ABUpiecewise_construct_t@1@$$QAV?$tuple@ABV?$basic_string@DU?$char_traits@D@std@@V?$allocator@D@2@@std@@@1@$$QAV?$tuple@$$V@1@@Z DD 0ffffffffH
	DD	FLAT:__unwindfunclet$??$emplace_hint@ABUpiecewise_construct_t@std@@V?$tuple@ABV?$basic_string@DU?$char_traits@D@std@@V?$allocator@D@2@@std@@@2@V?$tuple@$$V@2@@?$_Tree@V?$_Tmap_traits@V?$basic_string@DU?$char_traits@D@std@@V?$allocator@D@2@@std@@IU?$less@V?$basic_string@DU?$char_traits@D@std@@V?$allocator@D@2@@std@@@2@V?$allocator@U?$pair@$$CBV?$basic_string@DU?$char_traits@D@std@@V?$allocator@D@2@@std@@I@std@@@2@$0A@@std@@@std@@QAE?AV?$_Tree_iterator@V?$_Tree_val@U?$_Tree_simple_types@U?$pair@$$CBV?$basic_string@DU?$char_traits@D@std@@V?$allocator@D@2@@std@@I@std@@@std@@@std@@@1@V?$_Tree_const_iterator@V?$_Tree_val@U?$_Tree_simple_types@U?$pair@$$CBV?$basic_string@DU?$char_traits@D@std@@V?$allocator@D@2@@std@@I@std@@@std@@@std@@@1@ABUpiecewise_construct_t@1@$$QAV?$tuple@ABV?$basic_string@DU?$char_traits@D@std@@V?$allocator@D@2@@std@@@1@$$QAV?$tuple@$$V@1@@Z$0
xdata$x	ENDS
;	COMDAT xdata$x
xdata$x	SEGMENT
__ehfuncinfo$??$emplace_hint@ABUpiecewise_construct_t@std@@V?$tuple@ABV?$basic_string@DU?$char_traits@D@std@@V?$allocator@D@2@@std@@@2@V?$tuple@$$V@2@@?$_Tree@V?$_Tmap_traits@V?$basic_string@DU?$char_traits@D@std@@V?$allocator@D@2@@std@@VVector3f@@U?$less@V?$basic_string@DU?$char_traits@D@std@@V?$allocator@D@2@@std@@@2@V?$allocator@U?$pair@$$CBV?$basic_string@DU?$char_traits@D@std@@V?$allocator@D@2@@std@@VVector3f@@@std@@@2@$0A@@std@@@std@@QAE?AV?$_Tree_iterator@V?$_Tree_val@U?$_Tree_simple_types@U?$pair@$$CBV?$basic_string@DU?$char_traits@D@std@@V?$allocator@D@2@@std@@VVector3f@@@std@@@std@@@std@@@1@V?$_Tree_const_iterator@V?$_Tree_val@U?$_Tree_simple_types@U?$pair@$$CBV?$basic_string@DU?$char_traits@D@std@@V?$allocator@D@2@@std@@VVector3f@@@std@@@std@@@std@@@1@ABUpiecewise_construct_t@1@$$QAV?$tuple@ABV?$basic_string@DU?$char_traits@D@std@@V?$allocator@D@2@@std@@@1@$$QAV?$tuple@$$V@1@@Z DD 019930522H
	DD	01H
	DD	FLAT:__unwindtable$??$emplace_hint@ABUpiecewise_construct_t@std@@V?$tuple@ABV?$basic_string@DU?$char_traits@D@std@@V?$allocator@D@2@@std@@@2@V?$tuple@$$V@2@@?$_Tree@V?$_Tmap_traits@V?$basic_string@DU?$char_traits@D@std@@V?$allocator@D@2@@std@@VVector3f@@U?$less@V?$basic_string@DU?$char_traits@D@std@@V?$allocator@D@2@@std@@@2@V?$allocator@U?$pair@$$CBV?$basic_string@DU?$char_traits@D@std@@V?$allocator@D@2@@std@@VVector3f@@@std@@@2@$0A@@std@@@std@@QAE?AV?$_Tree_iterator@V?$_Tree_val@U?$_Tree_simple_types@U?$pair@$$CBV?$basic_string@DU?$char_traits@D@std@@V?$allocator@D@2@@std@@VVector3f@@@std@@@std@@@std@@@1@V?$_Tree_const_iterator@V?$_Tree_val@U?$_Tree_simple_types@U?$pair@$$CBV?$basic_string@DU?$char_traits@D@std@@V?$allocator@D@2@@std@@VVector3f@@@std@@@std@@@std@@@1@ABUpiecewise_construct_t@1@$$QAV?$tuple@ABV?$basic_string@DU?$char_traits@D@std@@V?$allocator@D@2@@std@@@1@$$QAV?$tuple@$$V@1@@Z
	DD	2 DUP(00H)
	DD	2 DUP(00H)
	DD	00H
	DD	01H
__unwindtable$??$emplace_hint@ABUpiecewise_construct_t@std@@V?$tuple@ABV?$basic_string@DU?$char_traits@D@std@@V?$allocator@D@2@@std@@@2@V?$tuple@$$V@2@@?$_Tree@V?$_Tmap_traits@V?$basic_string@DU?$char_traits@D@std@@V?$allocator@D@2@@std@@VVector3f@@U?$less@V?$basic_string@DU?$char_traits@D@std@@V?$allocator@D@2@@std@@@2@V?$allocator@U?$pair@$$CBV?$basic_string@DU?$char_traits@D@std@@V?$allocator@D@2@@std@@VVector3f@@@std@@@2@$0A@@std@@@std@@QAE?AV?$_Tree_iterator@V?$_Tree_val@U?$_Tree_simple_types@U?$pair@$$CBV?$basic_string@DU?$char_traits@D@std@@V?$allocator@D@2@@std@@VVector3f@@@std@@@std@@@std@@@1@V?$_Tree_const_iterator@V?$_Tree_val@U?$_Tree_simple_types@U?$pair@$$CBV?$basic_string@DU?$char_traits@D@std@@V?$allocator@D@2@@std@@VVector3f@@@std@@@std@@@std@@@1@ABUpiecewise_construct_t@1@$$QAV?$tuple@ABV?$basic_string@DU?$char_traits@D@std@@V?$allocator@D@2@@std@@@1@$$QAV?$tuple@$$V@1@@Z DD 0ffffffffH
	DD	FLAT:__unwindfunclet$??$emplace_hint@ABUpiecewise_construct_t@std@@V?$tuple@ABV?$basic_string@DU?$char_traits@D@std@@V?$allocator@D@2@@std@@@2@V?$tuple@$$V@2@@?$_Tree@V?$_Tmap_traits@V?$basic_string@DU?$char_traits@D@std@@V?$allocator@D@2@@std@@VVector3f@@U?$less@V?$basic_string@DU?$char_traits@D@std@@V?$allocator@D@2@@std@@@2@V?$allocator@U?$pair@$$CBV?$basic_string@DU?$char_traits@D@std@@V?$allocator@D@2@@std@@VVector3f@@@std@@@2@$0A@@std@@@std@@QAE?AV?$_Tree_iterator@V?$_Tree_val@U?$_Tree_simple_types@U?$pair@$$CBV?$basic_string@DU?$char_traits@D@std@@V?$allocator@D@2@@std@@VVector3f@@@std@@@std@@@std@@@1@V?$_Tree_const_iterator@V?$_Tree_val@U?$_Tree_simple_types@U?$pair@$$CBV?$basic_string@DU?$char_traits@D@std@@V?$allocator@D@2@@std@@VVector3f@@@std@@@std@@@std@@@1@ABUpiecewise_construct_t@1@$$QAV?$tuple@ABV?$basic_string@DU?$char_traits@D@std@@V?$allocator@D@2@@std@@@1@$$QAV?$tuple@$$V@1@@Z$0
xdata$x	ENDS
;	COMDAT xdata$x
xdata$x	SEGMENT
__ehfuncinfo$??$_Buynode@ABUpiecewise_construct_t@std@@V?$tuple@ABV?$basic_string@DU?$char_traits@D@std@@V?$allocator@D@2@@std@@@2@V?$tuple@$$V@2@@?$_Tree_comp_alloc@V?$_Tmap_traits@V?$basic_string@DU?$char_traits@D@std@@V?$allocator@D@2@@std@@IU?$less@V?$basic_string@DU?$char_traits@D@std@@V?$allocator@D@2@@std@@@2@V?$allocator@U?$pair@$$CBV?$basic_string@DU?$char_traits@D@std@@V?$allocator@D@2@@std@@I@std@@@2@$0A@@std@@@std@@QAEPAU?$_Tree_node@U?$pair@$$CBV?$basic_string@DU?$char_traits@D@std@@V?$allocator@D@2@@std@@I@std@@PAX@1@ABUpiecewise_construct_t@1@$$QAV?$tuple@ABV?$basic_string@DU?$char_traits@D@std@@V?$allocator@D@2@@std@@@1@$$QAV?$tuple@$$V@1@@Z DD 019930522H
	DD	02H
	DD	FLAT:__unwindtable$??$_Buynode@ABUpiecewise_construct_t@std@@V?$tuple@ABV?$basic_string@DU?$char_traits@D@std@@V?$allocator@D@2@@std@@@2@V?$tuple@$$V@2@@?$_Tree_comp_alloc@V?$_Tmap_traits@V?$basic_string@DU?$char_traits@D@std@@V?$allocator@D@2@@std@@IU?$less@V?$basic_string@DU?$char_traits@D@std@@V?$allocator@D@2@@std@@@2@V?$allocator@U?$pair@$$CBV?$basic_string@DU?$char_traits@D@std@@V?$allocator@D@2@@std@@I@std@@@2@$0A@@std@@@std@@QAEPAU?$_Tree_node@U?$pair@$$CBV?$basic_string@DU?$char_traits@D@std@@V?$allocator@D@2@@std@@I@std@@PAX@1@ABUpiecewise_construct_t@1@$$QAV?$tuple@ABV?$basic_string@DU?$char_traits@D@std@@V?$allocator@D@2@@std@@@1@$$QAV?$tuple@$$V@1@@Z
	DD	01H
	DD	FLAT:__tryblocktable$??$_Buynode@ABUpiecewise_construct_t@std@@V?$tuple@ABV?$basic_string@DU?$char_traits@D@std@@V?$allocator@D@2@@std@@@2@V?$tuple@$$V@2@@?$_Tree_comp_alloc@V?$_Tmap_traits@V?$basic_string@DU?$char_traits@D@std@@V?$allocator@D@2@@std@@IU?$less@V?$basic_string@DU?$char_traits@D@std@@V?$allocator@D@2@@std@@@2@V?$allocator@U?$pair@$$CBV?$basic_string@DU?$char_traits@D@std@@V?$allocator@D@2@@std@@I@std@@@2@$0A@@std@@@std@@QAEPAU?$_Tree_node@U?$pair@$$CBV?$basic_string@DU?$char_traits@D@std@@V?$allocator@D@2@@std@@I@std@@PAX@1@ABUpiecewise_construct_t@1@$$QAV?$tuple@ABV?$basic_string@DU?$char_traits@D@std@@V?$allocator@D@2@@std@@@1@$$QAV?$tuple@$$V@1@@Z
	DD	2 DUP(00H)
	DD	00H
	DD	01H
__unwindtable$??$_Buynode@ABUpiecewise_construct_t@std@@V?$tuple@ABV?$basic_string@DU?$char_traits@D@std@@V?$allocator@D@2@@std@@@2@V?$tuple@$$V@2@@?$_Tree_comp_alloc@V?$_Tmap_traits@V?$basic_string@DU?$char_traits@D@std@@V?$allocator@D@2@@std@@IU?$less@V?$basic_string@DU?$char_traits@D@std@@V?$allocator@D@2@@std@@@2@V?$allocator@U?$pair@$$CBV?$basic_string@DU?$char_traits@D@std@@V?$allocator@D@2@@std@@I@std@@@2@$0A@@std@@@std@@QAEPAU?$_Tree_node@U?$pair@$$CBV?$basic_string@DU?$char_traits@D@std@@V?$allocator@D@2@@std@@I@std@@PAX@1@ABUpiecewise_construct_t@1@$$QAV?$tuple@ABV?$basic_string@DU?$char_traits@D@std@@V?$allocator@D@2@@std@@@1@$$QAV?$tuple@$$V@1@@Z DD 0ffffffffH
	DD	00H
	DD	0ffffffffH
	DD	00H
__tryblocktable$??$_Buynode@ABUpiecewise_construct_t@std@@V?$tuple@ABV?$basic_string@DU?$char_traits@D@std@@V?$allocator@D@2@@std@@@2@V?$tuple@$$V@2@@?$_Tree_comp_alloc@V?$_Tmap_traits@V?$basic_string@DU?$char_traits@D@std@@V?$allocator@D@2@@std@@IU?$less@V?$basic_string@DU?$char_traits@D@std@@V?$allocator@D@2@@std@@@2@V?$allocator@U?$pair@$$CBV?$basic_string@DU?$char_traits@D@std@@V?$allocator@D@2@@std@@I@std@@@2@$0A@@std@@@std@@QAEPAU?$_Tree_node@U?$pair@$$CBV?$basic_string@DU?$char_traits@D@std@@V?$allocator@D@2@@std@@I@std@@PAX@1@ABUpiecewise_construct_t@1@$$QAV?$tuple@ABV?$basic_string@DU?$char_traits@D@std@@V?$allocator@D@2@@std@@@1@$$QAV?$tuple@$$V@1@@Z DD 00H
	DD	00H
	DD	01H
	DD	01H
	DD	FLAT:__catchsym$??$_Buynode@ABUpiecewise_construct_t@std@@V?$tuple@ABV?$basic_string@DU?$char_traits@D@std@@V?$allocator@D@2@@std@@@2@V?$tuple@$$V@2@@?$_Tree_comp_alloc@V?$_Tmap_traits@V?$basic_string@DU?$char_traits@D@std@@V?$allocator@D@2@@std@@IU?$less@V?$basic_string@DU?$char_traits@D@std@@V?$allocator@D@2@@std@@@2@V?$allocator@U?$pair@$$CBV?$basic_string@DU?$char_traits@D@std@@V?$allocator@D@2@@std@@I@std@@@2@$0A@@std@@@std@@QAEPAU?$_Tree_node@U?$pair@$$CBV?$basic_string@DU?$char_traits@D@std@@V?$allocator@D@2@@std@@I@std@@PAX@1@ABUpiecewise_construct_t@1@$$QAV?$tuple@ABV?$basic_string@DU?$char_traits@D@std@@V?$allocator@D@2@@std@@@1@$$QAV?$tuple@$$V@1@@Z$2
__catchsym$??$_Buynode@ABUpiecewise_construct_t@std@@V?$tuple@ABV?$basic_string@DU?$char_traits@D@std@@V?$allocator@D@2@@std@@@2@V?$tuple@$$V@2@@?$_Tree_comp_alloc@V?$_Tmap_traits@V?$basic_string@DU?$char_traits@D@std@@V?$allocator@D@2@@std@@IU?$less@V?$basic_string@DU?$char_traits@D@std@@V?$allocator@D@2@@std@@@2@V?$allocator@U?$pair@$$CBV?$basic_string@DU?$char_traits@D@std@@V?$allocator@D@2@@std@@I@std@@@2@$0A@@std@@@std@@QAEPAU?$_Tree_node@U?$pair@$$CBV?$basic_string@DU?$char_traits@D@std@@V?$allocator@D@2@@std@@I@std@@PAX@1@ABUpiecewise_construct_t@1@$$QAV?$tuple@ABV?$basic_string@DU?$char_traits@D@std@@V?$allocator@D@2@@std@@@1@$$QAV?$tuple@$$V@1@@Z$2 DD 040H
	DD	00H
	DD	00H
	DD	FLAT:__catch$??$_Buynode@ABUpiecewise_construct_t@std@@V?$tuple@ABV?$basic_string@DU?$char_traits@D@std@@V?$allocator@D@2@@std@@@2@V?$tuple@$$V@2@@?$_Tree_comp_alloc@V?$_Tmap_traits@V?$basic_string@DU?$char_traits@D@std@@V?$allocator@D@2@@std@@IU?$less@V?$basic_string@DU?$char_traits@D@std@@V?$allocator@D@2@@std@@@2@V?$allocator@U?$pair@$$CBV?$basic_string@DU?$char_traits@D@std@@V?$allocator@D@2@@std@@I@std@@@2@$0A@@std@@@std@@QAEPAU?$_Tree_node@U?$pair@$$CBV?$basic_string@DU?$char_traits@D@std@@V?$allocator@D@2@@std@@I@std@@PAX@1@ABUpiecewise_construct_t@1@$$QAV?$tuple@ABV?$basic_string@DU?$char_traits@D@std@@V?$allocator@D@2@@std@@@1@$$QAV?$tuple@$$V@1@@Z$0
xdata$x	ENDS
;	COMDAT xdata$x
xdata$x	SEGMENT
__ehfuncinfo$??$_Insert_hint@AAU?$pair@$$CBV?$basic_string@DU?$char_traits@D@std@@V?$allocator@D@2@@std@@I@std@@PAU?$_Tree_node@U?$pair@$$CBV?$basic_string@DU?$char_traits@D@std@@V?$allocator@D@2@@std@@I@std@@PAX@2@@?$_Tree@V?$_Tmap_traits@V?$basic_string@DU?$char_traits@D@std@@V?$allocator@D@2@@std@@IU?$less@V?$basic_string@DU?$char_traits@D@std@@V?$allocator@D@2@@std@@@2@V?$allocator@U?$pair@$$CBV?$basic_string@DU?$char_traits@D@std@@V?$allocator@D@2@@std@@I@std@@@2@$0A@@std@@@std@@IAE?AV?$_Tree_iterator@V?$_Tree_val@U?$_Tree_simple_types@U?$pair@$$CBV?$basic_string@DU?$char_traits@D@std@@V?$allocator@D@2@@std@@I@std@@@std@@@std@@@1@V?$_Tree_const_iterator@V?$_Tree_val@U?$_Tree_simple_types@U?$pair@$$CBV?$basic_string@DU?$char_traits@D@std@@V?$allocator@D@2@@std@@I@std@@@std@@@std@@@1@AAU?$pair@$$CBV?$basic_string@DU?$char_traits@D@std@@V?$allocator@D@2@@std@@I@1@PAU?$_Tree_node@U?$pair@$$CBV?$basic_string@DU?$char_traits@D@std@@V?$allocator@D@2@@std@@I@std@@PAX@1@@Z DD 019930522H
	DD	0bH
	DD	FLAT:__unwindtable$??$_Insert_hint@AAU?$pair@$$CBV?$basic_string@DU?$char_traits@D@std@@V?$allocator@D@2@@std@@I@std@@PAU?$_Tree_node@U?$pair@$$CBV?$basic_string@DU?$char_traits@D@std@@V?$allocator@D@2@@std@@I@std@@PAX@2@@?$_Tree@V?$_Tmap_traits@V?$basic_string@DU?$char_traits@D@std@@V?$allocator@D@2@@std@@IU?$less@V?$basic_string@DU?$char_traits@D@std@@V?$allocator@D@2@@std@@@2@V?$allocator@U?$pair@$$CBV?$basic_string@DU?$char_traits@D@std@@V?$allocator@D@2@@std@@I@std@@@2@$0A@@std@@@std@@IAE?AV?$_Tree_iterator@V?$_Tree_val@U?$_Tree_simple_types@U?$pair@$$CBV?$basic_string@DU?$char_traits@D@std@@V?$allocator@D@2@@std@@I@std@@@std@@@std@@@1@V?$_Tree_const_iterator@V?$_Tree_val@U?$_Tree_simple_types@U?$pair@$$CBV?$basic_string@DU?$char_traits@D@std@@V?$allocator@D@2@@std@@I@std@@@std@@@std@@@1@AAU?$pair@$$CBV?$basic_string@DU?$char_traits@D@std@@V?$allocator@D@2@@std@@I@1@PAU?$_Tree_node@U?$pair@$$CBV?$basic_string@DU?$char_traits@D@std@@V?$allocator@D@2@@std@@I@std@@PAX@1@@Z
	DD	01H
	DD	FLAT:__tryblocktable$??$_Insert_hint@AAU?$pair@$$CBV?$basic_string@DU?$char_traits@D@std@@V?$allocator@D@2@@std@@I@std@@PAU?$_Tree_node@U?$pair@$$CBV?$basic_string@DU?$char_traits@D@std@@V?$allocator@D@2@@std@@I@std@@PAX@2@@?$_Tree@V?$_Tmap_traits@V?$basic_string@DU?$char_traits@D@std@@V?$allocator@D@2@@std@@IU?$less@V?$basic_string@DU?$char_traits@D@std@@V?$allocator@D@2@@std@@@2@V?$allocator@U?$pair@$$CBV?$basic_string@DU?$char_traits@D@std@@V?$allocator@D@2@@std@@I@std@@@2@$0A@@std@@@std@@IAE?AV?$_Tree_iterator@V?$_Tree_val@U?$_Tree_simple_types@U?$pair@$$CBV?$basic_string@DU?$char_traits@D@std@@V?$allocator@D@2@@std@@I@std@@@std@@@std@@@1@V?$_Tree_const_iterator@V?$_Tree_val@U?$_Tree_simple_types@U?$pair@$$CBV?$basic_string@DU?$char_traits@D@std@@V?$allocator@D@2@@std@@I@std@@@std@@@std@@@1@AAU?$pair@$$CBV?$basic_string@DU?$char_traits@D@std@@V?$allocator@D@2@@std@@I@1@PAU?$_Tree_node@U?$pair@$$CBV?$basic_string@DU?$char_traits@D@std@@V?$allocator@D@2@@std@@I@std@@PAX@1@@Z
	DD	2 DUP(00H)
	DD	00H
	DD	01H
__tryblocktable$??$_Insert_hint@AAU?$pair@$$CBV?$basic_string@DU?$char_traits@D@std@@V?$allocator@D@2@@std@@I@std@@PAU?$_Tree_node@U?$pair@$$CBV?$basic_string@DU?$char_traits@D@std@@V?$allocator@D@2@@std@@I@std@@PAX@2@@?$_Tree@V?$_Tmap_traits@V?$basic_string@DU?$char_traits@D@std@@V?$allocator@D@2@@std@@IU?$less@V?$basic_string@DU?$char_traits@D@std@@V?$allocator@D@2@@std@@@2@V?$allocator@U?$pair@$$CBV?$basic_string@DU?$char_traits@D@std@@V?$allocator@D@2@@std@@I@std@@@2@$0A@@std@@@std@@IAE?AV?$_Tree_iterator@V?$_Tree_val@U?$_Tree_simple_types@U?$pair@$$CBV?$basic_string@DU?$char_traits@D@std@@V?$allocator@D@2@@std@@I@std@@@std@@@std@@@1@V?$_Tree_const_iterator@V?$_Tree_val@U?$_Tree_simple_types@U?$pair@$$CBV?$basic_string@DU?$char_traits@D@std@@V?$allocator@D@2@@std@@I@std@@@std@@@std@@@1@AAU?$pair@$$CBV?$basic_string@DU?$char_traits@D@std@@V?$allocator@D@2@@std@@I@1@PAU?$_Tree_node@U?$pair@$$CBV?$basic_string@DU?$char_traits@D@std@@V?$allocator@D@2@@std@@I@std@@PAX@1@@Z DD 02H
	DD	08H
	DD	09H
	DD	01H
	DD	FLAT:__catchsym$??$_Insert_hint@AAU?$pair@$$CBV?$basic_string@DU?$char_traits@D@std@@V?$allocator@D@2@@std@@I@std@@PAU?$_Tree_node@U?$pair@$$CBV?$basic_string@DU?$char_traits@D@std@@V?$allocator@D@2@@std@@I@std@@PAX@2@@?$_Tree@V?$_Tmap_traits@V?$basic_string@DU?$char_traits@D@std@@V?$allocator@D@2@@std@@IU?$less@V?$basic_string@DU?$char_traits@D@std@@V?$allocator@D@2@@std@@@2@V?$allocator@U?$pair@$$CBV?$basic_string@DU?$char_traits@D@std@@V?$allocator@D@2@@std@@I@std@@@2@$0A@@std@@@std@@IAE?AV?$_Tree_iterator@V?$_Tree_val@U?$_Tree_simple_types@U?$pair@$$CBV?$basic_string@DU?$char_traits@D@std@@V?$allocator@D@2@@std@@I@std@@@std@@@std@@@1@V?$_Tree_const_iterator@V?$_Tree_val@U?$_Tree_simple_types@U?$pair@$$CBV?$basic_string@DU?$char_traits@D@std@@V?$allocator@D@2@@std@@I@std@@@std@@@std@@@1@AAU?$pair@$$CBV?$basic_string@DU?$char_traits@D@std@@V?$allocator@D@2@@std@@I@1@PAU?$_Tree_node@U?$pair@$$CBV?$basic_string@DU?$char_traits@D@std@@V?$allocator@D@2@@std@@I@std@@PAX@1@@Z$12
__unwindtable$??$_Insert_hint@AAU?$pair@$$CBV?$basic_string@DU?$char_traits@D@std@@V?$allocator@D@2@@std@@I@std@@PAU?$_Tree_node@U?$pair@$$CBV?$basic_string@DU?$char_traits@D@std@@V?$allocator@D@2@@std@@I@std@@PAX@2@@?$_Tree@V?$_Tmap_traits@V?$basic_string@DU?$char_traits@D@std@@V?$allocator@D@2@@std@@IU?$less@V?$basic_string@DU?$char_traits@D@std@@V?$allocator@D@2@@std@@@2@V?$allocator@U?$pair@$$CBV?$basic_string@DU?$char_traits@D@std@@V?$allocator@D@2@@std@@I@std@@@2@$0A@@std@@@std@@IAE?AV?$_Tree_iterator@V?$_Tree_val@U?$_Tree_simple_types@U?$pair@$$CBV?$basic_string@DU?$char_traits@D@std@@V?$allocator@D@2@@std@@I@std@@@std@@@std@@@1@V?$_Tree_const_iterator@V?$_Tree_val@U?$_Tree_simple_types@U?$pair@$$CBV?$basic_string@DU?$char_traits@D@std@@V?$allocator@D@2@@std@@I@std@@@std@@@std@@@1@AAU?$pair@$$CBV?$basic_string@DU?$char_traits@D@std@@V?$allocator@D@2@@std@@I@1@PAU?$_Tree_node@U?$pair@$$CBV?$basic_string@DU?$char_traits@D@std@@V?$allocator@D@2@@std@@I@std@@PAX@1@@Z DD 0ffffffffH
	DD	FLAT:__unwindfunclet$??$_Insert_hint@AAU?$pair@$$CBV?$basic_string@DU?$char_traits@D@std@@V?$allocator@D@2@@std@@I@std@@PAU?$_Tree_node@U?$pair@$$CBV?$basic_string@DU?$char_traits@D@std@@V?$allocator@D@2@@std@@I@std@@PAX@2@@?$_Tree@V?$_Tmap_traits@V?$basic_string@DU?$char_traits@D@std@@V?$allocator@D@2@@std@@IU?$less@V?$basic_string@DU?$char_traits@D@std@@V?$allocator@D@2@@std@@@2@V?$allocator@U?$pair@$$CBV?$basic_string@DU?$char_traits@D@std@@V?$allocator@D@2@@std@@I@std@@@2@$0A@@std@@@std@@IAE?AV?$_Tree_iterator@V?$_Tree_val@U?$_Tree_simple_types@U?$pair@$$CBV?$basic_string@DU?$char_traits@D@std@@V?$allocator@D@2@@std@@I@std@@@std@@@std@@@1@V?$_Tree_const_iterator@V?$_Tree_val@U?$_Tree_simple_types@U?$pair@$$CBV?$basic_string@DU?$char_traits@D@std@@V?$allocator@D@2@@std@@I@std@@@std@@@std@@@1@AAU?$pair@$$CBV?$basic_string@DU?$char_traits@D@std@@V?$allocator@D@2@@std@@I@1@PAU?$_Tree_node@U?$pair@$$CBV?$basic_string@DU?$char_traits@D@std@@V?$allocator@D@2@@std@@I@std@@PAX@1@@Z$2
	DD	00H
	DD	FLAT:__unwindfunclet$??$_Insert_hint@AAU?$pair@$$CBV?$basic_string@DU?$char_traits@D@std@@V?$allocator@D@2@@std@@I@std@@PAU?$_Tree_node@U?$pair@$$CBV?$basic_string@DU?$char_traits@D@std@@V?$allocator@D@2@@std@@I@std@@PAX@2@@?$_Tree@V?$_Tmap_traits@V?$basic_string@DU?$char_traits@D@std@@V?$allocator@D@2@@std@@IU?$less@V?$basic_string@DU?$char_traits@D@std@@V?$allocator@D@2@@std@@@2@V?$allocator@U?$pair@$$CBV?$basic_string@DU?$char_traits@D@std@@V?$allocator@D@2@@std@@I@std@@@2@$0A@@std@@@std@@IAE?AV?$_Tree_iterator@V?$_Tree_val@U?$_Tree_simple_types@U?$pair@$$CBV?$basic_string@DU?$char_traits@D@std@@V?$allocator@D@2@@std@@I@std@@@std@@@std@@@1@V?$_Tree_const_iterator@V?$_Tree_val@U?$_Tree_simple_types@U?$pair@$$CBV?$basic_string@DU?$char_traits@D@std@@V?$allocator@D@2@@std@@I@std@@@std@@@std@@@1@AAU?$pair@$$CBV?$basic_string@DU?$char_traits@D@std@@V?$allocator@D@2@@std@@I@1@PAU?$_Tree_node@U?$pair@$$CBV?$basic_string@DU?$char_traits@D@std@@V?$allocator@D@2@@std@@I@std@@PAX@1@@Z$3
	DD	01H
	DD	00H
	DD	02H
	DD	FLAT:__unwindfunclet$??$_Insert_hint@AAU?$pair@$$CBV?$basic_string@DU?$char_traits@D@std@@V?$allocator@D@2@@std@@I@std@@PAU?$_Tree_node@U?$pair@$$CBV?$basic_string@DU?$char_traits@D@std@@V?$allocator@D@2@@std@@I@std@@PAX@2@@?$_Tree@V?$_Tmap_traits@V?$basic_string@DU?$char_traits@D@std@@V?$allocator@D@2@@std@@IU?$less@V?$basic_string@DU?$char_traits@D@std@@V?$allocator@D@2@@std@@@2@V?$allocator@U?$pair@$$CBV?$basic_string@DU?$char_traits@D@std@@V?$allocator@D@2@@std@@I@std@@@2@$0A@@std@@@std@@IAE?AV?$_Tree_iterator@V?$_Tree_val@U?$_Tree_simple_types@U?$pair@$$CBV?$basic_string@DU?$char_traits@D@std@@V?$allocator@D@2@@std@@I@std@@@std@@@std@@@1@V?$_Tree_const_iterator@V?$_Tree_val@U?$_Tree_simple_types@U?$pair@$$CBV?$basic_string@DU?$char_traits@D@std@@V?$allocator@D@2@@std@@I@std@@@std@@@std@@@1@AAU?$pair@$$CBV?$basic_string@DU?$char_traits@D@std@@V?$allocator@D@2@@std@@I@1@PAU?$_Tree_node@U?$pair@$$CBV?$basic_string@DU?$char_traits@D@std@@V?$allocator@D@2@@std@@I@std@@PAX@1@@Z$5
	DD	02H
	DD	FLAT:__unwindfunclet$??$_Insert_hint@AAU?$pair@$$CBV?$basic_string@DU?$char_traits@D@std@@V?$allocator@D@2@@std@@I@std@@PAU?$_Tree_node@U?$pair@$$CBV?$basic_string@DU?$char_traits@D@std@@V?$allocator@D@2@@std@@I@std@@PAX@2@@?$_Tree@V?$_Tmap_traits@V?$basic_string@DU?$char_traits@D@std@@V?$allocator@D@2@@std@@IU?$less@V?$basic_string@DU?$char_traits@D@std@@V?$allocator@D@2@@std@@@2@V?$allocator@U?$pair@$$CBV?$basic_string@DU?$char_traits@D@std@@V?$allocator@D@2@@std@@I@std@@@2@$0A@@std@@@std@@IAE?AV?$_Tree_iterator@V?$_Tree_val@U?$_Tree_simple_types@U?$pair@$$CBV?$basic_string@DU?$char_traits@D@std@@V?$allocator@D@2@@std@@I@std@@@std@@@std@@@1@V?$_Tree_const_iterator@V?$_Tree_val@U?$_Tree_simple_types@U?$pair@$$CBV?$basic_string@DU?$char_traits@D@std@@V?$allocator@D@2@@std@@I@std@@@std@@@std@@@1@AAU?$pair@$$CBV?$basic_string@DU?$char_traits@D@std@@V?$allocator@D@2@@std@@I@1@PAU?$_Tree_node@U?$pair@$$CBV?$basic_string@DU?$char_traits@D@std@@V?$allocator@D@2@@std@@I@std@@PAX@1@@Z$6
	DD	02H
	DD	FLAT:__unwindfunclet$??$_Insert_hint@AAU?$pair@$$CBV?$basic_string@DU?$char_traits@D@std@@V?$allocator@D@2@@std@@I@std@@PAU?$_Tree_node@U?$pair@$$CBV?$basic_string@DU?$char_traits@D@std@@V?$allocator@D@2@@std@@I@std@@PAX@2@@?$_Tree@V?$_Tmap_traits@V?$basic_string@DU?$char_traits@D@std@@V?$allocator@D@2@@std@@IU?$less@V?$basic_string@DU?$char_traits@D@std@@V?$allocator@D@2@@std@@@2@V?$allocator@U?$pair@$$CBV?$basic_string@DU?$char_traits@D@std@@V?$allocator@D@2@@std@@I@std@@@2@$0A@@std@@@std@@IAE?AV?$_Tree_iterator@V?$_Tree_val@U?$_Tree_simple_types@U?$pair@$$CBV?$basic_string@DU?$char_traits@D@std@@V?$allocator@D@2@@std@@I@std@@@std@@@std@@@1@V?$_Tree_const_iterator@V?$_Tree_val@U?$_Tree_simple_types@U?$pair@$$CBV?$basic_string@DU?$char_traits@D@std@@V?$allocator@D@2@@std@@I@std@@@std@@@std@@@1@AAU?$pair@$$CBV?$basic_string@DU?$char_traits@D@std@@V?$allocator@D@2@@std@@I@1@PAU?$_Tree_node@U?$pair@$$CBV?$basic_string@DU?$char_traits@D@std@@V?$allocator@D@2@@std@@I@std@@PAX@1@@Z$7
	DD	02H
	DD	FLAT:__unwindfunclet$??$_Insert_hint@AAU?$pair@$$CBV?$basic_string@DU?$char_traits@D@std@@V?$allocator@D@2@@std@@I@std@@PAU?$_Tree_node@U?$pair@$$CBV?$basic_string@DU?$char_traits@D@std@@V?$allocator@D@2@@std@@I@std@@PAX@2@@?$_Tree@V?$_Tmap_traits@V?$basic_string@DU?$char_traits@D@std@@V?$allocator@D@2@@std@@IU?$less@V?$basic_string@DU?$char_traits@D@std@@V?$allocator@D@2@@std@@@2@V?$allocator@U?$pair@$$CBV?$basic_string@DU?$char_traits@D@std@@V?$allocator@D@2@@std@@I@std@@@2@$0A@@std@@@std@@IAE?AV?$_Tree_iterator@V?$_Tree_val@U?$_Tree_simple_types@U?$pair@$$CBV?$basic_string@DU?$char_traits@D@std@@V?$allocator@D@2@@std@@I@std@@@std@@@std@@@1@V?$_Tree_const_iterator@V?$_Tree_val@U?$_Tree_simple_types@U?$pair@$$CBV?$basic_string@DU?$char_traits@D@std@@V?$allocator@D@2@@std@@I@std@@@std@@@std@@@1@AAU?$pair@$$CBV?$basic_string@DU?$char_traits@D@std@@V?$allocator@D@2@@std@@I@1@PAU?$_Tree_node@U?$pair@$$CBV?$basic_string@DU?$char_traits@D@std@@V?$allocator@D@2@@std@@I@std@@PAX@1@@Z$8
	DD	02H
	DD	FLAT:__unwindfunclet$??$_Insert_hint@AAU?$pair@$$CBV?$basic_string@DU?$char_traits@D@std@@V?$allocator@D@2@@std@@I@std@@PAU?$_Tree_node@U?$pair@$$CBV?$basic_string@DU?$char_traits@D@std@@V?$allocator@D@2@@std@@I@std@@PAX@2@@?$_Tree@V?$_Tmap_traits@V?$basic_string@DU?$char_traits@D@std@@V?$allocator@D@2@@std@@IU?$less@V?$basic_string@DU?$char_traits@D@std@@V?$allocator@D@2@@std@@@2@V?$allocator@U?$pair@$$CBV?$basic_string@DU?$char_traits@D@std@@V?$allocator@D@2@@std@@I@std@@@2@$0A@@std@@@std@@IAE?AV?$_Tree_iterator@V?$_Tree_val@U?$_Tree_simple_types@U?$pair@$$CBV?$basic_string@DU?$char_traits@D@std@@V?$allocator@D@2@@std@@I@std@@@std@@@std@@@1@V?$_Tree_const_iterator@V?$_Tree_val@U?$_Tree_simple_types@U?$pair@$$CBV?$basic_string@DU?$char_traits@D@std@@V?$allocator@D@2@@std@@I@std@@@std@@@std@@@1@AAU?$pair@$$CBV?$basic_string@DU?$char_traits@D@std@@V?$allocator@D@2@@std@@I@1@PAU?$_Tree_node@U?$pair@$$CBV?$basic_string@DU?$char_traits@D@std@@V?$allocator@D@2@@std@@I@std@@PAX@1@@Z$9
	DD	02H
	DD	FLAT:__unwindfunclet$??$_Insert_hint@AAU?$pair@$$CBV?$basic_string@DU?$char_traits@D@std@@V?$allocator@D@2@@std@@I@std@@PAU?$_Tree_node@U?$pair@$$CBV?$basic_string@DU?$char_traits@D@std@@V?$allocator@D@2@@std@@I@std@@PAX@2@@?$_Tree@V?$_Tmap_traits@V?$basic_string@DU?$char_traits@D@std@@V?$allocator@D@2@@std@@IU?$less@V?$basic_string@DU?$char_traits@D@std@@V?$allocator@D@2@@std@@@2@V?$allocator@U?$pair@$$CBV?$basic_string@DU?$char_traits@D@std@@V?$allocator@D@2@@std@@I@std@@@2@$0A@@std@@@std@@IAE?AV?$_Tree_iterator@V?$_Tree_val@U?$_Tree_simple_types@U?$pair@$$CBV?$basic_string@DU?$char_traits@D@std@@V?$allocator@D@2@@std@@I@std@@@std@@@std@@@1@V?$_Tree_const_iterator@V?$_Tree_val@U?$_Tree_simple_types@U?$pair@$$CBV?$basic_string@DU?$char_traits@D@std@@V?$allocator@D@2@@std@@I@std@@@std@@@std@@@1@AAU?$pair@$$CBV?$basic_string@DU?$char_traits@D@std@@V?$allocator@D@2@@std@@I@1@PAU?$_Tree_node@U?$pair@$$CBV?$basic_string@DU?$char_traits@D@std@@V?$allocator@D@2@@std@@I@std@@PAX@1@@Z$10
	DD	01H
	DD	00H
	DD	01H
	DD	FLAT:__unwindfunclet$??$_Insert_hint@AAU?$pair@$$CBV?$basic_string@DU?$char_traits@D@std@@V?$allocator@D@2@@std@@I@std@@PAU?$_Tree_node@U?$pair@$$CBV?$basic_string@DU?$char_traits@D@std@@V?$allocator@D@2@@std@@I@std@@PAX@2@@?$_Tree@V?$_Tmap_traits@V?$basic_string@DU?$char_traits@D@std@@V?$allocator@D@2@@std@@IU?$less@V?$basic_string@DU?$char_traits@D@std@@V?$allocator@D@2@@std@@@2@V?$allocator@U?$pair@$$CBV?$basic_string@DU?$char_traits@D@std@@V?$allocator@D@2@@std@@I@std@@@2@$0A@@std@@@std@@IAE?AV?$_Tree_iterator@V?$_Tree_val@U?$_Tree_simple_types@U?$pair@$$CBV?$basic_string@DU?$char_traits@D@std@@V?$allocator@D@2@@std@@I@std@@@std@@@std@@@1@V?$_Tree_const_iterator@V?$_Tree_val@U?$_Tree_simple_types@U?$pair@$$CBV?$basic_string@DU?$char_traits@D@std@@V?$allocator@D@2@@std@@I@std@@@std@@@std@@@1@AAU?$pair@$$CBV?$basic_string@DU?$char_traits@D@std@@V?$allocator@D@2@@std@@I@1@PAU?$_Tree_node@U?$pair@$$CBV?$basic_string@DU?$char_traits@D@std@@V?$allocator@D@2@@std@@I@std@@PAX@1@@Z$11
__catchsym$??$_Insert_hint@AAU?$pair@$$CBV?$basic_string@DU?$char_traits@D@std@@V?$allocator@D@2@@std@@I@std@@PAU?$_Tree_node@U?$pair@$$CBV?$basic_string@DU?$char_traits@D@std@@V?$allocator@D@2@@std@@I@std@@PAX@2@@?$_Tree@V?$_Tmap_traits@V?$basic_string@DU?$char_traits@D@std@@V?$allocator@D@2@@std@@IU?$less@V?$basic_string@DU?$char_traits@D@std@@V?$allocator@D@2@@std@@@2@V?$allocator@U?$pair@$$CBV?$basic_string@DU?$char_traits@D@std@@V?$allocator@D@2@@std@@I@std@@@2@$0A@@std@@@std@@IAE?AV?$_Tree_iterator@V?$_Tree_val@U?$_Tree_simple_types@U?$pair@$$CBV?$basic_string@DU?$char_traits@D@std@@V?$allocator@D@2@@std@@I@std@@@std@@@std@@@1@V?$_Tree_const_iterator@V?$_Tree_val@U?$_Tree_simple_types@U?$pair@$$CBV?$basic_string@DU?$char_traits@D@std@@V?$allocator@D@2@@std@@I@std@@@std@@@std@@@1@AAU?$pair@$$CBV?$basic_string@DU?$char_traits@D@std@@V?$allocator@D@2@@std@@I@1@PAU?$_Tree_node@U?$pair@$$CBV?$basic_string@DU?$char_traits@D@std@@V?$allocator@D@2@@std@@I@std@@PAX@1@@Z$12 DD 040H
	DD	00H
	DD	00H
	DD	FLAT:__catch$??$_Insert_hint@AAU?$pair@$$CBV?$basic_string@DU?$char_traits@D@std@@V?$allocator@D@2@@std@@I@std@@PAU?$_Tree_node@U?$pair@$$CBV?$basic_string@DU?$char_traits@D@std@@V?$allocator@D@2@@std@@I@std@@PAX@2@@?$_Tree@V?$_Tmap_traits@V?$basic_string@DU?$char_traits@D@std@@V?$allocator@D@2@@std@@IU?$less@V?$basic_string@DU?$char_traits@D@std@@V?$allocator@D@2@@std@@@2@V?$allocator@U?$pair@$$CBV?$basic_string@DU?$char_traits@D@std@@V?$allocator@D@2@@std@@I@std@@@2@$0A@@std@@@std@@IAE?AV?$_Tree_iterator@V?$_Tree_val@U?$_Tree_simple_types@U?$pair@$$CBV?$basic_string@DU?$char_traits@D@std@@V?$allocator@D@2@@std@@I@std@@@std@@@std@@@1@V?$_Tree_const_iterator@V?$_Tree_val@U?$_Tree_simple_types@U?$pair@$$CBV?$basic_string@DU?$char_traits@D@std@@V?$allocator@D@2@@std@@I@std@@@std@@@std@@@1@AAU?$pair@$$CBV?$basic_string@DU?$char_traits@D@std@@V?$allocator@D@2@@std@@I@1@PAU?$_Tree_node@U?$pair@$$CBV?$basic_string@DU?$char_traits@D@std@@V?$allocator@D@2@@std@@I@std@@PAX@1@@Z$0
xdata$x	ENDS
;	COMDAT xdata$x
xdata$x	SEGMENT
__ehfuncinfo$??$_Buynode@ABUpiecewise_construct_t@std@@V?$tuple@ABV?$basic_string@DU?$char_traits@D@std@@V?$allocator@D@2@@std@@@2@V?$tuple@$$V@2@@?$_Tree_comp_alloc@V?$_Tmap_traits@V?$basic_string@DU?$char_traits@D@std@@V?$allocator@D@2@@std@@VVector3f@@U?$less@V?$basic_string@DU?$char_traits@D@std@@V?$allocator@D@2@@std@@@2@V?$allocator@U?$pair@$$CBV?$basic_string@DU?$char_traits@D@std@@V?$allocator@D@2@@std@@VVector3f@@@std@@@2@$0A@@std@@@std@@QAEPAU?$_Tree_node@U?$pair@$$CBV?$basic_string@DU?$char_traits@D@std@@V?$allocator@D@2@@std@@VVector3f@@@std@@PAX@1@ABUpiecewise_construct_t@1@$$QAV?$tuple@ABV?$basic_string@DU?$char_traits@D@std@@V?$allocator@D@2@@std@@@1@$$QAV?$tuple@$$V@1@@Z DD 019930522H
	DD	02H
	DD	FLAT:__unwindtable$??$_Buynode@ABUpiecewise_construct_t@std@@V?$tuple@ABV?$basic_string@DU?$char_traits@D@std@@V?$allocator@D@2@@std@@@2@V?$tuple@$$V@2@@?$_Tree_comp_alloc@V?$_Tmap_traits@V?$basic_string@DU?$char_traits@D@std@@V?$allocator@D@2@@std@@VVector3f@@U?$less@V?$basic_string@DU?$char_traits@D@std@@V?$allocator@D@2@@std@@@2@V?$allocator@U?$pair@$$CBV?$basic_string@DU?$char_traits@D@std@@V?$allocator@D@2@@std@@VVector3f@@@std@@@2@$0A@@std@@@std@@QAEPAU?$_Tree_node@U?$pair@$$CBV?$basic_string@DU?$char_traits@D@std@@V?$allocator@D@2@@std@@VVector3f@@@std@@PAX@1@ABUpiecewise_construct_t@1@$$QAV?$tuple@ABV?$basic_string@DU?$char_traits@D@std@@V?$allocator@D@2@@std@@@1@$$QAV?$tuple@$$V@1@@Z
	DD	01H
	DD	FLAT:__tryblocktable$??$_Buynode@ABUpiecewise_construct_t@std@@V?$tuple@ABV?$basic_string@DU?$char_traits@D@std@@V?$allocator@D@2@@std@@@2@V?$tuple@$$V@2@@?$_Tree_comp_alloc@V?$_Tmap_traits@V?$basic_string@DU?$char_traits@D@std@@V?$allocator@D@2@@std@@VVector3f@@U?$less@V?$basic_string@DU?$char_traits@D@std@@V?$allocator@D@2@@std@@@2@V?$allocator@U?$pair@$$CBV?$basic_string@DU?$char_traits@D@std@@V?$allocator@D@2@@std@@VVector3f@@@std@@@2@$0A@@std@@@std@@QAEPAU?$_Tree_node@U?$pair@$$CBV?$basic_string@DU?$char_traits@D@std@@V?$allocator@D@2@@std@@VVector3f@@@std@@PAX@1@ABUpiecewise_construct_t@1@$$QAV?$tuple@ABV?$basic_string@DU?$char_traits@D@std@@V?$allocator@D@2@@std@@@1@$$QAV?$tuple@$$V@1@@Z
	DD	2 DUP(00H)
	DD	00H
	DD	01H
__unwindtable$??$_Buynode@ABUpiecewise_construct_t@std@@V?$tuple@ABV?$basic_string@DU?$char_traits@D@std@@V?$allocator@D@2@@std@@@2@V?$tuple@$$V@2@@?$_Tree_comp_alloc@V?$_Tmap_traits@V?$basic_string@DU?$char_traits@D@std@@V?$allocator@D@2@@std@@VVector3f@@U?$less@V?$basic_string@DU?$char_traits@D@std@@V?$allocator@D@2@@std@@@2@V?$allocator@U?$pair@$$CBV?$basic_string@DU?$char_traits@D@std@@V?$allocator@D@2@@std@@VVector3f@@@std@@@2@$0A@@std@@@std@@QAEPAU?$_Tree_node@U?$pair@$$CBV?$basic_string@DU?$char_traits@D@std@@V?$allocator@D@2@@std@@VVector3f@@@std@@PAX@1@ABUpiecewise_construct_t@1@$$QAV?$tuple@ABV?$basic_string@DU?$char_traits@D@std@@V?$allocator@D@2@@std@@@1@$$QAV?$tuple@$$V@1@@Z DD 0ffffffffH
	DD	00H
	DD	0ffffffffH
	DD	00H
__tryblocktable$??$_Buynode@ABUpiecewise_construct_t@std@@V?$tuple@ABV?$basic_string@DU?$char_traits@D@std@@V?$allocator@D@2@@std@@@2@V?$tuple@$$V@2@@?$_Tree_comp_alloc@V?$_Tmap_traits@V?$basic_string@DU?$char_traits@D@std@@V?$allocator@D@2@@std@@VVector3f@@U?$less@V?$basic_string@DU?$char_traits@D@std@@V?$allocator@D@2@@std@@@2@V?$allocator@U?$pair@$$CBV?$basic_string@DU?$char_traits@D@std@@V?$allocator@D@2@@std@@VVector3f@@@std@@@2@$0A@@std@@@std@@QAEPAU?$_Tree_node@U?$pair@$$CBV?$basic_string@DU?$char_traits@D@std@@V?$allocator@D@2@@std@@VVector3f@@@std@@PAX@1@ABUpiecewise_construct_t@1@$$QAV?$tuple@ABV?$basic_string@DU?$char_traits@D@std@@V?$allocator@D@2@@std@@@1@$$QAV?$tuple@$$V@1@@Z DD 00H
	DD	00H
	DD	01H
	DD	01H
	DD	FLAT:__catchsym$??$_Buynode@ABUpiecewise_construct_t@std@@V?$tuple@ABV?$basic_string@DU?$char_traits@D@std@@V?$allocator@D@2@@std@@@2@V?$tuple@$$V@2@@?$_Tree_comp_alloc@V?$_Tmap_traits@V?$basic_string@DU?$char_traits@D@std@@V?$allocator@D@2@@std@@VVector3f@@U?$less@V?$basic_string@DU?$char_traits@D@std@@V?$allocator@D@2@@std@@@2@V?$allocator@U?$pair@$$CBV?$basic_string@DU?$char_traits@D@std@@V?$allocator@D@2@@std@@VVector3f@@@std@@@2@$0A@@std@@@std@@QAEPAU?$_Tree_node@U?$pair@$$CBV?$basic_string@DU?$char_traits@D@std@@V?$allocator@D@2@@std@@VVector3f@@@std@@PAX@1@ABUpiecewise_construct_t@1@$$QAV?$tuple@ABV?$basic_string@DU?$char_traits@D@std@@V?$allocator@D@2@@std@@@1@$$QAV?$tuple@$$V@1@@Z$2
__catchsym$??$_Buynode@ABUpiecewise_construct_t@std@@V?$tuple@ABV?$basic_string@DU?$char_traits@D@std@@V?$allocator@D@2@@std@@@2@V?$tuple@$$V@2@@?$_Tree_comp_alloc@V?$_Tmap_traits@V?$basic_string@DU?$char_traits@D@std@@V?$allocator@D@2@@std@@VVector3f@@U?$less@V?$basic_string@DU?$char_traits@D@std@@V?$allocator@D@2@@std@@@2@V?$allocator@U?$pair@$$CBV?$basic_string@DU?$char_traits@D@std@@V?$allocator@D@2@@std@@VVector3f@@@std@@@2@$0A@@std@@@std@@QAEPAU?$_Tree_node@U?$pair@$$CBV?$basic_string@DU?$char_traits@D@std@@V?$allocator@D@2@@std@@VVector3f@@@std@@PAX@1@ABUpiecewise_construct_t@1@$$QAV?$tuple@ABV?$basic_string@DU?$char_traits@D@std@@V?$allocator@D@2@@std@@@1@$$QAV?$tuple@$$V@1@@Z$2 DD 040H
	DD	00H
	DD	00H
	DD	FLAT:__catch$??$_Buynode@ABUpiecewise_construct_t@std@@V?$tuple@ABV?$basic_string@DU?$char_traits@D@std@@V?$allocator@D@2@@std@@@2@V?$tuple@$$V@2@@?$_Tree_comp_alloc@V?$_Tmap_traits@V?$basic_string@DU?$char_traits@D@std@@V?$allocator@D@2@@std@@VVector3f@@U?$less@V?$basic_string@DU?$char_traits@D@std@@V?$allocator@D@2@@std@@@2@V?$allocator@U?$pair@$$CBV?$basic_string@DU?$char_traits@D@std@@V?$allocator@D@2@@std@@VVector3f@@@std@@@2@$0A@@std@@@std@@QAEPAU?$_Tree_node@U?$pair@$$CBV?$basic_string@DU?$char_traits@D@std@@V?$allocator@D@2@@std@@VVector3f@@@std@@PAX@1@ABUpiecewise_construct_t@1@$$QAV?$tuple@ABV?$basic_string@DU?$char_traits@D@std@@V?$allocator@D@2@@std@@@1@$$QAV?$tuple@$$V@1@@Z$0
xdata$x	ENDS
;	COMDAT xdata$x
xdata$x	SEGMENT
__ehfuncinfo$??$_Insert_hint@AAU?$pair@$$CBV?$basic_string@DU?$char_traits@D@std@@V?$allocator@D@2@@std@@VVector3f@@@std@@PAU?$_Tree_node@U?$pair@$$CBV?$basic_string@DU?$char_traits@D@std@@V?$allocator@D@2@@std@@VVector3f@@@std@@PAX@2@@?$_Tree@V?$_Tmap_traits@V?$basic_string@DU?$char_traits@D@std@@V?$allocator@D@2@@std@@VVector3f@@U?$less@V?$basic_string@DU?$char_traits@D@std@@V?$allocator@D@2@@std@@@2@V?$allocator@U?$pair@$$CBV?$basic_string@DU?$char_traits@D@std@@V?$allocator@D@2@@std@@VVector3f@@@std@@@2@$0A@@std@@@std@@IAE?AV?$_Tree_iterator@V?$_Tree_val@U?$_Tree_simple_types@U?$pair@$$CBV?$basic_string@DU?$char_traits@D@std@@V?$allocator@D@2@@std@@VVector3f@@@std@@@std@@@std@@@1@V?$_Tree_const_iterator@V?$_Tree_val@U?$_Tree_simple_types@U?$pair@$$CBV?$basic_string@DU?$char_traits@D@std@@V?$allocator@D@2@@std@@VVector3f@@@std@@@std@@@std@@@1@AAU?$pair@$$CBV?$basic_string@DU?$char_traits@D@std@@V?$allocator@D@2@@std@@VVector3f@@@1@PAU?$_Tree_node@U?$pair@$$CBV?$basic_string@DU?$char_traits@D@std@@V?$allocator@D@2@@std@@VVector3f@@@std@@PAX@1@@Z DD 019930522H
	DD	0bH
	DD	FLAT:__unwindtable$??$_Insert_hint@AAU?$pair@$$CBV?$basic_string@DU?$char_traits@D@std@@V?$allocator@D@2@@std@@VVector3f@@@std@@PAU?$_Tree_node@U?$pair@$$CBV?$basic_string@DU?$char_traits@D@std@@V?$allocator@D@2@@std@@VVector3f@@@std@@PAX@2@@?$_Tree@V?$_Tmap_traits@V?$basic_string@DU?$char_traits@D@std@@V?$allocator@D@2@@std@@VVector3f@@U?$less@V?$basic_string@DU?$char_traits@D@std@@V?$allocator@D@2@@std@@@2@V?$allocator@U?$pair@$$CBV?$basic_string@DU?$char_traits@D@std@@V?$allocator@D@2@@std@@VVector3f@@@std@@@2@$0A@@std@@@std@@IAE?AV?$_Tree_iterator@V?$_Tree_val@U?$_Tree_simple_types@U?$pair@$$CBV?$basic_string@DU?$char_traits@D@std@@V?$allocator@D@2@@std@@VVector3f@@@std@@@std@@@std@@@1@V?$_Tree_const_iterator@V?$_Tree_val@U?$_Tree_simple_types@U?$pair@$$CBV?$basic_string@DU?$char_traits@D@std@@V?$allocator@D@2@@std@@VVector3f@@@std@@@std@@@std@@@1@AAU?$pair@$$CBV?$basic_string@DU?$char_traits@D@std@@V?$allocator@D@2@@std@@VVector3f@@@1@PAU?$_Tree_node@U?$pair@$$CBV?$basic_string@DU?$char_traits@D@std@@V?$allocator@D@2@@std@@VVector3f@@@std@@PAX@1@@Z
	DD	01H
	DD	FLAT:__tryblocktable$??$_Insert_hint@AAU?$pair@$$CBV?$basic_string@DU?$char_traits@D@std@@V?$allocator@D@2@@std@@VVector3f@@@std@@PAU?$_Tree_node@U?$pair@$$CBV?$basic_string@DU?$char_traits@D@std@@V?$allocator@D@2@@std@@VVector3f@@@std@@PAX@2@@?$_Tree@V?$_Tmap_traits@V?$basic_string@DU?$char_traits@D@std@@V?$allocator@D@2@@std@@VVector3f@@U?$less@V?$basic_string@DU?$char_traits@D@std@@V?$allocator@D@2@@std@@@2@V?$allocator@U?$pair@$$CBV?$basic_string@DU?$char_traits@D@std@@V?$allocator@D@2@@std@@VVector3f@@@std@@@2@$0A@@std@@@std@@IAE?AV?$_Tree_iterator@V?$_Tree_val@U?$_Tree_simple_types@U?$pair@$$CBV?$basic_string@DU?$char_traits@D@std@@V?$allocator@D@2@@std@@VVector3f@@@std@@@std@@@std@@@1@V?$_Tree_const_iterator@V?$_Tree_val@U?$_Tree_simple_types@U?$pair@$$CBV?$basic_string@DU?$char_traits@D@std@@V?$allocator@D@2@@std@@VVector3f@@@std@@@std@@@std@@@1@AAU?$pair@$$CBV?$basic_string@DU?$char_traits@D@std@@V?$allocator@D@2@@std@@VVector3f@@@1@PAU?$_Tree_node@U?$pair@$$CBV?$basic_string@DU?$char_traits@D@std@@V?$allocator@D@2@@std@@VVector3f@@@std@@PAX@1@@Z
	DD	2 DUP(00H)
	DD	00H
	DD	01H
__tryblocktable$??$_Insert_hint@AAU?$pair@$$CBV?$basic_string@DU?$char_traits@D@std@@V?$allocator@D@2@@std@@VVector3f@@@std@@PAU?$_Tree_node@U?$pair@$$CBV?$basic_string@DU?$char_traits@D@std@@V?$allocator@D@2@@std@@VVector3f@@@std@@PAX@2@@?$_Tree@V?$_Tmap_traits@V?$basic_string@DU?$char_traits@D@std@@V?$allocator@D@2@@std@@VVector3f@@U?$less@V?$basic_string@DU?$char_traits@D@std@@V?$allocator@D@2@@std@@@2@V?$allocator@U?$pair@$$CBV?$basic_string@DU?$char_traits@D@std@@V?$allocator@D@2@@std@@VVector3f@@@std@@@2@$0A@@std@@@std@@IAE?AV?$_Tree_iterator@V?$_Tree_val@U?$_Tree_simple_types@U?$pair@$$CBV?$basic_string@DU?$char_traits@D@std@@V?$allocator@D@2@@std@@VVector3f@@@std@@@std@@@std@@@1@V?$_Tree_const_iterator@V?$_Tree_val@U?$_Tree_simple_types@U?$pair@$$CBV?$basic_string@DU?$char_traits@D@std@@V?$allocator@D@2@@std@@VVector3f@@@std@@@std@@@std@@@1@AAU?$pair@$$CBV?$basic_string@DU?$char_traits@D@std@@V?$allocator@D@2@@std@@VVector3f@@@1@PAU?$_Tree_node@U?$pair@$$CBV?$basic_string@DU?$char_traits@D@std@@V?$allocator@D@2@@std@@VVector3f@@@std@@PAX@1@@Z DD 02H
	DD	08H
	DD	09H
	DD	01H
	DD	FLAT:__catchsym$??$_Insert_hint@AAU?$pair@$$CBV?$basic_string@DU?$char_traits@D@std@@V?$allocator@D@2@@std@@VVector3f@@@std@@PAU?$_Tree_node@U?$pair@$$CBV?$basic_string@DU?$char_traits@D@std@@V?$allocator@D@2@@std@@VVector3f@@@std@@PAX@2@@?$_Tree@V?$_Tmap_traits@V?$basic_string@DU?$char_traits@D@std@@V?$allocator@D@2@@std@@VVector3f@@U?$less@V?$basic_string@DU?$char_traits@D@std@@V?$allocator@D@2@@std@@@2@V?$allocator@U?$pair@$$CBV?$basic_string@DU?$char_traits@D@std@@V?$allocator@D@2@@std@@VVector3f@@@std@@@2@$0A@@std@@@std@@IAE?AV?$_Tree_iterator@V?$_Tree_val@U?$_Tree_simple_types@U?$pair@$$CBV?$basic_string@DU?$char_traits@D@std@@V?$allocator@D@2@@std@@VVector3f@@@std@@@std@@@std@@@1@V?$_Tree_const_iterator@V?$_Tree_val@U?$_Tree_simple_types@U?$pair@$$CBV?$basic_string@DU?$char_traits@D@std@@V?$allocator@D@2@@std@@VVector3f@@@std@@@std@@@std@@@1@AAU?$pair@$$CBV?$basic_string@DU?$char_traits@D@std@@V?$allocator@D@2@@std@@VVector3f@@@1@PAU?$_Tree_node@U?$pair@$$CBV?$basic_string@DU?$char_traits@D@std@@V?$allocator@D@2@@std@@VVector3f@@@std@@PAX@1@@Z$12
__unwindtable$??$_Insert_hint@AAU?$pair@$$CBV?$basic_string@DU?$char_traits@D@std@@V?$allocator@D@2@@std@@VVector3f@@@std@@PAU?$_Tree_node@U?$pair@$$CBV?$basic_string@DU?$char_traits@D@std@@V?$allocator@D@2@@std@@VVector3f@@@std@@PAX@2@@?$_Tree@V?$_Tmap_traits@V?$basic_string@DU?$char_traits@D@std@@V?$allocator@D@2@@std@@VVector3f@@U?$less@V?$basic_string@DU?$char_traits@D@std@@V?$allocator@D@2@@std@@@2@V?$allocator@U?$pair@$$CBV?$basic_string@DU?$char_traits@D@std@@V?$allocator@D@2@@std@@VVector3f@@@std@@@2@$0A@@std@@@std@@IAE?AV?$_Tree_iterator@V?$_Tree_val@U?$_Tree_simple_types@U?$pair@$$CBV?$basic_string@DU?$char_traits@D@std@@V?$allocator@D@2@@std@@VVector3f@@@std@@@std@@@std@@@1@V?$_Tree_const_iterator@V?$_Tree_val@U?$_Tree_simple_types@U?$pair@$$CBV?$basic_string@DU?$char_traits@D@std@@V?$allocator@D@2@@std@@VVector3f@@@std@@@std@@@std@@@1@AAU?$pair@$$CBV?$basic_string@DU?$char_traits@D@std@@V?$allocator@D@2@@std@@VVector3f@@@1@PAU?$_Tree_node@U?$pair@$$CBV?$basic_string@DU?$char_traits@D@std@@V?$allocator@D@2@@std@@VVector3f@@@std@@PAX@1@@Z DD 0ffffffffH
	DD	FLAT:__unwindfunclet$??$_Insert_hint@AAU?$pair@$$CBV?$basic_string@DU?$char_traits@D@std@@V?$allocator@D@2@@std@@VVector3f@@@std@@PAU?$_Tree_node@U?$pair@$$CBV?$basic_string@DU?$char_traits@D@std@@V?$allocator@D@2@@std@@VVector3f@@@std@@PAX@2@@?$_Tree@V?$_Tmap_traits@V?$basic_string@DU?$char_traits@D@std@@V?$allocator@D@2@@std@@VVector3f@@U?$less@V?$basic_string@DU?$char_traits@D@std@@V?$allocator@D@2@@std@@@2@V?$allocator@U?$pair@$$CBV?$basic_string@DU?$char_traits@D@std@@V?$allocator@D@2@@std@@VVector3f@@@std@@@2@$0A@@std@@@std@@IAE?AV?$_Tree_iterator@V?$_Tree_val@U?$_Tree_simple_types@U?$pair@$$CBV?$basic_string@DU?$char_traits@D@std@@V?$allocator@D@2@@std@@VVector3f@@@std@@@std@@@std@@@1@V?$_Tree_const_iterator@V?$_Tree_val@U?$_Tree_simple_types@U?$pair@$$CBV?$basic_string@DU?$char_traits@D@std@@V?$allocator@D@2@@std@@VVector3f@@@std@@@std@@@std@@@1@AAU?$pair@$$CBV?$basic_string@DU?$char_traits@D@std@@V?$allocator@D@2@@std@@VVector3f@@@1@PAU?$_Tree_node@U?$pair@$$CBV?$basic_string@DU?$char_traits@D@std@@V?$allocator@D@2@@std@@VVector3f@@@std@@PAX@1@@Z$2
	DD	00H
	DD	FLAT:__unwindfunclet$??$_Insert_hint@AAU?$pair@$$CBV?$basic_string@DU?$char_traits@D@std@@V?$allocator@D@2@@std@@VVector3f@@@std@@PAU?$_Tree_node@U?$pair@$$CBV?$basic_string@DU?$char_traits@D@std@@V?$allocator@D@2@@std@@VVector3f@@@std@@PAX@2@@?$_Tree@V?$_Tmap_traits@V?$basic_string@DU?$char_traits@D@std@@V?$allocator@D@2@@std@@VVector3f@@U?$less@V?$basic_string@DU?$char_traits@D@std@@V?$allocator@D@2@@std@@@2@V?$allocator@U?$pair@$$CBV?$basic_string@DU?$char_traits@D@std@@V?$allocator@D@2@@std@@VVector3f@@@std@@@2@$0A@@std@@@std@@IAE?AV?$_Tree_iterator@V?$_Tree_val@U?$_Tree_simple_types@U?$pair@$$CBV?$basic_string@DU?$char_traits@D@std@@V?$allocator@D@2@@std@@VVector3f@@@std@@@std@@@std@@@1@V?$_Tree_const_iterator@V?$_Tree_val@U?$_Tree_simple_types@U?$pair@$$CBV?$basic_string@DU?$char_traits@D@std@@V?$allocator@D@2@@std@@VVector3f@@@std@@@std@@@std@@@1@AAU?$pair@$$CBV?$basic_string@DU?$char_traits@D@std@@V?$allocator@D@2@@std@@VVector3f@@@1@PAU?$_Tree_node@U?$pair@$$CBV?$basic_string@DU?$char_traits@D@std@@V?$allocator@D@2@@std@@VVector3f@@@std@@PAX@1@@Z$3
	DD	01H
	DD	00H
	DD	02H
	DD	FLAT:__unwindfunclet$??$_Insert_hint@AAU?$pair@$$CBV?$basic_string@DU?$char_traits@D@std@@V?$allocator@D@2@@std@@VVector3f@@@std@@PAU?$_Tree_node@U?$pair@$$CBV?$basic_string@DU?$char_traits@D@std@@V?$allocator@D@2@@std@@VVector3f@@@std@@PAX@2@@?$_Tree@V?$_Tmap_traits@V?$basic_string@DU?$char_traits@D@std@@V?$allocator@D@2@@std@@VVector3f@@U?$less@V?$basic_string@DU?$char_traits@D@std@@V?$allocator@D@2@@std@@@2@V?$allocator@U?$pair@$$CBV?$basic_string@DU?$char_traits@D@std@@V?$allocator@D@2@@std@@VVector3f@@@std@@@2@$0A@@std@@@std@@IAE?AV?$_Tree_iterator@V?$_Tree_val@U?$_Tree_simple_types@U?$pair@$$CBV?$basic_string@DU?$char_traits@D@std@@V?$allocator@D@2@@std@@VVector3f@@@std@@@std@@@std@@@1@V?$_Tree_const_iterator@V?$_Tree_val@U?$_Tree_simple_types@U?$pair@$$CBV?$basic_string@DU?$char_traits@D@std@@V?$allocator@D@2@@std@@VVector3f@@@std@@@std@@@std@@@1@AAU?$pair@$$CBV?$basic_string@DU?$char_traits@D@std@@V?$allocator@D@2@@std@@VVector3f@@@1@PAU?$_Tree_node@U?$pair@$$CBV?$basic_string@DU?$char_traits@D@std@@V?$allocator@D@2@@std@@VVector3f@@@std@@PAX@1@@Z$5
	DD	02H
	DD	FLAT:__unwindfunclet$??$_Insert_hint@AAU?$pair@$$CBV?$basic_string@DU?$char_traits@D@std@@V?$allocator@D@2@@std@@VVector3f@@@std@@PAU?$_Tree_node@U?$pair@$$CBV?$basic_string@DU?$char_traits@D@std@@V?$allocator@D@2@@std@@VVector3f@@@std@@PAX@2@@?$_Tree@V?$_Tmap_traits@V?$basic_string@DU?$char_traits@D@std@@V?$allocator@D@2@@std@@VVector3f@@U?$less@V?$basic_string@DU?$char_traits@D@std@@V?$allocator@D@2@@std@@@2@V?$allocator@U?$pair@$$CBV?$basic_string@DU?$char_traits@D@std@@V?$allocator@D@2@@std@@VVector3f@@@std@@@2@$0A@@std@@@std@@IAE?AV?$_Tree_iterator@V?$_Tree_val@U?$_Tree_simple_types@U?$pair@$$CBV?$basic_string@DU?$char_traits@D@std@@V?$allocator@D@2@@std@@VVector3f@@@std@@@std@@@std@@@1@V?$_Tree_const_iterator@V?$_Tree_val@U?$_Tree_simple_types@U?$pair@$$CBV?$basic_string@DU?$char_traits@D@std@@V?$allocator@D@2@@std@@VVector3f@@@std@@@std@@@std@@@1@AAU?$pair@$$CBV?$basic_string@DU?$char_traits@D@std@@V?$allocator@D@2@@std@@VVector3f@@@1@PAU?$_Tree_node@U?$pair@$$CBV?$basic_string@DU?$char_traits@D@std@@V?$allocator@D@2@@std@@VVector3f@@@std@@PAX@1@@Z$6
	DD	02H
	DD	FLAT:__unwindfunclet$??$_Insert_hint@AAU?$pair@$$CBV?$basic_string@DU?$char_traits@D@std@@V?$allocator@D@2@@std@@VVector3f@@@std@@PAU?$_Tree_node@U?$pair@$$CBV?$basic_string@DU?$char_traits@D@std@@V?$allocator@D@2@@std@@VVector3f@@@std@@PAX@2@@?$_Tree@V?$_Tmap_traits@V?$basic_string@DU?$char_traits@D@std@@V?$allocator@D@2@@std@@VVector3f@@U?$less@V?$basic_string@DU?$char_traits@D@std@@V?$allocator@D@2@@std@@@2@V?$allocator@U?$pair@$$CBV?$basic_string@DU?$char_traits@D@std@@V?$allocator@D@2@@std@@VVector3f@@@std@@@2@$0A@@std@@@std@@IAE?AV?$_Tree_iterator@V?$_Tree_val@U?$_Tree_simple_types@U?$pair@$$CBV?$basic_string@DU?$char_traits@D@std@@V?$allocator@D@2@@std@@VVector3f@@@std@@@std@@@std@@@1@V?$_Tree_const_iterator@V?$_Tree_val@U?$_Tree_simple_types@U?$pair@$$CBV?$basic_string@DU?$char_traits@D@std@@V?$allocator@D@2@@std@@VVector3f@@@std@@@std@@@std@@@1@AAU?$pair@$$CBV?$basic_string@DU?$char_traits@D@std@@V?$allocator@D@2@@std@@VVector3f@@@1@PAU?$_Tree_node@U?$pair@$$CBV?$basic_string@DU?$char_traits@D@std@@V?$allocator@D@2@@std@@VVector3f@@@std@@PAX@1@@Z$7
	DD	02H
	DD	FLAT:__unwindfunclet$??$_Insert_hint@AAU?$pair@$$CBV?$basic_string@DU?$char_traits@D@std@@V?$allocator@D@2@@std@@VVector3f@@@std@@PAU?$_Tree_node@U?$pair@$$CBV?$basic_string@DU?$char_traits@D@std@@V?$allocator@D@2@@std@@VVector3f@@@std@@PAX@2@@?$_Tree@V?$_Tmap_traits@V?$basic_string@DU?$char_traits@D@std@@V?$allocator@D@2@@std@@VVector3f@@U?$less@V?$basic_string@DU?$char_traits@D@std@@V?$allocator@D@2@@std@@@2@V?$allocator@U?$pair@$$CBV?$basic_string@DU?$char_traits@D@std@@V?$allocator@D@2@@std@@VVector3f@@@std@@@2@$0A@@std@@@std@@IAE?AV?$_Tree_iterator@V?$_Tree_val@U?$_Tree_simple_types@U?$pair@$$CBV?$basic_string@DU?$char_traits@D@std@@V?$allocator@D@2@@std@@VVector3f@@@std@@@std@@@std@@@1@V?$_Tree_const_iterator@V?$_Tree_val@U?$_Tree_simple_types@U?$pair@$$CBV?$basic_string@DU?$char_traits@D@std@@V?$allocator@D@2@@std@@VVector3f@@@std@@@std@@@std@@@1@AAU?$pair@$$CBV?$basic_string@DU?$char_traits@D@std@@V?$allocator@D@2@@std@@VVector3f@@@1@PAU?$_Tree_node@U?$pair@$$CBV?$basic_string@DU?$char_traits@D@std@@V?$allocator@D@2@@std@@VVector3f@@@std@@PAX@1@@Z$8
	DD	02H
	DD	FLAT:__unwindfunclet$??$_Insert_hint@AAU?$pair@$$CBV?$basic_string@DU?$char_traits@D@std@@V?$allocator@D@2@@std@@VVector3f@@@std@@PAU?$_Tree_node@U?$pair@$$CBV?$basic_string@DU?$char_traits@D@std@@V?$allocator@D@2@@std@@VVector3f@@@std@@PAX@2@@?$_Tree@V?$_Tmap_traits@V?$basic_string@DU?$char_traits@D@std@@V?$allocator@D@2@@std@@VVector3f@@U?$less@V?$basic_string@DU?$char_traits@D@std@@V?$allocator@D@2@@std@@@2@V?$allocator@U?$pair@$$CBV?$basic_string@DU?$char_traits@D@std@@V?$allocator@D@2@@std@@VVector3f@@@std@@@2@$0A@@std@@@std@@IAE?AV?$_Tree_iterator@V?$_Tree_val@U?$_Tree_simple_types@U?$pair@$$CBV?$basic_string@DU?$char_traits@D@std@@V?$allocator@D@2@@std@@VVector3f@@@std@@@std@@@std@@@1@V?$_Tree_const_iterator@V?$_Tree_val@U?$_Tree_simple_types@U?$pair@$$CBV?$basic_string@DU?$char_traits@D@std@@V?$allocator@D@2@@std@@VVector3f@@@std@@@std@@@std@@@1@AAU?$pair@$$CBV?$basic_string@DU?$char_traits@D@std@@V?$allocator@D@2@@std@@VVector3f@@@1@PAU?$_Tree_node@U?$pair@$$CBV?$basic_string@DU?$char_traits@D@std@@V?$allocator@D@2@@std@@VVector3f@@@std@@PAX@1@@Z$9
	DD	02H
	DD	FLAT:__unwindfunclet$??$_Insert_hint@AAU?$pair@$$CBV?$basic_string@DU?$char_traits@D@std@@V?$allocator@D@2@@std@@VVector3f@@@std@@PAU?$_Tree_node@U?$pair@$$CBV?$basic_string@DU?$char_traits@D@std@@V?$allocator@D@2@@std@@VVector3f@@@std@@PAX@2@@?$_Tree@V?$_Tmap_traits@V?$basic_string@DU?$char_traits@D@std@@V?$allocator@D@2@@std@@VVector3f@@U?$less@V?$basic_string@DU?$char_traits@D@std@@V?$allocator@D@2@@std@@@2@V?$allocator@U?$pair@$$CBV?$basic_string@DU?$char_traits@D@std@@V?$allocator@D@2@@std@@VVector3f@@@std@@@2@$0A@@std@@@std@@IAE?AV?$_Tree_iterator@V?$_Tree_val@U?$_Tree_simple_types@U?$pair@$$CBV?$basic_string@DU?$char_traits@D@std@@V?$allocator@D@2@@std@@VVector3f@@@std@@@std@@@std@@@1@V?$_Tree_const_iterator@V?$_Tree_val@U?$_Tree_simple_types@U?$pair@$$CBV?$basic_string@DU?$char_traits@D@std@@V?$allocator@D@2@@std@@VVector3f@@@std@@@std@@@std@@@1@AAU?$pair@$$CBV?$basic_string@DU?$char_traits@D@std@@V?$allocator@D@2@@std@@VVector3f@@@1@PAU?$_Tree_node@U?$pair@$$CBV?$basic_string@DU?$char_traits@D@std@@V?$allocator@D@2@@std@@VVector3f@@@std@@PAX@1@@Z$10
	DD	01H
	DD	00H
	DD	01H
	DD	FLAT:__unwindfunclet$??$_Insert_hint@AAU?$pair@$$CBV?$basic_string@DU?$char_traits@D@std@@V?$allocator@D@2@@std@@VVector3f@@@std@@PAU?$_Tree_node@U?$pair@$$CBV?$basic_string@DU?$char_traits@D@std@@V?$allocator@D@2@@std@@VVector3f@@@std@@PAX@2@@?$_Tree@V?$_Tmap_traits@V?$basic_string@DU?$char_traits@D@std@@V?$allocator@D@2@@std@@VVector3f@@U?$less@V?$basic_string@DU?$char_traits@D@std@@V?$allocator@D@2@@std@@@2@V?$allocator@U?$pair@$$CBV?$basic_string@DU?$char_traits@D@std@@V?$allocator@D@2@@std@@VVector3f@@@std@@@2@$0A@@std@@@std@@IAE?AV?$_Tree_iterator@V?$_Tree_val@U?$_Tree_simple_types@U?$pair@$$CBV?$basic_string@DU?$char_traits@D@std@@V?$allocator@D@2@@std@@VVector3f@@@std@@@std@@@std@@@1@V?$_Tree_const_iterator@V?$_Tree_val@U?$_Tree_simple_types@U?$pair@$$CBV?$basic_string@DU?$char_traits@D@std@@V?$allocator@D@2@@std@@VVector3f@@@std@@@std@@@std@@@1@AAU?$pair@$$CBV?$basic_string@DU?$char_traits@D@std@@V?$allocator@D@2@@std@@VVector3f@@@1@PAU?$_Tree_node@U?$pair@$$CBV?$basic_string@DU?$char_traits@D@std@@V?$allocator@D@2@@std@@VVector3f@@@std@@PAX@1@@Z$11
__catchsym$??$_Insert_hint@AAU?$pair@$$CBV?$basic_string@DU?$char_traits@D@std@@V?$allocator@D@2@@std@@VVector3f@@@std@@PAU?$_Tree_node@U?$pair@$$CBV?$basic_string@DU?$char_traits@D@std@@V?$allocator@D@2@@std@@VVector3f@@@std@@PAX@2@@?$_Tree@V?$_Tmap_traits@V?$basic_string@DU?$char_traits@D@std@@V?$allocator@D@2@@std@@VVector3f@@U?$less@V?$basic_string@DU?$char_traits@D@std@@V?$allocator@D@2@@std@@@2@V?$allocator@U?$pair@$$CBV?$basic_string@DU?$char_traits@D@std@@V?$allocator@D@2@@std@@VVector3f@@@std@@@2@$0A@@std@@@std@@IAE?AV?$_Tree_iterator@V?$_Tree_val@U?$_Tree_simple_types@U?$pair@$$CBV?$basic_string@DU?$char_traits@D@std@@V?$allocator@D@2@@std@@VVector3f@@@std@@@std@@@std@@@1@V?$_Tree_const_iterator@V?$_Tree_val@U?$_Tree_simple_types@U?$pair@$$CBV?$basic_string@DU?$char_traits@D@std@@V?$allocator@D@2@@std@@VVector3f@@@std@@@std@@@std@@@1@AAU?$pair@$$CBV?$basic_string@DU?$char_traits@D@std@@V?$allocator@D@2@@std@@VVector3f@@@1@PAU?$_Tree_node@U?$pair@$$CBV?$basic_string@DU?$char_traits@D@std@@V?$allocator@D@2@@std@@VVector3f@@@std@@PAX@1@@Z$12 DD 040H
	DD	00H
	DD	00H
	DD	FLAT:__catch$??$_Insert_hint@AAU?$pair@$$CBV?$basic_string@DU?$char_traits@D@std@@V?$allocator@D@2@@std@@VVector3f@@@std@@PAU?$_Tree_node@U?$pair@$$CBV?$basic_string@DU?$char_traits@D@std@@V?$allocator@D@2@@std@@VVector3f@@@std@@PAX@2@@?$_Tree@V?$_Tmap_traits@V?$basic_string@DU?$char_traits@D@std@@V?$allocator@D@2@@std@@VVector3f@@U?$less@V?$basic_string@DU?$char_traits@D@std@@V?$allocator@D@2@@std@@@2@V?$allocator@U?$pair@$$CBV?$basic_string@DU?$char_traits@D@std@@V?$allocator@D@2@@std@@VVector3f@@@std@@@2@$0A@@std@@@std@@IAE?AV?$_Tree_iterator@V?$_Tree_val@U?$_Tree_simple_types@U?$pair@$$CBV?$basic_string@DU?$char_traits@D@std@@V?$allocator@D@2@@std@@VVector3f@@@std@@@std@@@std@@@1@V?$_Tree_const_iterator@V?$_Tree_val@U?$_Tree_simple_types@U?$pair@$$CBV?$basic_string@DU?$char_traits@D@std@@V?$allocator@D@2@@std@@VVector3f@@@std@@@std@@@std@@@1@AAU?$pair@$$CBV?$basic_string@DU?$char_traits@D@std@@V?$allocator@D@2@@std@@VVector3f@@@1@PAU?$_Tree_node@U?$pair@$$CBV?$basic_string@DU?$char_traits@D@std@@V?$allocator@D@2@@std@@VVector3f@@@std@@PAX@1@@Z$0
xdata$x	ENDS
;	COMDAT xdata$x
xdata$x	SEGMENT
__ehfuncinfo$?_Buynode0@?$_Tree_comp_alloc@V?$_Tmap_traits@V?$basic_string@DU?$char_traits@D@std@@V?$allocator@D@2@@std@@VVector3f@@U?$less@V?$basic_string@DU?$char_traits@D@std@@V?$allocator@D@2@@std@@@2@V?$allocator@U?$pair@$$CBV?$basic_string@DU?$char_traits@D@std@@V?$allocator@D@2@@std@@VVector3f@@@std@@@2@$0A@@std@@@std@@QAEPAU?$_Tree_node@U?$pair@$$CBV?$basic_string@DU?$char_traits@D@std@@V?$allocator@D@2@@std@@VVector3f@@@std@@PAX@2@XZ DD 019930522H
	DD	02H
	DD	FLAT:__unwindtable$?_Buynode0@?$_Tree_comp_alloc@V?$_Tmap_traits@V?$basic_string@DU?$char_traits@D@std@@V?$allocator@D@2@@std@@VVector3f@@U?$less@V?$basic_string@DU?$char_traits@D@std@@V?$allocator@D@2@@std@@@2@V?$allocator@U?$pair@$$CBV?$basic_string@DU?$char_traits@D@std@@V?$allocator@D@2@@std@@VVector3f@@@std@@@2@$0A@@std@@@std@@QAEPAU?$_Tree_node@U?$pair@$$CBV?$basic_string@DU?$char_traits@D@std@@V?$allocator@D@2@@std@@VVector3f@@@std@@PAX@2@XZ
	DD	01H
	DD	FLAT:__tryblocktable$?_Buynode0@?$_Tree_comp_alloc@V?$_Tmap_traits@V?$basic_string@DU?$char_traits@D@std@@V?$allocator@D@2@@std@@VVector3f@@U?$less@V?$basic_string@DU?$char_traits@D@std@@V?$allocator@D@2@@std@@@2@V?$allocator@U?$pair@$$CBV?$basic_string@DU?$char_traits@D@std@@V?$allocator@D@2@@std@@VVector3f@@@std@@@2@$0A@@std@@@std@@QAEPAU?$_Tree_node@U?$pair@$$CBV?$basic_string@DU?$char_traits@D@std@@V?$allocator@D@2@@std@@VVector3f@@@std@@PAX@2@XZ
	DD	2 DUP(00H)
	DD	00H
	DD	01H
__unwindtable$?_Buynode0@?$_Tree_comp_alloc@V?$_Tmap_traits@V?$basic_string@DU?$char_traits@D@std@@V?$allocator@D@2@@std@@VVector3f@@U?$less@V?$basic_string@DU?$char_traits@D@std@@V?$allocator@D@2@@std@@@2@V?$allocator@U?$pair@$$CBV?$basic_string@DU?$char_traits@D@std@@V?$allocator@D@2@@std@@VVector3f@@@std@@@2@$0A@@std@@@std@@QAEPAU?$_Tree_node@U?$pair@$$CBV?$basic_string@DU?$char_traits@D@std@@V?$allocator@D@2@@std@@VVector3f@@@std@@PAX@2@XZ DD 0ffffffffH
	DD	00H
	DD	0ffffffffH
	DD	00H
__tryblocktable$?_Buynode0@?$_Tree_comp_alloc@V?$_Tmap_traits@V?$basic_string@DU?$char_traits@D@std@@V?$allocator@D@2@@std@@VVector3f@@U?$less@V?$basic_string@DU?$char_traits@D@std@@V?$allocator@D@2@@std@@@2@V?$allocator@U?$pair@$$CBV?$basic_string@DU?$char_traits@D@std@@V?$allocator@D@2@@std@@VVector3f@@@std@@@2@$0A@@std@@@std@@QAEPAU?$_Tree_node@U?$pair@$$CBV?$basic_string@DU?$char_traits@D@std@@V?$allocator@D@2@@std@@VVector3f@@@std@@PAX@2@XZ DD 00H
	DD	00H
	DD	01H
	DD	01H
	DD	FLAT:__catchsym$?_Buynode0@?$_Tree_comp_alloc@V?$_Tmap_traits@V?$basic_string@DU?$char_traits@D@std@@V?$allocator@D@2@@std@@VVector3f@@U?$less@V?$basic_string@DU?$char_traits@D@std@@V?$allocator@D@2@@std@@@2@V?$allocator@U?$pair@$$CBV?$basic_string@DU?$char_traits@D@std@@V?$allocator@D@2@@std@@VVector3f@@@std@@@2@$0A@@std@@@std@@QAEPAU?$_Tree_node@U?$pair@$$CBV?$basic_string@DU?$char_traits@D@std@@V?$allocator@D@2@@std@@VVector3f@@@std@@PAX@2@XZ$2
__catchsym$?_Buynode0@?$_Tree_comp_alloc@V?$_Tmap_traits@V?$basic_string@DU?$char_traits@D@std@@V?$allocator@D@2@@std@@VVector3f@@U?$less@V?$basic_string@DU?$char_traits@D@std@@V?$allocator@D@2@@std@@@2@V?$allocator@U?$pair@$$CBV?$basic_string@DU?$char_traits@D@std@@V?$allocator@D@2@@std@@VVector3f@@@std@@@2@$0A@@std@@@std@@QAEPAU?$_Tree_node@U?$pair@$$CBV?$basic_string@DU?$char_traits@D@std@@V?$allocator@D@2@@std@@VVector3f@@@std@@PAX@2@XZ$2 DD 040H
	DD	00H
	DD	00H
	DD	FLAT:__catch$?_Buynode0@?$_Tree_comp_alloc@V?$_Tmap_traits@V?$basic_string@DU?$char_traits@D@std@@V?$allocator@D@2@@std@@VVector3f@@U?$less@V?$basic_string@DU?$char_traits@D@std@@V?$allocator@D@2@@std@@@2@V?$allocator@U?$pair@$$CBV?$basic_string@DU?$char_traits@D@std@@V?$allocator@D@2@@std@@VVector3f@@@std@@@2@$0A@@std@@@std@@QAEPAU?$_Tree_node@U?$pair@$$CBV?$basic_string@DU?$char_traits@D@std@@V?$allocator@D@2@@std@@VVector3f@@@std@@PAX@2@XZ$0
xdata$x	ENDS
;	COMDAT xdata$x
xdata$x	SEGMENT
__ehfuncinfo$??$_Insert_nohint@AAU?$pair@$$CBV?$basic_string@DU?$char_traits@D@std@@V?$allocator@D@2@@std@@VVector3f@@@std@@PAU?$_Tree_node@U?$pair@$$CBV?$basic_string@DU?$char_traits@D@std@@V?$allocator@D@2@@std@@VVector3f@@@std@@PAX@2@@?$_Tree@V?$_Tmap_traits@V?$basic_string@DU?$char_traits@D@std@@V?$allocator@D@2@@std@@VVector3f@@U?$less@V?$basic_string@DU?$char_traits@D@std@@V?$allocator@D@2@@std@@@2@V?$allocator@U?$pair@$$CBV?$basic_string@DU?$char_traits@D@std@@V?$allocator@D@2@@std@@VVector3f@@@std@@@2@$0A@@std@@@std@@IAE?AU?$pair@V?$_Tree_iterator@V?$_Tree_val@U?$_Tree_simple_types@U?$pair@$$CBV?$basic_string@DU?$char_traits@D@std@@V?$allocator@D@2@@std@@VVector3f@@@std@@@std@@@std@@@std@@_N@1@_NAAU?$pair@$$CBV?$basic_string@DU?$char_traits@D@std@@V?$allocator@D@2@@std@@VVector3f@@@1@PAU?$_Tree_node@U?$pair@$$CBV?$basic_string@DU?$char_traits@D@std@@V?$allocator@D@2@@std@@VVector3f@@@std@@PAX@1@@Z DD 019930522H
	DD	07H
	DD	FLAT:__unwindtable$??$_Insert_nohint@AAU?$pair@$$CBV?$basic_string@DU?$char_traits@D@std@@V?$allocator@D@2@@std@@VVector3f@@@std@@PAU?$_Tree_node@U?$pair@$$CBV?$basic_string@DU?$char_traits@D@std@@V?$allocator@D@2@@std@@VVector3f@@@std@@PAX@2@@?$_Tree@V?$_Tmap_traits@V?$basic_string@DU?$char_traits@D@std@@V?$allocator@D@2@@std@@VVector3f@@U?$less@V?$basic_string@DU?$char_traits@D@std@@V?$allocator@D@2@@std@@@2@V?$allocator@U?$pair@$$CBV?$basic_string@DU?$char_traits@D@std@@V?$allocator@D@2@@std@@VVector3f@@@std@@@2@$0A@@std@@@std@@IAE?AU?$pair@V?$_Tree_iterator@V?$_Tree_val@U?$_Tree_simple_types@U?$pair@$$CBV?$basic_string@DU?$char_traits@D@std@@V?$allocator@D@2@@std@@VVector3f@@@std@@@std@@@std@@@std@@_N@1@_NAAU?$pair@$$CBV?$basic_string@DU?$char_traits@D@std@@V?$allocator@D@2@@std@@VVector3f@@@1@PAU?$_Tree_node@U?$pair@$$CBV?$basic_string@DU?$char_traits@D@std@@V?$allocator@D@2@@std@@VVector3f@@@std@@PAX@1@@Z
	DD	01H
	DD	FLAT:__tryblocktable$??$_Insert_nohint@AAU?$pair@$$CBV?$basic_string@DU?$char_traits@D@std@@V?$allocator@D@2@@std@@VVector3f@@@std@@PAU?$_Tree_node@U?$pair@$$CBV?$basic_string@DU?$char_traits@D@std@@V?$allocator@D@2@@std@@VVector3f@@@std@@PAX@2@@?$_Tree@V?$_Tmap_traits@V?$basic_string@DU?$char_traits@D@std@@V?$allocator@D@2@@std@@VVector3f@@U?$less@V?$basic_string@DU?$char_traits@D@std@@V?$allocator@D@2@@std@@@2@V?$allocator@U?$pair@$$CBV?$basic_string@DU?$char_traits@D@std@@V?$allocator@D@2@@std@@VVector3f@@@std@@@2@$0A@@std@@@std@@IAE?AU?$pair@V?$_Tree_iterator@V?$_Tree_val@U?$_Tree_simple_types@U?$pair@$$CBV?$basic_string@DU?$char_traits@D@std@@V?$allocator@D@2@@std@@VVector3f@@@std@@@std@@@std@@@std@@_N@1@_NAAU?$pair@$$CBV?$basic_string@DU?$char_traits@D@std@@V?$allocator@D@2@@std@@VVector3f@@@1@PAU?$_Tree_node@U?$pair@$$CBV?$basic_string@DU?$char_traits@D@std@@V?$allocator@D@2@@std@@VVector3f@@@std@@PAX@1@@Z
	DD	2 DUP(00H)
	DD	00H
	DD	01H
__unwindtable$??$_Insert_nohint@AAU?$pair@$$CBV?$basic_string@DU?$char_traits@D@std@@V?$allocator@D@2@@std@@VVector3f@@@std@@PAU?$_Tree_node@U?$pair@$$CBV?$basic_string@DU?$char_traits@D@std@@V?$allocator@D@2@@std@@VVector3f@@@std@@PAX@2@@?$_Tree@V?$_Tmap_traits@V?$basic_string@DU?$char_traits@D@std@@V?$allocator@D@2@@std@@VVector3f@@U?$less@V?$basic_string@DU?$char_traits@D@std@@V?$allocator@D@2@@std@@@2@V?$allocator@U?$pair@$$CBV?$basic_string@DU?$char_traits@D@std@@V?$allocator@D@2@@std@@VVector3f@@@std@@@2@$0A@@std@@@std@@IAE?AU?$pair@V?$_Tree_iterator@V?$_Tree_val@U?$_Tree_simple_types@U?$pair@$$CBV?$basic_string@DU?$char_traits@D@std@@V?$allocator@D@2@@std@@VVector3f@@@std@@@std@@@std@@@std@@_N@1@_NAAU?$pair@$$CBV?$basic_string@DU?$char_traits@D@std@@V?$allocator@D@2@@std@@VVector3f@@@1@PAU?$_Tree_node@U?$pair@$$CBV?$basic_string@DU?$char_traits@D@std@@V?$allocator@D@2@@std@@VVector3f@@@std@@PAX@1@@Z DD 0ffffffffH
	DD	00H
	DD	00H
	DD	FLAT:__unwindfunclet$??$_Insert_nohint@AAU?$pair@$$CBV?$basic_string@DU?$char_traits@D@std@@V?$allocator@D@2@@std@@VVector3f@@@std@@PAU?$_Tree_node@U?$pair@$$CBV?$basic_string@DU?$char_traits@D@std@@V?$allocator@D@2@@std@@VVector3f@@@std@@PAX@2@@?$_Tree@V?$_Tmap_traits@V?$basic_string@DU?$char_traits@D@std@@V?$allocator@D@2@@std@@VVector3f@@U?$less@V?$basic_string@DU?$char_traits@D@std@@V?$allocator@D@2@@std@@@2@V?$allocator@U?$pair@$$CBV?$basic_string@DU?$char_traits@D@std@@V?$allocator@D@2@@std@@VVector3f@@@std@@@2@$0A@@std@@@std@@IAE?AU?$pair@V?$_Tree_iterator@V?$_Tree_val@U?$_Tree_simple_types@U?$pair@$$CBV?$basic_string@DU?$char_traits@D@std@@V?$allocator@D@2@@std@@VVector3f@@@std@@@std@@@std@@@std@@_N@1@_NAAU?$pair@$$CBV?$basic_string@DU?$char_traits@D@std@@V?$allocator@D@2@@std@@VVector3f@@@1@PAU?$_Tree_node@U?$pair@$$CBV?$basic_string@DU?$char_traits@D@std@@V?$allocator@D@2@@std@@VVector3f@@@std@@PAX@1@@Z$2
	DD	00H
	DD	FLAT:__unwindfunclet$??$_Insert_nohint@AAU?$pair@$$CBV?$basic_string@DU?$char_traits@D@std@@V?$allocator@D@2@@std@@VVector3f@@@std@@PAU?$_Tree_node@U?$pair@$$CBV?$basic_string@DU?$char_traits@D@std@@V?$allocator@D@2@@std@@VVector3f@@@std@@PAX@2@@?$_Tree@V?$_Tmap_traits@V?$basic_string@DU?$char_traits@D@std@@V?$allocator@D@2@@std@@VVector3f@@U?$less@V?$basic_string@DU?$char_traits@D@std@@V?$allocator@D@2@@std@@@2@V?$allocator@U?$pair@$$CBV?$basic_string@DU?$char_traits@D@std@@V?$allocator@D@2@@std@@VVector3f@@@std@@@2@$0A@@std@@@std@@IAE?AU?$pair@V?$_Tree_iterator@V?$_Tree_val@U?$_Tree_simple_types@U?$pair@$$CBV?$basic_string@DU?$char_traits@D@std@@V?$allocator@D@2@@std@@VVector3f@@@std@@@std@@@std@@@std@@_N@1@_NAAU?$pair@$$CBV?$basic_string@DU?$char_traits@D@std@@V?$allocator@D@2@@std@@VVector3f@@@1@PAU?$_Tree_node@U?$pair@$$CBV?$basic_string@DU?$char_traits@D@std@@V?$allocator@D@2@@std@@VVector3f@@@std@@PAX@1@@Z$4
	DD	02H
	DD	FLAT:__unwindfunclet$??$_Insert_nohint@AAU?$pair@$$CBV?$basic_string@DU?$char_traits@D@std@@V?$allocator@D@2@@std@@VVector3f@@@std@@PAU?$_Tree_node@U?$pair@$$CBV?$basic_string@DU?$char_traits@D@std@@V?$allocator@D@2@@std@@VVector3f@@@std@@PAX@2@@?$_Tree@V?$_Tmap_traits@V?$basic_string@DU?$char_traits@D@std@@V?$allocator@D@2@@std@@VVector3f@@U?$less@V?$basic_string@DU?$char_traits@D@std@@V?$allocator@D@2@@std@@@2@V?$allocator@U?$pair@$$CBV?$basic_string@DU?$char_traits@D@std@@V?$allocator@D@2@@std@@VVector3f@@@std@@@2@$0A@@std@@@std@@IAE?AU?$pair@V?$_Tree_iterator@V?$_Tree_val@U?$_Tree_simple_types@U?$pair@$$CBV?$basic_string@DU?$char_traits@D@std@@V?$allocator@D@2@@std@@VVector3f@@@std@@@std@@@std@@@std@@_N@1@_NAAU?$pair@$$CBV?$basic_string@DU?$char_traits@D@std@@V?$allocator@D@2@@std@@VVector3f@@@1@PAU?$_Tree_node@U?$pair@$$CBV?$basic_string@DU?$char_traits@D@std@@V?$allocator@D@2@@std@@VVector3f@@@std@@PAX@1@@Z$5
	DD	02H
	DD	FLAT:__unwindfunclet$??$_Insert_nohint@AAU?$pair@$$CBV?$basic_string@DU?$char_traits@D@std@@V?$allocator@D@2@@std@@VVector3f@@@std@@PAU?$_Tree_node@U?$pair@$$CBV?$basic_string@DU?$char_traits@D@std@@V?$allocator@D@2@@std@@VVector3f@@@std@@PAX@2@@?$_Tree@V?$_Tmap_traits@V?$basic_string@DU?$char_traits@D@std@@V?$allocator@D@2@@std@@VVector3f@@U?$less@V?$basic_string@DU?$char_traits@D@std@@V?$allocator@D@2@@std@@@2@V?$allocator@U?$pair@$$CBV?$basic_string@DU?$char_traits@D@std@@V?$allocator@D@2@@std@@VVector3f@@@std@@@2@$0A@@std@@@std@@IAE?AU?$pair@V?$_Tree_iterator@V?$_Tree_val@U?$_Tree_simple_types@U?$pair@$$CBV?$basic_string@DU?$char_traits@D@std@@V?$allocator@D@2@@std@@VVector3f@@@std@@@std@@@std@@@std@@_N@1@_NAAU?$pair@$$CBV?$basic_string@DU?$char_traits@D@std@@V?$allocator@D@2@@std@@VVector3f@@@1@PAU?$_Tree_node@U?$pair@$$CBV?$basic_string@DU?$char_traits@D@std@@V?$allocator@D@2@@std@@VVector3f@@@std@@PAX@1@@Z$6
	DD	02H
	DD	FLAT:__unwindfunclet$??$_Insert_nohint@AAU?$pair@$$CBV?$basic_string@DU?$char_traits@D@std@@V?$allocator@D@2@@std@@VVector3f@@@std@@PAU?$_Tree_node@U?$pair@$$CBV?$basic_string@DU?$char_traits@D@std@@V?$allocator@D@2@@std@@VVector3f@@@std@@PAX@2@@?$_Tree@V?$_Tmap_traits@V?$basic_string@DU?$char_traits@D@std@@V?$allocator@D@2@@std@@VVector3f@@U?$less@V?$basic_string@DU?$char_traits@D@std@@V?$allocator@D@2@@std@@@2@V?$allocator@U?$pair@$$CBV?$basic_string@DU?$char_traits@D@std@@V?$allocator@D@2@@std@@VVector3f@@@std@@@2@$0A@@std@@@std@@IAE?AU?$pair@V?$_Tree_iterator@V?$_Tree_val@U?$_Tree_simple_types@U?$pair@$$CBV?$basic_string@DU?$char_traits@D@std@@V?$allocator@D@2@@std@@VVector3f@@@std@@@std@@@std@@@std@@_N@1@_NAAU?$pair@$$CBV?$basic_string@DU?$char_traits@D@std@@V?$allocator@D@2@@std@@VVector3f@@@1@PAU?$_Tree_node@U?$pair@$$CBV?$basic_string@DU?$char_traits@D@std@@V?$allocator@D@2@@std@@VVector3f@@@std@@PAX@1@@Z$7
	DD	0ffffffffH
	DD	00H
__tryblocktable$??$_Insert_nohint@AAU?$pair@$$CBV?$basic_string@DU?$char_traits@D@std@@V?$allocator@D@2@@std@@VVector3f@@@std@@PAU?$_Tree_node@U?$pair@$$CBV?$basic_string@DU?$char_traits@D@std@@V?$allocator@D@2@@std@@VVector3f@@@std@@PAX@2@@?$_Tree@V?$_Tmap_traits@V?$basic_string@DU?$char_traits@D@std@@V?$allocator@D@2@@std@@VVector3f@@U?$less@V?$basic_string@DU?$char_traits@D@std@@V?$allocator@D@2@@std@@@2@V?$allocator@U?$pair@$$CBV?$basic_string@DU?$char_traits@D@std@@V?$allocator@D@2@@std@@VVector3f@@@std@@@2@$0A@@std@@@std@@IAE?AU?$pair@V?$_Tree_iterator@V?$_Tree_val@U?$_Tree_simple_types@U?$pair@$$CBV?$basic_string@DU?$char_traits@D@std@@V?$allocator@D@2@@std@@VVector3f@@@std@@@std@@@std@@@std@@_N@1@_NAAU?$pair@$$CBV?$basic_string@DU?$char_traits@D@std@@V?$allocator@D@2@@std@@VVector3f@@@1@PAU?$_Tree_node@U?$pair@$$CBV?$basic_string@DU?$char_traits@D@std@@V?$allocator@D@2@@std@@VVector3f@@@std@@PAX@1@@Z DD 00H
	DD	05H
	DD	06H
	DD	01H
	DD	FLAT:__catchsym$??$_Insert_nohint@AAU?$pair@$$CBV?$basic_string@DU?$char_traits@D@std@@V?$allocator@D@2@@std@@VVector3f@@@std@@PAU?$_Tree_node@U?$pair@$$CBV?$basic_string@DU?$char_traits@D@std@@V?$allocator@D@2@@std@@VVector3f@@@std@@PAX@2@@?$_Tree@V?$_Tmap_traits@V?$basic_string@DU?$char_traits@D@std@@V?$allocator@D@2@@std@@VVector3f@@U?$less@V?$basic_string@DU?$char_traits@D@std@@V?$allocator@D@2@@std@@@2@V?$allocator@U?$pair@$$CBV?$basic_string@DU?$char_traits@D@std@@V?$allocator@D@2@@std@@VVector3f@@@std@@@2@$0A@@std@@@std@@IAE?AU?$pair@V?$_Tree_iterator@V?$_Tree_val@U?$_Tree_simple_types@U?$pair@$$CBV?$basic_string@DU?$char_traits@D@std@@V?$allocator@D@2@@std@@VVector3f@@@std@@@std@@@std@@@std@@_N@1@_NAAU?$pair@$$CBV?$basic_string@DU?$char_traits@D@std@@V?$allocator@D@2@@std@@VVector3f@@@1@PAU?$_Tree_node@U?$pair@$$CBV?$basic_string@DU?$char_traits@D@std@@V?$allocator@D@2@@std@@VVector3f@@@std@@PAX@1@@Z$8
__catchsym$??$_Insert_nohint@AAU?$pair@$$CBV?$basic_string@DU?$char_traits@D@std@@V?$allocator@D@2@@std@@VVector3f@@@std@@PAU?$_Tree_node@U?$pair@$$CBV?$basic_string@DU?$char_traits@D@std@@V?$allocator@D@2@@std@@VVector3f@@@std@@PAX@2@@?$_Tree@V?$_Tmap_traits@V?$basic_string@DU?$char_traits@D@std@@V?$allocator@D@2@@std@@VVector3f@@U?$less@V?$basic_string@DU?$char_traits@D@std@@V?$allocator@D@2@@std@@@2@V?$allocator@U?$pair@$$CBV?$basic_string@DU?$char_traits@D@std@@V?$allocator@D@2@@std@@VVector3f@@@std@@@2@$0A@@std@@@std@@IAE?AU?$pair@V?$_Tree_iterator@V?$_Tree_val@U?$_Tree_simple_types@U?$pair@$$CBV?$basic_string@DU?$char_traits@D@std@@V?$allocator@D@2@@std@@VVector3f@@@std@@@std@@@std@@@std@@_N@1@_NAAU?$pair@$$CBV?$basic_string@DU?$char_traits@D@std@@V?$allocator@D@2@@std@@VVector3f@@@1@PAU?$_Tree_node@U?$pair@$$CBV?$basic_string@DU?$char_traits@D@std@@V?$allocator@D@2@@std@@VVector3f@@@std@@PAX@1@@Z$8 DD 040H
	DD	00H
	DD	00H
	DD	FLAT:__catch$??$_Insert_nohint@AAU?$pair@$$CBV?$basic_string@DU?$char_traits@D@std@@V?$allocator@D@2@@std@@VVector3f@@@std@@PAU?$_Tree_node@U?$pair@$$CBV?$basic_string@DU?$char_traits@D@std@@V?$allocator@D@2@@std@@VVector3f@@@std@@PAX@2@@?$_Tree@V?$_Tmap_traits@V?$basic_string@DU?$char_traits@D@std@@V?$allocator@D@2@@std@@VVector3f@@U?$less@V?$basic_string@DU?$char_traits@D@std@@V?$allocator@D@2@@std@@@2@V?$allocator@U?$pair@$$CBV?$basic_string@DU?$char_traits@D@std@@V?$allocator@D@2@@std@@VVector3f@@@std@@@2@$0A@@std@@@std@@IAE?AU?$pair@V?$_Tree_iterator@V?$_Tree_val@U?$_Tree_simple_types@U?$pair@$$CBV?$basic_string@DU?$char_traits@D@std@@V?$allocator@D@2@@std@@VVector3f@@@std@@@std@@@std@@@std@@_N@1@_NAAU?$pair@$$CBV?$basic_string@DU?$char_traits@D@std@@V?$allocator@D@2@@std@@VVector3f@@@1@PAU?$_Tree_node@U?$pair@$$CBV?$basic_string@DU?$char_traits@D@std@@V?$allocator@D@2@@std@@VVector3f@@@std@@PAX@1@@Z$0
xdata$x	ENDS
;	COMDAT xdata$x
xdata$x	SEGMENT
__ehfuncinfo$??$construct@U?$pair@$$CBV?$basic_string@DU?$char_traits@D@std@@V?$allocator@D@2@@std@@I@std@@ABUpiecewise_construct_t@2@V?$tuple@ABV?$basic_string@DU?$char_traits@D@std@@V?$allocator@D@2@@std@@@2@V?$tuple@$$V@2@@?$allocator@U?$_Tree_node@U?$pair@$$CBV?$basic_string@DU?$char_traits@D@std@@V?$allocator@D@2@@std@@I@std@@PAX@std@@@std@@QAEXPAU?$pair@$$CBV?$basic_string@DU?$char_traits@D@std@@V?$allocator@D@2@@std@@I@1@ABUpiecewise_construct_t@1@$$QAV?$tuple@ABV?$basic_string@DU?$char_traits@D@std@@V?$allocator@D@2@@std@@@1@$$QAV?$tuple@$$V@1@@Z DD 019930522H
	DD	01H
	DD	FLAT:__unwindtable$??$construct@U?$pair@$$CBV?$basic_string@DU?$char_traits@D@std@@V?$allocator@D@2@@std@@I@std@@ABUpiecewise_construct_t@2@V?$tuple@ABV?$basic_string@DU?$char_traits@D@std@@V?$allocator@D@2@@std@@@2@V?$tuple@$$V@2@@?$allocator@U?$_Tree_node@U?$pair@$$CBV?$basic_string@DU?$char_traits@D@std@@V?$allocator@D@2@@std@@I@std@@PAX@std@@@std@@QAEXPAU?$pair@$$CBV?$basic_string@DU?$char_traits@D@std@@V?$allocator@D@2@@std@@I@1@ABUpiecewise_construct_t@1@$$QAV?$tuple@ABV?$basic_string@DU?$char_traits@D@std@@V?$allocator@D@2@@std@@@1@$$QAV?$tuple@$$V@1@@Z
	DD	2 DUP(00H)
	DD	2 DUP(00H)
	DD	00H
	DD	01H
__unwindtable$??$construct@U?$pair@$$CBV?$basic_string@DU?$char_traits@D@std@@V?$allocator@D@2@@std@@I@std@@ABUpiecewise_construct_t@2@V?$tuple@ABV?$basic_string@DU?$char_traits@D@std@@V?$allocator@D@2@@std@@@2@V?$tuple@$$V@2@@?$allocator@U?$_Tree_node@U?$pair@$$CBV?$basic_string@DU?$char_traits@D@std@@V?$allocator@D@2@@std@@I@std@@PAX@std@@@std@@QAEXPAU?$pair@$$CBV?$basic_string@DU?$char_traits@D@std@@V?$allocator@D@2@@std@@I@1@ABUpiecewise_construct_t@1@$$QAV?$tuple@ABV?$basic_string@DU?$char_traits@D@std@@V?$allocator@D@2@@std@@@1@$$QAV?$tuple@$$V@1@@Z DD 0ffffffffH
	DD	FLAT:__unwindfunclet$??$construct@U?$pair@$$CBV?$basic_string@DU?$char_traits@D@std@@V?$allocator@D@2@@std@@I@std@@ABUpiecewise_construct_t@2@V?$tuple@ABV?$basic_string@DU?$char_traits@D@std@@V?$allocator@D@2@@std@@@2@V?$tuple@$$V@2@@?$allocator@U?$_Tree_node@U?$pair@$$CBV?$basic_string@DU?$char_traits@D@std@@V?$allocator@D@2@@std@@I@std@@PAX@std@@@std@@QAEXPAU?$pair@$$CBV?$basic_string@DU?$char_traits@D@std@@V?$allocator@D@2@@std@@I@1@ABUpiecewise_construct_t@1@$$QAV?$tuple@ABV?$basic_string@DU?$char_traits@D@std@@V?$allocator@D@2@@std@@@1@$$QAV?$tuple@$$V@1@@Z$0
xdata$x	ENDS
;	COMDAT xdata$x
xdata$x	SEGMENT
__ehfuncinfo$??$construct@U?$pair@$$CBV?$basic_string@DU?$char_traits@D@std@@V?$allocator@D@2@@std@@VVector3f@@@std@@ABUpiecewise_construct_t@2@V?$tuple@ABV?$basic_string@DU?$char_traits@D@std@@V?$allocator@D@2@@std@@@2@V?$tuple@$$V@2@@?$allocator@U?$_Tree_node@U?$pair@$$CBV?$basic_string@DU?$char_traits@D@std@@V?$allocator@D@2@@std@@VVector3f@@@std@@PAX@std@@@std@@QAEXPAU?$pair@$$CBV?$basic_string@DU?$char_traits@D@std@@V?$allocator@D@2@@std@@VVector3f@@@1@ABUpiecewise_construct_t@1@$$QAV?$tuple@ABV?$basic_string@DU?$char_traits@D@std@@V?$allocator@D@2@@std@@@1@$$QAV?$tuple@$$V@1@@Z DD 019930522H
	DD	01H
	DD	FLAT:__unwindtable$??$construct@U?$pair@$$CBV?$basic_string@DU?$char_traits@D@std@@V?$allocator@D@2@@std@@VVector3f@@@std@@ABUpiecewise_construct_t@2@V?$tuple@ABV?$basic_string@DU?$char_traits@D@std@@V?$allocator@D@2@@std@@@2@V?$tuple@$$V@2@@?$allocator@U?$_Tree_node@U?$pair@$$CBV?$basic_string@DU?$char_traits@D@std@@V?$allocator@D@2@@std@@VVector3f@@@std@@PAX@std@@@std@@QAEXPAU?$pair@$$CBV?$basic_string@DU?$char_traits@D@std@@V?$allocator@D@2@@std@@VVector3f@@@1@ABUpiecewise_construct_t@1@$$QAV?$tuple@ABV?$basic_string@DU?$char_traits@D@std@@V?$allocator@D@2@@std@@@1@$$QAV?$tuple@$$V@1@@Z
	DD	2 DUP(00H)
	DD	2 DUP(00H)
	DD	00H
	DD	01H
__unwindtable$??$construct@U?$pair@$$CBV?$basic_string@DU?$char_traits@D@std@@V?$allocator@D@2@@std@@VVector3f@@@std@@ABUpiecewise_construct_t@2@V?$tuple@ABV?$basic_string@DU?$char_traits@D@std@@V?$allocator@D@2@@std@@@2@V?$tuple@$$V@2@@?$allocator@U?$_Tree_node@U?$pair@$$CBV?$basic_string@DU?$char_traits@D@std@@V?$allocator@D@2@@std@@VVector3f@@@std@@PAX@std@@@std@@QAEXPAU?$pair@$$CBV?$basic_string@DU?$char_traits@D@std@@V?$allocator@D@2@@std@@VVector3f@@@1@ABUpiecewise_construct_t@1@$$QAV?$tuple@ABV?$basic_string@DU?$char_traits@D@std@@V?$allocator@D@2@@std@@@1@$$QAV?$tuple@$$V@1@@Z DD 0ffffffffH
	DD	FLAT:__unwindfunclet$??$construct@U?$pair@$$CBV?$basic_string@DU?$char_traits@D@std@@V?$allocator@D@2@@std@@VVector3f@@@std@@ABUpiecewise_construct_t@2@V?$tuple@ABV?$basic_string@DU?$char_traits@D@std@@V?$allocator@D@2@@std@@@2@V?$tuple@$$V@2@@?$allocator@U?$_Tree_node@U?$pair@$$CBV?$basic_string@DU?$char_traits@D@std@@V?$allocator@D@2@@std@@VVector3f@@@std@@PAX@std@@@std@@QAEXPAU?$pair@$$CBV?$basic_string@DU?$char_traits@D@std@@V?$allocator@D@2@@std@@VVector3f@@@1@ABUpiecewise_construct_t@1@$$QAV?$tuple@ABV?$basic_string@DU?$char_traits@D@std@@V?$allocator@D@2@@std@@@1@$$QAV?$tuple@$$V@1@@Z$0
xdata$x	ENDS
;	COMDAT xdata$x
xdata$x	SEGMENT
__ehfuncinfo$??$?0V?$tuple@ABV?$basic_string@DU?$char_traits@D@std@@V?$allocator@D@2@@std@@@std@@V?$tuple@$$V@1@$0A@$$Z$S@?$pair@$$CBV?$basic_string@DU?$char_traits@D@std@@V?$allocator@D@2@@std@@VVector3f@@@std@@QAE@AAV?$tuple@ABV?$basic_string@DU?$char_traits@D@std@@V?$allocator@D@2@@std@@@1@AAV?$tuple@$$V@1@U?$integer_sequence@I$0A@@1@U?$integer_sequence@I$S@1@@Z DD 019930522H
	DD	01H
	DD	FLAT:__unwindtable$??$?0V?$tuple@ABV?$basic_string@DU?$char_traits@D@std@@V?$allocator@D@2@@std@@@std@@V?$tuple@$$V@1@$0A@$$Z$S@?$pair@$$CBV?$basic_string@DU?$char_traits@D@std@@V?$allocator@D@2@@std@@VVector3f@@@std@@QAE@AAV?$tuple@ABV?$basic_string@DU?$char_traits@D@std@@V?$allocator@D@2@@std@@@1@AAV?$tuple@$$V@1@U?$integer_sequence@I$0A@@1@U?$integer_sequence@I$S@1@@Z
	DD	2 DUP(00H)
	DD	2 DUP(00H)
	DD	00H
	DD	01H
__unwindtable$??$?0V?$tuple@ABV?$basic_string@DU?$char_traits@D@std@@V?$allocator@D@2@@std@@@std@@V?$tuple@$$V@1@$0A@$$Z$S@?$pair@$$CBV?$basic_string@DU?$char_traits@D@std@@V?$allocator@D@2@@std@@VVector3f@@@std@@QAE@AAV?$tuple@ABV?$basic_string@DU?$char_traits@D@std@@V?$allocator@D@2@@std@@@1@AAV?$tuple@$$V@1@U?$integer_sequence@I$0A@@1@U?$integer_sequence@I$S@1@@Z DD 0ffffffffH
	DD	FLAT:__unwindfunclet$??$?0V?$tuple@ABV?$basic_string@DU?$char_traits@D@std@@V?$allocator@D@2@@std@@@std@@V?$tuple@$$V@1@$0A@$$Z$S@?$pair@$$CBV?$basic_string@DU?$char_traits@D@std@@V?$allocator@D@2@@std@@VVector3f@@@std@@QAE@AAV?$tuple@ABV?$basic_string@DU?$char_traits@D@std@@V?$allocator@D@2@@std@@@1@AAV?$tuple@$$V@1@U?$integer_sequence@I$0A@@1@U?$integer_sequence@I$S@1@@Z$0
__ehfuncinfo$?drawLine@GLDebugDrawer@@UAEXABVbtVector3@@00@Z DD 019930522H
	DD	02H
	DD	FLAT:__unwindtable$?drawLine@GLDebugDrawer@@UAEXABVbtVector3@@00@Z
	DD	2 DUP(00H)
	DD	2 DUP(00H)
	DD	00H
	DD	01H
__unwindtable$?drawLine@GLDebugDrawer@@UAEXABVbtVector3@@00@Z DD 0ffffffffH
	DD	FLAT:__unwindfunclet$?drawLine@GLDebugDrawer@@UAEXABVbtVector3@@00@Z$0
	DD	00H
	DD	FLAT:__unwindfunclet$?drawLine@GLDebugDrawer@@UAEXABVbtVector3@@00@Z$1
__ehfuncinfo$?Render@RenderingEngine@@UAEXABVEntity@@@Z DD 019930522H
	DD	0fH
	DD	FLAT:__unwindtable$?Render@RenderingEngine@@UAEXABVEntity@@@Z
	DD	2 DUP(00H)
	DD	2 DUP(00H)
	DD	00H
	DD	01H
__ehfuncinfo$?ApplyFilter@RenderingEngine@@IAEXABVShader@@ABVTexture@@PBV3@@Z DD 019930522H
	DD	05H
	DD	FLAT:__unwindtable$?ApplyFilter@RenderingEngine@@IAEXABVShader@@ABVTexture@@PBV3@@Z
	DD	2 DUP(00H)
	DD	2 DUP(00H)
	DD	00H
	DD	01H
__unwindtable$?Render@RenderingEngine@@UAEXABVEntity@@@Z DD 0ffffffffH
	DD	FLAT:__unwindfunclet$?Render@RenderingEngine@@UAEXABVEntity@@@Z$0
	DD	0ffffffffH
	DD	FLAT:__unwindfunclet$?Render@RenderingEngine@@UAEXABVEntity@@@Z$1
	DD	0ffffffffH
	DD	FLAT:__unwindfunclet$?Render@RenderingEngine@@UAEXABVEntity@@@Z$2
	DD	0ffffffffH
	DD	FLAT:__unwindfunclet$?Render@RenderingEngine@@UAEXABVEntity@@@Z$3
	DD	0ffffffffH
	DD	FLAT:__unwindfunclet$?Render@RenderingEngine@@UAEXABVEntity@@@Z$4
	DD	0ffffffffH
	DD	FLAT:__unwindfunclet$?Render@RenderingEngine@@UAEXABVEntity@@@Z$5
	DD	0ffffffffH
	DD	FLAT:__unwindfunclet$?Render@RenderingEngine@@UAEXABVEntity@@@Z$6
	DD	0ffffffffH
	DD	FLAT:__unwindfunclet$?Render@RenderingEngine@@UAEXABVEntity@@@Z$7
	DD	07H
	DD	FLAT:__unwindfunclet$?Render@RenderingEngine@@UAEXABVEntity@@@Z$8
	DD	0ffffffffH
	DD	FLAT:__unwindfunclet$?Render@RenderingEngine@@UAEXABVEntity@@@Z$9
	DD	0ffffffffH
	DD	FLAT:__unwindfunclet$?Render@RenderingEngine@@UAEXABVEntity@@@Z$10
	DD	0aH
	DD	FLAT:__unwindfunclet$?Render@RenderingEngine@@UAEXABVEntity@@@Z$11
	DD	0bH
	DD	FLAT:__unwindfunclet$?Render@RenderingEngine@@UAEXABVEntity@@@Z$12
	DD	0ffffffffH
	DD	FLAT:__unwindfunclet$?Render@RenderingEngine@@UAEXABVEntity@@@Z$13
	DD	0dH
	DD	FLAT:__unwindfunclet$?Render@RenderingEngine@@UAEXABVEntity@@@Z$14
__unwindtable$?ApplyFilter@RenderingEngine@@IAEXABVShader@@ABVTexture@@PBV3@@Z DD 0ffffffffH
	DD	FLAT:__unwindfunclet$?ApplyFilter@RenderingEngine@@IAEXABVShader@@ABVTexture@@PBV3@@Z$0
	DD	0ffffffffH
	DD	FLAT:__unwindfunclet$?ApplyFilter@RenderingEngine@@IAEXABVShader@@ABVTexture@@PBV3@@Z$1
	DD	0ffffffffH
	DD	FLAT:__unwindfunclet$?ApplyFilter@RenderingEngine@@IAEXABVShader@@ABVTexture@@PBV3@@Z$2
	DD	0ffffffffH
	DD	FLAT:__unwindfunclet$?ApplyFilter@RenderingEngine@@IAEXABVShader@@ABVTexture@@PBV3@@Z$3
	DD	03H
	DD	FLAT:__unwindfunclet$?ApplyFilter@RenderingEngine@@IAEXABVShader@@ABVTexture@@PBV3@@Z$4
__ehfuncinfo$?BlurShadowMap@RenderingEngine@@AAEXHM@Z DD 019930522H
	DD	02H
	DD	FLAT:__unwindtable$?BlurShadowMap@RenderingEngine@@AAEXHM@Z
	DD	2 DUP(00H)
	DD	2 DUP(00H)
	DD	00H
	DD	01H
__unwindtable$?BlurShadowMap@RenderingEngine@@AAEXHM@Z DD 0ffffffffH
	DD	FLAT:__unwindfunclet$?BlurShadowMap@RenderingEngine@@AAEXHM@Z$0
	DD	0ffffffffH
	DD	FLAT:__unwindfunclet$?BlurShadowMap@RenderingEngine@@AAEXHM@Z$1
__ehfuncinfo$??0RenderingEngine@@QAE@PAVWindow@@@Z DD 019930522H
	DD	032H
	DD	FLAT:__unwindtable$??0RenderingEngine@@QAE@PAVWindow@@@Z
	DD	2 DUP(00H)
	DD	2 DUP(00H)
	DD	00H
	DD	01H
__unwindtable$??0RenderingEngine@@QAE@PAVWindow@@@Z DD 0ffffffffH
	DD	FLAT:__unwindfunclet$??0RenderingEngine@@QAE@PAVWindow@@@Z$0
	DD	00H
	DD	FLAT:__unwindfunclet$??0RenderingEngine@@QAE@PAVWindow@@@Z$1
	DD	01H
	DD	FLAT:__unwindfunclet$??0RenderingEngine@@QAE@PAVWindow@@@Z$2
	DD	00H
	DD	FLAT:__unwindfunclet$??0RenderingEngine@@QAE@PAVWindow@@@Z$2
	DD	03H
	DD	FLAT:__unwindfunclet$??0RenderingEngine@@QAE@PAVWindow@@@Z$3
	DD	04H
	DD	FLAT:__unwindfunclet$??0RenderingEngine@@QAE@PAVWindow@@@Z$4
	DD	05H
	DD	FLAT:__unwindfunclet$??0RenderingEngine@@QAE@PAVWindow@@@Z$5
	DD	06H
	DD	FLAT:__unwindfunclet$??0RenderingEngine@@QAE@PAVWindow@@@Z$6
	DD	07H
	DD	FLAT:__unwindfunclet$??0RenderingEngine@@QAE@PAVWindow@@@Z$7
	DD	08H
	DD	FLAT:__unwindfunclet$??0RenderingEngine@@QAE@PAVWindow@@@Z$8
	DD	09H
	DD	FLAT:__unwindfunclet$??0RenderingEngine@@QAE@PAVWindow@@@Z$9
	DD	08H
	DD	FLAT:__unwindfunclet$??0RenderingEngine@@QAE@PAVWindow@@@Z$9
	DD	07H
	DD	FLAT:__unwindfunclet$??0RenderingEngine@@QAE@PAVWindow@@@Z$9
	DD	06H
	DD	FLAT:__unwindfunclet$??0RenderingEngine@@QAE@PAVWindow@@@Z$9
	DD	05H
	DD	FLAT:__unwindfunclet$??0RenderingEngine@@QAE@PAVWindow@@@Z$9
	DD	04H
	DD	FLAT:__unwindfunclet$??0RenderingEngine@@QAE@PAVWindow@@@Z$9
	DD	0fH
	DD	FLAT:__unwindfunclet$??0RenderingEngine@@QAE@PAVWindow@@@Z$10
	DD	010H
	DD	FLAT:__unwindfunclet$??0RenderingEngine@@QAE@PAVWindow@@@Z$11
	DD	011H
	DD	FLAT:__unwindfunclet$??0RenderingEngine@@QAE@PAVWindow@@@Z$12
	DD	012H
	DD	FLAT:__unwindfunclet$??0RenderingEngine@@QAE@PAVWindow@@@Z$13
	DD	011H
	DD	FLAT:__unwindfunclet$??0RenderingEngine@@QAE@PAVWindow@@@Z$13
	DD	014H
	DD	FLAT:__unwindfunclet$??0RenderingEngine@@QAE@PAVWindow@@@Z$14
	DD	015H
	DD	FLAT:__unwindfunclet$??0RenderingEngine@@QAE@PAVWindow@@@Z$15
	DD	014H
	DD	FLAT:__unwindfunclet$??0RenderingEngine@@QAE@PAVWindow@@@Z$15
	DD	017H
	DD	FLAT:__unwindfunclet$??0RenderingEngine@@QAE@PAVWindow@@@Z$16
	DD	018H
	DD	FLAT:__unwindfunclet$??0RenderingEngine@@QAE@PAVWindow@@@Z$17
	DD	017H
	DD	FLAT:__unwindfunclet$??0RenderingEngine@@QAE@PAVWindow@@@Z$17
	DD	01aH
	DD	FLAT:__unwindfunclet$??0RenderingEngine@@QAE@PAVWindow@@@Z$18
	DD	01bH
	DD	FLAT:__unwindfunclet$??0RenderingEngine@@QAE@PAVWindow@@@Z$19
	DD	01aH
	DD	FLAT:__unwindfunclet$??0RenderingEngine@@QAE@PAVWindow@@@Z$19
	DD	01dH
	DD	FLAT:__unwindfunclet$??0RenderingEngine@@QAE@PAVWindow@@@Z$20
	DD	01eH
	DD	FLAT:__unwindfunclet$??0RenderingEngine@@QAE@PAVWindow@@@Z$21
	DD	01dH
	DD	FLAT:__unwindfunclet$??0RenderingEngine@@QAE@PAVWindow@@@Z$21
	DD	020H
	DD	FLAT:__unwindfunclet$??0RenderingEngine@@QAE@PAVWindow@@@Z$22
	DD	021H
	DD	FLAT:__unwindfunclet$??0RenderingEngine@@QAE@PAVWindow@@@Z$23
	DD	022H
	DD	FLAT:__unwindfunclet$??0RenderingEngine@@QAE@PAVWindow@@@Z$24
	DD	023H
	DD	FLAT:__unwindfunclet$??0RenderingEngine@@QAE@PAVWindow@@@Z$25
	DD	022H
	DD	FLAT:__unwindfunclet$??0RenderingEngine@@QAE@PAVWindow@@@Z$25
	DD	022H
	DD	FLAT:__unwindfunclet$??0RenderingEngine@@QAE@PAVWindow@@@Z$26
	DD	022H
	DD	FLAT:__unwindfunclet$??0RenderingEngine@@QAE@PAVWindow@@@Z$27
	DD	022H
	DD	FLAT:__unwindfunclet$??0RenderingEngine@@QAE@PAVWindow@@@Z$28
	DD	022H
	DD	FLAT:__unwindfunclet$??0RenderingEngine@@QAE@PAVWindow@@@Z$29
	DD	022H
	DD	FLAT:__unwindfunclet$??0RenderingEngine@@QAE@PAVWindow@@@Z$30
	DD	022H
	DD	FLAT:__unwindfunclet$??0RenderingEngine@@QAE@PAVWindow@@@Z$31
	DD	022H
	DD	FLAT:__unwindfunclet$??0RenderingEngine@@QAE@PAVWindow@@@Z$32
	DD	022H
	DD	FLAT:__unwindfunclet$??0RenderingEngine@@QAE@PAVWindow@@@Z$33
	DD	022H
	DD	FLAT:__unwindfunclet$??0RenderingEngine@@QAE@PAVWindow@@@Z$34
	DD	022H
	DD	FLAT:__unwindfunclet$??0RenderingEngine@@QAE@PAVWindow@@@Z$35
	DD	022H
	DD	FLAT:__unwindfunclet$??0RenderingEngine@@QAE@PAVWindow@@@Z$36
	DD	030H
	DD	FLAT:__unwindfunclet$??0RenderingEngine@@QAE@PAVWindow@@@Z$37
??BIAS_MATRIX$initializer$@RenderingEngine@@0P6AXXZA@@3P6AXXZA DD FLAT:??__E?BIAS_MATRIX@RenderingEngine@@0V?$Matrix4@M@@B@@YAXXZ ; private: static void (__cdecl* RenderingEngine::IAS_MATRIX$initializer$::operator)(void)
; Function compile flags: /Odtp /RTCsu
; File e:\fusion3d_work\engine\src\rendering\renderingengine.cpp
_TEXT	SEGMENT
_this$ = -4						; size = 4
_renderer$ = 8						; size = 4
??0GLDebugDrawer@@QAE@PAVRenderingEngine@@@Z PROC	; GLDebugDrawer::GLDebugDrawer
; _this$ = ecx

; 298  : {

  00000	55		 push	 ebp
  00001	8b ec		 mov	 ebp, esp
  00003	51		 push	 ecx
  00004	c7 45 fc cc cc
	cc cc		 mov	 DWORD PTR [ebp-4], -858993460 ; ccccccccH
  0000b	89 4d fc	 mov	 DWORD PTR _this$[ebp], ecx
  0000e	8b 4d fc	 mov	 ecx, DWORD PTR _this$[ebp]
  00011	e8 00 00 00 00	 call	 ??0btIDebugDraw@@QAE@XZ
  00016	8b 45 fc	 mov	 eax, DWORD PTR _this$[ebp]
  00019	c7 00 00 00 00
	00		 mov	 DWORD PTR [eax], OFFSET ??_7GLDebugDrawer@@6B@

; 296  : 	:m_debugMode (btIDebugDraw::DBG_DrawWireframe),

  0001f	8b 4d fc	 mov	 ecx, DWORD PTR _this$[ebp]
  00022	c7 41 04 01 00
	00 00		 mov	 DWORD PTR [ecx+4], 1

; 297  : 	m_renderer (renderer)

  00029	8b 55 fc	 mov	 edx, DWORD PTR _this$[ebp]
  0002c	8b 45 08	 mov	 eax, DWORD PTR _renderer$[ebp]
  0002f	89 42 08	 mov	 DWORD PTR [edx+8], eax

; 299  : 
; 300  : }

  00032	8b 45 fc	 mov	 eax, DWORD PTR _this$[ebp]
  00035	83 c4 04	 add	 esp, 4
  00038	3b ec		 cmp	 ebp, esp
  0003a	e8 00 00 00 00	 call	 __RTC_CheckEsp
  0003f	8b e5		 mov	 esp, ebp
  00041	5d		 pop	 ebp
  00042	c2 04 00	 ret	 4
??0GLDebugDrawer@@QAE@PAVRenderingEngine@@@Z ENDP	; GLDebugDrawer::GLDebugDrawer
_TEXT	ENDS
; Function compile flags: /Odtp /RTCsu
; File c:\program files (x86)\windows kits\10\include\10.0.10240.0\ucrt\math.h
;	COMDAT _cosf
_TEXT	SEGMENT
tv73 = -4						; size = 4
__X$ = 8						; size = 4
_cosf	PROC						; COMDAT

; 634  :     {

  00000	55		 push	 ebp
  00001	8b ec		 mov	 ebp, esp
  00003	51		 push	 ecx
  00004	56		 push	 esi
  00005	c7 45 fc cc cc
	cc cc		 mov	 DWORD PTR [ebp-4], -858993460 ; ccccccccH

; 635  :         return (float)cos(_X);

  0000c	f3 0f 5a 45 08	 cvtss2sd xmm0, DWORD PTR __X$[ebp]
  00011	8b f4		 mov	 esi, esp
  00013	83 ec 08	 sub	 esp, 8
  00016	f2 0f 11 04 24	 movsd	 QWORD PTR [esp], xmm0
  0001b	ff 15 00 00 00
	00		 call	 DWORD PTR __imp__cos
  00021	83 c4 08	 add	 esp, 8
  00024	3b f4		 cmp	 esi, esp
  00026	e8 00 00 00 00	 call	 __RTC_CheckEsp
  0002b	d9 5d fc	 fstp	 DWORD PTR tv73[ebp]
  0002e	d9 45 fc	 fld	 DWORD PTR tv73[ebp]

; 636  :     }

  00031	5e		 pop	 esi
  00032	83 c4 04	 add	 esp, 4
  00035	3b ec		 cmp	 ebp, esp
  00037	e8 00 00 00 00	 call	 __RTC_CheckEsp
  0003c	8b e5		 mov	 esp, ebp
  0003e	5d		 pop	 ebp
  0003f	c3		 ret	 0
_cosf	ENDP
_TEXT	ENDS
; Function compile flags: /Odtp /RTCsu
; File c:\program files (x86)\windows kits\10\include\10.0.10240.0\ucrt\math.h
;	COMDAT _fabsf
_TEXT	SEGMENT
tv73 = -4						; size = 4
__X$ = 8						; size = 4
_fabsf	PROC						; COMDAT

; 657  :     {

  00000	55		 push	 ebp
  00001	8b ec		 mov	 ebp, esp
  00003	51		 push	 ecx
  00004	56		 push	 esi
  00005	c7 45 fc cc cc
	cc cc		 mov	 DWORD PTR [ebp-4], -858993460 ; ccccccccH

; 658  :         return (float)fabs(_X);

  0000c	f3 0f 5a 45 08	 cvtss2sd xmm0, DWORD PTR __X$[ebp]
  00011	8b f4		 mov	 esi, esp
  00013	83 ec 08	 sub	 esp, 8
  00016	f2 0f 11 04 24	 movsd	 QWORD PTR [esp], xmm0
  0001b	ff 15 00 00 00
	00		 call	 DWORD PTR __imp__fabs
  00021	83 c4 08	 add	 esp, 8
  00024	3b f4		 cmp	 esi, esp
  00026	e8 00 00 00 00	 call	 __RTC_CheckEsp
  0002b	d9 5d fc	 fstp	 DWORD PTR tv73[ebp]
  0002e	d9 45 fc	 fld	 DWORD PTR tv73[ebp]

; 659  :     }

  00031	5e		 pop	 esi
  00032	83 c4 04	 add	 esp, 4
  00035	3b ec		 cmp	 ebp, esp
  00037	e8 00 00 00 00	 call	 __RTC_CheckEsp
  0003c	8b e5		 mov	 esp, ebp
  0003e	5d		 pop	 ebp
  0003f	c3		 ret	 0
_fabsf	ENDP
_TEXT	ENDS
; Function compile flags: /Odtp /RTCsu
; File c:\program files (x86)\windows kits\10\include\10.0.10240.0\ucrt\math.h
;	COMDAT _sinf
_TEXT	SEGMENT
tv73 = -4						; size = 4
__X$ = 8						; size = 4
_sinf	PROC						; COMDAT

; 735  :     {

  00000	55		 push	 ebp
  00001	8b ec		 mov	 ebp, esp
  00003	51		 push	 ecx
  00004	56		 push	 esi
  00005	c7 45 fc cc cc
	cc cc		 mov	 DWORD PTR [ebp-4], -858993460 ; ccccccccH

; 736  :         return (float)sin(_X);

  0000c	f3 0f 5a 45 08	 cvtss2sd xmm0, DWORD PTR __X$[ebp]
  00011	8b f4		 mov	 esi, esp
  00013	83 ec 08	 sub	 esp, 8
  00016	f2 0f 11 04 24	 movsd	 QWORD PTR [esp], xmm0
  0001b	ff 15 00 00 00
	00		 call	 DWORD PTR __imp__sin
  00021	83 c4 08	 add	 esp, 8
  00024	3b f4		 cmp	 esi, esp
  00026	e8 00 00 00 00	 call	 __RTC_CheckEsp
  0002b	d9 5d fc	 fstp	 DWORD PTR tv73[ebp]
  0002e	d9 45 fc	 fld	 DWORD PTR tv73[ebp]

; 737  :     }

  00031	5e		 pop	 esi
  00032	83 c4 04	 add	 esp, 4
  00035	3b ec		 cmp	 ebp, esp
  00037	e8 00 00 00 00	 call	 __RTC_CheckEsp
  0003c	8b e5		 mov	 esp, ebp
  0003e	5d		 pop	 ebp
  0003f	c3		 ret	 0
_sinf	ENDP
_TEXT	ENDS
; Function compile flags: /Odtp /RTCsu
; File e:\fusion3d_work\lib\bullet3\include\linearmath\btscalar.h
;	COMDAT ?btFabs@@YAMM@Z
_TEXT	SEGMENT
_x$ = 8							; size = 4
?btFabs@@YAMM@Z PROC					; btFabs, COMDAT

; 449  : SIMD_FORCE_INLINE btScalar btFabs(btScalar x) { return fabsf(x); }

  00000	55		 push	 ebp
  00001	8b ec		 mov	 ebp, esp
  00003	51		 push	 ecx
  00004	f3 0f 10 45 08	 movss	 xmm0, DWORD PTR _x$[ebp]
  00009	f3 0f 11 04 24	 movss	 DWORD PTR [esp], xmm0
  0000e	e8 00 00 00 00	 call	 _fabsf
  00013	83 c4 04	 add	 esp, 4
  00016	3b ec		 cmp	 ebp, esp
  00018	e8 00 00 00 00	 call	 __RTC_CheckEsp
  0001d	5d		 pop	 ebp
  0001e	c3		 ret	 0
?btFabs@@YAMM@Z ENDP					; btFabs
_TEXT	ENDS
; Function compile flags: /Odtp /RTCsu
; File e:\fusion3d_work\lib\bullet3\include\linearmath\btscalar.h
;	COMDAT ?btCos@@YAMM@Z
_TEXT	SEGMENT
_x$ = 8							; size = 4
?btCos@@YAMM@Z PROC					; btCos, COMDAT

; 450  : SIMD_FORCE_INLINE btScalar btCos(btScalar x) { return cosf(x); }

  00000	55		 push	 ebp
  00001	8b ec		 mov	 ebp, esp
  00003	51		 push	 ecx
  00004	f3 0f 10 45 08	 movss	 xmm0, DWORD PTR _x$[ebp]
  00009	f3 0f 11 04 24	 movss	 DWORD PTR [esp], xmm0
  0000e	e8 00 00 00 00	 call	 _cosf
  00013	83 c4 04	 add	 esp, 4
  00016	3b ec		 cmp	 ebp, esp
  00018	e8 00 00 00 00	 call	 __RTC_CheckEsp
  0001d	5d		 pop	 ebp
  0001e	c3		 ret	 0
?btCos@@YAMM@Z ENDP					; btCos
_TEXT	ENDS
; Function compile flags: /Odtp /RTCsu
; File e:\fusion3d_work\lib\bullet3\include\linearmath\btscalar.h
;	COMDAT ?btSin@@YAMM@Z
_TEXT	SEGMENT
_x$ = 8							; size = 4
?btSin@@YAMM@Z PROC					; btSin, COMDAT

; 451  : SIMD_FORCE_INLINE btScalar btSin(btScalar x) { return sinf(x); }

  00000	55		 push	 ebp
  00001	8b ec		 mov	 ebp, esp
  00003	51		 push	 ecx
  00004	f3 0f 10 45 08	 movss	 xmm0, DWORD PTR _x$[ebp]
  00009	f3 0f 11 04 24	 movss	 DWORD PTR [esp], xmm0
  0000e	e8 00 00 00 00	 call	 _sinf
  00013	83 c4 04	 add	 esp, 4
  00016	3b ec		 cmp	 ebp, esp
  00018	e8 00 00 00 00	 call	 __RTC_CheckEsp
  0001d	5d		 pop	 ebp
  0001e	c3		 ret	 0
?btSin@@YAMM@Z ENDP					; btSin
_TEXT	ENDS
; Function compile flags: /Odtp /RTCsu
; File e:\fusion3d_work\lib\bullet3\include\linearmath\btvector3.h
;	COMDAT ??YbtVector3@@QAEAAV0@ABV0@@Z
_TEXT	SEGMENT
_this$ = -4						; size = 4
_v$ = 8							; size = 4
??YbtVector3@@QAEAAV0@ABV0@@Z PROC			; btVector3::operator+=, COMDAT
; _this$ = ecx

; 165  : 	{

  00000	55		 push	 ebp
  00001	8b ec		 mov	 ebp, esp
  00003	51		 push	 ecx
  00004	56		 push	 esi
  00005	c7 45 fc cc cc
	cc cc		 mov	 DWORD PTR [ebp-4], -858993460 ; ccccccccH
  0000c	89 4d fc	 mov	 DWORD PTR _this$[ebp], ecx

; 166  : #if defined(BT_USE_SSE_IN_API) && defined (BT_USE_SSE)
; 167  : 		mVec128 = _mm_add_ps(mVec128, v.mVec128);
; 168  : #elif defined(BT_USE_NEON)
; 169  : 		mVec128 = vaddq_f32(mVec128, v.mVec128);
; 170  : #else
; 171  : 		m_floats[0] += v.m_floats[0]; 

  0000f	b8 04 00 00 00	 mov	 eax, 4
  00014	6b c8 00	 imul	 ecx, eax, 0
  00017	ba 04 00 00 00	 mov	 edx, 4
  0001c	6b c2 00	 imul	 eax, edx, 0
  0001f	8b 55 fc	 mov	 edx, DWORD PTR _this$[ebp]
  00022	8b 75 08	 mov	 esi, DWORD PTR _v$[ebp]
  00025	f3 0f 10 04 0a	 movss	 xmm0, DWORD PTR [edx+ecx]
  0002a	f3 0f 58 04 06	 addss	 xmm0, DWORD PTR [esi+eax]
  0002f	b8 04 00 00 00	 mov	 eax, 4
  00034	6b c8 00	 imul	 ecx, eax, 0
  00037	8b 55 fc	 mov	 edx, DWORD PTR _this$[ebp]
  0003a	f3 0f 11 04 0a	 movss	 DWORD PTR [edx+ecx], xmm0

; 172  : 		m_floats[1] += v.m_floats[1];

  0003f	b8 04 00 00 00	 mov	 eax, 4
  00044	c1 e0 00	 shl	 eax, 0
  00047	b9 04 00 00 00	 mov	 ecx, 4
  0004c	c1 e1 00	 shl	 ecx, 0
  0004f	8b 55 fc	 mov	 edx, DWORD PTR _this$[ebp]
  00052	8b 75 08	 mov	 esi, DWORD PTR _v$[ebp]
  00055	f3 0f 10 04 02	 movss	 xmm0, DWORD PTR [edx+eax]
  0005a	f3 0f 58 04 0e	 addss	 xmm0, DWORD PTR [esi+ecx]
  0005f	b8 04 00 00 00	 mov	 eax, 4
  00064	c1 e0 00	 shl	 eax, 0
  00067	8b 4d fc	 mov	 ecx, DWORD PTR _this$[ebp]
  0006a	f3 0f 11 04 01	 movss	 DWORD PTR [ecx+eax], xmm0

; 173  : 		m_floats[2] += v.m_floats[2];

  0006f	ba 04 00 00 00	 mov	 edx, 4
  00074	d1 e2		 shl	 edx, 1
  00076	b8 04 00 00 00	 mov	 eax, 4
  0007b	d1 e0		 shl	 eax, 1
  0007d	8b 4d fc	 mov	 ecx, DWORD PTR _this$[ebp]
  00080	8b 75 08	 mov	 esi, DWORD PTR _v$[ebp]
  00083	f3 0f 10 04 11	 movss	 xmm0, DWORD PTR [ecx+edx]
  00088	f3 0f 58 04 06	 addss	 xmm0, DWORD PTR [esi+eax]
  0008d	ba 04 00 00 00	 mov	 edx, 4
  00092	d1 e2		 shl	 edx, 1
  00094	8b 45 fc	 mov	 eax, DWORD PTR _this$[ebp]
  00097	f3 0f 11 04 10	 movss	 DWORD PTR [eax+edx], xmm0

; 174  : #endif
; 175  : 		return *this;

  0009c	8b 45 fc	 mov	 eax, DWORD PTR _this$[ebp]

; 176  : 	}

  0009f	5e		 pop	 esi
  000a0	8b e5		 mov	 esp, ebp
  000a2	5d		 pop	 ebp
  000a3	c2 04 00	 ret	 4
??YbtVector3@@QAEAAV0@ABV0@@Z ENDP			; btVector3::operator+=
_TEXT	ENDS
; Function compile flags: /Odtp /RTCsu
; File e:\fusion3d_work\lib\bullet3\include\linearmath\btvector3.h
;	COMDAT ?cross@btVector3@@QBE?AV1@ABV1@@Z
_TEXT	SEGMENT
$T1 = -16						; size = 4
$T2 = -12						; size = 4
$T3 = -8						; size = 4
_this$ = -4						; size = 4
___$ReturnUdt$ = 8					; size = 4
_v$ = 12						; size = 4
?cross@btVector3@@QBE?AV1@ABV1@@Z PROC			; btVector3::cross, COMDAT
; _this$ = ecx

; 378  : 	{

  00000	55		 push	 ebp
  00001	8b ec		 mov	 ebp, esp
  00003	83 ec 10	 sub	 esp, 16			; 00000010H
  00006	56		 push	 esi
  00007	b8 cc cc cc cc	 mov	 eax, -858993460		; ccccccccH
  0000c	89 45 f0	 mov	 DWORD PTR [ebp-16], eax
  0000f	89 45 f4	 mov	 DWORD PTR [ebp-12], eax
  00012	89 45 f8	 mov	 DWORD PTR [ebp-8], eax
  00015	89 45 fc	 mov	 DWORD PTR [ebp-4], eax
  00018	89 4d fc	 mov	 DWORD PTR _this$[ebp], ecx

; 379  : #if defined(BT_USE_SSE_IN_API) && defined (BT_USE_SSE)
; 380  : 		__m128	T, V;
; 381  : 		
; 382  : 		T = bt_pshufd_ps(mVec128, BT_SHUFFLE(1, 2, 0, 3));	//	(Y Z X 0)
; 383  : 		V = bt_pshufd_ps(v.mVec128, BT_SHUFFLE(1, 2, 0, 3));	//	(Y Z X 0)
; 384  : 		
; 385  : 		V = _mm_mul_ps(V, mVec128);
; 386  : 		T = _mm_mul_ps(T, v.mVec128);
; 387  : 		V = _mm_sub_ps(V, T);
; 388  : 		
; 389  : 		V = bt_pshufd_ps(V, BT_SHUFFLE(1, 2, 0, 3));
; 390  : 		return btVector3(V);
; 391  : #elif defined(BT_USE_NEON)
; 392  : 		float32x4_t T, V;
; 393  : 		// form (Y, Z, X, _) of mVec128 and v.mVec128
; 394  : 		float32x2_t Tlow = vget_low_f32(mVec128);
; 395  : 		float32x2_t Vlow = vget_low_f32(v.mVec128);
; 396  : 		T = vcombine_f32(vext_f32(Tlow, vget_high_f32(mVec128), 1), Tlow);
; 397  : 		V = vcombine_f32(vext_f32(Vlow, vget_high_f32(v.mVec128), 1), Vlow);
; 398  : 		
; 399  : 		V = vmulq_f32(V, mVec128);
; 400  : 		T = vmulq_f32(T, v.mVec128);
; 401  : 		V = vsubq_f32(V, T);
; 402  : 		Vlow = vget_low_f32(V);
; 403  : 		// form (Y, Z, X, _);
; 404  : 		V = vcombine_f32(vext_f32(Vlow, vget_high_f32(V), 1), Vlow);
; 405  : 		V = (float32x4_t)vandq_s32((int32x4_t)V, btvFFF0Mask);
; 406  : 		
; 407  : 		return btVector3(V);
; 408  : #else
; 409  : 		return btVector3(

  0001b	b8 04 00 00 00	 mov	 eax, 4
  00020	6b c8 00	 imul	 ecx, eax, 0
  00023	ba 04 00 00 00	 mov	 edx, 4
  00028	c1 e2 00	 shl	 edx, 0
  0002b	8b 45 fc	 mov	 eax, DWORD PTR _this$[ebp]
  0002e	8b 75 0c	 mov	 esi, DWORD PTR _v$[ebp]
  00031	f3 0f 10 04 08	 movss	 xmm0, DWORD PTR [eax+ecx]
  00036	f3 0f 59 04 16	 mulss	 xmm0, DWORD PTR [esi+edx]
  0003b	b9 04 00 00 00	 mov	 ecx, 4
  00040	c1 e1 00	 shl	 ecx, 0
  00043	ba 04 00 00 00	 mov	 edx, 4
  00048	6b c2 00	 imul	 eax, edx, 0
  0004b	8b 55 fc	 mov	 edx, DWORD PTR _this$[ebp]
  0004e	8b 75 0c	 mov	 esi, DWORD PTR _v$[ebp]
  00051	f3 0f 10 0c 0a	 movss	 xmm1, DWORD PTR [edx+ecx]
  00056	f3 0f 59 0c 06	 mulss	 xmm1, DWORD PTR [esi+eax]
  0005b	f3 0f 5c c1	 subss	 xmm0, xmm1
  0005f	f3 0f 11 45 f8	 movss	 DWORD PTR $T3[ebp], xmm0
  00064	b8 04 00 00 00	 mov	 eax, 4
  00069	d1 e0		 shl	 eax, 1
  0006b	b9 04 00 00 00	 mov	 ecx, 4
  00070	6b d1 00	 imul	 edx, ecx, 0
  00073	8b 4d fc	 mov	 ecx, DWORD PTR _this$[ebp]
  00076	8b 75 0c	 mov	 esi, DWORD PTR _v$[ebp]
  00079	f3 0f 10 04 01	 movss	 xmm0, DWORD PTR [ecx+eax]
  0007e	f3 0f 59 04 16	 mulss	 xmm0, DWORD PTR [esi+edx]
  00083	ba 04 00 00 00	 mov	 edx, 4
  00088	6b c2 00	 imul	 eax, edx, 0
  0008b	b9 04 00 00 00	 mov	 ecx, 4
  00090	d1 e1		 shl	 ecx, 1
  00092	8b 55 fc	 mov	 edx, DWORD PTR _this$[ebp]
  00095	8b 75 0c	 mov	 esi, DWORD PTR _v$[ebp]
  00098	f3 0f 10 0c 02	 movss	 xmm1, DWORD PTR [edx+eax]
  0009d	f3 0f 59 0c 0e	 mulss	 xmm1, DWORD PTR [esi+ecx]
  000a2	f3 0f 5c c1	 subss	 xmm0, xmm1
  000a6	f3 0f 11 45 f4	 movss	 DWORD PTR $T2[ebp], xmm0
  000ab	b8 04 00 00 00	 mov	 eax, 4
  000b0	c1 e0 00	 shl	 eax, 0
  000b3	b9 04 00 00 00	 mov	 ecx, 4
  000b8	d1 e1		 shl	 ecx, 1
  000ba	8b 55 fc	 mov	 edx, DWORD PTR _this$[ebp]
  000bd	8b 75 0c	 mov	 esi, DWORD PTR _v$[ebp]
  000c0	f3 0f 10 04 02	 movss	 xmm0, DWORD PTR [edx+eax]
  000c5	f3 0f 59 04 0e	 mulss	 xmm0, DWORD PTR [esi+ecx]
  000ca	b8 04 00 00 00	 mov	 eax, 4
  000cf	d1 e0		 shl	 eax, 1
  000d1	b9 04 00 00 00	 mov	 ecx, 4
  000d6	c1 e1 00	 shl	 ecx, 0
  000d9	8b 55 fc	 mov	 edx, DWORD PTR _this$[ebp]
  000dc	8b 75 0c	 mov	 esi, DWORD PTR _v$[ebp]
  000df	f3 0f 10 0c 02	 movss	 xmm1, DWORD PTR [edx+eax]
  000e4	f3 0f 59 0c 0e	 mulss	 xmm1, DWORD PTR [esi+ecx]
  000e9	f3 0f 5c c1	 subss	 xmm0, xmm1
  000ed	f3 0f 11 45 f0	 movss	 DWORD PTR $T1[ebp], xmm0
  000f2	8d 45 f8	 lea	 eax, DWORD PTR $T3[ebp]
  000f5	50		 push	 eax
  000f6	8d 4d f4	 lea	 ecx, DWORD PTR $T2[ebp]
  000f9	51		 push	 ecx
  000fa	8d 55 f0	 lea	 edx, DWORD PTR $T1[ebp]
  000fd	52		 push	 edx
  000fe	8b 4d 08	 mov	 ecx, DWORD PTR ___$ReturnUdt$[ebp]
  00101	e8 00 00 00 00	 call	 ??0btVector3@@QAE@ABM00@Z ; btVector3::btVector3
  00106	8b 45 08	 mov	 eax, DWORD PTR ___$ReturnUdt$[ebp]

; 410  : 			m_floats[1] * v.m_floats[2] - m_floats[2] * v.m_floats[1],
; 411  : 			m_floats[2] * v.m_floats[0] - m_floats[0] * v.m_floats[2],
; 412  : 			m_floats[0] * v.m_floats[1] - m_floats[1] * v.m_floats[0]);
; 413  : #endif
; 414  : 	}

  00109	5e		 pop	 esi
  0010a	83 c4 10	 add	 esp, 16			; 00000010H
  0010d	3b ec		 cmp	 ebp, esp
  0010f	e8 00 00 00 00	 call	 __RTC_CheckEsp
  00114	8b e5		 mov	 esp, ebp
  00116	5d		 pop	 ebp
  00117	c2 08 00	 ret	 8
?cross@btVector3@@QBE?AV1@ABV1@@Z ENDP			; btVector3::cross
_TEXT	ENDS
; Function compile flags: /Odtp /RTCsu
; File e:\fusion3d_work\lib\bullet3\include\linearmath\btvector3.h
;	COMDAT ??BbtVector3@@QAEPAMXZ
_TEXT	SEGMENT
_this$ = -4						; size = 4
??BbtVector3@@QAEPAMXZ PROC				; btVector3::operator float *, COMDAT
; _this$ = ecx

; 586  : 	SIMD_FORCE_INLINE	operator       btScalar *()       { return &m_floats[0]; }

  00000	55		 push	 ebp
  00001	8b ec		 mov	 ebp, esp
  00003	51		 push	 ecx
  00004	c7 45 fc cc cc
	cc cc		 mov	 DWORD PTR [ebp-4], -858993460 ; ccccccccH
  0000b	89 4d fc	 mov	 DWORD PTR _this$[ebp], ecx
  0000e	b8 04 00 00 00	 mov	 eax, 4
  00013	6b c0 00	 imul	 eax, eax, 0
  00016	03 45 fc	 add	 eax, DWORD PTR _this$[ebp]
  00019	8b e5		 mov	 esp, ebp
  0001b	5d		 pop	 ebp
  0001c	c3		 ret	 0
??BbtVector3@@QAEPAMXZ ENDP				; btVector3::operator float *
_TEXT	ENDS
; Function compile flags: /Odtp /RTCsu
; File e:\fusion3d_work\lib\bullet3\include\linearmath\btvector3.h
;	COMDAT ??G@YA?AVbtVector3@@ABV0@0@Z
_TEXT	SEGMENT
$T1 = -12						; size = 4
$T2 = -8						; size = 4
$T3 = -4						; size = 4
___$ReturnUdt$ = 8					; size = 4
_v1$ = 12						; size = 4
_v2$ = 16						; size = 4
??G@YA?AVbtVector3@@ABV0@0@Z PROC			; operator-, COMDAT

; 786  : {

  00000	55		 push	 ebp
  00001	8b ec		 mov	 ebp, esp
  00003	83 ec 0c	 sub	 esp, 12			; 0000000cH
  00006	56		 push	 esi
  00007	c7 45 f4 cc cc
	cc cc		 mov	 DWORD PTR [ebp-12], -858993460 ; ccccccccH
  0000e	c7 45 f8 cc cc
	cc cc		 mov	 DWORD PTR [ebp-8], -858993460 ; ccccccccH
  00015	c7 45 fc cc cc
	cc cc		 mov	 DWORD PTR [ebp-4], -858993460 ; ccccccccH

; 787  : #if defined BT_USE_SIMD_VECTOR3 && (defined(BT_USE_SSE_IN_API)  && defined(BT_USE_SSE))
; 788  : 
; 789  : 	//	without _mm_and_ps this code causes slowdown in Concave moving
; 790  : 	__m128 r = _mm_sub_ps(v1.mVec128, v2.mVec128);
; 791  : 	return btVector3(_mm_and_ps(r, btvFFF0fMask));
; 792  : #elif defined(BT_USE_NEON)
; 793  : 	float32x4_t r = vsubq_f32(v1.mVec128, v2.mVec128);
; 794  : 	return btVector3((float32x4_t)vandq_s32((int32x4_t)r, btvFFF0Mask));
; 795  : #else
; 796  : 	return btVector3(

  0001c	b8 04 00 00 00	 mov	 eax, 4
  00021	d1 e0		 shl	 eax, 1
  00023	b9 04 00 00 00	 mov	 ecx, 4
  00028	d1 e1		 shl	 ecx, 1
  0002a	8b 55 0c	 mov	 edx, DWORD PTR _v1$[ebp]
  0002d	8b 75 10	 mov	 esi, DWORD PTR _v2$[ebp]
  00030	f3 0f 10 04 02	 movss	 xmm0, DWORD PTR [edx+eax]
  00035	f3 0f 5c 04 0e	 subss	 xmm0, DWORD PTR [esi+ecx]
  0003a	f3 0f 11 45 fc	 movss	 DWORD PTR $T3[ebp], xmm0
  0003f	b8 04 00 00 00	 mov	 eax, 4
  00044	c1 e0 00	 shl	 eax, 0
  00047	b9 04 00 00 00	 mov	 ecx, 4
  0004c	c1 e1 00	 shl	 ecx, 0
  0004f	8b 55 0c	 mov	 edx, DWORD PTR _v1$[ebp]
  00052	8b 75 10	 mov	 esi, DWORD PTR _v2$[ebp]
  00055	f3 0f 10 04 02	 movss	 xmm0, DWORD PTR [edx+eax]
  0005a	f3 0f 5c 04 0e	 subss	 xmm0, DWORD PTR [esi+ecx]
  0005f	f3 0f 11 45 f8	 movss	 DWORD PTR $T2[ebp], xmm0
  00064	b8 04 00 00 00	 mov	 eax, 4
  00069	6b c8 00	 imul	 ecx, eax, 0
  0006c	ba 04 00 00 00	 mov	 edx, 4
  00071	6b c2 00	 imul	 eax, edx, 0
  00074	8b 55 0c	 mov	 edx, DWORD PTR _v1$[ebp]
  00077	8b 75 10	 mov	 esi, DWORD PTR _v2$[ebp]
  0007a	f3 0f 10 04 0a	 movss	 xmm0, DWORD PTR [edx+ecx]
  0007f	f3 0f 5c 04 06	 subss	 xmm0, DWORD PTR [esi+eax]
  00084	f3 0f 11 45 f4	 movss	 DWORD PTR $T1[ebp], xmm0
  00089	8d 45 fc	 lea	 eax, DWORD PTR $T3[ebp]
  0008c	50		 push	 eax
  0008d	8d 4d f8	 lea	 ecx, DWORD PTR $T2[ebp]
  00090	51		 push	 ecx
  00091	8d 55 f4	 lea	 edx, DWORD PTR $T1[ebp]
  00094	52		 push	 edx
  00095	8b 4d 08	 mov	 ecx, DWORD PTR ___$ReturnUdt$[ebp]
  00098	e8 00 00 00 00	 call	 ??0btVector3@@QAE@ABM00@Z ; btVector3::btVector3
  0009d	8b 45 08	 mov	 eax, DWORD PTR ___$ReturnUdt$[ebp]

; 797  : 			v1.m_floats[0] - v2.m_floats[0], 
; 798  : 			v1.m_floats[1] - v2.m_floats[1], 
; 799  : 			v1.m_floats[2] - v2.m_floats[2]);
; 800  : #endif
; 801  : }

  000a0	5e		 pop	 esi
  000a1	83 c4 0c	 add	 esp, 12			; 0000000cH
  000a4	3b ec		 cmp	 ebp, esp
  000a6	e8 00 00 00 00	 call	 __RTC_CheckEsp
  000ab	8b e5		 mov	 esp, ebp
  000ad	5d		 pop	 ebp
  000ae	c3		 ret	 0
??G@YA?AVbtVector3@@ABV0@0@Z ENDP			; operator-
_TEXT	ENDS
; Function compile flags: /Odtp /RTCsu
; File e:\fusion3d_work\lib\bullet3\include\linearmath\btvector3.h
;	COMDAT ??D@YA?AVbtVector3@@ABV0@ABM@Z
_TEXT	SEGMENT
$T1 = -12						; size = 4
$T2 = -8						; size = 4
$T3 = -4						; size = 4
___$ReturnUdt$ = 8					; size = 4
_v$ = 12						; size = 4
_s$ = 16						; size = 4
??D@YA?AVbtVector3@@ABV0@ABM@Z PROC			; operator*, COMDAT

; 820  : {

  00000	55		 push	 ebp
  00001	8b ec		 mov	 ebp, esp
  00003	83 ec 0c	 sub	 esp, 12			; 0000000cH
  00006	c7 45 f4 cc cc
	cc cc		 mov	 DWORD PTR [ebp-12], -858993460 ; ccccccccH
  0000d	c7 45 f8 cc cc
	cc cc		 mov	 DWORD PTR [ebp-8], -858993460 ; ccccccccH
  00014	c7 45 fc cc cc
	cc cc		 mov	 DWORD PTR [ebp-4], -858993460 ; ccccccccH

; 821  : #if defined(BT_USE_SSE_IN_API) && defined (BT_USE_SSE)
; 822  : 	__m128	vs = _mm_load_ss(&s);	//	(S 0 0 0)
; 823  : 	vs = bt_pshufd_ps(vs, 0x80);	//	(S S S 0.0)
; 824  : 	return btVector3(_mm_mul_ps(v.mVec128, vs));
; 825  : #elif defined(BT_USE_NEON)
; 826  : 	float32x4_t r = vmulq_n_f32(v.mVec128, s);
; 827  : 	return btVector3((float32x4_t)vandq_s32((int32x4_t)r, btvFFF0Mask));
; 828  : #else
; 829  : 	return btVector3(v.m_floats[0] * s, v.m_floats[1] * s, v.m_floats[2] * s);

  0001b	b8 04 00 00 00	 mov	 eax, 4
  00020	d1 e0		 shl	 eax, 1
  00022	8b 4d 0c	 mov	 ecx, DWORD PTR _v$[ebp]
  00025	8b 55 10	 mov	 edx, DWORD PTR _s$[ebp]
  00028	f3 0f 10 04 01	 movss	 xmm0, DWORD PTR [ecx+eax]
  0002d	f3 0f 59 02	 mulss	 xmm0, DWORD PTR [edx]
  00031	f3 0f 11 45 fc	 movss	 DWORD PTR $T3[ebp], xmm0
  00036	b8 04 00 00 00	 mov	 eax, 4
  0003b	c1 e0 00	 shl	 eax, 0
  0003e	8b 4d 0c	 mov	 ecx, DWORD PTR _v$[ebp]
  00041	8b 55 10	 mov	 edx, DWORD PTR _s$[ebp]
  00044	f3 0f 10 04 01	 movss	 xmm0, DWORD PTR [ecx+eax]
  00049	f3 0f 59 02	 mulss	 xmm0, DWORD PTR [edx]
  0004d	f3 0f 11 45 f8	 movss	 DWORD PTR $T2[ebp], xmm0
  00052	b8 04 00 00 00	 mov	 eax, 4
  00057	6b c8 00	 imul	 ecx, eax, 0
  0005a	8b 55 0c	 mov	 edx, DWORD PTR _v$[ebp]
  0005d	8b 45 10	 mov	 eax, DWORD PTR _s$[ebp]
  00060	f3 0f 10 04 0a	 movss	 xmm0, DWORD PTR [edx+ecx]
  00065	f3 0f 59 00	 mulss	 xmm0, DWORD PTR [eax]
  00069	f3 0f 11 45 f4	 movss	 DWORD PTR $T1[ebp], xmm0
  0006e	8d 4d fc	 lea	 ecx, DWORD PTR $T3[ebp]
  00071	51		 push	 ecx
  00072	8d 55 f8	 lea	 edx, DWORD PTR $T2[ebp]
  00075	52		 push	 edx
  00076	8d 45 f4	 lea	 eax, DWORD PTR $T1[ebp]
  00079	50		 push	 eax
  0007a	8b 4d 08	 mov	 ecx, DWORD PTR ___$ReturnUdt$[ebp]
  0007d	e8 00 00 00 00	 call	 ??0btVector3@@QAE@ABM00@Z ; btVector3::btVector3
  00082	8b 45 08	 mov	 eax, DWORD PTR ___$ReturnUdt$[ebp]

; 830  : #endif
; 831  : }

  00085	83 c4 0c	 add	 esp, 12			; 0000000cH
  00088	3b ec		 cmp	 ebp, esp
  0008a	e8 00 00 00 00	 call	 __RTC_CheckEsp
  0008f	8b e5		 mov	 esp, ebp
  00091	5d		 pop	 ebp
  00092	c3		 ret	 0
??D@YA?AVbtVector3@@ABV0@ABM@Z ENDP			; operator*
_TEXT	ENDS
; Function compile flags: /Odtp /RTCsu
; File e:\fusion3d_work\lib\bullet3\include\linearmath\btvector3.h
;	COMDAT ??D@YA?AVbtVector3@@ABMABV0@@Z
_TEXT	SEGMENT
___$ReturnUdt$ = 8					; size = 4
_s$ = 12						; size = 4
_v$ = 16						; size = 4
??D@YA?AVbtVector3@@ABMABV0@@Z PROC			; operator*, COMDAT

; 836  : { 

  00000	55		 push	 ebp
  00001	8b ec		 mov	 ebp, esp

; 837  : 	return v * s; 

  00003	8b 45 0c	 mov	 eax, DWORD PTR _s$[ebp]
  00006	50		 push	 eax
  00007	8b 4d 10	 mov	 ecx, DWORD PTR _v$[ebp]
  0000a	51		 push	 ecx
  0000b	8b 55 08	 mov	 edx, DWORD PTR ___$ReturnUdt$[ebp]
  0000e	52		 push	 edx
  0000f	e8 00 00 00 00	 call	 ??D@YA?AVbtVector3@@ABV0@ABM@Z ; operator*
  00014	83 c4 0c	 add	 esp, 12			; 0000000cH
  00017	8b 45 08	 mov	 eax, DWORD PTR ___$ReturnUdt$[ebp]

; 838  : }

  0001a	3b ec		 cmp	 ebp, esp
  0001c	e8 00 00 00 00	 call	 __RTC_CheckEsp
  00021	5d		 pop	 ebp
  00022	c3		 ret	 0
??D@YA?AVbtVector3@@ABMABV0@@Z ENDP			; operator*
_TEXT	ENDS
; Function compile flags: /Odtp /RTCsu
; File e:\fusion3d_work\lib\bullet3\include\linearmath\btmatrix3x3.h
;	COMDAT ?getColumn@btMatrix3x3@@QBE?AVbtVector3@@H@Z
_TEXT	SEGMENT
_this$ = -4						; size = 4
___$ReturnUdt$ = 8					; size = 4
_i$ = 12						; size = 4
?getColumn@btMatrix3x3@@QBE?AVbtVector3@@H@Z PROC	; btMatrix3x3::getColumn, COMDAT
; _this$ = ecx

; 135  : 	{

  00000	55		 push	 ebp
  00001	8b ec		 mov	 ebp, esp
  00003	51		 push	 ecx
  00004	c7 45 fc cc cc
	cc cc		 mov	 DWORD PTR [ebp-4], -858993460 ; ccccccccH
  0000b	89 4d fc	 mov	 DWORD PTR _this$[ebp], ecx

; 136  : 		return btVector3(m_el[0][i],m_el[1][i],m_el[2][i]);

  0000e	b9 10 00 00 00	 mov	 ecx, 16			; 00000010H
  00013	d1 e1		 shl	 ecx, 1
  00015	03 4d fc	 add	 ecx, DWORD PTR _this$[ebp]
  00018	e8 00 00 00 00	 call	 ??BbtVector3@@QBEPBMXZ	; btVector3::operator float const *
  0001d	8b 4d 0c	 mov	 ecx, DWORD PTR _i$[ebp]
  00020	8d 14 88	 lea	 edx, DWORD PTR [eax+ecx*4]
  00023	52		 push	 edx
  00024	b9 10 00 00 00	 mov	 ecx, 16			; 00000010H
  00029	c1 e1 00	 shl	 ecx, 0
  0002c	03 4d fc	 add	 ecx, DWORD PTR _this$[ebp]
  0002f	e8 00 00 00 00	 call	 ??BbtVector3@@QBEPBMXZ	; btVector3::operator float const *
  00034	8b 4d 0c	 mov	 ecx, DWORD PTR _i$[ebp]
  00037	8d 14 88	 lea	 edx, DWORD PTR [eax+ecx*4]
  0003a	52		 push	 edx
  0003b	b8 10 00 00 00	 mov	 eax, 16			; 00000010H
  00040	6b c8 00	 imul	 ecx, eax, 0
  00043	03 4d fc	 add	 ecx, DWORD PTR _this$[ebp]
  00046	e8 00 00 00 00	 call	 ??BbtVector3@@QBEPBMXZ	; btVector3::operator float const *
  0004b	8b 4d 0c	 mov	 ecx, DWORD PTR _i$[ebp]
  0004e	8d 14 88	 lea	 edx, DWORD PTR [eax+ecx*4]
  00051	52		 push	 edx
  00052	8b 4d 08	 mov	 ecx, DWORD PTR ___$ReturnUdt$[ebp]
  00055	e8 00 00 00 00	 call	 ??0btVector3@@QAE@ABM00@Z ; btVector3::btVector3
  0005a	8b 45 08	 mov	 eax, DWORD PTR ___$ReturnUdt$[ebp]

; 137  : 	}

  0005d	83 c4 04	 add	 esp, 4
  00060	3b ec		 cmp	 ebp, esp
  00062	e8 00 00 00 00	 call	 __RTC_CheckEsp
  00067	8b e5		 mov	 esp, ebp
  00069	5d		 pop	 ebp
  0006a	c2 08 00	 ret	 8
?getColumn@btMatrix3x3@@QBE?AVbtVector3@@H@Z ENDP	; btMatrix3x3::getColumn
_TEXT	ENDS
; Function compile flags: /Odtp /RTCsu
; File e:\fusion3d_work\lib\bullet3\include\linearmath\bttransform.h
;	COMDAT ??DbtTransform@@QBE?AVbtVector3@@ABV1@@Z
_TEXT	SEGMENT
_this$ = -4						; size = 4
___$ReturnUdt$ = 8					; size = 4
_x$ = 12						; size = 4
??DbtTransform@@QBE?AVbtVector3@@ABV1@@Z PROC		; btTransform::operator*, COMDAT
; _this$ = ecx

; 101  : 	{

  00000	55		 push	 ebp
  00001	8b ec		 mov	 ebp, esp
  00003	51		 push	 ecx
  00004	c7 45 fc cc cc
	cc cc		 mov	 DWORD PTR [ebp-4], -858993460 ; ccccccccH
  0000b	89 4d fc	 mov	 DWORD PTR _this$[ebp], ecx

; 102  : 		return (*this)(x);

  0000e	8b 45 0c	 mov	 eax, DWORD PTR _x$[ebp]
  00011	50		 push	 eax
  00012	8b 4d 08	 mov	 ecx, DWORD PTR ___$ReturnUdt$[ebp]
  00015	51		 push	 ecx
  00016	8b 4d fc	 mov	 ecx, DWORD PTR _this$[ebp]
  00019	e8 00 00 00 00	 call	 ??RbtTransform@@QBE?AVbtVector3@@ABV1@@Z ; btTransform::operator()
  0001e	8b 45 08	 mov	 eax, DWORD PTR ___$ReturnUdt$[ebp]

; 103  : 	}

  00021	83 c4 04	 add	 esp, 4
  00024	3b ec		 cmp	 ebp, esp
  00026	e8 00 00 00 00	 call	 __RTC_CheckEsp
  0002b	8b e5		 mov	 esp, ebp
  0002d	5d		 pop	 ebp
  0002e	c2 08 00	 ret	 8
??DbtTransform@@QBE?AVbtVector3@@ABV1@@Z ENDP		; btTransform::operator*
_TEXT	ENDS
; Function compile flags: /Odtp /RTCsu
; File e:\fusion3d_work\lib\bullet3\include\linearmath\bttransform.h
;	COMDAT ?getBasis@btTransform@@QAEAAVbtMatrix3x3@@XZ
_TEXT	SEGMENT
_this$ = -4						; size = 4
?getBasis@btTransform@@QAEAAVbtMatrix3x3@@XZ PROC	; btTransform::getBasis, COMDAT
; _this$ = ecx

; 112  : 	SIMD_FORCE_INLINE btMatrix3x3&       getBasis()          { return m_basis; }

  00000	55		 push	 ebp
  00001	8b ec		 mov	 ebp, esp
  00003	51		 push	 ecx
  00004	c7 45 fc cc cc
	cc cc		 mov	 DWORD PTR [ebp-4], -858993460 ; ccccccccH
  0000b	89 4d fc	 mov	 DWORD PTR _this$[ebp], ecx
  0000e	8b 45 fc	 mov	 eax, DWORD PTR _this$[ebp]
  00011	8b e5		 mov	 esp, ebp
  00013	5d		 pop	 ebp
  00014	c3		 ret	 0
?getBasis@btTransform@@QAEAAVbtMatrix3x3@@XZ ENDP	; btTransform::getBasis
_TEXT	ENDS
; Function compile flags: /Odtp /RTCsu
; File e:\fusion3d_work\lib\bullet3\include\linearmath\bttransform.h
;	COMDAT ?getOrigin@btTransform@@QBEABVbtVector3@@XZ
_TEXT	SEGMENT
_this$ = -4						; size = 4
?getOrigin@btTransform@@QBEABVbtVector3@@XZ PROC	; btTransform::getOrigin, COMDAT
; _this$ = ecx

; 119  : 	SIMD_FORCE_INLINE const btVector3&   getOrigin()   const { return m_origin; }

  00000	55		 push	 ebp
  00001	8b ec		 mov	 ebp, esp
  00003	51		 push	 ecx
  00004	c7 45 fc cc cc
	cc cc		 mov	 DWORD PTR [ebp-4], -858993460 ; ccccccccH
  0000b	89 4d fc	 mov	 DWORD PTR _this$[ebp], ecx
  0000e	8b 45 fc	 mov	 eax, DWORD PTR _this$[ebp]
  00011	83 c0 30	 add	 eax, 48			; 00000030H
  00014	8b e5		 mov	 esp, ebp
  00016	5d		 pop	 ebp
  00017	c3		 ret	 0
?getOrigin@btTransform@@QBEABVbtVector3@@XZ ENDP	; btTransform::getOrigin
_TEXT	ENDS
; Function compile flags: /Odtp /RTCsu
; File e:\fusion3d_work\lib\bullet3\include\linearmath\bttransform.h
;	COMDAT ?setOrigin@btTransform@@QAEXABVbtVector3@@@Z
_TEXT	SEGMENT
_this$ = -4						; size = 4
_origin$ = 8						; size = 4
?setOrigin@btTransform@@QAEXABVbtVector3@@@Z PROC	; btTransform::setOrigin, COMDAT
; _this$ = ecx

; 151  : 	{ 

  00000	55		 push	 ebp
  00001	8b ec		 mov	 ebp, esp
  00003	51		 push	 ecx
  00004	c7 45 fc cc cc
	cc cc		 mov	 DWORD PTR [ebp-4], -858993460 ; ccccccccH
  0000b	89 4d fc	 mov	 DWORD PTR _this$[ebp], ecx

; 152  : 		m_origin = origin;

  0000e	8b 45 fc	 mov	 eax, DWORD PTR _this$[ebp]
  00011	83 c0 30	 add	 eax, 48			; 00000030H
  00014	8b 4d 08	 mov	 ecx, DWORD PTR _origin$[ebp]
  00017	8b 11		 mov	 edx, DWORD PTR [ecx]
  00019	89 10		 mov	 DWORD PTR [eax], edx
  0001b	8b 51 04	 mov	 edx, DWORD PTR [ecx+4]
  0001e	89 50 04	 mov	 DWORD PTR [eax+4], edx
  00021	8b 51 08	 mov	 edx, DWORD PTR [ecx+8]
  00024	89 50 08	 mov	 DWORD PTR [eax+8], edx
  00027	8b 49 0c	 mov	 ecx, DWORD PTR [ecx+12]
  0002a	89 48 0c	 mov	 DWORD PTR [eax+12], ecx

; 153  : 	}

  0002d	8b e5		 mov	 esp, ebp
  0002f	5d		 pop	 ebp
  00030	c2 04 00	 ret	 4
?setOrigin@btTransform@@QAEXABVbtVector3@@@Z ENDP	; btTransform::setOrigin
_TEXT	ENDS
; Function compile flags: /Odtp /RTCsu
; File e:\fusion3d_work\lib\bullet3\include\linearmath\btidebugdraw.h
;	COMDAT ??0DefaultColors@btIDebugDraw@@QAE@XZ
_TEXT	SEGMENT
$T1 = -88						; size = 4
$T2 = -84						; size = 4
$T3 = -80						; size = 4
$T4 = -76						; size = 4
$T5 = -72						; size = 4
$T6 = -68						; size = 4
$T7 = -64						; size = 4
$T8 = -60						; size = 4
$T9 = -56						; size = 4
$T10 = -52						; size = 4
$T11 = -48						; size = 4
$T12 = -44						; size = 4
$T13 = -40						; size = 4
$T14 = -36						; size = 4
$T15 = -32						; size = 4
$T16 = -28						; size = 4
$T17 = -24						; size = 4
$T18 = -20						; size = 4
$T19 = -16						; size = 4
$T20 = -12						; size = 4
$T21 = -8						; size = 4
_this$ = -4						; size = 4
??0DefaultColors@btIDebugDraw@@QAE@XZ PROC		; btIDebugDraw::DefaultColors::DefaultColors, COMDAT
; _this$ = ecx

; 51   : 		{

  00000	55		 push	 ebp
  00001	8b ec		 mov	 ebp, esp
  00003	83 ec 58	 sub	 esp, 88			; 00000058H
  00006	57		 push	 edi
  00007	51		 push	 ecx
  00008	8d 7d a8	 lea	 edi, DWORD PTR [ebp-88]
  0000b	b9 16 00 00 00	 mov	 ecx, 22			; 00000016H
  00010	b8 cc cc cc cc	 mov	 eax, -858993460		; ccccccccH
  00015	f3 ab		 rep stosd
  00017	59		 pop	 ecx
  00018	89 4d fc	 mov	 DWORD PTR _this$[ebp], ecx

; 44   : 		:	m_activeObject(1,1,1),

  0001b	f3 0f 10 05 00
	00 00 00	 movss	 xmm0, DWORD PTR __real@3f800000
  00023	f3 0f 11 45 f8	 movss	 DWORD PTR $T21[ebp], xmm0
  00028	f3 0f 10 05 00
	00 00 00	 movss	 xmm0, DWORD PTR __real@3f800000
  00030	f3 0f 11 45 f4	 movss	 DWORD PTR $T20[ebp], xmm0
  00035	f3 0f 10 05 00
	00 00 00	 movss	 xmm0, DWORD PTR __real@3f800000
  0003d	f3 0f 11 45 f0	 movss	 DWORD PTR $T19[ebp], xmm0
  00042	8d 45 f8	 lea	 eax, DWORD PTR $T21[ebp]
  00045	50		 push	 eax
  00046	8d 4d f4	 lea	 ecx, DWORD PTR $T20[ebp]
  00049	51		 push	 ecx
  0004a	8d 55 f0	 lea	 edx, DWORD PTR $T19[ebp]
  0004d	52		 push	 edx
  0004e	8b 4d fc	 mov	 ecx, DWORD PTR _this$[ebp]
  00051	e8 00 00 00 00	 call	 ??0btVector3@@QAE@ABM00@Z ; btVector3::btVector3

; 45   : 			m_deactivatedObject(0,1,0),

  00056	f3 0f 10 05 00
	00 00 00	 movss	 xmm0, DWORD PTR __real@00000000
  0005e	f3 0f 11 45 ec	 movss	 DWORD PTR $T18[ebp], xmm0
  00063	f3 0f 10 05 00
	00 00 00	 movss	 xmm0, DWORD PTR __real@3f800000
  0006b	f3 0f 11 45 e8	 movss	 DWORD PTR $T17[ebp], xmm0
  00070	f3 0f 10 05 00
	00 00 00	 movss	 xmm0, DWORD PTR __real@00000000
  00078	f3 0f 11 45 e4	 movss	 DWORD PTR $T16[ebp], xmm0
  0007d	8d 45 ec	 lea	 eax, DWORD PTR $T18[ebp]
  00080	50		 push	 eax
  00081	8d 4d e8	 lea	 ecx, DWORD PTR $T17[ebp]
  00084	51		 push	 ecx
  00085	8d 55 e4	 lea	 edx, DWORD PTR $T16[ebp]
  00088	52		 push	 edx
  00089	8b 4d fc	 mov	 ecx, DWORD PTR _this$[ebp]
  0008c	83 c1 10	 add	 ecx, 16			; 00000010H
  0008f	e8 00 00 00 00	 call	 ??0btVector3@@QAE@ABM00@Z ; btVector3::btVector3

; 46   : 			m_wantsDeactivationObject(0,1,1),

  00094	f3 0f 10 05 00
	00 00 00	 movss	 xmm0, DWORD PTR __real@3f800000
  0009c	f3 0f 11 45 e0	 movss	 DWORD PTR $T15[ebp], xmm0
  000a1	f3 0f 10 05 00
	00 00 00	 movss	 xmm0, DWORD PTR __real@3f800000
  000a9	f3 0f 11 45 dc	 movss	 DWORD PTR $T14[ebp], xmm0
  000ae	f3 0f 10 05 00
	00 00 00	 movss	 xmm0, DWORD PTR __real@00000000
  000b6	f3 0f 11 45 d8	 movss	 DWORD PTR $T13[ebp], xmm0
  000bb	8d 45 e0	 lea	 eax, DWORD PTR $T15[ebp]
  000be	50		 push	 eax
  000bf	8d 4d dc	 lea	 ecx, DWORD PTR $T14[ebp]
  000c2	51		 push	 ecx
  000c3	8d 55 d8	 lea	 edx, DWORD PTR $T13[ebp]
  000c6	52		 push	 edx
  000c7	8b 4d fc	 mov	 ecx, DWORD PTR _this$[ebp]
  000ca	83 c1 20	 add	 ecx, 32			; 00000020H
  000cd	e8 00 00 00 00	 call	 ??0btVector3@@QAE@ABM00@Z ; btVector3::btVector3

; 47   : 			m_disabledDeactivationObject(1,0,0),

  000d2	f3 0f 10 05 00
	00 00 00	 movss	 xmm0, DWORD PTR __real@00000000
  000da	f3 0f 11 45 d4	 movss	 DWORD PTR $T12[ebp], xmm0
  000df	f3 0f 10 05 00
	00 00 00	 movss	 xmm0, DWORD PTR __real@00000000
  000e7	f3 0f 11 45 d0	 movss	 DWORD PTR $T11[ebp], xmm0
  000ec	f3 0f 10 05 00
	00 00 00	 movss	 xmm0, DWORD PTR __real@3f800000
  000f4	f3 0f 11 45 cc	 movss	 DWORD PTR $T10[ebp], xmm0
  000f9	8d 45 d4	 lea	 eax, DWORD PTR $T12[ebp]
  000fc	50		 push	 eax
  000fd	8d 4d d0	 lea	 ecx, DWORD PTR $T11[ebp]
  00100	51		 push	 ecx
  00101	8d 55 cc	 lea	 edx, DWORD PTR $T10[ebp]
  00104	52		 push	 edx
  00105	8b 4d fc	 mov	 ecx, DWORD PTR _this$[ebp]
  00108	83 c1 30	 add	 ecx, 48			; 00000030H
  0010b	e8 00 00 00 00	 call	 ??0btVector3@@QAE@ABM00@Z ; btVector3::btVector3

; 48   : 			m_disabledSimulationObject(1,1,0),

  00110	f3 0f 10 05 00
	00 00 00	 movss	 xmm0, DWORD PTR __real@00000000
  00118	f3 0f 11 45 c8	 movss	 DWORD PTR $T9[ebp], xmm0
  0011d	f3 0f 10 05 00
	00 00 00	 movss	 xmm0, DWORD PTR __real@3f800000
  00125	f3 0f 11 45 c4	 movss	 DWORD PTR $T8[ebp], xmm0
  0012a	f3 0f 10 05 00
	00 00 00	 movss	 xmm0, DWORD PTR __real@3f800000
  00132	f3 0f 11 45 c0	 movss	 DWORD PTR $T7[ebp], xmm0
  00137	8d 45 c8	 lea	 eax, DWORD PTR $T9[ebp]
  0013a	50		 push	 eax
  0013b	8d 4d c4	 lea	 ecx, DWORD PTR $T8[ebp]
  0013e	51		 push	 ecx
  0013f	8d 55 c0	 lea	 edx, DWORD PTR $T7[ebp]
  00142	52		 push	 edx
  00143	8b 4d fc	 mov	 ecx, DWORD PTR _this$[ebp]
  00146	83 c1 40	 add	 ecx, 64			; 00000040H
  00149	e8 00 00 00 00	 call	 ??0btVector3@@QAE@ABM00@Z ; btVector3::btVector3

; 49   : 			m_aabb(1,0,0),

  0014e	f3 0f 10 05 00
	00 00 00	 movss	 xmm0, DWORD PTR __real@00000000
  00156	f3 0f 11 45 bc	 movss	 DWORD PTR $T6[ebp], xmm0
  0015b	f3 0f 10 05 00
	00 00 00	 movss	 xmm0, DWORD PTR __real@00000000
  00163	f3 0f 11 45 b8	 movss	 DWORD PTR $T5[ebp], xmm0
  00168	f3 0f 10 05 00
	00 00 00	 movss	 xmm0, DWORD PTR __real@3f800000
  00170	f3 0f 11 45 b4	 movss	 DWORD PTR $T4[ebp], xmm0
  00175	8d 45 bc	 lea	 eax, DWORD PTR $T6[ebp]
  00178	50		 push	 eax
  00179	8d 4d b8	 lea	 ecx, DWORD PTR $T5[ebp]
  0017c	51		 push	 ecx
  0017d	8d 55 b4	 lea	 edx, DWORD PTR $T4[ebp]
  00180	52		 push	 edx
  00181	8b 4d fc	 mov	 ecx, DWORD PTR _this$[ebp]
  00184	83 c1 50	 add	 ecx, 80			; 00000050H
  00187	e8 00 00 00 00	 call	 ??0btVector3@@QAE@ABM00@Z ; btVector3::btVector3

; 50   : 			m_contactPoint(1,1,0)

  0018c	f3 0f 10 05 00
	00 00 00	 movss	 xmm0, DWORD PTR __real@00000000
  00194	f3 0f 11 45 b0	 movss	 DWORD PTR $T3[ebp], xmm0
  00199	f3 0f 10 05 00
	00 00 00	 movss	 xmm0, DWORD PTR __real@3f800000
  001a1	f3 0f 11 45 ac	 movss	 DWORD PTR $T2[ebp], xmm0
  001a6	f3 0f 10 05 00
	00 00 00	 movss	 xmm0, DWORD PTR __real@3f800000
  001ae	f3 0f 11 45 a8	 movss	 DWORD PTR $T1[ebp], xmm0
  001b3	8d 45 b0	 lea	 eax, DWORD PTR $T3[ebp]
  001b6	50		 push	 eax
  001b7	8d 4d ac	 lea	 ecx, DWORD PTR $T2[ebp]
  001ba	51		 push	 ecx
  001bb	8d 55 a8	 lea	 edx, DWORD PTR $T1[ebp]
  001be	52		 push	 edx
  001bf	8b 4d fc	 mov	 ecx, DWORD PTR _this$[ebp]
  001c2	83 c1 60	 add	 ecx, 96			; 00000060H
  001c5	e8 00 00 00 00	 call	 ??0btVector3@@QAE@ABM00@Z ; btVector3::btVector3

; 52   : 		}

  001ca	8b 45 fc	 mov	 eax, DWORD PTR _this$[ebp]
  001cd	5f		 pop	 edi
  001ce	83 c4 58	 add	 esp, 88			; 00000058H
  001d1	3b ec		 cmp	 ebp, esp
  001d3	e8 00 00 00 00	 call	 __RTC_CheckEsp
  001d8	8b e5		 mov	 esp, ebp
  001da	5d		 pop	 ebp
  001db	c3		 ret	 0
??0DefaultColors@btIDebugDraw@@QAE@XZ ENDP		; btIDebugDraw::DefaultColors::DefaultColors
_TEXT	ENDS
; Function compile flags: /Odtp /RTCsu
; File e:\fusion3d_work\lib\bullet3\include\linearmath\btidebugdraw.h
;	COMDAT ??1btIDebugDraw@@UAE@XZ
_TEXT	SEGMENT
_this$ = -4						; size = 4
??1btIDebugDraw@@UAE@XZ PROC				; btIDebugDraw::~btIDebugDraw, COMDAT
; _this$ = ecx

; 78   : 	virtual ~btIDebugDraw() {};

  00000	55		 push	 ebp
  00001	8b ec		 mov	 ebp, esp
  00003	51		 push	 ecx
  00004	c7 45 fc cc cc
	cc cc		 mov	 DWORD PTR [ebp-4], -858993460 ; ccccccccH
  0000b	89 4d fc	 mov	 DWORD PTR _this$[ebp], ecx
  0000e	8b 45 fc	 mov	 eax, DWORD PTR _this$[ebp]
  00011	c7 00 00 00 00
	00		 mov	 DWORD PTR [eax], OFFSET ??_7btIDebugDraw@@6B@
  00017	8b e5		 mov	 esp, ebp
  00019	5d		 pop	 ebp
  0001a	c3		 ret	 0
??1btIDebugDraw@@UAE@XZ ENDP				; btIDebugDraw::~btIDebugDraw
_TEXT	ENDS
; Function compile flags: /Odtp /RTCsu
; File e:\fusion3d_work\lib\bullet3\include\linearmath\btidebugdraw.h
;	COMDAT ?getDefaultColors@btIDebugDraw@@UBE?AUDefaultColors@1@XZ
_TEXT	SEGMENT
_colors$ = -128						; size = 112
_this$ = -4						; size = 4
___$ReturnUdt$ = 8					; size = 4
?getDefaultColors@btIDebugDraw@@UBE?AUDefaultColors@1@XZ PROC ; btIDebugDraw::getDefaultColors, COMDAT
; _this$ = ecx

; 81   : 	virtual DefaultColors	getDefaultColors() const	{	DefaultColors colors;	return colors;	}

  00000	53		 push	 ebx
  00001	8b dc		 mov	 ebx, esp
  00003	83 ec 08	 sub	 esp, 8
  00006	83 e4 f0	 and	 esp, -16		; fffffff0H
  00009	83 c4 04	 add	 esp, 4
  0000c	55		 push	 ebp
  0000d	8b 6b 04	 mov	 ebp, DWORD PTR [ebx+4]
  00010	89 6c 24 04	 mov	 DWORD PTR [esp+4], ebp
  00014	8b ec		 mov	 ebp, esp
  00016	81 ec 88 00 00
	00		 sub	 esp, 136		; 00000088H
  0001c	56		 push	 esi
  0001d	57		 push	 edi
  0001e	51		 push	 ecx
  0001f	8d bd 78 ff ff
	ff		 lea	 edi, DWORD PTR [ebp-136]
  00025	b9 22 00 00 00	 mov	 ecx, 34			; 00000022H
  0002a	b8 cc cc cc cc	 mov	 eax, -858993460		; ccccccccH
  0002f	f3 ab		 rep stosd
  00031	59		 pop	 ecx
  00032	89 4d fc	 mov	 DWORD PTR _this$[ebp], ecx
  00035	8d 4d 80	 lea	 ecx, DWORD PTR _colors$[ebp]
  00038	e8 00 00 00 00	 call	 ??0DefaultColors@btIDebugDraw@@QAE@XZ ; btIDebugDraw::DefaultColors::DefaultColors
  0003d	b9 1c 00 00 00	 mov	 ecx, 28			; 0000001cH
  00042	8d 75 80	 lea	 esi, DWORD PTR _colors$[ebp]
  00045	8b 7b 08	 mov	 edi, DWORD PTR ___$ReturnUdt$[ebx]
  00048	f3 a5		 rep movsd
  0004a	8b 43 08	 mov	 eax, DWORD PTR ___$ReturnUdt$[ebx]
  0004d	52		 push	 edx
  0004e	8b cd		 mov	 ecx, ebp
  00050	50		 push	 eax
  00051	8d 15 00 00 00
	00		 lea	 edx, DWORD PTR $LN5@getDefault
  00057	e8 00 00 00 00	 call	 @_RTC_CheckStackVars@8
  0005c	58		 pop	 eax
  0005d	5a		 pop	 edx
  0005e	5f		 pop	 edi
  0005f	5e		 pop	 esi
  00060	8b e5		 mov	 esp, ebp
  00062	5d		 pop	 ebp
  00063	8b e3		 mov	 esp, ebx
  00065	5b		 pop	 ebx
  00066	c2 04 00	 ret	 4
  00069	0f 1f 00	 npad	 3
$LN5@getDefault:
  0006c	01 00 00 00	 DD	 1
  00070	00 00 00 00	 DD	 $LN4@getDefault
$LN4@getDefault:
  00074	80 ff ff ff	 DD	 -128			; ffffff80H
  00078	70 00 00 00	 DD	 112			; 00000070H
  0007c	00 00 00 00	 DD	 $LN3@getDefault
$LN3@getDefault:
  00080	63		 DB	 99			; 00000063H
  00081	6f		 DB	 111			; 0000006fH
  00082	6c		 DB	 108			; 0000006cH
  00083	6f		 DB	 111			; 0000006fH
  00084	72		 DB	 114			; 00000072H
  00085	73		 DB	 115			; 00000073H
  00086	00		 DB	 0
?getDefaultColors@btIDebugDraw@@UBE?AUDefaultColors@1@XZ ENDP ; btIDebugDraw::getDefaultColors
_TEXT	ENDS
; Function compile flags: /Odtp /RTCsu
; File e:\fusion3d_work\lib\bullet3\include\linearmath\btidebugdraw.h
;	COMDAT ?setDefaultColors@btIDebugDraw@@UAEXABUDefaultColors@1@@Z
_TEXT	SEGMENT
_this$ = -4						; size = 4
___formal$ = 8						; size = 4
?setDefaultColors@btIDebugDraw@@UAEXABUDefaultColors@1@@Z PROC ; btIDebugDraw::setDefaultColors, COMDAT
; _this$ = ecx

; 83   : 	virtual void setDefaultColors(const DefaultColors& /*colors*/) {}

  00000	55		 push	 ebp
  00001	8b ec		 mov	 ebp, esp
  00003	51		 push	 ecx
  00004	c7 45 fc cc cc
	cc cc		 mov	 DWORD PTR [ebp-4], -858993460 ; ccccccccH
  0000b	89 4d fc	 mov	 DWORD PTR _this$[ebp], ecx
  0000e	8b e5		 mov	 esp, ebp
  00010	5d		 pop	 ebp
  00011	c2 04 00	 ret	 4
?setDefaultColors@btIDebugDraw@@UAEXABUDefaultColors@1@@Z ENDP ; btIDebugDraw::setDefaultColors
_TEXT	ENDS
; Function compile flags: /Odtp /RTCsu
; File e:\fusion3d_work\lib\bullet3\include\linearmath\btidebugdraw.h
;	COMDAT ?drawLine@btIDebugDraw@@UAEXABVbtVector3@@000@Z
_TEXT	SEGMENT
_this$ = -4						; size = 4
_from$ = 8						; size = 4
_to$ = 12						; size = 4
_fromColor$ = 16					; size = 4
_toColor$ = 20						; size = 4
?drawLine@btIDebugDraw@@UAEXABVbtVector3@@000@Z PROC	; btIDebugDraw::drawLine, COMDAT
; _this$ = ecx

; 88   : 	{

  00000	55		 push	 ebp
  00001	8b ec		 mov	 ebp, esp
  00003	51		 push	 ecx
  00004	56		 push	 esi
  00005	c7 45 fc cc cc
	cc cc		 mov	 DWORD PTR [ebp-4], -858993460 ; ccccccccH
  0000c	89 4d fc	 mov	 DWORD PTR _this$[ebp], ecx

; 89   :         (void) toColor;
; 90   : 		drawLine (from, to, fromColor);

  0000f	8b f4		 mov	 esi, esp
  00011	8b 45 10	 mov	 eax, DWORD PTR _fromColor$[ebp]
  00014	50		 push	 eax
  00015	8b 4d 0c	 mov	 ecx, DWORD PTR _to$[ebp]
  00018	51		 push	 ecx
  00019	8b 55 08	 mov	 edx, DWORD PTR _from$[ebp]
  0001c	52		 push	 edx
  0001d	8b 45 fc	 mov	 eax, DWORD PTR _this$[ebp]
  00020	8b 10		 mov	 edx, DWORD PTR [eax]
  00022	8b 4d fc	 mov	 ecx, DWORD PTR _this$[ebp]
  00025	8b 42 10	 mov	 eax, DWORD PTR [edx+16]
  00028	ff d0		 call	 eax
  0002a	3b f4		 cmp	 esi, esp
  0002c	e8 00 00 00 00	 call	 __RTC_CheckEsp

; 91   : 	}

  00031	5e		 pop	 esi
  00032	83 c4 04	 add	 esp, 4
  00035	3b ec		 cmp	 ebp, esp
  00037	e8 00 00 00 00	 call	 __RTC_CheckEsp
  0003c	8b e5		 mov	 esp, ebp
  0003e	5d		 pop	 ebp
  0003f	c2 10 00	 ret	 16			; 00000010H
?drawLine@btIDebugDraw@@UAEXABVbtVector3@@000@Z ENDP	; btIDebugDraw::drawLine
_TEXT	ENDS
; Function compile flags: /Odtp /RTCsu
; File e:\fusion3d_work\lib\bullet3\include\linearmath\btidebugdraw.h
;	COMDAT ?drawSphere@btIDebugDraw@@UAEXMABVbtTransform@@ABVbtVector3@@@Z
_TEXT	SEGMENT
$T1 = -144						; size = 16
_stepDegrees$ = -120					; size = 4
_maxPs$ = -116						; size = 4
_minPs$ = -112						; size = 4
_maxTh$ = -108						; size = 4
_minTh$ = -104						; size = 4
_axis$ = -96						; size = 16
_up$ = -64						; size = 16
_center$ = -32						; size = 16
_this$ = -4						; size = 4
_radius$ = 8						; size = 4
_transform$ = 12					; size = 4
_color$ = 16						; size = 4
?drawSphere@btIDebugDraw@@UAEXMABVbtTransform@@ABVbtVector3@@@Z PROC ; btIDebugDraw::drawSphere, COMDAT
; _this$ = ecx

; 94   : 	{

  00000	53		 push	 ebx
  00001	8b dc		 mov	 ebx, esp
  00003	83 ec 08	 sub	 esp, 8
  00006	83 e4 f0	 and	 esp, -16		; fffffff0H
  00009	83 c4 04	 add	 esp, 4
  0000c	55		 push	 ebp
  0000d	8b 6b 04	 mov	 ebp, DWORD PTR [ebx+4]
  00010	89 6c 24 04	 mov	 DWORD PTR [esp+4], ebp
  00014	8b ec		 mov	 ebp, esp
  00016	81 ec 9c 00 00
	00		 sub	 esp, 156		; 0000009cH
  0001c	56		 push	 esi
  0001d	57		 push	 edi
  0001e	51		 push	 ecx
  0001f	8d bd 64 ff ff
	ff		 lea	 edi, DWORD PTR [ebp-156]
  00025	b9 27 00 00 00	 mov	 ecx, 39			; 00000027H
  0002a	b8 cc cc cc cc	 mov	 eax, -858993460		; ccccccccH
  0002f	f3 ab		 rep stosd
  00031	59		 pop	 ecx
  00032	89 4d fc	 mov	 DWORD PTR _this$[ebp], ecx

; 95   : 		
; 96   : 		btVector3 center = transform.getOrigin();

  00035	8b 4b 0c	 mov	 ecx, DWORD PTR _transform$[ebx]
  00038	e8 00 00 00 00	 call	 ?getOrigin@btTransform@@QBEABVbtVector3@@XZ ; btTransform::getOrigin
  0003d	8b 08		 mov	 ecx, DWORD PTR [eax]
  0003f	89 4d e0	 mov	 DWORD PTR _center$[ebp], ecx
  00042	8b 50 04	 mov	 edx, DWORD PTR [eax+4]
  00045	89 55 e4	 mov	 DWORD PTR _center$[ebp+4], edx
  00048	8b 48 08	 mov	 ecx, DWORD PTR [eax+8]
  0004b	89 4d e8	 mov	 DWORD PTR _center$[ebp+8], ecx
  0004e	8b 50 0c	 mov	 edx, DWORD PTR [eax+12]
  00051	89 55 ec	 mov	 DWORD PTR _center$[ebp+12], edx

; 97   : 		btVector3 up = transform.getBasis().getColumn(1);

  00054	6a 01		 push	 1
  00056	8d 45 c0	 lea	 eax, DWORD PTR _up$[ebp]
  00059	50		 push	 eax
  0005a	8b 4b 0c	 mov	 ecx, DWORD PTR _transform$[ebx]
  0005d	e8 00 00 00 00	 call	 ?getBasis@btTransform@@QBEABVbtMatrix3x3@@XZ ; btTransform::getBasis
  00062	8b c8		 mov	 ecx, eax
  00064	e8 00 00 00 00	 call	 ?getColumn@btMatrix3x3@@QBE?AVbtVector3@@H@Z ; btMatrix3x3::getColumn

; 98   : 		btVector3 axis = transform.getBasis().getColumn(0);

  00069	6a 00		 push	 0
  0006b	8d 4d a0	 lea	 ecx, DWORD PTR _axis$[ebp]
  0006e	51		 push	 ecx
  0006f	8b 4b 0c	 mov	 ecx, DWORD PTR _transform$[ebx]
  00072	e8 00 00 00 00	 call	 ?getBasis@btTransform@@QBEABVbtMatrix3x3@@XZ ; btTransform::getBasis
  00077	8b c8		 mov	 ecx, eax
  00079	e8 00 00 00 00	 call	 ?getColumn@btMatrix3x3@@QBE?AVbtVector3@@H@Z ; btMatrix3x3::getColumn

; 99   : 		btScalar minTh = -SIMD_HALF_PI;

  0007e	f3 0f 10 05 00
	00 00 00	 movss	 xmm0, DWORD PTR __real@bfc90fdb
  00086	f3 0f 11 45 98	 movss	 DWORD PTR _minTh$[ebp], xmm0

; 100  : 		btScalar maxTh = SIMD_HALF_PI;

  0008b	f3 0f 10 05 00
	00 00 00	 movss	 xmm0, DWORD PTR __real@3fc90fdb
  00093	f3 0f 11 45 94	 movss	 DWORD PTR _maxTh$[ebp], xmm0

; 101  : 		btScalar minPs = -SIMD_HALF_PI;

  00098	f3 0f 10 05 00
	00 00 00	 movss	 xmm0, DWORD PTR __real@bfc90fdb
  000a0	f3 0f 11 45 90	 movss	 DWORD PTR _minPs$[ebp], xmm0

; 102  : 		btScalar maxPs = SIMD_HALF_PI;

  000a5	f3 0f 10 05 00
	00 00 00	 movss	 xmm0, DWORD PTR __real@3fc90fdb
  000ad	f3 0f 11 45 8c	 movss	 DWORD PTR _maxPs$[ebp], xmm0

; 103  : 		btScalar stepDegrees = 30.f;

  000b2	f3 0f 10 05 00
	00 00 00	 movss	 xmm0, DWORD PTR __real@41f00000
  000ba	f3 0f 11 45 88	 movss	 DWORD PTR _stepDegrees$[ebp], xmm0

; 104  : 		drawSpherePatch(center, up, axis, radius,minTh, maxTh, minPs, maxPs, color, stepDegrees ,false);

  000bf	8b f4		 mov	 esi, esp
  000c1	6a 00		 push	 0
  000c3	51		 push	 ecx
  000c4	f3 0f 10 45 88	 movss	 xmm0, DWORD PTR _stepDegrees$[ebp]
  000c9	f3 0f 11 04 24	 movss	 DWORD PTR [esp], xmm0
  000ce	8b 53 10	 mov	 edx, DWORD PTR _color$[ebx]
  000d1	52		 push	 edx
  000d2	51		 push	 ecx
  000d3	f3 0f 10 45 8c	 movss	 xmm0, DWORD PTR _maxPs$[ebp]
  000d8	f3 0f 11 04 24	 movss	 DWORD PTR [esp], xmm0
  000dd	51		 push	 ecx
  000de	f3 0f 10 45 90	 movss	 xmm0, DWORD PTR _minPs$[ebp]
  000e3	f3 0f 11 04 24	 movss	 DWORD PTR [esp], xmm0
  000e8	51		 push	 ecx
  000e9	f3 0f 10 45 94	 movss	 xmm0, DWORD PTR _maxTh$[ebp]
  000ee	f3 0f 11 04 24	 movss	 DWORD PTR [esp], xmm0
  000f3	51		 push	 ecx
  000f4	f3 0f 10 45 98	 movss	 xmm0, DWORD PTR _minTh$[ebp]
  000f9	f3 0f 11 04 24	 movss	 DWORD PTR [esp], xmm0
  000fe	51		 push	 ecx
  000ff	f3 0f 10 43 08	 movss	 xmm0, DWORD PTR _radius$[ebx]
  00104	f3 0f 11 04 24	 movss	 DWORD PTR [esp], xmm0
  00109	8d 45 a0	 lea	 eax, DWORD PTR _axis$[ebp]
  0010c	50		 push	 eax
  0010d	8d 4d c0	 lea	 ecx, DWORD PTR _up$[ebp]
  00110	51		 push	 ecx
  00111	8d 55 e0	 lea	 edx, DWORD PTR _center$[ebp]
  00114	52		 push	 edx
  00115	8b 45 fc	 mov	 eax, DWORD PTR _this$[ebp]
  00118	8b 10		 mov	 edx, DWORD PTR [eax]
  0011a	8b 4d fc	 mov	 ecx, DWORD PTR _this$[ebp]
  0011d	8b 42 44	 mov	 eax, DWORD PTR [edx+68]
  00120	ff d0		 call	 eax
  00122	3b f4		 cmp	 esi, esp
  00124	e8 00 00 00 00	 call	 __RTC_CheckEsp

; 105  : 		drawSpherePatch(center, up, -axis, radius,minTh, maxTh, minPs, maxPs, color, stepDegrees,false );

  00129	8b f4		 mov	 esi, esp
  0012b	6a 00		 push	 0
  0012d	51		 push	 ecx
  0012e	f3 0f 10 45 88	 movss	 xmm0, DWORD PTR _stepDegrees$[ebp]
  00133	f3 0f 11 04 24	 movss	 DWORD PTR [esp], xmm0
  00138	8b 4b 10	 mov	 ecx, DWORD PTR _color$[ebx]
  0013b	51		 push	 ecx
  0013c	51		 push	 ecx
  0013d	f3 0f 10 45 8c	 movss	 xmm0, DWORD PTR _maxPs$[ebp]
  00142	f3 0f 11 04 24	 movss	 DWORD PTR [esp], xmm0
  00147	51		 push	 ecx
  00148	f3 0f 10 45 90	 movss	 xmm0, DWORD PTR _minPs$[ebp]
  0014d	f3 0f 11 04 24	 movss	 DWORD PTR [esp], xmm0
  00152	51		 push	 ecx
  00153	f3 0f 10 45 94	 movss	 xmm0, DWORD PTR _maxTh$[ebp]
  00158	f3 0f 11 04 24	 movss	 DWORD PTR [esp], xmm0
  0015d	51		 push	 ecx
  0015e	f3 0f 10 45 98	 movss	 xmm0, DWORD PTR _minTh$[ebp]
  00163	f3 0f 11 04 24	 movss	 DWORD PTR [esp], xmm0
  00168	51		 push	 ecx
  00169	f3 0f 10 43 08	 movss	 xmm0, DWORD PTR _radius$[ebx]
  0016e	f3 0f 11 04 24	 movss	 DWORD PTR [esp], xmm0
  00173	8d 55 a0	 lea	 edx, DWORD PTR _axis$[ebp]
  00176	52		 push	 edx
  00177	8d 85 70 ff ff
	ff		 lea	 eax, DWORD PTR $T1[ebp]
  0017d	50		 push	 eax
  0017e	e8 00 00 00 00	 call	 ??G@YA?AVbtVector3@@ABV0@@Z ; operator-
  00183	83 c4 08	 add	 esp, 8
  00186	50		 push	 eax
  00187	8d 4d c0	 lea	 ecx, DWORD PTR _up$[ebp]
  0018a	51		 push	 ecx
  0018b	8d 55 e0	 lea	 edx, DWORD PTR _center$[ebp]
  0018e	52		 push	 edx
  0018f	8b 45 fc	 mov	 eax, DWORD PTR _this$[ebp]
  00192	8b 10		 mov	 edx, DWORD PTR [eax]
  00194	8b 4d fc	 mov	 ecx, DWORD PTR _this$[ebp]
  00197	8b 42 44	 mov	 eax, DWORD PTR [edx+68]
  0019a	ff d0		 call	 eax
  0019c	3b f4		 cmp	 esi, esp
  0019e	e8 00 00 00 00	 call	 __RTC_CheckEsp

; 106  : 	}

  001a3	52		 push	 edx
  001a4	8b cd		 mov	 ecx, ebp
  001a6	50		 push	 eax
  001a7	8d 15 00 00 00
	00		 lea	 edx, DWORD PTR $LN7@drawSphere
  001ad	e8 00 00 00 00	 call	 @_RTC_CheckStackVars@8
  001b2	58		 pop	 eax
  001b3	5a		 pop	 edx
  001b4	5f		 pop	 edi
  001b5	5e		 pop	 esi
  001b6	8b e5		 mov	 esp, ebp
  001b8	5d		 pop	 ebp
  001b9	8b e3		 mov	 esp, ebx
  001bb	5b		 pop	 ebx
  001bc	c2 0c 00	 ret	 12			; 0000000cH
  001bf	90		 npad	 1
$LN7@drawSphere:
  001c0	03 00 00 00	 DD	 3
  001c4	00 00 00 00	 DD	 $LN6@drawSphere
$LN6@drawSphere:
  001c8	e0 ff ff ff	 DD	 -32			; ffffffe0H
  001cc	10 00 00 00	 DD	 16			; 00000010H
  001d0	00 00 00 00	 DD	 $LN3@drawSphere
  001d4	c0 ff ff ff	 DD	 -64			; ffffffc0H
  001d8	10 00 00 00	 DD	 16			; 00000010H
  001dc	00 00 00 00	 DD	 $LN4@drawSphere
  001e0	a0 ff ff ff	 DD	 -96			; ffffffa0H
  001e4	10 00 00 00	 DD	 16			; 00000010H
  001e8	00 00 00 00	 DD	 $LN5@drawSphere
$LN5@drawSphere:
  001ec	61		 DB	 97			; 00000061H
  001ed	78		 DB	 120			; 00000078H
  001ee	69		 DB	 105			; 00000069H
  001ef	73		 DB	 115			; 00000073H
  001f0	00		 DB	 0
$LN4@drawSphere:
  001f1	75		 DB	 117			; 00000075H
  001f2	70		 DB	 112			; 00000070H
  001f3	00		 DB	 0
$LN3@drawSphere:
  001f4	63		 DB	 99			; 00000063H
  001f5	65		 DB	 101			; 00000065H
  001f6	6e		 DB	 110			; 0000006eH
  001f7	74		 DB	 116			; 00000074H
  001f8	65		 DB	 101			; 00000065H
  001f9	72		 DB	 114			; 00000072H
  001fa	00		 DB	 0
?drawSphere@btIDebugDraw@@UAEXMABVbtTransform@@ABVbtVector3@@@Z ENDP ; btIDebugDraw::drawSphere
_TEXT	ENDS
; Function compile flags: /Odtp /RTCsu
; File e:\fusion3d_work\lib\bullet3\include\linearmath\btidebugdraw.h
;	COMDAT ?drawSphere@btIDebugDraw@@UAEXABVbtVector3@@M0@Z
_TEXT	SEGMENT
_tr$ = -80						; size = 64
_this$ = -8						; size = 4
__$ArrayPad$ = -4					; size = 4
_p$ = 8							; size = 4
_radius$ = 12						; size = 4
_color$ = 16						; size = 4
?drawSphere@btIDebugDraw@@UAEXABVbtVector3@@M0@Z PROC	; btIDebugDraw::drawSphere, COMDAT
; _this$ = ecx

; 109  : 	{

  00000	53		 push	 ebx
  00001	8b dc		 mov	 ebx, esp
  00003	83 ec 08	 sub	 esp, 8
  00006	83 e4 f0	 and	 esp, -16		; fffffff0H
  00009	83 c4 04	 add	 esp, 4
  0000c	55		 push	 ebp
  0000d	8b 6b 04	 mov	 ebp, DWORD PTR [ebx+4]
  00010	89 6c 24 04	 mov	 DWORD PTR [esp+4], ebp
  00014	8b ec		 mov	 ebp, esp
  00016	83 ec 5c	 sub	 esp, 92			; 0000005cH
  00019	56		 push	 esi
  0001a	57		 push	 edi
  0001b	51		 push	 ecx
  0001c	8d 7d a4	 lea	 edi, DWORD PTR [ebp-92]
  0001f	b9 17 00 00 00	 mov	 ecx, 23			; 00000017H
  00024	b8 cc cc cc cc	 mov	 eax, -858993460		; ccccccccH
  00029	f3 ab		 rep stosd
  0002b	59		 pop	 ecx
  0002c	a1 00 00 00 00	 mov	 eax, DWORD PTR ___security_cookie
  00031	33 c5		 xor	 eax, ebp
  00033	89 45 fc	 mov	 DWORD PTR __$ArrayPad$[ebp], eax
  00036	89 4d f8	 mov	 DWORD PTR _this$[ebp], ecx

; 110  : 		btTransform tr;

  00039	8d 4d b0	 lea	 ecx, DWORD PTR _tr$[ebp]
  0003c	e8 00 00 00 00	 call	 ??0btTransform@@QAE@XZ	; btTransform::btTransform

; 111  : 		tr.setIdentity();

  00041	8d 4d b0	 lea	 ecx, DWORD PTR _tr$[ebp]
  00044	e8 00 00 00 00	 call	 ?setIdentity@btTransform@@QAEXXZ ; btTransform::setIdentity

; 112  : 		tr.setOrigin(p);

  00049	8b 43 08	 mov	 eax, DWORD PTR _p$[ebx]
  0004c	50		 push	 eax
  0004d	8d 4d b0	 lea	 ecx, DWORD PTR _tr$[ebp]
  00050	e8 00 00 00 00	 call	 ?setOrigin@btTransform@@QAEXABVbtVector3@@@Z ; btTransform::setOrigin

; 113  : 		drawSphere(radius,tr,color);

  00055	8b f4		 mov	 esi, esp
  00057	8b 4b 10	 mov	 ecx, DWORD PTR _color$[ebx]
  0005a	51		 push	 ecx
  0005b	8d 55 b0	 lea	 edx, DWORD PTR _tr$[ebp]
  0005e	52		 push	 edx
  0005f	51		 push	 ecx
  00060	f3 0f 10 43 0c	 movss	 xmm0, DWORD PTR _radius$[ebx]
  00065	f3 0f 11 04 24	 movss	 DWORD PTR [esp], xmm0
  0006a	8b 45 f8	 mov	 eax, DWORD PTR _this$[ebp]
  0006d	8b 10		 mov	 edx, DWORD PTR [eax]
  0006f	8b 4d f8	 mov	 ecx, DWORD PTR _this$[ebp]
  00072	8b 42 18	 mov	 eax, DWORD PTR [edx+24]
  00075	ff d0		 call	 eax
  00077	3b f4		 cmp	 esi, esp
  00079	e8 00 00 00 00	 call	 __RTC_CheckEsp

; 114  : 	}

  0007e	52		 push	 edx
  0007f	8b cd		 mov	 ecx, ebp
  00081	50		 push	 eax
  00082	8d 15 00 00 00
	00		 lea	 edx, DWORD PTR $LN5@drawSphere
  00088	e8 00 00 00 00	 call	 @_RTC_CheckStackVars@8
  0008d	58		 pop	 eax
  0008e	5a		 pop	 edx
  0008f	5f		 pop	 edi
  00090	5e		 pop	 esi
  00091	8b 4d fc	 mov	 ecx, DWORD PTR __$ArrayPad$[ebp]
  00094	33 cd		 xor	 ecx, ebp
  00096	e8 00 00 00 00	 call	 @__security_check_cookie@4
  0009b	8b e5		 mov	 esp, ebp
  0009d	5d		 pop	 ebp
  0009e	8b e3		 mov	 esp, ebx
  000a0	5b		 pop	 ebx
  000a1	c2 0c 00	 ret	 12			; 0000000cH
$LN5@drawSphere:
  000a4	01 00 00 00	 DD	 1
  000a8	00 00 00 00	 DD	 $LN4@drawSphere
$LN4@drawSphere:
  000ac	b0 ff ff ff	 DD	 -80			; ffffffb0H
  000b0	40 00 00 00	 DD	 64			; 00000040H
  000b4	00 00 00 00	 DD	 $LN3@drawSphere
$LN3@drawSphere:
  000b8	74		 DB	 116			; 00000074H
  000b9	72		 DB	 114			; 00000072H
  000ba	00		 DB	 0
?drawSphere@btIDebugDraw@@UAEXABVbtVector3@@M0@Z ENDP	; btIDebugDraw::drawSphere
_TEXT	ENDS
; Function compile flags: /Odtp /RTCsu
; File e:\fusion3d_work\lib\bullet3\include\linearmath\btidebugdraw.h
;	COMDAT ?drawTriangle@btIDebugDraw@@UAEXABVbtVector3@@000000M@Z
_TEXT	SEGMENT
_this$ = -4						; size = 4
_v0$ = 8						; size = 4
_v1$ = 12						; size = 4
_v2$ = 16						; size = 4
___formal$ = 20						; size = 4
___formal$ = 24						; size = 4
___formal$ = 28						; size = 4
_color$ = 32						; size = 4
_alpha$ = 36						; size = 4
?drawTriangle@btIDebugDraw@@UAEXABVbtVector3@@000000M@Z PROC ; btIDebugDraw::drawTriangle, COMDAT
; _this$ = ecx

; 117  : 	{

  00000	55		 push	 ebp
  00001	8b ec		 mov	 ebp, esp
  00003	51		 push	 ecx
  00004	56		 push	 esi
  00005	c7 45 fc cc cc
	cc cc		 mov	 DWORD PTR [ebp-4], -858993460 ; ccccccccH
  0000c	89 4d fc	 mov	 DWORD PTR _this$[ebp], ecx

; 118  : 		drawTriangle(v0,v1,v2,color,alpha);

  0000f	8b f4		 mov	 esi, esp
  00011	51		 push	 ecx
  00012	f3 0f 10 45 24	 movss	 xmm0, DWORD PTR _alpha$[ebp]
  00017	f3 0f 11 04 24	 movss	 DWORD PTR [esp], xmm0
  0001c	8b 45 20	 mov	 eax, DWORD PTR _color$[ebp]
  0001f	50		 push	 eax
  00020	8b 4d 10	 mov	 ecx, DWORD PTR _v2$[ebp]
  00023	51		 push	 ecx
  00024	8b 55 0c	 mov	 edx, DWORD PTR _v1$[ebp]
  00027	52		 push	 edx
  00028	8b 45 08	 mov	 eax, DWORD PTR _v0$[ebp]
  0002b	50		 push	 eax
  0002c	8b 4d fc	 mov	 ecx, DWORD PTR _this$[ebp]
  0002f	8b 11		 mov	 edx, DWORD PTR [ecx]
  00031	8b 4d fc	 mov	 ecx, DWORD PTR _this$[ebp]
  00034	8b 42 1c	 mov	 eax, DWORD PTR [edx+28]
  00037	ff d0		 call	 eax
  00039	3b f4		 cmp	 esi, esp
  0003b	e8 00 00 00 00	 call	 __RTC_CheckEsp

; 119  : 	}

  00040	5e		 pop	 esi
  00041	83 c4 04	 add	 esp, 4
  00044	3b ec		 cmp	 ebp, esp
  00046	e8 00 00 00 00	 call	 __RTC_CheckEsp
  0004b	8b e5		 mov	 esp, ebp
  0004d	5d		 pop	 ebp
  0004e	c2 20 00	 ret	 32			; 00000020H
?drawTriangle@btIDebugDraw@@UAEXABVbtVector3@@000000M@Z ENDP ; btIDebugDraw::drawTriangle
_TEXT	ENDS
; Function compile flags: /Odtp /RTCsu
; File e:\fusion3d_work\lib\bullet3\include\linearmath\btidebugdraw.h
;	COMDAT ?drawTriangle@btIDebugDraw@@UAEXABVbtVector3@@000M@Z
_TEXT	SEGMENT
_this$ = -4						; size = 4
_v0$ = 8						; size = 4
_v1$ = 12						; size = 4
_v2$ = 16						; size = 4
_color$ = 20						; size = 4
___formal$ = 24						; size = 4
?drawTriangle@btIDebugDraw@@UAEXABVbtVector3@@000M@Z PROC ; btIDebugDraw::drawTriangle, COMDAT
; _this$ = ecx

; 121  : 	{

  00000	55		 push	 ebp
  00001	8b ec		 mov	 ebp, esp
  00003	51		 push	 ecx
  00004	56		 push	 esi
  00005	c7 45 fc cc cc
	cc cc		 mov	 DWORD PTR [ebp-4], -858993460 ; ccccccccH
  0000c	89 4d fc	 mov	 DWORD PTR _this$[ebp], ecx

; 122  : 		drawLine(v0,v1,color);

  0000f	8b f4		 mov	 esi, esp
  00011	8b 45 14	 mov	 eax, DWORD PTR _color$[ebp]
  00014	50		 push	 eax
  00015	8b 4d 0c	 mov	 ecx, DWORD PTR _v1$[ebp]
  00018	51		 push	 ecx
  00019	8b 55 08	 mov	 edx, DWORD PTR _v0$[ebp]
  0001c	52		 push	 edx
  0001d	8b 45 fc	 mov	 eax, DWORD PTR _this$[ebp]
  00020	8b 10		 mov	 edx, DWORD PTR [eax]
  00022	8b 4d fc	 mov	 ecx, DWORD PTR _this$[ebp]
  00025	8b 42 10	 mov	 eax, DWORD PTR [edx+16]
  00028	ff d0		 call	 eax
  0002a	3b f4		 cmp	 esi, esp
  0002c	e8 00 00 00 00	 call	 __RTC_CheckEsp

; 123  : 		drawLine(v1,v2,color);

  00031	8b f4		 mov	 esi, esp
  00033	8b 4d 14	 mov	 ecx, DWORD PTR _color$[ebp]
  00036	51		 push	 ecx
  00037	8b 55 10	 mov	 edx, DWORD PTR _v2$[ebp]
  0003a	52		 push	 edx
  0003b	8b 45 0c	 mov	 eax, DWORD PTR _v1$[ebp]
  0003e	50		 push	 eax
  0003f	8b 4d fc	 mov	 ecx, DWORD PTR _this$[ebp]
  00042	8b 11		 mov	 edx, DWORD PTR [ecx]
  00044	8b 4d fc	 mov	 ecx, DWORD PTR _this$[ebp]
  00047	8b 42 10	 mov	 eax, DWORD PTR [edx+16]
  0004a	ff d0		 call	 eax
  0004c	3b f4		 cmp	 esi, esp
  0004e	e8 00 00 00 00	 call	 __RTC_CheckEsp

; 124  : 		drawLine(v2,v0,color);

  00053	8b f4		 mov	 esi, esp
  00055	8b 4d 14	 mov	 ecx, DWORD PTR _color$[ebp]
  00058	51		 push	 ecx
  00059	8b 55 08	 mov	 edx, DWORD PTR _v0$[ebp]
  0005c	52		 push	 edx
  0005d	8b 45 10	 mov	 eax, DWORD PTR _v2$[ebp]
  00060	50		 push	 eax
  00061	8b 4d fc	 mov	 ecx, DWORD PTR _this$[ebp]
  00064	8b 11		 mov	 edx, DWORD PTR [ecx]
  00066	8b 4d fc	 mov	 ecx, DWORD PTR _this$[ebp]
  00069	8b 42 10	 mov	 eax, DWORD PTR [edx+16]
  0006c	ff d0		 call	 eax
  0006e	3b f4		 cmp	 esi, esp
  00070	e8 00 00 00 00	 call	 __RTC_CheckEsp

; 125  : 	}

  00075	5e		 pop	 esi
  00076	83 c4 04	 add	 esp, 4
  00079	3b ec		 cmp	 ebp, esp
  0007b	e8 00 00 00 00	 call	 __RTC_CheckEsp
  00080	8b e5		 mov	 esp, ebp
  00082	5d		 pop	 ebp
  00083	c2 14 00	 ret	 20			; 00000014H
?drawTriangle@btIDebugDraw@@UAEXABVbtVector3@@000M@Z ENDP ; btIDebugDraw::drawTriangle
_TEXT	ENDS
; Function compile flags: /Odtp /RTCsu
; File e:\fusion3d_work\lib\bullet3\include\linearmath\btidebugdraw.h
;	COMDAT ?drawAabb@btIDebugDraw@@UAEXABVbtVector3@@00@Z
_TEXT	SEGMENT
tv214 = -368						; size = 4
tv160 = -364						; size = 4
$T1 = -360						; size = 4
$T2 = -356						; size = 4
$T3 = -352						; size = 4
$T4 = -348						; size = 4
$T5 = -344						; size = 4
$T6 = -340						; size = 4
$T7 = -336						; size = 4
$T8 = -332						; size = 4
$T9 = -328						; size = 4
$T10 = -324						; size = 4
$T11 = -320						; size = 4
$T12 = -316						; size = 4
$T13 = -312						; size = 4
$T14 = -308						; size = 4
$T15 = -304						; size = 16
$T16 = -288						; size = 16
_othercoord$17 = -260					; size = 4
$T18 = -256						; size = 16
_pb$ = -224						; size = 16
_pa$ = -192						; size = 16
_edgecoord$ = -160					; size = 16
_j$ = -136						; size = 4
_i$ = -132						; size = 4
$T19 = -128						; size = 16
_center$ = -96						; size = 16
$T20 = -64						; size = 16
_halfExtents$ = -32					; size = 16
_this$ = -4						; size = 4
_from$ = 8						; size = 4
_to$ = 12						; size = 4
_color$ = 16						; size = 4
?drawAabb@btIDebugDraw@@UAEXABVbtVector3@@00@Z PROC	; btIDebugDraw::drawAabb, COMDAT
; _this$ = ecx

; 138  : 	{

  00000	53		 push	 ebx
  00001	8b dc		 mov	 ebx, esp
  00003	83 ec 08	 sub	 esp, 8
  00006	83 e4 f0	 and	 esp, -16		; fffffff0H
  00009	83 c4 04	 add	 esp, 4
  0000c	55		 push	 ebp
  0000d	8b 6b 04	 mov	 ebp, DWORD PTR [ebx+4]
  00010	89 6c 24 04	 mov	 DWORD PTR [esp+4], ebp
  00014	8b ec		 mov	 ebp, esp
  00016	81 ec 78 01 00
	00		 sub	 esp, 376		; 00000178H
  0001c	56		 push	 esi
  0001d	57		 push	 edi
  0001e	51		 push	 ecx
  0001f	8d bd 88 fe ff
	ff		 lea	 edi, DWORD PTR [ebp-376]
  00025	b9 5e 00 00 00	 mov	 ecx, 94			; 0000005eH
  0002a	b8 cc cc cc cc	 mov	 eax, -858993460		; ccccccccH
  0002f	f3 ab		 rep stosd
  00031	59		 pop	 ecx
  00032	89 4d fc	 mov	 DWORD PTR _this$[ebp], ecx

; 139  : 
; 140  : 		btVector3 halfExtents = (to-from)* 0.5f;

  00035	f3 0f 10 05 00
	00 00 00	 movss	 xmm0, DWORD PTR __real@3f000000
  0003d	f3 0f 11 85 cc
	fe ff ff	 movss	 DWORD PTR $T14[ebp], xmm0
  00045	8d 85 cc fe ff
	ff		 lea	 eax, DWORD PTR $T14[ebp]
  0004b	50		 push	 eax
  0004c	8b 4b 08	 mov	 ecx, DWORD PTR _from$[ebx]
  0004f	51		 push	 ecx
  00050	8b 53 0c	 mov	 edx, DWORD PTR _to$[ebx]
  00053	52		 push	 edx
  00054	8d 45 c0	 lea	 eax, DWORD PTR $T20[ebp]
  00057	50		 push	 eax
  00058	e8 00 00 00 00	 call	 ??G@YA?AVbtVector3@@ABV0@0@Z ; operator-
  0005d	83 c4 0c	 add	 esp, 12			; 0000000cH
  00060	50		 push	 eax
  00061	8d 4d e0	 lea	 ecx, DWORD PTR _halfExtents$[ebp]
  00064	51		 push	 ecx
  00065	e8 00 00 00 00	 call	 ??D@YA?AVbtVector3@@ABV0@ABM@Z ; operator*
  0006a	83 c4 0c	 add	 esp, 12			; 0000000cH

; 141  : 		btVector3 center = (to+from) *0.5f;

  0006d	f3 0f 10 05 00
	00 00 00	 movss	 xmm0, DWORD PTR __real@3f000000
  00075	f3 0f 11 85 c8
	fe ff ff	 movss	 DWORD PTR $T13[ebp], xmm0
  0007d	8d 95 c8 fe ff
	ff		 lea	 edx, DWORD PTR $T13[ebp]
  00083	52		 push	 edx
  00084	8b 43 08	 mov	 eax, DWORD PTR _from$[ebx]
  00087	50		 push	 eax
  00088	8b 4b 0c	 mov	 ecx, DWORD PTR _to$[ebx]
  0008b	51		 push	 ecx
  0008c	8d 55 80	 lea	 edx, DWORD PTR $T19[ebp]
  0008f	52		 push	 edx
  00090	e8 00 00 00 00	 call	 ??H@YA?AVbtVector3@@ABV0@0@Z ; operator+
  00095	83 c4 0c	 add	 esp, 12			; 0000000cH
  00098	50		 push	 eax
  00099	8d 45 a0	 lea	 eax, DWORD PTR _center$[ebp]
  0009c	50		 push	 eax
  0009d	e8 00 00 00 00	 call	 ??D@YA?AVbtVector3@@ABV0@ABM@Z ; operator*
  000a2	83 c4 0c	 add	 esp, 12			; 0000000cH

; 142  : 		int i,j;
; 143  : 
; 144  : 		btVector3 edgecoord(1.f,1.f,1.f),pa,pb;

  000a5	f3 0f 10 05 00
	00 00 00	 movss	 xmm0, DWORD PTR __real@3f800000
  000ad	f3 0f 11 85 c4
	fe ff ff	 movss	 DWORD PTR $T12[ebp], xmm0
  000b5	f3 0f 10 05 00
	00 00 00	 movss	 xmm0, DWORD PTR __real@3f800000
  000bd	f3 0f 11 85 c0
	fe ff ff	 movss	 DWORD PTR $T11[ebp], xmm0
  000c5	f3 0f 10 05 00
