; Listing generated by Microsoft (R) Optimizing Compiler Version 19.00.23506.0 

	TITLE	e:\fusion3d_work\engine\src\staticlibs\stb_image.c
	.686P
	.XMM
	include listing.inc
	.model	flat

INCLUDELIB OLDNAMES

PUBLIC	?stbi_png_partial@@3HA				; stbi_png_partial
EXTRN	__imp__feof:PROC
EXTRN	__imp__free:PROC
EXTRN	__imp__ldexp:PROC
EXTRN	__imp__strtol:PROC
EXTRN	__imp__strcmp:PROC
EXTRN	__imp__realloc:PROC
EXTRN	__imp__fopen:PROC
EXTRN	___report_rangecheckfailure:PROC
EXTRN	__imp__abs:PROC
EXTRN	__imp__malloc:PROC
EXTRN	__imp__pow:PROC
EXTRN	__imp___lrotl:PROC
?stbi_png_partial@@3HA DD 01H DUP (?)			; stbi_png_partial
?stbi_de_iphone_flag@@3HA DD 01H DUP (?)		; stbi_de_iphone_flag
?stbi_unpremultiply_on_load@@3HA DD 01H DUP (?)		; stbi_unpremultiply_on_load
_BSS	ENDS
;	COMDAT ?png_sig@?1??check_png_header@@YAHPAUstbi@@@Z@4PAEA
_DATA	SEGMENT
?png_sig@?1??check_png_header@@YAHPAUstbi@@@Z@4PAEA DB 089H ; `check_png_header'::`2'::png_sig
	DB	050H
	DB	04eH
	DB	047H
	DB	0dH
	DB	0aH
	DB	01aH
	DB	0aH
_DATA	ENDS
;	COMDAT ?invalid_chunk@?IB@??parse_png_file@@YAHPAUpng@@HH@Z@4PADA
_DATA	SEGMENT
?invalid_chunk@?IB@??parse_png_file@@YAHPAUpng@@HH@Z@4PADA DB 'XXXX chunk'
	DB	' not known', 00H				; `parse_png_file'[::B]::invalid_chunk
_DATA	ENDS
;	COMDAT ?length_dezigzag@?1??compute_huffman_codes@@YAHPAUzbuf@@@Z@4PAEA
_DATA	SEGMENT
?length_dezigzag@?1??compute_huffman_codes@@YAHPAUzbuf@@@Z@4PAEA DB 010H ; `compute_huffman_codes'::`2'::length_dezigzag
	DB	011H
	DB	012H
	DB	00H
	DB	08H
	DB	07H
	DB	09H
	DB	06H
	DB	0aH
	DB	05H
	DB	0bH
	DB	04H
	DB	0cH
	DB	03H
	DB	0dH
	DB	02H
	DB	0eH
	DB	01H
	DB	0fH
	ORG $+3
?h2l_gamma_i@@3MA DD 03ee8ba2er			; 0.454545 ; h2l_gamma_i
?stbi_stdio_callbacks@@3Ustbi_io_callbacks@@A DD FLAT:?stdio_read@@YAHPAXPADH@Z ; stbi_stdio_callbacks
	DD	FLAT:?stdio_skip@@YAXPAXI@Z
	DD	FLAT:?stdio_eof@@YAHPAX@Z
?l2h_scale@@3MA DD 03f800000r			; 1	; l2h_scale
?dist_base@@3PAHA DD 01H				; dist_base
	DD	02H
	DD	03H
	DD	04H
	DD	05H
	DD	07H
	DD	09H
	DD	0dH
	DD	011H
	DD	019H
	DD	021H
	DD	031H
	DD	041H
	DD	061H
	DD	081H
	DD	0c1H
	DD	0101H
	DD	0181H
	DD	0201H
	DD	0301H
	DD	0401H
	DD	0601H
	DD	0801H
	DD	0c01H
	DD	01001H
	DD	01801H
	DD	02001H
	DD	03001H
	DD	04001H
	DD	06001H
	DD	00H
	DD	00H
?length_extra@@3PAHA DD 00H				; length_extra
	DD	00H
	DD	00H
	DD	00H
	DD	00H
	DD	00H
	DD	00H
	DD	00H
	DD	01H
	DD	01H
	DD	01H
	DD	01H
	DD	02H
	DD	02H
	DD	02H
	DD	02H
	DD	03H
	DD	03H
	DD	03H
	DD	03H
	DD	04H
	DD	04H
	DD	04H
	DD	04H
	DD	05H
	DD	05H
	DD	05H
	DD	05H
	DD	00H
	DD	00H
	DD	00H
?first_row_filter@@3PAEA DB 00H				; first_row_filter
	DB	01H
	DB	00H
	DB	05H
	DB	06H
	ORG $+3
?h2l_scale_i@@3MA DD 03f800000r			; 1	; h2l_scale_i
?bmask@@3PAIA DD 00H					; bmask
	DD	01H
	DD	03H
	DD	07H
	DD	0fH
	DD	01fH
	DD	03fH
	DD	07fH
	DD	0ffH
	DD	01ffH
	DD	03ffH
	DD	07ffH
	DD	0fffH
	DD	01fffH
	DD	03fffH
	DD	07fffH
	DD	0ffffH
?l2h_gamma@@3MA DD 0400ccccdr			; 2.2	; l2h_gamma
?dist_extra@@3PAHA DD 00H				; dist_extra
	DD	00H
	DD	00H
	DD	00H
	DD	01H
	DD	01H
	DD	02H
	DD	02H
	DD	03H
	DD	03H
	DD	04H
	DD	04H
	DD	05H
	DD	05H
	DD	06H
	DD	06H
	DD	07H
	DD	07H
	DD	08H
	DD	08H
	DD	09H
	DD	09H
	DD	0aH
	DD	0aH
	DD	0bH
	DD	0bH
	DD	0cH
	DD	0cH
	DD	0dH
	DD	0dH
	ORG $+8
?length_base@@3PAHA DD 03H				; length_base
	DD	04H
	DD	05H
	DD	06H
	DD	07H
	DD	08H
	DD	09H
	DD	0aH
	DD	0bH
	DD	0dH
	DD	0fH
	DD	011H
	DD	013H
	DD	017H
	DD	01bH
	DD	01fH
	DD	023H
	DD	02bH
	DD	033H
	DD	03bH
	DD	043H
	DD	053H
	DD	063H
	DD	073H
	DD	083H
	DD	0a3H
	DD	0c3H
	DD	0e3H
	DD	0102H
	DD	00H
	DD	00H
	ORG $+4
?dezigzag@@3PAEA DB 00H					; dezigzag
	DB	01H
	DB	08H
	DB	010H
	DB	09H
	DB	02H
	DB	03H
	DB	0aH
	DB	011H
	DB	018H
	DB	020H
	DB	019H
	DB	012H
	DB	0bH
	DB	04H
	DB	05H
	DB	0cH
	DB	013H
	DB	01aH
	DB	021H
	DB	028H
	DB	030H
	DB	029H
	DB	022H
	DB	01bH
	DB	014H
	DB	0dH
	DB	06H
	DB	07H
	DB	0eH
	DB	015H
	DB	01cH
	DB	023H
	DB	02aH
	DB	031H
	DB	038H
	DB	039H
	DB	032H
	DB	02bH
	DB	024H
	DB	01dH
	DB	016H
	DB	0fH
	DB	017H
	DB	01eH
	DB	025H
	DB	02cH
	DB	033H
	DB	03aH
	DB	03bH
	DB	034H
	DB	02dH
	DB	026H
	DB	01fH
	DB	027H
	DB	02eH
	DB	035H
	DB	03cH
	DB	03dH
	DB	036H
	DB	02fH
	DB	037H
	DB	03eH
	DB	03fH
	DB	03fH
	DB	03fH
	DB	03fH
	DB	03fH
	DB	03fH
	DB	03fH
	DB	03fH
	DB	03fH
	DB	03fH
	DB	03fH
	DB	03fH
	DB	03fH
	DB	03fH
	DB	03fH
	DB	03fH
$SG4294820121 DB 00H
	ORG $+3
$SG4294820277 DB 'rb', 00H
	ORG $+1
$SG4294820276 DB 'can''t fopen', 00H
$SG4294820278 DB 'unknown image type', 00H
	ORG $+1
$SG4294820273 DB 'can''t fopen', 00H
$SG4294820272 DB 'rb', 00H
	ORG $+1
$SG4294820275 DB 'unknown image type', 00H
	ORG $+1
$SG4294820274 DB 'rb', 00H
	ORG $+1
$SG4294820269 DB 'outofmem', 00H
	ORG $+3
$SG4294820268 DB 's', 00H, 'r', 00H, 'c', 00H, '\', 00H, 's', 00H, 't', 00H
	DB	'a', 00H, 't', 00H, 'i', 00H, 'c', 00H, 'L', 00H, 'i', 00H, 'b'
	DB	00H, 's', 00H, '\', 00H, 's', 00H, 't', 00H, 'b', 00H, '_', 00H
	DB	'i', 00H, 'm', 00H, 'a', 00H, 'g', 00H, 'e', 00H, '.', 00H, 'c'
	DB	00H, 00H, 00H
	ORG $+2
$SG4294820271 DB 's', 00H, 'r', 00H, 'c', 00H, '\', 00H, 's', 00H, 't', 00H
	DB	'a', 00H, 't', 00H, 'i', 00H, 'c', 00H, 'L', 00H, 'i', 00H, 'b'
	DB	00H, 's', 00H, '\', 00H, 's', 00H, 't', 00H, 'b', 00H, '_', 00H
	DB	'i', 00H, 'm', 00H, 'a', 00H, 'g', 00H, 'e', 00H, '.', 00H, 'c'
	DB	00H, 00H, 00H
	ORG $+2
$SG4294820270 DB 'r', 00H, 'e', 00H, 'q', 00H, '_', 00H, 'c', 00H, 'o', 00H
	DB	'm', 00H, 'p', 00H, ' ', 00H, '>', 00H, '=', 00H, ' ', 00H, '1'
	DB	00H, ' ', 00H, '&', 00H, '&', 00H, ' ', 00H, 'r', 00H, 'e', 00H
	DB	'q', 00H, '_', 00H, 'c', 00H, 'o', 00H, 'm', 00H, 'p', 00H, ' '
	DB	00H, '<', 00H, '=', 00H, ' ', 00H, '4', 00H, 00H, 00H
	ORG $+2
$SG4294820265 DB 'outofmem', 00H
	ORG $+3
$SG4294820264 DB 'bad code lengths', 00H
	ORG $+3
$SG4294820267 DB '0', 00H, 00H, 00H
$SG4294820266 DB 'outofmem', 00H
	ORG $+3
$SG4294820261 DB 'bad huffman code', 00H
	ORG $+3
$SG4294820260 DB 'bad huffman code', 00H
	ORG $+3
$SG4294820263 DB 's', 00H, 'r', 00H, 'c', 00H, '\', 00H, 's', 00H, 't', 00H
	DB	'a', 00H, 't', 00H, 'i', 00H, 'c', 00H, 'L', 00H, 'i', 00H, 'b'
	DB	00H, 's', 00H, '\', 00H, 's', 00H, 't', 00H, 'b', 00H, '_', 00H
	DB	'i', 00H, 'm', 00H, 'a', 00H, 'g', 00H, 'e', 00H, '.', 00H, 'c'
	DB	00H, 00H, 00H
	ORG $+2
$SG4294820257 DB 'bad DRI len', 00H
$SG4294820262 DB '(', 00H, '(', 00H, '(', 00H, 'j', 00H, '-', 00H, '>', 00H
	DB	'c', 00H, 'o', 00H, 'd', 00H, 'e', 00H, '_', 00H, 'b', 00H, 'u'
	DB	00H, 'f', 00H, 'f', 00H, 'e', 00H, 'r', 00H, ')', 00H, ' ', 00H
	DB	'>', 00H, '>', 00H, ' ', 00H, '(', 00H, '3', 00H, '2', 00H, ' '
	DB	00H, '-', 00H, ' ', 00H, 'h', 00H, '-', 00H, '>', 00H, 's', 00H
	DB	'i', 00H, 'z', 00H, 'e', 00H, '[', 00H, 'c', 00H, ']', 00H, ')'
	DB	00H, ')', 00H, ' ', 00H, '&', 00H, ' ', 00H, 'b', 00H, 'm', 00H
	DB	'a', 00H, 's', 00H, 'k', 00H, '[', 00H, 'h', 00H, '-', 00H, '>'
	DB	00H, 's', 00H, 'i', 00H, 'z', 00H, 'e', 00H, '[', 00H, 'c', 00H
	DB	']', 00H, ']', 00H, ')', 00H, ' ', 00H, '=', 00H, '=', 00H, ' '
	DB	00H, 'h', 00H, '-', 00H, '>', 00H, 'c', 00H, 'o', 00H, 'd', 00H
	DB	'e', 00H, '[', 00H, 'c', 00H, ']', 00H, 00H, 00H
$SG4294820256 DB 'bad DQT type', 00H
	ORG $+3
$SG4294820259 DB 'expected marker', 00H
$SG4294820258 DB 'progressive jpeg', 00H
	ORG $+3
$SG4294820253 DB 'bad SOS component count', 00H
$SG4294820252 DB 'bad SOS len', 00H
$SG4294820255 DB 'bad DQT table', 00H
	ORG $+2
$SG4294820254 DB 'bad DHT header', 00H
	ORG $+1
$SG4294820249 DB 'bad SOS', 00H
$SG4294820248 DB 'bad SOS', 00H
$SG4294820251 DB 'bad DC huff', 00H
$SG4294820250 DB 'bad AC huff', 00H
$SG4294820245 DB 'no header height', 00H
	ORG $+3
$SG4294820244 DB '0 width', 00H
$SG4294820247 DB 'bad SOF len', 00H
$SG4294820246 DB 'only 8-bit', 00H
	ORG $+1
$SG4294820241 DB 'bad component ID', 00H
	ORG $+3
$SG4294820240 DB 'bad H', 00H
	ORG $+2
$SG4294820243 DB 'bad component count', 00H
$SG4294820242 DB 'bad SOF len', 00H
$SG4294820237 DB 'too large', 00H
	ORG $+2
$SG4294820236 DB 'outofmem', 00H
	ORG $+3
$SG4294820239 DB 'bad V', 00H
	ORG $+2
$SG4294820238 DB 'bad TQ', 00H
	ORG $+1
$SG4294820233 DB 'bad req_comp', 00H
	ORG $+3
$SG4294820232 DB 'outofmem', 00H
	ORG $+3
$SG4294820235 DB 'no SOI', 00H
	ORG $+1
$SG4294820234 DB 'no SOF', 00H
	ORG $+1
$SG4294820229 DB 'b', 00H, 'i', 00H, 't', 00H, 's', 00H, ' ', 00H, '<', 00H
	DB	'=', 00H, ' ', 00H, '1', 00H, '6', 00H, 00H, 00H
	ORG $+2
$SG4294820228 DB 's', 00H, 'r', 00H, 'c', 00H, '\', 00H, 's', 00H, 't', 00H
	DB	'a', 00H, 't', 00H, 'i', 00H, 'c', 00H, 'L', 00H, 'i', 00H, 'b'
	DB	00H, 's', 00H, '\', 00H, 's', 00H, 't', 00H, 'b', 00H, '_', 00H
	DB	'i', 00H, 'm', 00H, 'a', 00H, 'g', 00H, 'e', 00H, '.', 00H, 'c'
	DB	00H, 00H, 00H
	ORG $+2
$SG4294820231 DB 'outofmem', 00H
	ORG $+3
$SG4294820230 DB 's', 00H, 'r', 00H, 'c', 00H, '\', 00H, 's', 00H, 't', 00H
	DB	'a', 00H, 't', 00H, 'i', 00H, 'c', 00H, 'L', 00H, 'i', 00H, 'b'
	DB	00H, 's', 00H, '\', 00H, 's', 00H, 't', 00H, 'b', 00H, '_', 00H
	DB	'i', 00H, 'm', 00H, 'a', 00H, 'g', 00H, 'e', 00H, '.', 00H, 'c'
	DB	00H, 00H, 00H
	ORG $+2
$SG4294820225 DB 's', 00H, 'r', 00H, 'c', 00H, '\', 00H, 's', 00H, 't', 00H
	DB	'a', 00H, 't', 00H, 'i', 00H, 'c', 00H, 'L', 00H, 'i', 00H, 'b'
	DB	00H, 's', 00H, '\', 00H, 's', 00H, 't', 00H, 'b', 00H, '_', 00H
	DB	'i', 00H, 'm', 00H, 'a', 00H, 'g', 00H, 'e', 00H, '.', 00H, 'c'
	DB	00H, 00H, 00H
	ORG $+2
$SG4294820224 DB 'z', 00H, '-', 00H, '>', 00H, 'c', 00H, 'o', 00H, 'd', 00H
	DB	'e', 00H, '_', 00H, 'b', 00H, 'u', 00H, 'f', 00H, 'f', 00H, 'e'
	DB	00H, 'r', 00H, ' ', 00H, '<', 00H, ' ', 00H, '(', 00H, '1', 00H
	DB	'U', 00H, ' ', 00H, '<', 00H, '<', 00H, ' ', 00H, 'z', 00H, '-'
	DB	00H, '>', 00H, 'n', 00H, 'u', 00H, 'm', 00H, '_', 00H, 'b', 00H
	DB	'i', 00H, 't', 00H, 's', 00H, ')', 00H, 00H, 00H
	ORG $+2
$SG4294820227 DB 's', 00H, 'i', 00H, 'z', 00H, 'e', 00H, 's', 00H, '[', 00H
	DB	'i', 00H, ']', 00H, ' ', 00H, '<', 00H, '=', 00H, ' ', 00H, '('
	DB	00H, '1', 00H, ' ', 00H, '<', 00H, '<', 00H, ' ', 00H, 'i', 00H
	DB	')', 00H, 00H, 00H
	ORG $+2
$SG4294820226 DB 'bad codelengths', 00H
$SG4294820221 DB 'output buffer limit', 00H
$SG4294820220 DB 'outofmem', 00H
	ORG $+3
$SG4294820223 DB 's', 00H, 'r', 00H, 'c', 00H, '\', 00H, 's', 00H, 't', 00H
	DB	'a', 00H, 't', 00H, 'i', 00H, 'c', 00H, 'L', 00H, 'i', 00H, 'b'
	DB	00H, 's', 00H, '\', 00H, 's', 00H, 't', 00H, 'b', 00H, '_', 00H
	DB	'i', 00H, 'm', 00H, 'a', 00H, 'g', 00H, 'e', 00H, '.', 00H, 'c'
	DB	00H, 00H, 00H
	ORG $+2
$SG4294820222 DB 'z', 00H, '-', 00H, '>', 00H, 's', 00H, 'i', 00H, 'z', 00H
	DB	'e', 00H, '[', 00H, 'b', 00H, ']', 00H, ' ', 00H, '=', 00H, '='
	DB	00H, ' ', 00H, 's', 00H, 00H, 00H
$SG4294820217 DB 'bad dist', 00H
	ORG $+3
$SG4294820216 DB 's', 00H, 'r', 00H, 'c', 00H, '\', 00H, 's', 00H, 't', 00H
	DB	'a', 00H, 't', 00H, 'i', 00H, 'c', 00H, 'L', 00H, 'i', 00H, 'b'
	DB	00H, 's', 00H, '\', 00H, 's', 00H, 't', 00H, 'b', 00H, '_', 00H
	DB	'i', 00H, 'm', 00H, 'a', 00H, 'g', 00H, 'e', 00H, '.', 00H, 'c'
	DB	00H, 00H, 00H
	ORG $+2
$SG4294820219 DB 'bad huffman code', 00H
	ORG $+3
$SG4294820218 DB 'bad huffman code', 00H
	ORG $+3
$SG4294820213 DB 'c', 00H, ' ', 00H, '=', 00H, '=', 00H, ' ', 00H, '1', 00H
	DB	'8', 00H, 00H, 00H
$SG4294820212 DB 'bad codelengths', 00H
$SG4294820215 DB 'c', 00H, ' ', 00H, '>', 00H, '=', 00H, ' ', 00H, '0', 00H
	DB	' ', 00H, '&', 00H, '&', 00H, ' ', 00H, 'c', 00H, ' ', 00H, '<'
	DB	00H, ' ', 00H, '1', 00H, '9', 00H, 00H, 00H
	ORG $+2
$SG4294820214 DB 's', 00H, 'r', 00H, 'c', 00H, '\', 00H, 's', 00H, 't', 00H
	DB	'a', 00H, 't', 00H, 'i', 00H, 'c', 00H, 'L', 00H, 'i', 00H, 'b'
	DB	00H, 's', 00H, '\', 00H, 's', 00H, 't', 00H, 'b', 00H, '_', 00H
	DB	'i', 00H, 'm', 00H, 'a', 00H, 'g', 00H, 'e', 00H, '.', 00H, 'c'
	DB	00H, 00H, 00H
	ORG $+2
$SG4294820209 DB 'zlib corrupt', 00H
	ORG $+3
$SG4294820208 DB 'read past buffer', 00H
	ORG $+3
$SG4294820211 DB 's', 00H, 'r', 00H, 'c', 00H, '\', 00H, 's', 00H, 't', 00H
	DB	'a', 00H, 't', 00H, 'i', 00H, 'c', 00H, 'L', 00H, 'i', 00H, 'b'
	DB	00H, 's', 00H, '\', 00H, 's', 00H, 't', 00H, 'b', 00H, '_', 00H
	DB	'i', 00H, 'm', 00H, 'a', 00H, 'g', 00H, 'e', 00H, '.', 00H, 'c'
	DB	00H, 00H, 00H
	ORG $+2
$SG4294820210 DB 'a', 00H, '-', 00H, '>', 00H, 'n', 00H, 'u', 00H, 'm', 00H
	DB	'_', 00H, 'b', 00H, 'i', 00H, 't', 00H, 's', 00H, ' ', 00H, '='
	DB	00H, '=', 00H, ' ', 00H, '0', 00H, 00H, 00H
	ORG $+2
$SG4294820205 DB 'bad compression', 00H
$SG4294820204 DB 'bad png sig', 00H
$SG4294820207 DB 'bad zlib header', 00H
$SG4294820206 DB 'no preset dict', 00H
	ORG $+1
$SG4294820201 DB 'outofmem', 00H
	ORG $+3
$SG4294820200 DB 'not enough pixels', 00H
	ORG $+2
$SG4294820203 DB 's', 00H, 'r', 00H, 'c', 00H, '\', 00H, 's', 00H, 't', 00H
	DB	'a', 00H, 't', 00H, 'i', 00H, 'c', 00H, 'L', 00H, 'i', 00H, 'b'
	DB	00H, 's', 00H, '\', 00H, 's', 00H, 't', 00H, 'b', 00H, '_', 00H
	DB	'i', 00H, 'm', 00H, 'a', 00H, 'g', 00H, 'e', 00H, '.', 00H, 'c'
	DB	00H, 00H, 00H
	ORG $+2
$SG4294820196 DB 'i', 00H, 'm', 00H, 'g', 00H, '_', 00H, 'n', 00H, '+', 00H
	DB	'1', 00H, ' ', 00H, '=', 00H, '=', 00H, ' ', 00H, 'o', 00H, 'u'
	DB	00H, 't', 00H, '_', 00H, 'n', 00H, 00H, 00H
	ORG $+2
$SG4294820202 DB 'o', 00H, 'u', 00H, 't', 00H, '_', 00H, 'n', 00H, ' ', 00H
	DB	'=', 00H, '=', 00H, ' ', 00H, 's', 00H, '-', 00H, '>', 00H, 'i'
	DB	00H, 'm', 00H, 'g', 00H, '_', 00H, 'n', 00H, ' ', 00H, '|', 00H
	DB	'|', 00H, ' ', 00H, 'o', 00H, 'u', 00H, 't', 00H, '_', 00H, 'n'
	DB	00H, ' ', 00H, '=', 00H, '=', 00H, ' ', 00H, 's', 00H, '-', 00H
	DB	'>', 00H, 'i', 00H, 'm', 00H, 'g', 00H, '_', 00H, 'n', 00H, '+'
	DB	00H, '1', 00H, 00H, 00H
	ORG $+2
$SG4294820197 DB 's', 00H, 'r', 00H, 'c', 00H, '\', 00H, 's', 00H, 't', 00H
	DB	'a', 00H, 't', 00H, 'i', 00H, 'c', 00H, 'L', 00H, 'i', 00H, 'b'
	DB	00H, 's', 00H, '\', 00H, 's', 00H, 't', 00H, 'b', 00H, '_', 00H
	DB	'i', 00H, 'm', 00H, 'a', 00H, 'g', 00H, 'e', 00H, '.', 00H, 'c'
	DB	00H, 00H, 00H
	ORG $+2
$SG4294820199 DB 'not enough pixels', 00H
	ORG $+2
$SG4294820198 DB 'invalid filter', 00H
	ORG $+1
$SG4294820193 DB 'outofmem', 00H
	ORG $+3
$SG4294820192 DB 's', 00H, 'r', 00H, 'c', 00H, '\', 00H, 's', 00H, 't', 00H
	DB	'a', 00H, 't', 00H, 'i', 00H, 'c', 00H, 'L', 00H, 'i', 00H, 'b'
	DB	00H, 's', 00H, '\', 00H, 's', 00H, 't', 00H, 'b', 00H, '_', 00H
	DB	'i', 00H, 'm', 00H, 'a', 00H, 'g', 00H, 'e', 00H, '.', 00H, 'c'
	DB	00H, 00H, 00H
	ORG $+2
$SG4294820195 DB 's', 00H, 'r', 00H, 'c', 00H, '\', 00H, 's', 00H, 't', 00H
	DB	'a', 00H, 't', 00H, 'i', 00H, 'c', 00H, 'L', 00H, 'i', 00H, 'b'
	DB	00H, 's', 00H, '\', 00H, 's', 00H, 't', 00H, 'b', 00H, '_', 00H
	DB	'i', 00H, 'm', 00H, 'a', 00H, 'g', 00H, 'e', 00H, '.', 00H, 'c'
	DB	00H, 00H, 00H
	ORG $+2
$SG4294820194 DB 'o', 00H, 'u', 00H, 't', 00H, '_', 00H, 'n', 00H, ' ', 00H
	DB	'=', 00H, '=', 00H, ' ', 00H, '2', 00H, ' ', 00H, '|', 00H, '|'
	DB	00H, ' ', 00H, 'o', 00H, 'u', 00H, 't', 00H, '_', 00H, 'n', 00H
	DB	' ', 00H, '=', 00H, '=', 00H, ' ', 00H, '4', 00H, 00H, 00H
	ORG $+2
$SG4294820189 DB 'bad IHDR len', 00H
	ORG $+3
$SG4294820188 DB 'too large', 00H
	ORG $+2
$SG4294820191 DB 's', 00H, '-', 00H, '>', 00H, 'i', 00H, 'm', 00H, 'g', 00H
	DB	'_', 00H, 'o', 00H, 'u', 00H, 't', 00H, '_', 00H, 'n', 00H, ' '
	DB	00H, '=', 00H, '=', 00H, ' ', 00H, '4', 00H, 00H, 00H
$SG4294820190 DB 'multiple IHDR', 00H
	ORG $+2
$SG4294820185 DB 'bad ctype', 00H
	ORG $+2
$SG4294820184 DB 'bad ctype', 00H
	ORG $+2
$SG4294820187 DB 'too large', 00H
	ORG $+2
$SG4294820186 DB '8bit only', 00H
	ORG $+2
$SG4294820181 DB 'bad interlace method', 00H
	ORG $+3
$SG4294820180 DB '0-pixel image', 00H
	ORG $+2
$SG4294820183 DB 'bad comp method', 00H
$SG4294820182 DB 'bad filter method', 00H
	ORG $+2
$SG4294820177 DB 'first not IHDR', 00H
	ORG $+1
$SG4294820176 DB 'invalid PLTE', 00H
	ORG $+3
$SG4294820179 DB 'too large', 00H
	ORG $+2
$SG4294820178 DB 'too large', 00H
	ORG $+2
$SG4294820173 DB 'tRNS after IDAT', 00H
$SG4294820172 DB 'tRNS before PLTE', 00H
	ORG $+3
$SG4294820175 DB 'invalid PLTE', 00H
	ORG $+3
$SG4294820174 DB 'first not IHDR', 00H
	ORG $+1
$SG4294820169 DB 'bad tRNS len', 00H
	ORG $+3
$SG4294820168 DB 'first not IHDR', 00H
	ORG $+1
$SG4294820171 DB 'bad tRNS len', 00H
	ORG $+3
$SG4294820170 DB 'tRNS with alpha', 00H
$SG4294820165 DB 'outofdata', 00H
	ORG $+2
$SG4294820164 DB 'first not IHDR', 00H
	ORG $+1
$SG4294820167 DB 'no PLTE', 00H
$SG4294820166 DB 'outofmem', 00H
	ORG $+3
$SG4294820161 DB 'bad req_comp', 00H
	ORG $+3
$SG4294820160 DB 'not BMP', 00H
$SG4294820163 DB 'no IDAT', 00H
$SG4294820162 DB 'first not IHDR', 00H
	ORG $+1
$SG4294820157 DB 'monochrome', 00H
	ORG $+1
$SG4294820156 DB 'BMP RLE', 00H
$SG4294820159 DB 'unknown BMP', 00H
$SG4294820158 DB 'bad BMP', 00H
$SG4294820153 DB 's', 00H, 'r', 00H, 'c', 00H, '\', 00H, 's', 00H, 't', 00H
	DB	'a', 00H, 't', 00H, 'i', 00H, 'c', 00H, 'L', 00H, 'i', 00H, 'b'
	DB	00H, 's', 00H, '\', 00H, 's', 00H, 't', 00H, 'b', 00H, '_', 00H
	DB	'i', 00H, 'm', 00H, 'a', 00H, 'g', 00H, 'e', 00H, '.', 00H, 'c'
	DB	00H, 00H, 00H
	ORG $+2
$SG4294820152 DB 'h', 00H, 's', 00H, 'z', 00H, ' ', 00H, '=', 00H, '=', 00H
	DB	' ', 00H, '1', 00H, '0', 00H, '8', 00H, 00H, 00H
	ORG $+2
$SG4294820155 DB 'bad BMP', 00H
$SG4294820154 DB 'bad BMP', 00H
$SG4294820149 DB 'bad bpp', 00H
$SG4294820148 DB 'bad masks', 00H
	ORG $+2
$SG4294820151 DB 'outofmem', 00H
	ORG $+3
$SG4294820150 DB 'invalid', 00H
$SG4294820145 DB 'bad palette', 00H
$SG4294820144 DB 'not PSD', 00H
$SG4294820147 DB 'outofmem', 00H
	ORG $+3
$SG4294820146 DB 'outofmem', 00H
	ORG $+3
$SG4294820141 DB 'unsupported bit depth', 00H
	ORG $+2
$SG4294820140 DB 'wrong color format', 00H
	ORG $+1
$SG4294820143 DB 'wrong version', 00H
	ORG $+2
$SG4294820142 DB 'wrong channel count', 00H
$SG4294820137 DB 'S', 080H, 0f6H, '4', 00H
	ORG $+3
$SG4294820136 DB 'PICT', 00H
	ORG $+3
$SG4294820139 DB 'bad compression', 00H
$SG4294820138 DB 'outofmem', 00H
	ORG $+3
$SG4294820133 DB 'bad file', 00H
	ORG $+3
$SG4294820132 DB 'bad format', 00H
	ORG $+1
$SG4294820135 DB 'bad file', 00H
	ORG $+3
$SG4294820134 DB 'bad format', 00H
	ORG $+1
$SG4294820129 DB 'bad file', 00H
	ORG $+3
$SG4294820128 DB 'bad file', 00H
	ORG $+3
$SG4294820131 DB 'bad format', 00H
	ORG $+1
$SG4294820130 DB 'bad file', 00H
	ORG $+3
$SG4294820125 DB 'too large', 00H
	ORG $+2
$SG4294820124 DB 'not GIF', 00H
$SG4294820127 DB 'bad file', 00H
	ORG $+3
$SG4294820126 DB 'bad file', 00H
	ORG $+3
$SG4294820120 DB 'no clear code', 00H
	ORG $+2
$SG4294820123 DB 'not GIF', 00H
$SG4294820122 DB 'not GIF', 00H
$SG4294820117 DB 'illegal code in raster', 00H
	ORG $+1
$SG4294820116 DB 'outofmem', 00H
	ORG $+3
$SG4294820119 DB 'too many codes', 00H
	ORG $+1
$SG4294820118 DB 'illegal code in raster', 00H
	ORG $+1
$SG4294820113 DB 'missing color table', 00H
$SG4294820112 DB 'unknown code', 00H
	ORG $+3
$SG4294820115 DB 'outofmem', 00H
	ORG $+3
$SG4294820114 DB 'bad Image Descriptor', 00H
	ORG $+3
$SG4294820109 DB 'not HDR', 00H
$SG4294820108 DB 'FORMAT=32-bit_rle_rgbe', 00H
	ORG $+1
$SG4294820111 DB '#?RADIANCE', 0aH, 00H
$SG4294820110 DB '#?RADIANCE', 00H
	ORG $+1
$SG4294820105 DB 'unsupported data layout', 00H
$SG4294820104 DB '+X ', 00H
$SG4294820107 DB 'unsupported format', 00H
	ORG $+1
$SG4294820106 DB '-Y ', 00H
$SG4294820101 DB '#?RADIANCE', 00H
	ORG $+1
$SG4294820100 DB 'FORMAT=32-bit_rle_rgbe', 00H
	ORG $+1
$SG4294820103 DB 'unsupported data layout', 00H
$SG4294820102 DB 'invalid decoded scanline length', 00H
$SG4294820097 DB 'unknown image type', 00H
	ORG $+1
$SG4294820096 DB 'rb', 00H
	ORG $+1
$SG4294820099 DB '-Y ', 00H
$SG4294820098 DB '+X ', 00H
$SG4294820095 DB 'can''t fopen', 00H
PUBLIC	_stbi_info_from_callbacks
PUBLIC	_stbi_info_from_memory
PUBLIC	_stbi_info_from_file
PUBLIC	_stbi_info
PUBLIC	_stbi_convert_iphone_png_to_rgb
PUBLIC	_stbi_set_unpremultiply_on_load
PUBLIC	_stbi_zlib_decode_noheader_buffer
PUBLIC	_stbi_zlib_decode_noheader_malloc
PUBLIC	_stbi_zlib_decode_buffer
PUBLIC	?stbi_zlib_decode_malloc_guesssize_headerflag@@YAPADPBDHHPAHH@Z ; stbi_zlib_decode_malloc_guesssize_headerflag
PUBLIC	_stbi_zlib_decode_malloc
PUBLIC	_stbi_zlib_decode_malloc_guesssize
PUBLIC	_stbi_ldr_to_hdr_scale
PUBLIC	_stbi_ldr_to_hdr_gamma
PUBLIC	_stbi_hdr_to_ldr_scale
PUBLIC	_stbi_hdr_to_ldr_gamma
PUBLIC	_stbi_is_hdr_from_callbacks
PUBLIC	_stbi_is_hdr_from_file
PUBLIC	_stbi_is_hdr
PUBLIC	_stbi_is_hdr_from_memory
PUBLIC	_stbi_loadf_from_file
PUBLIC	_stbi_loadf
PUBLIC	_stbi_loadf_from_callbacks
PUBLIC	_stbi_loadf_from_memory
PUBLIC	?stbi_loadf_main@@YAPAMPAUstbi@@PAH11H@Z	; stbi_loadf_main
PUBLIC	_stbi_load_from_callbacks
PUBLIC	_stbi_load_from_memory
PUBLIC	_stbi_load_from_file
PUBLIC	_stbi_failure_reason
PUBLIC	_stbi_load
PUBLIC	_stbi_image_free
?failure_reason@@3PBDB DD 01H DUP (?)			; failure_reason
?default_distance@@3PAEA DB 020H DUP (?)		; default_distance
?default_length@@3PAEA DB 0120H DUP (?)			; default_length
_BSS	ENDS
; Function compile flags: /Odtp /RTCsu
; File e:\fusion3d_work\engine\src\staticlibs\stb_image.c
_TEXT	SEGMENT
_retval_from_stbi_load$ = 8				; size = 4
_stbi_image_free PROC

; 286  : {

  00000	55		 push	 ebp
  00001	8b ec		 mov	 ebp, esp
  00003	56		 push	 esi

; 287  :    free(retval_from_stbi_load);

  00004	8b f4		 mov	 esi, esp
  00006	8b 45 08	 mov	 eax, DWORD PTR _retval_from_stbi_load$[ebp]
  00009	50		 push	 eax
  0000a	ff 15 00 00 00
	00		 call	 DWORD PTR __imp__free
  00010	83 c4 04	 add	 esp, 4
  00013	3b f4		 cmp	 esi, esp
  00015	e8 00 00 00 00	 call	 __RTC_CheckEsp

; 288  : }

  0001a	5e		 pop	 esi
  0001b	3b ec		 cmp	 ebp, esp
  0001d	e8 00 00 00 00	 call	 __RTC_CheckEsp
  00022	5d		 pop	 ebp
  00023	c3		 ret	 0
_stbi_image_free ENDP
_TEXT	ENDS
; Function compile flags: /Odtp /RTCsu
; File e:\fusion3d_work\engine\src\staticlibs\stb_image.c
_TEXT	SEGMENT
tv71 = -12						; size = 4
_result$ = -8						; size = 4
_f$ = -4						; size = 4
_filename$ = 8						; size = 4
_x$ = 12						; size = 4
_y$ = 16						; size = 4
_comp$ = 20						; size = 4
_req_comp$ = 24						; size = 4
_stbi_load PROC

; 319  : {

  00000	55		 push	 ebp
  00001	8b ec		 mov	 ebp, esp
  00003	83 ec 0c	 sub	 esp, 12			; 0000000cH
  00006	56		 push	 esi
  00007	c7 45 f4 cc cc
	cc cc		 mov	 DWORD PTR [ebp-12], -858993460 ; ccccccccH
  0000e	c7 45 f8 cc cc
	cc cc		 mov	 DWORD PTR [ebp-8], -858993460 ; ccccccccH
  00015	c7 45 fc cc cc
	cc cc		 mov	 DWORD PTR [ebp-4], -858993460 ; ccccccccH

; 320  :    FILE *f = fopen(filename, "rb");

  0001c	8b f4		 mov	 esi, esp
  0001e	68 00 00 00 00	 push	 OFFSET $SG4294820277
  00023	8b 45 08	 mov	 eax, DWORD PTR _filename$[ebp]
  00026	50		 push	 eax
  00027	ff 15 00 00 00
	00		 call	 DWORD PTR __imp__fopen
  0002d	83 c4 08	 add	 esp, 8
  00030	3b f4		 cmp	 esi, esp
  00032	e8 00 00 00 00	 call	 __RTC_CheckEsp
  00037	89 45 fc	 mov	 DWORD PTR _f$[ebp], eax

; 321  :    unsigned char *result;
; 322  :    if (!f) return epuc("can't fopen", "Unable to open file");

  0003a	83 7d fc 00	 cmp	 DWORD PTR _f$[ebp], 0
  0003e	75 26		 jne	 SHORT $LN2@stbi_load
  00040	68 00 00 00 00	 push	 OFFSET $SG4294820276
  00045	e8 00 00 00 00	 call	 ?e@@YAHPBD@Z		; e
  0004a	83 c4 04	 add	 esp, 4
  0004d	85 c0		 test	 eax, eax
  0004f	74 09		 je	 SHORT $LN4@stbi_load
  00051	c7 45 f4 00 00
	00 00		 mov	 DWORD PTR tv71[ebp], 0
  00058	eb 07		 jmp	 SHORT $LN5@stbi_load
$LN4@stbi_load:
  0005a	c7 45 f4 00 00
	00 00		 mov	 DWORD PTR tv71[ebp], 0
$LN5@stbi_load:
  00061	8b 45 f4	 mov	 eax, DWORD PTR tv71[ebp]
  00064	eb 38		 jmp	 SHORT $LN1@stbi_load
$LN2@stbi_load:

; 323  :    result = stbi_load_from_file(f,x,y,comp,req_comp);

  00066	8b 4d 18	 mov	 ecx, DWORD PTR _req_comp$[ebp]
  00069	51		 push	 ecx
  0006a	8b 55 14	 mov	 edx, DWORD PTR _comp$[ebp]
  0006d	52		 push	 edx
  0006e	8b 45 10	 mov	 eax, DWORD PTR _y$[ebp]
  00071	50		 push	 eax
  00072	8b 4d 0c	 mov	 ecx, DWORD PTR _x$[ebp]
  00075	51		 push	 ecx
  00076	8b 55 fc	 mov	 edx, DWORD PTR _f$[ebp]
  00079	52		 push	 edx
  0007a	e8 00 00 00 00	 call	 _stbi_load_from_file
  0007f	83 c4 14	 add	 esp, 20			; 00000014H
  00082	89 45 f8	 mov	 DWORD PTR _result$[ebp], eax

; 324  :    fclose(f);

  00085	8b f4		 mov	 esi, esp
  00087	8b 45 fc	 mov	 eax, DWORD PTR _f$[ebp]
  0008a	50		 push	 eax
  0008b	ff 15 00 00 00
	00		 call	 DWORD PTR __imp__fclose
  00091	83 c4 04	 add	 esp, 4
  00094	3b f4		 cmp	 esi, esp
  00096	e8 00 00 00 00	 call	 __RTC_CheckEsp

; 325  :    return result;

  0009b	8b 45 f8	 mov	 eax, DWORD PTR _result$[ebp]
$LN1@stbi_load:

; 326  : }

  0009e	5e		 pop	 esi
  0009f	83 c4 0c	 add	 esp, 12			; 0000000cH
  000a2	3b ec		 cmp	 ebp, esp
  000a4	e8 00 00 00 00	 call	 __RTC_CheckEsp
  000a9	8b e5		 mov	 esp, ebp
  000ab	5d		 pop	 ebp
  000ac	c3		 ret	 0
_stbi_load ENDP
_TEXT	ENDS
; Function compile flags: /Odtp /RTCsu
; File e:\fusion3d_work\engine\src\staticlibs\stb_image.c
_TEXT	SEGMENT
_s$ = 8							; size = 4
_buffer$ = 12						; size = 4
_len$ = 16						; size = 4
?start_mem@@YAXPAUstbi@@PBEH@Z PROC			; start_mem

; 175  : {

  00000	55		 push	 ebp
  00001	8b ec		 mov	 ebp, esp

; 176  :    s->io.read = NULL;

  00003	8b 45 08	 mov	 eax, DWORD PTR _s$[ebp]
  00006	c7 40 10 00 00
	00 00		 mov	 DWORD PTR [eax+16], 0

; 177  :    s->read_from_callbacks = 0;

  0000d	8b 4d 08	 mov	 ecx, DWORD PTR _s$[ebp]
  00010	c7 41 20 00 00
	00 00		 mov	 DWORD PTR [ecx+32], 0

; 178  :    s->img_buffer = s->img_buffer_original = (uint8 *) buffer;

  00017	8b 55 08	 mov	 edx, DWORD PTR _s$[ebp]
  0001a	8b 45 0c	 mov	 eax, DWORD PTR _buffer$[ebp]
  0001d	89 82 b0 00 00
	00		 mov	 DWORD PTR [edx+176], eax
  00023	8b 4d 08	 mov	 ecx, DWORD PTR _s$[ebp]
  00026	8b 55 0c	 mov	 edx, DWORD PTR _buffer$[ebp]
  00029	89 91 a8 00 00
	00		 mov	 DWORD PTR [ecx+168], edx

; 179  :    s->img_buffer_end = (uint8 *) buffer+len;

  0002f	8b 45 0c	 mov	 eax, DWORD PTR _buffer$[ebp]
  00032	03 45 10	 add	 eax, DWORD PTR _len$[ebp]
  00035	8b 4d 08	 mov	 ecx, DWORD PTR _s$[ebp]
  00038	89 81 ac 00 00
	00		 mov	 DWORD PTR [ecx+172], eax

; 180  : }

  0003e	5d		 pop	 ebp
  0003f	c3		 ret	 0
?start_mem@@YAXPAUstbi@@PBEH@Z ENDP			; start_mem
_TEXT	ENDS
; Function compile flags: /Odtp /RTCsu
; File e:\fusion3d_work\engine\src\staticlibs\stb_image.c
_TEXT	SEGMENT
_s$ = 8							; size = 4
_c$ = 12						; size = 4
_user$ = 16						; size = 4
?start_callbacks@@YAXPAUstbi@@PAUstbi_io_callbacks@@PAX@Z PROC ; start_callbacks

; 184  : {

  00000	55		 push	 ebp
  00001	8b ec		 mov	 ebp, esp

; 185  :    s->io = *c;

  00003	8b 45 08	 mov	 eax, DWORD PTR _s$[ebp]
  00006	83 c0 10	 add	 eax, 16			; 00000010H
  00009	8b 4d 0c	 mov	 ecx, DWORD PTR _c$[ebp]
  0000c	8b 11		 mov	 edx, DWORD PTR [ecx]
  0000e	89 10		 mov	 DWORD PTR [eax], edx
  00010	8b 51 04	 mov	 edx, DWORD PTR [ecx+4]
  00013	89 50 04	 mov	 DWORD PTR [eax+4], edx
  00016	8b 49 08	 mov	 ecx, DWORD PTR [ecx+8]
  00019	89 48 08	 mov	 DWORD PTR [eax+8], ecx

; 186  :    s->io_user_data = user;

  0001c	8b 55 08	 mov	 edx, DWORD PTR _s$[ebp]
  0001f	8b 45 10	 mov	 eax, DWORD PTR _user$[ebp]
  00022	89 42 1c	 mov	 DWORD PTR [edx+28], eax

; 187  :    s->buflen = sizeof(s->buffer_start);

  00025	8b 4d 08	 mov	 ecx, DWORD PTR _s$[ebp]
  00028	c7 41 24 80 00
	00 00		 mov	 DWORD PTR [ecx+36], 128	; 00000080H

; 188  :    s->read_from_callbacks = 1;

  0002f	8b 55 08	 mov	 edx, DWORD PTR _s$[ebp]
  00032	c7 42 20 01 00
	00 00		 mov	 DWORD PTR [edx+32], 1

; 189  :    s->img_buffer_original = s->buffer_start;

  00039	8b 45 08	 mov	 eax, DWORD PTR _s$[ebp]
  0003c	83 c0 28	 add	 eax, 40			; 00000028H
  0003f	8b 4d 08	 mov	 ecx, DWORD PTR _s$[ebp]
  00042	89 81 b0 00 00
	00		 mov	 DWORD PTR [ecx+176], eax

; 190  :    refill_buffer(s);

  00048	8b 55 08	 mov	 edx, DWORD PTR _s$[ebp]
  0004b	52		 push	 edx
  0004c	e8 00 00 00 00	 call	 ?refill_buffer@@YAXPAUstbi@@@Z ; refill_buffer
  00051	83 c4 04	 add	 esp, 4

; 191  : }

  00054	3b ec		 cmp	 ebp, esp
  00056	e8 00 00 00 00	 call	 __RTC_CheckEsp
  0005b	5d		 pop	 ebp
  0005c	c3		 ret	 0
?start_callbacks@@YAXPAUstbi@@PAUstbi_io_callbacks@@PAX@Z ENDP ; start_callbacks
_TEXT	ENDS
; Function compile flags: /Odtp /RTCsu
; File e:\fusion3d_work\engine\src\staticlibs\stb_image.c
_TEXT	SEGMENT
_user$ = 8						; size = 4
_data$ = 12						; size = 4
_size$ = 16						; size = 4
?stdio_read@@YAHPAXPADH@Z PROC				; stdio_read

; 196  : {

  00000	55		 push	 ebp
  00001	8b ec		 mov	 ebp, esp
  00003	56		 push	 esi

; 197  :    return (int) fread(data,1,size,(FILE*) user);

  00004	8b f4		 mov	 esi, esp
  00006	8b 45 08	 mov	 eax, DWORD PTR _user$[ebp]
  00009	50		 push	 eax
  0000a	8b 4d 10	 mov	 ecx, DWORD PTR _size$[ebp]
  0000d	51		 push	 ecx
  0000e	6a 01		 push	 1
  00010	8b 55 0c	 mov	 edx, DWORD PTR _data$[ebp]
  00013	52		 push	 edx
  00014	ff 15 00 00 00
	00		 call	 DWORD PTR __imp__fread
  0001a	83 c4 10	 add	 esp, 16			; 00000010H
  0001d	3b f4		 cmp	 esi, esp
  0001f	e8 00 00 00 00	 call	 __RTC_CheckEsp

; 198  : }

  00024	5e		 pop	 esi
  00025	3b ec		 cmp	 ebp, esp
  00027	e8 00 00 00 00	 call	 __RTC_CheckEsp
  0002c	5d		 pop	 ebp
  0002d	c3		 ret	 0
?stdio_read@@YAHPAXPADH@Z ENDP				; stdio_read
_TEXT	ENDS
; Function compile flags: /Odtp /RTCsu
; File e:\fusion3d_work\engine\src\staticlibs\stb_image.c
_TEXT	SEGMENT
_user$ = 8						; size = 4
_n$ = 12						; size = 4
?stdio_skip@@YAXPAXI@Z PROC				; stdio_skip

; 201  : {

  00000	55		 push	 ebp
  00001	8b ec		 mov	 ebp, esp
  00003	56		 push	 esi

; 202  :    fseek((FILE*) user, n, SEEK_CUR);

  00004	8b f4		 mov	 esi, esp
  00006	6a 01		 push	 1
  00008	8b 45 0c	 mov	 eax, DWORD PTR _n$[ebp]
  0000b	50		 push	 eax
  0000c	8b 4d 08	 mov	 ecx, DWORD PTR _user$[ebp]
  0000f	51		 push	 ecx
  00010	ff 15 00 00 00
	00		 call	 DWORD PTR __imp__fseek
  00016	83 c4 0c	 add	 esp, 12			; 0000000cH
  00019	3b f4		 cmp	 esi, esp
  0001b	e8 00 00 00 00	 call	 __RTC_CheckEsp

; 203  : }

  00020	5e		 pop	 esi
  00021	3b ec		 cmp	 ebp, esp
  00023	e8 00 00 00 00	 call	 __RTC_CheckEsp
  00028	5d		 pop	 ebp
  00029	c3		 ret	 0
?stdio_skip@@YAXPAXI@Z ENDP				; stdio_skip
_TEXT	ENDS
; Function compile flags: /Odtp /RTCsu
; File e:\fusion3d_work\engine\src\staticlibs\stb_image.c
_TEXT	SEGMENT
_user$ = 8						; size = 4
?stdio_eof@@YAHPAX@Z PROC				; stdio_eof

; 206  : {

  00000	55		 push	 ebp
  00001	8b ec		 mov	 ebp, esp
  00003	56		 push	 esi

; 207  :    return feof((FILE*) user);

  00004	8b f4		 mov	 esi, esp
  00006	8b 45 08	 mov	 eax, DWORD PTR _user$[ebp]
  00009	50		 push	 eax
  0000a	ff 15 00 00 00
	00		 call	 DWORD PTR __imp__feof
  00010	83 c4 04	 add	 esp, 4
  00013	3b f4		 cmp	 esi, esp
  00015	e8 00 00 00 00	 call	 __RTC_CheckEsp

; 208  : }

  0001a	5e		 pop	 esi
  0001b	3b ec		 cmp	 ebp, esp
  0001d	e8 00 00 00 00	 call	 __RTC_CheckEsp
  00022	5d		 pop	 ebp
  00023	c3		 ret	 0
?stdio_eof@@YAHPAX@Z ENDP				; stdio_eof
_TEXT	ENDS
; Function compile flags: /Odtp /RTCsu
; File e:\fusion3d_work\engine\src\staticlibs\stb_image.c
_TEXT	SEGMENT
_s$ = 8							; size = 4
_f$ = 12						; size = 4
?start_file@@YAXPAUstbi@@PAU_iobuf@@@Z PROC		; start_file

; 218  : {

  00000	55		 push	 ebp
  00001	8b ec		 mov	 ebp, esp

; 219  :    start_callbacks(s, &stbi_stdio_callbacks, (void *) f);

  00003	8b 45 0c	 mov	 eax, DWORD PTR _f$[ebp]
  00006	50		 push	 eax
  00007	68 00 00 00 00	 push	 OFFSET ?stbi_stdio_callbacks@@3Ustbi_io_callbacks@@A
  0000c	8b 4d 08	 mov	 ecx, DWORD PTR _s$[ebp]
  0000f	51		 push	 ecx
  00010	e8 00 00 00 00	 call	 ?start_callbacks@@YAXPAUstbi@@PAUstbi_io_callbacks@@PAX@Z ; start_callbacks
  00015	83 c4 0c	 add	 esp, 12			; 0000000cH

; 220  : }

  00018	3b ec		 cmp	 ebp, esp
  0001a	e8 00 00 00 00	 call	 __RTC_CheckEsp
  0001f	5d		 pop	 ebp
  00020	c3		 ret	 0
?start_file@@YAXPAUstbi@@PAU_iobuf@@@Z ENDP		; start_file
_TEXT	ENDS
; Function compile flags: /Odtp /RTCsu
; File e:\fusion3d_work\engine\src\staticlibs\stb_image.c
_TEXT	SEGMENT
_s$ = 8							; size = 4
?stbi_rewind@@YAXPAUstbi@@@Z PROC			; stbi_rewind

; 227  : {

  00000	55		 push	 ebp
  00001	8b ec		 mov	 ebp, esp

; 228  :    // conceptually rewind SHOULD rewind to the beginning of the stream,
; 229  :    // but we just rewind to the beginning of the initial buffer, because
; 230  :    // we only use it after doing 'test', which only ever looks at at most 92 bytes
; 231  :    s->img_buffer = s->img_buffer_original;

  00003	8b 45 08	 mov	 eax, DWORD PTR _s$[ebp]
  00006	8b 4d 08	 mov	 ecx, DWORD PTR _s$[ebp]
  00009	8b 91 b0 00 00
	00		 mov	 edx, DWORD PTR [ecx+176]
  0000f	89 90 a8 00 00
	00		 mov	 DWORD PTR [eax+168], edx

; 232  : }

  00015	5d		 pop	 ebp
  00016	c3		 ret	 0
?stbi_rewind@@YAXPAUstbi@@@Z ENDP			; stbi_rewind
_TEXT	ENDS
; Function compile flags: /Odtp /RTCsu
; File e:\fusion3d_work\engine\src\staticlibs\stb_image.c
_TEXT	SEGMENT
_stbi_failure_reason PROC

; 260  : {

  00000	55		 push	 ebp
  00001	8b ec		 mov	 ebp, esp

; 261  :    return failure_reason;

  00003	a1 00 00 00 00	 mov	 eax, DWORD PTR ?failure_reason@@3PBDB

; 262  : }

  00008	5d		 pop	 ebp
  00009	c3		 ret	 0
_stbi_failure_reason ENDP
_TEXT	ENDS
; Function compile flags: /Odtp /RTCsu
; File e:\fusion3d_work\engine\src\staticlibs\stb_image.c
_TEXT	SEGMENT
_str$ = 8						; size = 4
?e@@YAHPBD@Z PROC					; e

; 265  : {

  00000	55		 push	 ebp
  00001	8b ec		 mov	 ebp, esp

; 266  :    failure_reason = str;

  00003	8b 45 08	 mov	 eax, DWORD PTR _str$[ebp]
  00006	a3 00 00 00 00	 mov	 DWORD PTR ?failure_reason@@3PBDB, eax

; 267  :    return 0;

  0000b	33 c0		 xor	 eax, eax

; 268  : }

  0000d	5d		 pop	 ebp
  0000e	c3		 ret	 0
?e@@YAHPBD@Z ENDP					; e
_TEXT	ENDS
; Function compile flags: /Odtp /RTCsu
; File e:\fusion3d_work\engine\src\staticlibs\stb_image.c
_TEXT	SEGMENT
tv178 = -12						; size = 4
tv161 = -8						; size = 4
_hdr$1 = -4						; size = 4
_s$ = 8							; size = 4
_x$ = 12						; size = 4
_y$ = 16						; size = 4
_comp$ = 20						; size = 4
_req_comp$ = 24						; size = 4
?stbi_load_main@@YAPAEPAUstbi@@PAH11H@Z PROC		; stbi_load_main

; 296  : {

  00000	55		 push	 ebp
  00001	8b ec		 mov	 ebp, esp
  00003	83 ec 0c	 sub	 esp, 12			; 0000000cH
  00006	c7 45 f4 cc cc
	cc cc		 mov	 DWORD PTR [ebp-12], -858993460 ; ccccccccH
  0000d	c7 45 f8 cc cc
	cc cc		 mov	 DWORD PTR [ebp-8], -858993460 ; ccccccccH
  00014	c7 45 fc cc cc
	cc cc		 mov	 DWORD PTR [ebp-4], -858993460 ; ccccccccH

; 297  :    if (stbi_jpeg_test(s)) return stbi_jpeg_load(s,x,y,comp,req_comp);

  0001b	8b 45 08	 mov	 eax, DWORD PTR _s$[ebp]
  0001e	50		 push	 eax
  0001f	e8 00 00 00 00	 call	 ?stbi_jpeg_test@@YAHPAUstbi@@@Z ; stbi_jpeg_test
  00024	83 c4 04	 add	 esp, 4
  00027	85 c0		 test	 eax, eax
  00029	74 21		 je	 SHORT $LN2@stbi_load_
  0002b	8b 4d 18	 mov	 ecx, DWORD PTR _req_comp$[ebp]
  0002e	51		 push	 ecx
  0002f	8b 55 14	 mov	 edx, DWORD PTR _comp$[ebp]
  00032	52		 push	 edx
  00033	8b 45 10	 mov	 eax, DWORD PTR _y$[ebp]
  00036	50		 push	 eax
  00037	8b 4d 0c	 mov	 ecx, DWORD PTR _x$[ebp]
  0003a	51		 push	 ecx
  0003b	8b 55 08	 mov	 edx, DWORD PTR _s$[ebp]
  0003e	52		 push	 edx
  0003f	e8 00 00 00 00	 call	 ?stbi_jpeg_load@@YAPAEPAUstbi@@PAH11H@Z ; stbi_jpeg_load
  00044	83 c4 14	 add	 esp, 20			; 00000014H
  00047	e9 aa 01 00 00	 jmp	 $LN1@stbi_load_
$LN2@stbi_load_:

; 298  :    if (stbi_png_test(s))  return stbi_png_load(s,x,y,comp,req_comp);

  0004c	8b 45 08	 mov	 eax, DWORD PTR _s$[ebp]
  0004f	50		 push	 eax
  00050	e8 00 00 00 00	 call	 ?stbi_png_test@@YAHPAUstbi@@@Z ; stbi_png_test
  00055	83 c4 04	 add	 esp, 4
  00058	85 c0		 test	 eax, eax
  0005a	74 21		 je	 SHORT $LN3@stbi_load_
  0005c	8b 4d 18	 mov	 ecx, DWORD PTR _req_comp$[ebp]
  0005f	51		 push	 ecx
  00060	8b 55 14	 mov	 edx, DWORD PTR _comp$[ebp]
  00063	52		 push	 edx
  00064	8b 45 10	 mov	 eax, DWORD PTR _y$[ebp]
  00067	50		 push	 eax
  00068	8b 4d 0c	 mov	 ecx, DWORD PTR _x$[ebp]
  0006b	51		 push	 ecx
  0006c	8b 55 08	 mov	 edx, DWORD PTR _s$[ebp]
  0006f	52		 push	 edx
  00070	e8 00 00 00 00	 call	 ?stbi_png_load@@YAPAEPAUstbi@@PAH11H@Z ; stbi_png_load
  00075	83 c4 14	 add	 esp, 20			; 00000014H
  00078	e9 79 01 00 00	 jmp	 $LN1@stbi_load_
$LN3@stbi_load_:

; 299  :    if (stbi_bmp_test(s))  return stbi_bmp_load(s,x,y,comp,req_comp);

  0007d	8b 45 08	 mov	 eax, DWORD PTR _s$[ebp]
  00080	50		 push	 eax
  00081	e8 00 00 00 00	 call	 ?stbi_bmp_test@@YAHPAUstbi@@@Z ; stbi_bmp_test
  00086	83 c4 04	 add	 esp, 4
  00089	85 c0		 test	 eax, eax
  0008b	74 21		 je	 SHORT $LN4@stbi_load_
  0008d	8b 4d 18	 mov	 ecx, DWORD PTR _req_comp$[ebp]
  00090	51		 push	 ecx
  00091	8b 55 14	 mov	 edx, DWORD PTR _comp$[ebp]
  00094	52		 push	 edx
  00095	8b 45 10	 mov	 eax, DWORD PTR _y$[ebp]
  00098	50		 push	 eax
  00099	8b 4d 0c	 mov	 ecx, DWORD PTR _x$[ebp]
  0009c	51		 push	 ecx
  0009d	8b 55 08	 mov	 edx, DWORD PTR _s$[ebp]
  000a0	52		 push	 edx
  000a1	e8 00 00 00 00	 call	 ?stbi_bmp_load@@YAPAEPAUstbi@@PAH11H@Z ; stbi_bmp_load
  000a6	83 c4 14	 add	 esp, 20			; 00000014H
  000a9	e9 48 01 00 00	 jmp	 $LN1@stbi_load_
$LN4@stbi_load_:

; 300  :    if (stbi_gif_test(s))  return stbi_gif_load(s,x,y,comp,req_comp);

  000ae	8b 45 08	 mov	 eax, DWORD PTR _s$[ebp]
  000b1	50		 push	 eax
  000b2	e8 00 00 00 00	 call	 ?stbi_gif_test@@YAHPAUstbi@@@Z ; stbi_gif_test
  000b7	83 c4 04	 add	 esp, 4
  000ba	85 c0		 test	 eax, eax
  000bc	74 21		 je	 SHORT $LN5@stbi_load_
  000be	8b 4d 18	 mov	 ecx, DWORD PTR _req_comp$[ebp]
  000c1	51		 push	 ecx
  000c2	8b 55 14	 mov	 edx, DWORD PTR _comp$[ebp]
  000c5	52		 push	 edx
  000c6	8b 45 10	 mov	 eax, DWORD PTR _y$[ebp]
  000c9	50		 push	 eax
  000ca	8b 4d 0c	 mov	 ecx, DWORD PTR _x$[ebp]
  000cd	51		 push	 ecx
  000ce	8b 55 08	 mov	 edx, DWORD PTR _s$[ebp]
  000d1	52		 push	 edx
  000d2	e8 00 00 00 00	 call	 ?stbi_gif_load@@YAPAEPAUstbi@@PAH11H@Z ; stbi_gif_load
  000d7	83 c4 14	 add	 esp, 20			; 00000014H
  000da	e9 17 01 00 00	 jmp	 $LN1@stbi_load_
$LN5@stbi_load_:

; 301  :    if (stbi_psd_test(s))  return stbi_psd_load(s,x,y,comp,req_comp);

  000df	8b 45 08	 mov	 eax, DWORD PTR _s$[ebp]
  000e2	50		 push	 eax
  000e3	e8 00 00 00 00	 call	 ?stbi_psd_test@@YAHPAUstbi@@@Z ; stbi_psd_test
  000e8	83 c4 04	 add	 esp, 4
  000eb	85 c0		 test	 eax, eax
  000ed	74 21		 je	 SHORT $LN6@stbi_load_
  000ef	8b 4d 18	 mov	 ecx, DWORD PTR _req_comp$[ebp]
  000f2	51		 push	 ecx
  000f3	8b 55 14	 mov	 edx, DWORD PTR _comp$[ebp]
  000f6	52		 push	 edx
  000f7	8b 45 10	 mov	 eax, DWORD PTR _y$[ebp]
  000fa	50		 push	 eax
  000fb	8b 4d 0c	 mov	 ecx, DWORD PTR _x$[ebp]
  000fe	51		 push	 ecx
  000ff	8b 55 08	 mov	 edx, DWORD PTR _s$[ebp]
  00102	52		 push	 edx
  00103	e8 00 00 00 00	 call	 ?stbi_psd_load@@YAPAEPAUstbi@@PAH11H@Z ; stbi_psd_load
  00108	83 c4 14	 add	 esp, 20			; 00000014H
  0010b	e9 e6 00 00 00	 jmp	 $LN1@stbi_load_
$LN6@stbi_load_:

; 302  :    if (stbi_pic_test(s))  return stbi_pic_load(s,x,y,comp,req_comp);

  00110	8b 45 08	 mov	 eax, DWORD PTR _s$[ebp]
  00113	50		 push	 eax
  00114	e8 00 00 00 00	 call	 ?stbi_pic_test@@YAHPAUstbi@@@Z ; stbi_pic_test
  00119	83 c4 04	 add	 esp, 4
  0011c	85 c0		 test	 eax, eax
  0011e	74 21		 je	 SHORT $LN7@stbi_load_
  00120	8b 4d 18	 mov	 ecx, DWORD PTR _req_comp$[ebp]
  00123	51		 push	 ecx
  00124	8b 55 14	 mov	 edx, DWORD PTR _comp$[ebp]
  00127	52		 push	 edx
  00128	8b 45 10	 mov	 eax, DWORD PTR _y$[ebp]
  0012b	50		 push	 eax
  0012c	8b 4d 0c	 mov	 ecx, DWORD PTR _x$[ebp]
  0012f	51		 push	 ecx
  00130	8b 55 08	 mov	 edx, DWORD PTR _s$[ebp]
  00133	52		 push	 edx
  00134	e8 00 00 00 00	 call	 ?stbi_pic_load@@YAPAEPAUstbi@@PAH11H@Z ; stbi_pic_load
  00139	83 c4 14	 add	 esp, 20			; 00000014H
  0013c	e9 b5 00 00 00	 jmp	 $LN1@stbi_load_
$LN7@stbi_load_:

; 303  : 
; 304  :    #ifndef STBI_NO_HDR
; 305  :    if (stbi_hdr_test(s)) {

  00141	8b 45 08	 mov	 eax, DWORD PTR _s$[ebp]
  00144	50		 push	 eax
  00145	e8 00 00 00 00	 call	 ?stbi_hdr_test@@YAHPAUstbi@@@Z ; stbi_hdr_test
  0014a	83 c4 04	 add	 esp, 4
  0014d	85 c0		 test	 eax, eax
  0014f	74 53		 je	 SHORT $LN8@stbi_load_

; 306  :       float *hdr = stbi_hdr_load(s, x,y,comp,req_comp);

  00151	8b 4d 18	 mov	 ecx, DWORD PTR _req_comp$[ebp]
  00154	51		 push	 ecx
  00155	8b 55 14	 mov	 edx, DWORD PTR _comp$[ebp]
  00158	52		 push	 edx
  00159	8b 45 10	 mov	 eax, DWORD PTR _y$[ebp]
  0015c	50		 push	 eax
  0015d	8b 4d 0c	 mov	 ecx, DWORD PTR _x$[ebp]
  00160	51		 push	 ecx
  00161	8b 55 08	 mov	 edx, DWORD PTR _s$[ebp]
  00164	52		 push	 edx
  00165	e8 00 00 00 00	 call	 ?stbi_hdr_load@@YAPAMPAUstbi@@PAH11H@Z ; stbi_hdr_load
  0016a	83 c4 14	 add	 esp, 20			; 00000014H
  0016d	89 45 fc	 mov	 DWORD PTR _hdr$1[ebp], eax

; 307  :       return hdr_to_ldr(hdr, *x, *y, req_comp ? req_comp : *comp);

  00170	83 7d 18 00	 cmp	 DWORD PTR _req_comp$[ebp], 0
  00174	74 08		 je	 SHORT $LN11@stbi_load_
  00176	8b 45 18	 mov	 eax, DWORD PTR _req_comp$[ebp]
  00179	89 45 f8	 mov	 DWORD PTR tv161[ebp], eax
  0017c	eb 08		 jmp	 SHORT $LN12@stbi_load_
$LN11@stbi_load_:
  0017e	8b 4d 14	 mov	 ecx, DWORD PTR _comp$[ebp]
  00181	8b 11		 mov	 edx, DWORD PTR [ecx]
  00183	89 55 f8	 mov	 DWORD PTR tv161[ebp], edx
$LN12@stbi_load_:
  00186	8b 45 f8	 mov	 eax, DWORD PTR tv161[ebp]
  00189	50		 push	 eax
  0018a	8b 4d 10	 mov	 ecx, DWORD PTR _y$[ebp]
  0018d	8b 11		 mov	 edx, DWORD PTR [ecx]
  0018f	52		 push	 edx
  00190	8b 45 0c	 mov	 eax, DWORD PTR _x$[ebp]
  00193	8b 08		 mov	 ecx, DWORD PTR [eax]
  00195	51		 push	 ecx
  00196	8b 55 fc	 mov	 edx, DWORD PTR _hdr$1[ebp]
  00199	52		 push	 edx
  0019a	e8 00 00 00 00	 call	 ?hdr_to_ldr@@YAPAEPAMHHH@Z ; hdr_to_ldr
  0019f	83 c4 10	 add	 esp, 16			; 00000010H
  001a2	eb 52		 jmp	 SHORT $LN1@stbi_load_
$LN8@stbi_load_:

; 308  :    }
; 309  :    #endif
; 310  : 
; 311  :    // test tga last because it's a crappy test!
; 312  :    if (stbi_tga_test(s))

  001a4	8b 45 08	 mov	 eax, DWORD PTR _s$[ebp]
  001a7	50		 push	 eax
  001a8	e8 00 00 00 00	 call	 ?stbi_tga_test@@YAHPAUstbi@@@Z ; stbi_tga_test
  001ad	83 c4 04	 add	 esp, 4
  001b0	85 c0		 test	 eax, eax
  001b2	74 1e		 je	 SHORT $LN9@stbi_load_

; 313  :       return stbi_tga_load(s,x,y,comp,req_comp);

  001b4	8b 4d 18	 mov	 ecx, DWORD PTR _req_comp$[ebp]
  001b7	51		 push	 ecx
  001b8	8b 55 14	 mov	 edx, DWORD PTR _comp$[ebp]
  001bb	52		 push	 edx
  001bc	8b 45 10	 mov	 eax, DWORD PTR _y$[ebp]
  001bf	50		 push	 eax
  001c0	8b 4d 0c	 mov	 ecx, DWORD PTR _x$[ebp]
  001c3	51		 push	 ecx
  001c4	8b 55 08	 mov	 edx, DWORD PTR _s$[ebp]
  001c7	52		 push	 edx
  001c8	e8 00 00 00 00	 call	 ?stbi_tga_load@@YAPAEPAUstbi@@PAH11H@Z ; stbi_tga_load
  001cd	83 c4 14	 add	 esp, 20			; 00000014H
  001d0	eb 24		 jmp	 SHORT $LN1@stbi_load_
$LN9@stbi_load_:

; 314  :    return epuc("unknown image type", "Image not of any known type, or corrupt");

  001d2	68 00 00 00 00	 push	 OFFSET $SG4294820278
  001d7	e8 00 00 00 00	 call	 ?e@@YAHPBD@Z		; e
  001dc	83 c4 04	 add	 esp, 4
  001df	85 c0		 test	 eax, eax
  001e1	74 09		 je	 SHORT $LN13@stbi_load_
  001e3	c7 45 f4 00 00
	00 00		 mov	 DWORD PTR tv178[ebp], 0
  001ea	eb 07		 jmp	 SHORT $LN14@stbi_load_
$LN13@stbi_load_:
  001ec	c7 45 f4 00 00
	00 00		 mov	 DWORD PTR tv178[ebp], 0
$LN14@stbi_load_:
  001f3	8b 45 f4	 mov	 eax, DWORD PTR tv178[ebp]
$LN1@stbi_load_:

; 315  : }

  001f6	83 c4 0c	 add	 esp, 12			; 0000000cH
  001f9	3b ec		 cmp	 ebp, esp
  001fb	e8 00 00 00 00	 call	 __RTC_CheckEsp
  00200	8b e5		 mov	 esp, ebp
  00202	5d		 pop	 ebp
  00203	c3		 ret	 0
?stbi_load_main@@YAPAEPAUstbi@@PAH11H@Z ENDP		; stbi_load_main
_TEXT	ENDS
; Function compile flags: /Odtp /RTCsu
; File e:\fusion3d_work\engine\src\staticlibs\stb_image.c
_TEXT	SEGMENT
_s$ = -188						; size = 180
__$ArrayPad$ = -4					; size = 4
_f$ = 8							; size = 4
_x$ = 12						; size = 4
_y$ = 16						; size = 4
_comp$ = 20						; size = 4
_req_comp$ = 24						; size = 4
_stbi_load_from_file PROC

; 329  : {

  00000	55		 push	 ebp
  00001	8b ec		 mov	 ebp, esp
  00003	81 ec c0 00 00
	00		 sub	 esp, 192		; 000000c0H
  00009	57		 push	 edi
  0000a	8d bd 40 ff ff
	ff		 lea	 edi, DWORD PTR [ebp-192]
  00010	b9 30 00 00 00	 mov	 ecx, 48			; 00000030H
  00015	b8 cc cc cc cc	 mov	 eax, -858993460		; ccccccccH
  0001a	f3 ab		 rep stosd
  0001c	a1 00 00 00 00	 mov	 eax, DWORD PTR ___security_cookie
  00021	33 c5		 xor	 eax, ebp
  00023	89 45 fc	 mov	 DWORD PTR __$ArrayPad$[ebp], eax

; 330  :    stbi s;
; 331  :    start_file(&s,f);

  00026	8b 45 08	 mov	 eax, DWORD PTR _f$[ebp]
  00029	50		 push	 eax
  0002a	8d 8d 44 ff ff
	ff		 lea	 ecx, DWORD PTR _s$[ebp]
  00030	51		 push	 ecx
  00031	e8 00 00 00 00	 call	 ?start_file@@YAXPAUstbi@@PAU_iobuf@@@Z ; start_file
  00036	83 c4 08	 add	 esp, 8

; 332  :    return stbi_load_main(&s,x,y,comp,req_comp);

  00039	8b 55 18	 mov	 edx, DWORD PTR _req_comp$[ebp]
  0003c	52		 push	 edx
  0003d	8b 45 14	 mov	 eax, DWORD PTR _comp$[ebp]
  00040	50		 push	 eax
  00041	8b 4d 10	 mov	 ecx, DWORD PTR _y$[ebp]
  00044	51		 push	 ecx
  00045	8b 55 0c	 mov	 edx, DWORD PTR _x$[ebp]
  00048	52		 push	 edx
  00049	8d 85 44 ff ff
	ff		 lea	 eax, DWORD PTR _s$[ebp]
  0004f	50		 push	 eax
  00050	e8 00 00 00 00	 call	 ?stbi_load_main@@YAPAEPAUstbi@@PAH11H@Z ; stbi_load_main
  00055	83 c4 14	 add	 esp, 20			; 00000014H

; 333  : }

  00058	52		 push	 edx
  00059	8b cd		 mov	 ecx, ebp
  0005b	50		 push	 eax
  0005c	8d 15 00 00 00
	00		 lea	 edx, DWORD PTR $LN5@stbi_load_
  00062	e8 00 00 00 00	 call	 @_RTC_CheckStackVars@8
  00067	58		 pop	 eax
  00068	5a		 pop	 edx
  00069	5f		 pop	 edi
  0006a	8b 4d fc	 mov	 ecx, DWORD PTR __$ArrayPad$[ebp]
  0006d	33 cd		 xor	 ecx, ebp
  0006f	e8 00 00 00 00	 call	 @__security_check_cookie@4
  00074	81 c4 c0 00 00
	00		 add	 esp, 192		; 000000c0H
  0007a	3b ec		 cmp	 ebp, esp
  0007c	e8 00 00 00 00	 call	 __RTC_CheckEsp
  00081	8b e5		 mov	 esp, ebp
  00083	5d		 pop	 ebp
  00084	c3		 ret	 0
  00085	0f 1f 00	 npad	 3
$LN5@stbi_load_:
  00088	01 00 00 00	 DD	 1
  0008c	00 00 00 00	 DD	 $LN4@stbi_load_
$LN4@stbi_load_:
  00090	44 ff ff ff	 DD	 -188			; ffffff44H
  00094	b4 00 00 00	 DD	 180			; 000000b4H
  00098	00 00 00 00	 DD	 $LN3@stbi_load_
$LN3@stbi_load_:
  0009c	73		 DB	 115			; 00000073H
  0009d	00		 DB	 0
_stbi_load_from_file ENDP
_TEXT	ENDS
; Function compile flags: /Odtp /RTCsu
; File e:\fusion3d_work\engine\src\staticlibs\stb_image.c
_TEXT	SEGMENT
_s$ = -188						; size = 180
__$ArrayPad$ = -4					; size = 4
_buffer$ = 8						; size = 4
_len$ = 12						; size = 4
_x$ = 16						; size = 4
_y$ = 20						; size = 4
_comp$ = 24						; size = 4
_req_comp$ = 28						; size = 4
_stbi_load_from_memory PROC

; 337  : {

  00000	55		 push	 ebp
  00001	8b ec		 mov	 ebp, esp
  00003	81 ec c0 00 00
	00		 sub	 esp, 192		; 000000c0H
  00009	57		 push	 edi
  0000a	8d bd 40 ff ff
	ff		 lea	 edi, DWORD PTR [ebp-192]
  00010	b9 30 00 00 00	 mov	 ecx, 48			; 00000030H
  00015	b8 cc cc cc cc	 mov	 eax, -858993460		; ccccccccH
  0001a	f3 ab		 rep stosd
  0001c	a1 00 00 00 00	 mov	 eax, DWORD PTR ___security_cookie
  00021	33 c5		 xor	 eax, ebp
  00023	89 45 fc	 mov	 DWORD PTR __$ArrayPad$[ebp], eax

; 338  :    stbi s;
; 339  :    start_mem(&s,buffer,len);

  00026	8b 45 0c	 mov	 eax, DWORD PTR _len$[ebp]
  00029	50		 push	 eax
  0002a	8b 4d 08	 mov	 ecx, DWORD PTR _buffer$[ebp]
  0002d	51		 push	 ecx
  0002e	8d 95 44 ff ff
	ff		 lea	 edx, DWORD PTR _s$[ebp]
  00034	52		 push	 edx
  00035	e8 00 00 00 00	 call	 ?start_mem@@YAXPAUstbi@@PBEH@Z ; start_mem
  0003a	83 c4 0c	 add	 esp, 12			; 0000000cH

; 340  :    return stbi_load_main(&s,x,y,comp,req_comp);

  0003d	8b 45 1c	 mov	 eax, DWORD PTR _req_comp$[ebp]
  00040	50		 push	 eax
  00041	8b 4d 18	 mov	 ecx, DWORD PTR _comp$[ebp]
  00044	51		 push	 ecx
  00045	8b 55 14	 mov	 edx, DWORD PTR _y$[ebp]
  00048	52		 push	 edx
  00049	8b 45 10	 mov	 eax, DWORD PTR _x$[ebp]
  0004c	50		 push	 eax
  0004d	8d 8d 44 ff ff
	ff		 lea	 ecx, DWORD PTR _s$[ebp]
  00053	51		 push	 ecx
  00054	e8 00 00 00 00	 call	 ?stbi_load_main@@YAPAEPAUstbi@@PAH11H@Z ; stbi_load_main
  00059	83 c4 14	 add	 esp, 20			; 00000014H

; 341  : }

  0005c	52		 push	 edx
  0005d	8b cd		 mov	 ecx, ebp
  0005f	50		 push	 eax
  00060	8d 15 00 00 00
	00		 lea	 edx, DWORD PTR $LN5@stbi_load_
  00066	e8 00 00 00 00	 call	 @_RTC_CheckStackVars@8
  0006b	58		 pop	 eax
  0006c	5a		 pop	 edx
  0006d	5f		 pop	 edi
  0006e	8b 4d fc	 mov	 ecx, DWORD PTR __$ArrayPad$[ebp]
  00071	33 cd		 xor	 ecx, ebp
  00073	e8 00 00 00 00	 call	 @__security_check_cookie@4
  00078	81 c4 c0 00 00
	00		 add	 esp, 192		; 000000c0H
  0007e	3b ec		 cmp	 ebp, esp
  00080	e8 00 00 00 00	 call	 __RTC_CheckEsp
  00085	8b e5		 mov	 esp, ebp
  00087	5d		 pop	 ebp
  00088	c3		 ret	 0
  00089	0f 1f 00	 npad	 3
$LN5@stbi_load_:
  0008c	01 00 00 00	 DD	 1
  00090	00 00 00 00	 DD	 $LN4@stbi_load_
$LN4@stbi_load_:
  00094	44 ff ff ff	 DD	 -188			; ffffff44H
  00098	b4 00 00 00	 DD	 180			; 000000b4H
  0009c	00 00 00 00	 DD	 $LN3@stbi_load_
$LN3@stbi_load_:
  000a0	73		 DB	 115			; 00000073H
  000a1	00		 DB	 0
_stbi_load_from_memory ENDP
_TEXT	ENDS
; Function compile flags: /Odtp /RTCsu
; File e:\fusion3d_work\engine\src\staticlibs\stb_image.c
_TEXT	SEGMENT
_s$ = -188						; size = 180
__$ArrayPad$ = -4					; size = 4
_clbk$ = 8						; size = 4
_user$ = 12						; size = 4
_x$ = 16						; size = 4
_y$ = 20						; size = 4
_comp$ = 24						; size = 4
_req_comp$ = 28						; size = 4
_stbi_load_from_callbacks PROC

; 344  : {

  00000	55		 push	 ebp
  00001	8b ec		 mov	 ebp, esp
  00003	81 ec c0 00 00
	00		 sub	 esp, 192		; 000000c0H
  00009	57		 push	 edi
  0000a	8d bd 40 ff ff
	ff		 lea	 edi, DWORD PTR [ebp-192]
  00010	b9 30 00 00 00	 mov	 ecx, 48			; 00000030H
  00015	b8 cc cc cc cc	 mov	 eax, -858993460		; ccccccccH
  0001a	f3 ab		 rep stosd
  0001c	a1 00 00 00 00	 mov	 eax, DWORD PTR ___security_cookie
  00021	33 c5		 xor	 eax, ebp
  00023	89 45 fc	 mov	 DWORD PTR __$ArrayPad$[ebp], eax

; 345  :    stbi s;
; 346  :    start_callbacks(&s, (stbi_io_callbacks *) clbk, user);

  00026	8b 45 0c	 mov	 eax, DWORD PTR _user$[ebp]
  00029	50		 push	 eax
  0002a	8b 4d 08	 mov	 ecx, DWORD PTR _clbk$[ebp]
  0002d	51		 push	 ecx
  0002e	8d 95 44 ff ff
	ff		 lea	 edx, DWORD PTR _s$[ebp]
  00034	52		 push	 edx
  00035	e8 00 00 00 00	 call	 ?start_callbacks@@YAXPAUstbi@@PAUstbi_io_callbacks@@PAX@Z ; start_callbacks
  0003a	83 c4 0c	 add	 esp, 12			; 0000000cH

; 347  :    return stbi_load_main(&s,x,y,comp,req_comp);

  0003d	8b 45 1c	 mov	 eax, DWORD PTR _req_comp$[ebp]
  00040	50		 push	 eax
  00041	8b 4d 18	 mov	 ecx, DWORD PTR _comp$[ebp]
  00044	51		 push	 ecx
  00045	8b 55 14	 mov	 edx, DWORD PTR _y$[ebp]
  00048	52		 push	 edx
  00049	8b 45 10	 mov	 eax, DWORD PTR _x$[ebp]
  0004c	50		 push	 eax
  0004d	8d 8d 44 ff ff
	ff		 lea	 ecx, DWORD PTR _s$[ebp]
  00053	51		 push	 ecx
  00054	e8 00 00 00 00	 call	 ?stbi_load_main@@YAPAEPAUstbi@@PAH11H@Z ; stbi_load_main
  00059	83 c4 14	 add	 esp, 20			; 00000014H

; 348  : }

  0005c	52		 push	 edx
  0005d	8b cd		 mov	 ecx, ebp
  0005f	50		 push	 eax
  00060	8d 15 00 00 00
	00		 lea	 edx, DWORD PTR $LN5@stbi_load_
  00066	e8 00 00 00 00	 call	 @_RTC_CheckStackVars@8
  0006b	58		 pop	 eax
  0006c	5a		 pop	 edx
  0006d	5f		 pop	 edi
  0006e	8b 4d fc	 mov	 ecx, DWORD PTR __$ArrayPad$[ebp]
  00071	33 cd		 xor	 ecx, ebp
  00073	e8 00 00 00 00	 call	 @__security_check_cookie@4
  00078	81 c4 c0 00 00
	00		 add	 esp, 192		; 000000c0H
  0007e	3b ec		 cmp	 ebp, esp
  00080	e8 00 00 00 00	 call	 __RTC_CheckEsp
  00085	8b e5		 mov	 esp, ebp
  00087	5d		 pop	 ebp
  00088	c3		 ret	 0
  00089	0f 1f 00	 npad	 3
$LN5@stbi_load_:
  0008c	01 00 00 00	 DD	 1
  00090	00 00 00 00	 DD	 $LN4@stbi_load_
$LN4@stbi_load_:
  00094	44 ff ff ff	 DD	 -188			; ffffff44H
  00098	b4 00 00 00	 DD	 180			; 000000b4H
  0009c	00 00 00 00	 DD	 $LN3@stbi_load_
$LN3@stbi_load_:
  000a0	73		 DB	 115			; 00000073H
  000a1	00		 DB	 0
_stbi_load_from_callbacks ENDP
_TEXT	ENDS
; Function compile flags: /Odtp /RTCsu
; File e:\fusion3d_work\engine\src\staticlibs\stb_image.c
_TEXT	SEGMENT
tv90 = -12						; size = 4
tv82 = -8						; size = 4
_data$ = -4						; size = 4
_s$ = 8							; size = 4
_x$ = 12						; size = 4
_y$ = 16						; size = 4
_comp$ = 20						; size = 4
_req_comp$ = 24						; size = 4
?stbi_loadf_main@@YAPAMPAUstbi@@PAH11H@Z PROC		; stbi_loadf_main

; 353  : {

  00000	55		 push	 ebp
  00001	8b ec		 mov	 ebp, esp
  00003	83 ec 0c	 sub	 esp, 12			; 0000000cH
  00006	c7 45 f4 cc cc
	cc cc		 mov	 DWORD PTR [ebp-12], -858993460 ; ccccccccH
  0000d	c7 45 f8 cc cc
	cc cc		 mov	 DWORD PTR [ebp-8], -858993460 ; ccccccccH
  00014	c7 45 fc cc cc
	cc cc		 mov	 DWORD PTR [ebp-4], -858993460 ; ccccccccH

; 354  :    unsigned char *data;
; 355  :    #ifndef STBI_NO_HDR
; 356  :    if (stbi_hdr_test(s))

  0001b	8b 45 08	 mov	 eax, DWORD PTR _s$[ebp]
  0001e	50		 push	 eax
  0001f	e8 00 00 00 00	 call	 ?stbi_hdr_test@@YAHPAUstbi@@@Z ; stbi_hdr_test
  00024	83 c4 04	 add	 esp, 4
  00027	85 c0		 test	 eax, eax
  00029	74 1e		 je	 SHORT $LN2@stbi_loadf

; 357  :       return stbi_hdr_load(s,x,y,comp,req_comp);

  0002b	8b 4d 18	 mov	 ecx, DWORD PTR _req_comp$[ebp]
  0002e	51		 push	 ecx
  0002f	8b 55 14	 mov	 edx, DWORD PTR _comp$[ebp]
  00032	52		 push	 edx
  00033	8b 45 10	 mov	 eax, DWORD PTR _y$[ebp]
  00036	50		 push	 eax
  00037	8b 4d 0c	 mov	 ecx, DWORD PTR _x$[ebp]
  0003a	51		 push	 ecx
  0003b	8b 55 08	 mov	 edx, DWORD PTR _s$[ebp]
  0003e	52		 push	 edx
  0003f	e8 00 00 00 00	 call	 ?stbi_hdr_load@@YAPAMPAUstbi@@PAH11H@Z ; stbi_hdr_load
  00044	83 c4 14	 add	 esp, 20			; 00000014H
  00047	eb 7d		 jmp	 SHORT $LN1@stbi_loadf
$LN2@stbi_loadf:

; 358  :    #endif
; 359  :    data = stbi_load_main(s, x, y, comp, req_comp);

  00049	8b 45 18	 mov	 eax, DWORD PTR _req_comp$[ebp]
  0004c	50		 push	 eax
  0004d	8b 4d 14	 mov	 ecx, DWORD PTR _comp$[ebp]
  00050	51		 push	 ecx
  00051	8b 55 10	 mov	 edx, DWORD PTR _y$[ebp]
  00054	52		 push	 edx
  00055	8b 45 0c	 mov	 eax, DWORD PTR _x$[ebp]
  00058	50		 push	 eax
  00059	8b 4d 08	 mov	 ecx, DWORD PTR _s$[ebp]
  0005c	51		 push	 ecx
  0005d	e8 00 00 00 00	 call	 ?stbi_load_main@@YAPAEPAUstbi@@PAH11H@Z ; stbi_load_main
  00062	83 c4 14	 add	 esp, 20			; 00000014H
  00065	89 45 fc	 mov	 DWORD PTR _data$[ebp], eax

; 360  :    if (data)

  00068	83 7d fc 00	 cmp	 DWORD PTR _data$[ebp], 0
  0006c	74 34		 je	 SHORT $LN3@stbi_loadf

; 361  :       return ldr_to_hdr(data, *x, *y, req_comp ? req_comp : *comp);

  0006e	83 7d 18 00	 cmp	 DWORD PTR _req_comp$[ebp], 0
  00072	74 08		 je	 SHORT $LN5@stbi_loadf
  00074	8b 55 18	 mov	 edx, DWORD PTR _req_comp$[ebp]
  00077	89 55 f8	 mov	 DWORD PTR tv82[ebp], edx
  0007a	eb 08		 jmp	 SHORT $LN6@stbi_loadf
$LN5@stbi_loadf:
  0007c	8b 45 14	 mov	 eax, DWORD PTR _comp$[ebp]
  0007f	8b 08		 mov	 ecx, DWORD PTR [eax]
  00081	89 4d f8	 mov	 DWORD PTR tv82[ebp], ecx
$LN6@stbi_loadf:
  00084	8b 55 f8	 mov	 edx, DWORD PTR tv82[ebp]
  00087	52		 push	 edx
  00088	8b 45 10	 mov	 eax, DWORD PTR _y$[ebp]
  0008b	8b 08		 mov	 ecx, DWORD PTR [eax]
  0008d	51		 push	 ecx
  0008e	8b 55 0c	 mov	 edx, DWORD PTR _x$[ebp]
  00091	8b 02		 mov	 eax, DWORD PTR [edx]
  00093	50		 push	 eax
  00094	8b 4d fc	 mov	 ecx, DWORD PTR _data$[ebp]
  00097	51		 push	 ecx
  00098	e8 00 00 00 00	 call	 ?ldr_to_hdr@@YAPAMPAEHHH@Z ; ldr_to_hdr
  0009d	83 c4 10	 add	 esp, 16			; 00000010H
  000a0	eb 24		 jmp	 SHORT $LN1@stbi_loadf
$LN3@stbi_loadf:

; 362  :    return epf("unknown image type", "Image not of any known type, or corrupt");

  000a2	68 00 00 00 00	 push	 OFFSET $SG4294820275
  000a7	e8 00 00 00 00	 call	 ?e@@YAHPBD@Z		; e
  000ac	83 c4 04	 add	 esp, 4
  000af	85 c0		 test	 eax, eax
  000b1	74 09		 je	 SHORT $LN7@stbi_loadf
  000b3	c7 45 f4 00 00
	00 00		 mov	 DWORD PTR tv90[ebp], 0
  000ba	eb 07		 jmp	 SHORT $LN8@stbi_loadf
$LN7@stbi_loadf:
  000bc	c7 45 f4 00 00
	00 00		 mov	 DWORD PTR tv90[ebp], 0
$LN8@stbi_loadf:
  000c3	8b 45 f4	 mov	 eax, DWORD PTR tv90[ebp]
$LN1@stbi_loadf:

; 363  : }

  000c6	83 c4 0c	 add	 esp, 12			; 0000000cH
  000c9	3b ec		 cmp	 ebp, esp
  000cb	e8 00 00 00 00	 call	 __RTC_CheckEsp
  000d0	8b e5		 mov	 esp, ebp
  000d2	5d		 pop	 ebp
  000d3	c3		 ret	 0
?stbi_loadf_main@@YAPAMPAUstbi@@PAH11H@Z ENDP		; stbi_loadf_main
_TEXT	ENDS
; Function compile flags: /Odtp /RTCsu
; File e:\fusion3d_work\engine\src\staticlibs\stb_image.c
_TEXT	SEGMENT
_s$ = -188						; size = 180
__$ArrayPad$ = -4					; size = 4
_buffer$ = 8						; size = 4
_len$ = 12						; size = 4
_x$ = 16						; size = 4
_y$ = 20						; size = 4
_comp$ = 24						; size = 4
_req_comp$ = 28						; size = 4
_stbi_loadf_from_memory PROC

; 366  : {

  00000	55		 push	 ebp
  00001	8b ec		 mov	 ebp, esp
  00003	81 ec c0 00 00
	00		 sub	 esp, 192		; 000000c0H
  00009	57		 push	 edi
  0000a	8d bd 40 ff ff
	ff		 lea	 edi, DWORD PTR [ebp-192]
  00010	b9 30 00 00 00	 mov	 ecx, 48			; 00000030H
  00015	b8 cc cc cc cc	 mov	 eax, -858993460		; ccccccccH
  0001a	f3 ab		 rep stosd
  0001c	a1 00 00 00 00	 mov	 eax, DWORD PTR ___security_cookie
  00021	33 c5		 xor	 eax, ebp
  00023	89 45 fc	 mov	 DWORD PTR __$ArrayPad$[ebp], eax

; 367  :    stbi s;
; 368  :    start_mem(&s,buffer,len);

  00026	8b 45 0c	 mov	 eax, DWORD PTR _len$[ebp]
  00029	50		 push	 eax
  0002a	8b 4d 08	 mov	 ecx, DWORD PTR _buffer$[ebp]
  0002d	51		 push	 ecx
  0002e	8d 95 44 ff ff
	ff		 lea	 edx, DWORD PTR _s$[ebp]
  00034	52		 push	 edx
  00035	e8 00 00 00 00	 call	 ?start_mem@@YAXPAUstbi@@PBEH@Z ; start_mem
  0003a	83 c4 0c	 add	 esp, 12			; 0000000cH

; 369  :    return stbi_loadf_main(&s,x,y,comp,req_comp);

  0003d	8b 45 1c	 mov	 eax, DWORD PTR _req_comp$[ebp]
  00040	50		 push	 eax
  00041	8b 4d 18	 mov	 ecx, DWORD PTR _comp$[ebp]
  00044	51		 push	 ecx
  00045	8b 55 14	 mov	 edx, DWORD PTR _y$[ebp]
  00048	52		 push	 edx
  00049	8b 45 10	 mov	 eax, DWORD PTR _x$[ebp]
  0004c	50		 push	 eax
  0004d	8d 8d 44 ff ff
	ff		 lea	 ecx, DWORD PTR _s$[ebp]
  00053	51		 push	 ecx
  00054	e8 00 00 00 00	 call	 ?stbi_loadf_main@@YAPAMPAUstbi@@PAH11H@Z ; stbi_loadf_main
  00059	83 c4 14	 add	 esp, 20			; 00000014H

; 370  : }

  0005c	52		 push	 edx
  0005d	8b cd		 mov	 ecx, ebp
  0005f	50		 push	 eax
  00060	8d 15 00 00 00
	00		 lea	 edx, DWORD PTR $LN5@stbi_loadf
  00066	e8 00 00 00 00	 call	 @_RTC_CheckStackVars@8
  0006b	58		 pop	 eax
  0006c	5a		 pop	 edx
  0006d	5f		 pop	 edi
  0006e	8b 4d fc	 mov	 ecx, DWORD PTR __$ArrayPad$[ebp]
  00071	33 cd		 xor	 ecx, ebp
  00073	e8 00 00 00 00	 call	 @__security_check_cookie@4
  00078	81 c4 c0 00 00
	00		 add	 esp, 192		; 000000c0H
  0007e	3b ec		 cmp	 ebp, esp
  00080	e8 00 00 00 00	 call	 __RTC_CheckEsp
  00085	8b e5		 mov	 esp, ebp
  00087	5d		 pop	 ebp
  00088	c3		 ret	 0
  00089	0f 1f 00	 npad	 3
$LN5@stbi_loadf:
  0008c	01 00 00 00	 DD	 1
  00090	00 00 00 00	 DD	 $LN4@stbi_loadf
$LN4@stbi_loadf:
  00094	44 ff ff ff	 DD	 -188			; ffffff44H
  00098	b4 00 00 00	 DD	 180			; 000000b4H
  0009c	00 00 00 00	 DD	 $LN3@stbi_loadf
$LN3@stbi_loadf:
  000a0	73		 DB	 115			; 00000073H
  000a1	00		 DB	 0
_stbi_loadf_from_memory ENDP
_TEXT	ENDS
; Function compile flags: /Odtp /RTCsu
; File e:\fusion3d_work\engine\src\staticlibs\stb_image.c
_TEXT	SEGMENT
_s$ = -188						; size = 180
__$ArrayPad$ = -4					; size = 4
_clbk$ = 8						; size = 4
_user$ = 12						; size = 4
_x$ = 16						; size = 4
_y$ = 20						; size = 4
_comp$ = 24						; size = 4
_req_comp$ = 28						; size = 4
_stbi_loadf_from_callbacks PROC

; 373  : {

  00000	55		 push	 ebp
  00001	8b ec		 mov	 ebp, esp
  00003	81 ec c0 00 00
	00		 sub	 esp, 192		; 000000c0H
  00009	57		 push	 edi
  0000a	8d bd 40 ff ff
	ff		 lea	 edi, DWORD PTR [ebp-192]
  00010	b9 30 00 00 00	 mov	 ecx, 48			; 00000030H
  00015	b8 cc cc cc cc	 mov	 eax, -858993460		; ccccccccH
  0001a	f3 ab		 rep stosd
  0001c	a1 00 00 00 00	 mov	 eax, DWORD PTR ___security_cookie
  00021	33 c5		 xor	 eax, ebp
  00023	89 45 fc	 mov	 DWORD PTR __$ArrayPad$[ebp], eax

; 374  :    stbi s;
; 375  :    start_callbacks(&s, (stbi_io_callbacks *) clbk, user);

  00026	8b 45 0c	 mov	 eax, DWORD PTR _user$[ebp]
  00029	50		 push	 eax
  0002a	8b 4d 08	 mov	 ecx, DWORD PTR _clbk$[ebp]
  0002d	51		 push	 ecx
  0002e	8d 95 44 ff ff
	ff		 lea	 edx, DWORD PTR _s$[ebp]
  00034	52		 push	 edx
  00035	e8 00 00 00 00	 call	 ?start_callbacks@@YAXPAUstbi@@PAUstbi_io_callbacks@@PAX@Z ; start_callbacks
  0003a	83 c4 0c	 add	 esp, 12			; 0000000cH

; 376  :    return stbi_loadf_main(&s,x,y,comp,req_comp);

  0003d	8b 45 1c	 mov	 eax, DWORD PTR _req_comp$[ebp]
  00040	50		 push	 eax
  00041	8b 4d 18	 mov	 ecx, DWORD PTR _comp$[ebp]
  00044	51		 push	 ecx
  00045	8b 55 14	 mov	 edx, DWORD PTR _y$[ebp]
  00048	52		 push	 edx
  00049	8b 45 10	 mov	 eax, DWORD PTR _x$[ebp]
  0004c	50		 push	 eax
  0004d	8d 8d 44 ff ff
	ff		 lea	 ecx, DWORD PTR _s$[ebp]
  00053	51		 push	 ecx
  00054	e8 00 00 00 00	 call	 ?stbi_loadf_main@@YAPAMPAUstbi@@PAH11H@Z ; stbi_loadf_main
  00059	83 c4 14	 add	 esp, 20			; 00000014H

; 377  : }

  0005c	52		 push	 edx
  0005d	8b cd		 mov	 ecx, ebp
  0005f	50		 push	 eax
  00060	8d 15 00 00 00
	00		 lea	 edx, DWORD PTR $LN5@stbi_loadf
  00066	e8 00 00 00 00	 call	 @_RTC_CheckStackVars@8
  0006b	58		 pop	 eax
  0006c	5a		 pop	 edx
  0006d	5f		 pop	 edi
  0006e	8b 4d fc	 mov	 ecx, DWORD PTR __$ArrayPad$[ebp]
  00071	33 cd		 xor	 ecx, ebp
  00073	e8 00 00 00 00	 call	 @__security_check_cookie@4
  00078	81 c4 c0 00 00
	00		 add	 esp, 192		; 000000c0H
  0007e	3b ec		 cmp	 ebp, esp
  00080	e8 00 00 00 00	 call	 __RTC_CheckEsp
  00085	8b e5		 mov	 esp, ebp
  00087	5d		 pop	 ebp
  00088	c3		 ret	 0
  00089	0f 1f 00	 npad	 3
$LN5@stbi_loadf:
  0008c	01 00 00 00	 DD	 1
  00090	00 00 00 00	 DD	 $LN4@stbi_loadf
$LN4@stbi_loadf:
  00094	44 ff ff ff	 DD	 -188			; ffffff44H
  00098	b4 00 00 00	 DD	 180			; 000000b4H
  0009c	00 00 00 00	 DD	 $LN3@stbi_loadf
$LN3@stbi_loadf:
  000a0	73		 DB	 115			; 00000073H
  000a1	00		 DB	 0
_stbi_loadf_from_callbacks ENDP
_TEXT	ENDS
; Function compile flags: /Odtp /RTCsu
; File e:\fusion3d_work\engine\src\staticlibs\stb_image.c
_TEXT	SEGMENT
tv71 = -12						; size = 4
_result$ = -8						; size = 4
_f$ = -4						; size = 4
_filename$ = 8						; size = 4
_x$ = 12						; size = 4
_y$ = 16						; size = 4
_comp$ = 20						; size = 4
_req_comp$ = 24						; size = 4
_stbi_loadf PROC

; 381  : {

  00000	55		 push	 ebp
  00001	8b ec		 mov	 ebp, esp
  00003	83 ec 0c	 sub	 esp, 12			; 0000000cH
  00006	56		 push	 esi
  00007	c7 45 f4 cc cc
	cc cc		 mov	 DWORD PTR [ebp-12], -858993460 ; ccccccccH
  0000e	c7 45 f8 cc cc
	cc cc		 mov	 DWORD PTR [ebp-8], -858993460 ; ccccccccH
  00015	c7 45 fc cc cc
	cc cc		 mov	 DWORD PTR [ebp-4], -858993460 ; ccccccccH

; 382  :    FILE *f = fopen(filename, "rb");

  0001c	8b f4		 mov	 esi, esp
  0001e	68 00 00 00 00	 push	 OFFSET $SG4294820274
  00023	8b 45 08	 mov	 eax, DWORD PTR _filename$[ebp]
  00026	50		 push	 eax
  00027	ff 15 00 00 00
	00		 call	 DWORD PTR __imp__fopen
  0002d	83 c4 08	 add	 esp, 8
  00030	3b f4		 cmp	 esi, esp
  00032	e8 00 00 00 00	 call	 __RTC_CheckEsp
  00037	89 45 fc	 mov	 DWORD PTR _f$[ebp], eax

; 383  :    float *result;
; 384  :    if (!f) return epf("can't fopen", "Unable to open file");

  0003a	83 7d fc 00	 cmp	 DWORD PTR _f$[ebp], 0
  0003e	75 26		 jne	 SHORT $LN2@stbi_loadf
  00040	68 00 00 00 00	 push	 OFFSET $SG4294820273
  00045	e8 00 00 00 00	 call	 ?e@@YAHPBD@Z		; e
  0004a	83 c4 04	 add	 esp, 4
  0004d	85 c0		 test	 eax, eax
  0004f	74 09		 je	 SHORT $LN4@stbi_loadf
  00051	c7 45 f4 00 00
	00 00		 mov	 DWORD PTR tv71[ebp], 0
  00058	eb 07		 jmp	 SHORT $LN5@stbi_loadf
$LN4@stbi_loadf:
  0005a	c7 45 f4 00 00
	00 00		 mov	 DWORD PTR tv71[ebp], 0
$LN5@stbi_loadf:
  00061	8b 45 f4	 mov	 eax, DWORD PTR tv71[ebp]
  00064	eb 38		 jmp	 SHORT $LN1@stbi_loadf
$LN2@stbi_loadf:

; 385  :    result = stbi_loadf_from_file(f,x,y,comp,req_comp);

  00066	8b 4d 18	 mov	 ecx, DWORD PTR _req_comp$[ebp]
  00069	51		 push	 ecx
  0006a	8b 55 14	 mov	 edx, DWORD PTR _comp$[ebp]
  0006d	52		 push	 edx
  0006e	8b 45 10	 mov	 eax, DWORD PTR _y$[ebp]
  00071	50		 push	 eax
  00072	8b 4d 0c	 mov	 ecx, DWORD PTR _x$[ebp]
  00075	51		 push	 ecx
  00076	8b 55 fc	 mov	 edx, DWORD PTR _f$[ebp]
  00079	52		 push	 edx
  0007a	e8 00 00 00 00	 call	 _stbi_loadf_from_file
  0007f	83 c4 14	 add	 esp, 20			; 00000014H
  00082	89 45 f8	 mov	 DWORD PTR _result$[ebp], eax

; 386  :    fclose(f);

  00085	8b f4		 mov	 esi, esp
  00087	8b 45 fc	 mov	 eax, DWORD PTR _f$[ebp]
  0008a	50		 push	 eax
  0008b	ff 15 00 00 00
	00		 call	 DWORD PTR __imp__fclose
  00091	83 c4 04	 add	 esp, 4
  00094	3b f4		 cmp	 esi, esp
  00096	e8 00 00 00 00	 call	 __RTC_CheckEsp

; 387  :    return result;

  0009b	8b 45 f8	 mov	 eax, DWORD PTR _result$[ebp]
$LN1@stbi_loadf:

; 388  : }

  0009e	5e		 pop	 esi
  0009f	83 c4 0c	 add	 esp, 12			; 0000000cH
  000a2	3b ec		 cmp	 ebp, esp
  000a4	e8 00 00 00 00	 call	 __RTC_CheckEsp
  000a9	8b e5		 mov	 esp, ebp
  000ab	5d		 pop	 ebp
  000ac	c3		 ret	 0
_stbi_loadf ENDP
_TEXT	ENDS
; Function compile flags: /Odtp /RTCsu
; File e:\fusion3d_work\engine\src\staticlibs\stb_image.c
_TEXT	SEGMENT
_s$ = -188						; size = 180
__$ArrayPad$ = -4					; size = 4
_f$ = 8							; size = 4
_x$ = 12						; size = 4
_y$ = 16						; size = 4
_comp$ = 20						; size = 4
_req_comp$ = 24						; size = 4
_stbi_loadf_from_file PROC

; 391  : {

  00000	55		 push	 ebp
  00001	8b ec		 mov	 ebp, esp
  00003	81 ec c0 00 00
	00		 sub	 esp, 192		; 000000c0H
  00009	57		 push	 edi
  0000a	8d bd 40 ff ff
	ff		 lea	 edi, DWORD PTR [ebp-192]
  00010	b9 30 00 00 00	 mov	 ecx, 48			; 00000030H
  00015	b8 cc cc cc cc	 mov	 eax, -858993460		; ccccccccH
  0001a	f3 ab		 rep stosd
  0001c	a1 00 00 00 00	 mov	 eax, DWORD PTR ___security_cookie
  00021	33 c5		 xor	 eax, ebp
  00023	89 45 fc	 mov	 DWORD PTR __$ArrayPad$[ebp], eax

; 392  :    stbi s;
; 393  :    start_file(&s,f);

  00026	8b 45 08	 mov	 eax, DWORD PTR _f$[ebp]
  00029	50		 push	 eax
  0002a	8d 8d 44 ff ff
	ff		 lea	 ecx, DWORD PTR _s$[ebp]
  00030	51		 push	 ecx
  00031	e8 00 00 00 00	 call	 ?start_file@@YAXPAUstbi@@PAU_iobuf@@@Z ; start_file
  00036	83 c4 08	 add	 esp, 8

; 394  :    return stbi_loadf_main(&s,x,y,comp,req_comp);

  00039	8b 55 18	 mov	 edx, DWORD PTR _req_comp$[ebp]
  0003c	52		 push	 edx
  0003d	8b 45 14	 mov	 eax, DWORD PTR _comp$[ebp]
  00040	50		 push	 eax
  00041	8b 4d 10	 mov	 ecx, DWORD PTR _y$[ebp]
  00044	51		 push	 ecx
  00045	8b 55 0c	 mov	 edx, DWORD PTR _x$[ebp]
  00048	52		 push	 edx
  00049	8d 85 44 ff ff
	ff		 lea	 eax, DWORD PTR _s$[ebp]
  0004f	50		 push	 eax
  00050	e8 00 00 00 00	 call	 ?stbi_loadf_main@@YAPAMPAUstbi@@PAH11H@Z ; stbi_loadf_main
  00055	83 c4 14	 add	 esp, 20			; 00000014H

; 395  : }

  00058	52		 push	 edx
  00059	8b cd		 mov	 ecx, ebp
  0005b	50		 push	 eax
  0005c	8d 15 00 00 00
	00		 lea	 edx, DWORD PTR $LN5@stbi_loadf
  00062	e8 00 00 00 00	 call	 @_RTC_CheckStackVars@8
  00067	58		 pop	 eax
  00068	5a		 pop	 edx
  00069	5f		 pop	 edi
  0006a	8b 4d fc	 mov	 ecx, DWORD PTR __$ArrayPad$[ebp]
  0006d	33 cd		 xor	 ecx, ebp
  0006f	e8 00 00 00 00	 call	 @__security_check_cookie@4
  00074	81 c4 c0 00 00
	00		 add	 esp, 192		; 000000c0H
  0007a	3b ec		 cmp	 ebp, esp
  0007c	e8 00 00 00 00	 call	 __RTC_CheckEsp
  00081	8b e5		 mov	 esp, ebp
  00083	5d		 pop	 ebp
  00084	c3		 ret	 0
  00085	0f 1f 00	 npad	 3
$LN5@stbi_loadf:
  00088	01 00 00 00	 DD	 1
  0008c	00 00 00 00	 DD	 $LN4@stbi_loadf
$LN4@stbi_loadf:
  00090	44 ff ff ff	 DD	 -188			; ffffff44H
  00094	b4 00 00 00	 DD	 180			; 000000b4H
  00098	00 00 00 00	 DD	 $LN3@stbi_loadf
$LN3@stbi_loadf:
  0009c	73		 DB	 115			; 00000073H
  0009d	00		 DB	 0
_stbi_loadf_from_file ENDP
_TEXT	ENDS
; Function compile flags: /Odtp /RTCsu
; File e:\fusion3d_work\engine\src\staticlibs\stb_image.c
_TEXT	SEGMENT
_s$ = -188						; size = 180
__$ArrayPad$ = -4					; size = 4
_buffer$ = 8						; size = 4
_len$ = 12						; size = 4
_stbi_is_hdr_from_memory PROC

; 405  : {

  00000	55		 push	 ebp
  00001	8b ec		 mov	 ebp, esp
  00003	81 ec c0 00 00
	00		 sub	 esp, 192		; 000000c0H
  00009	57		 push	 edi
  0000a	8d bd 40 ff ff
	ff		 lea	 edi, DWORD PTR [ebp-192]
  00010	b9 30 00 00 00	 mov	 ecx, 48			; 00000030H
  00015	b8 cc cc cc cc	 mov	 eax, -858993460		; ccccccccH
  0001a	f3 ab		 rep stosd
  0001c	a1 00 00 00 00	 mov	 eax, DWORD PTR ___security_cookie
  00021	33 c5		 xor	 eax, ebp
  00023	89 45 fc	 mov	 DWORD PTR __$ArrayPad$[ebp], eax

; 406  :    #ifndef STBI_NO_HDR
; 407  :    stbi s;
; 408  :    start_mem(&s,buffer,len);

  00026	8b 45 0c	 mov	 eax, DWORD PTR _len$[ebp]
  00029	50		 push	 eax
  0002a	8b 4d 08	 mov	 ecx, DWORD PTR _buffer$[ebp]
  0002d	51		 push	 ecx
  0002e	8d 95 44 ff ff
	ff		 lea	 edx, DWORD PTR _s$[ebp]
  00034	52		 push	 edx
  00035	e8 00 00 00 00	 call	 ?start_mem@@YAXPAUstbi@@PBEH@Z ; start_mem
  0003a	83 c4 0c	 add	 esp, 12			; 0000000cH

; 409  :    return stbi_hdr_test(&s);

  0003d	8d 85 44 ff ff
	ff		 lea	 eax, DWORD PTR _s$[ebp]
  00043	50		 push	 eax
  00044	e8 00 00 00 00	 call	 ?stbi_hdr_test@@YAHPAUstbi@@@Z ; stbi_hdr_test
  00049	83 c4 04	 add	 esp, 4

; 410  :    #else
; 411  :    STBI_NOTUSED(buffer);
; 412  :    STBI_NOTUSED(len);
; 413  :    return 0;
; 414  :    #endif
; 415  : }

  0004c	52		 push	 edx
  0004d	8b cd		 mov	 ecx, ebp
  0004f	50		 push	 eax
  00050	8d 15 00 00 00
	00		 lea	 edx, DWORD PTR $LN5@stbi_is_hd
  00056	e8 00 00 00 00	 call	 @_RTC_CheckStackVars@8
  0005b	58		 pop	 eax
  0005c	5a		 pop	 edx
  0005d	5f		 pop	 edi
  0005e	8b 4d fc	 mov	 ecx, DWORD PTR __$ArrayPad$[ebp]
  00061	33 cd		 xor	 ecx, ebp
  00063	e8 00 00 00 00	 call	 @__security_check_cookie@4
  00068	81 c4 c0 00 00
	00		 add	 esp, 192		; 000000c0H
  0006e	3b ec		 cmp	 ebp, esp
  00070	e8 00 00 00 00	 call	 __RTC_CheckEsp
  00075	8b e5		 mov	 esp, ebp
  00077	5d		 pop	 ebp
  00078	c3		 ret	 0
  00079	0f 1f 00	 npad	 3
$LN5@stbi_is_hd:
  0007c	01 00 00 00	 DD	 1
  00080	00 00 00 00	 DD	 $LN4@stbi_is_hd
$LN4@stbi_is_hd:
  00084	44 ff ff ff	 DD	 -188			; ffffff44H
  00088	b4 00 00 00	 DD	 180			; 000000b4H
  0008c	00 00 00 00	 DD	 $LN3@stbi_is_hd
$LN3@stbi_is_hd:
  00090	73		 DB	 115			; 00000073H
  00091	00		 DB	 0
_stbi_is_hdr_from_memory ENDP
_TEXT	ENDS
; Function compile flags: /Odtp /RTCsu
; File e:\fusion3d_work\engine\src\staticlibs\stb_image.c
_TEXT	SEGMENT
_result$ = -8						; size = 4
_f$ = -4						; size = 4
_filename$ = 8						; size = 4
_stbi_is_hdr PROC

; 419  : {

  00000	55		 push	 ebp
  00001	8b ec		 mov	 ebp, esp
  00003	83 ec 08	 sub	 esp, 8
  00006	56		 push	 esi
  00007	c7 45 f8 cc cc
	cc cc		 mov	 DWORD PTR [ebp-8], -858993460 ; ccccccccH
  0000e	c7 45 fc cc cc
	cc cc		 mov	 DWORD PTR [ebp-4], -858993460 ; ccccccccH

; 420  :    FILE *f = fopen(filename, "rb");

  00015	8b f4		 mov	 esi, esp
  00017	68 00 00 00 00	 push	 OFFSET $SG4294820272
  0001c	8b 45 08	 mov	 eax, DWORD PTR _filename$[ebp]
  0001f	50		 push	 eax
  00020	ff 15 00 00 00
	00		 call	 DWORD PTR __imp__fopen
  00026	83 c4 08	 add	 esp, 8
  00029	3b f4		 cmp	 esi, esp
  0002b	e8 00 00 00 00	 call	 __RTC_CheckEsp
  00030	89 45 fc	 mov	 DWORD PTR _f$[ebp], eax

; 421  :    int result=0;

  00033	c7 45 f8 00 00
	00 00		 mov	 DWORD PTR _result$[ebp], 0

; 422  :    if (f) {

  0003a	83 7d fc 00	 cmp	 DWORD PTR _f$[ebp], 0
  0003e	74 25		 je	 SHORT $LN2@stbi_is_hd

; 423  :       result = stbi_is_hdr_from_file(f);

  00040	8b 4d fc	 mov	 ecx, DWORD PTR _f$[ebp]
  00043	51		 push	 ecx
  00044	e8 00 00 00 00	 call	 _stbi_is_hdr_from_file
  00049	83 c4 04	 add	 esp, 4
  0004c	89 45 f8	 mov	 DWORD PTR _result$[ebp], eax

; 424  :       fclose(f);

  0004f	8b f4		 mov	 esi, esp
  00051	8b 55 fc	 mov	 edx, DWORD PTR _f$[ebp]
  00054	52		 push	 edx
  00055	ff 15 00 00 00
	00		 call	 DWORD PTR __imp__fclose
  0005b	83 c4 04	 add	 esp, 4
  0005e	3b f4		 cmp	 esi, esp
  00060	e8 00 00 00 00	 call	 __RTC_CheckEsp
$LN2@stbi_is_hd:

; 425  :    }
; 426  :    return result;

  00065	8b 45 f8	 mov	 eax, DWORD PTR _result$[ebp]

; 427  : }

  00068	5e		 pop	 esi
  00069	83 c4 08	 add	 esp, 8
  0006c	3b ec		 cmp	 ebp, esp
  0006e	e8 00 00 00 00	 call	 __RTC_CheckEsp
  00073	8b e5		 mov	 esp, ebp
  00075	5d		 pop	 ebp
  00076	c3		 ret	 0
_stbi_is_hdr ENDP
_TEXT	ENDS
; Function compile flags: /Odtp /RTCsu
; File e:\fusion3d_work\engine\src\staticlibs\stb_image.c
_TEXT	SEGMENT
_s$ = -188						; size = 180
__$ArrayPad$ = -4					; size = 4
_f$ = 8							; size = 4
_stbi_is_hdr_from_file PROC

; 430  : {

  00000	55		 push	 ebp
  00001	8b ec		 mov	 ebp, esp
  00003	81 ec c0 00 00
	00		 sub	 esp, 192		; 000000c0H
  00009	57		 push	 edi
  0000a	8d bd 40 ff ff
	ff		 lea	 edi, DWORD PTR [ebp-192]
  00010	b9 30 00 00 00	 mov	 ecx, 48			; 00000030H
  00015	b8 cc cc cc cc	 mov	 eax, -858993460		; ccccccccH
  0001a	f3 ab		 rep stosd
  0001c	a1 00 00 00 00	 mov	 eax, DWORD PTR ___security_cookie
  00021	33 c5		 xor	 eax, ebp
  00023	89 45 fc	 mov	 DWORD PTR __$ArrayPad$[ebp], eax

; 431  :    #ifndef STBI_NO_HDR
; 432  :    stbi s;
; 433  :    start_file(&s,f);

  00026	8b 45 08	 mov	 eax, DWORD PTR _f$[ebp]
  00029	50		 push	 eax
  0002a	8d 8d 44 ff ff
	ff		 lea	 ecx, DWORD PTR _s$[ebp]
  00030	51		 push	 ecx
  00031	e8 00 00 00 00	 call	 ?start_file@@YAXPAUstbi@@PAU_iobuf@@@Z ; start_file
  00036	83 c4 08	 add	 esp, 8

; 434  :    return stbi_hdr_test(&s);

  00039	8d 95 44 ff ff
	ff		 lea	 edx, DWORD PTR _s$[ebp]
  0003f	52		 push	 edx
  00040	e8 00 00 00 00	 call	 ?stbi_hdr_test@@YAHPAUstbi@@@Z ; stbi_hdr_test
  00045	83 c4 04	 add	 esp, 4

; 435  :    #else
; 436  :    return 0;
; 437  :    #endif
; 438  : }

  00048	52		 push	 edx
  00049	8b cd		 mov	 ecx, ebp
  0004b	50		 push	 eax
  0004c	8d 15 00 00 00
	00		 lea	 edx, DWORD PTR $LN5@stbi_is_hd
  00052	e8 00 00 00 00	 call	 @_RTC_CheckStackVars@8
  00057	58		 pop	 eax
  00058	5a		 pop	 edx
  00059	5f		 pop	 edi
  0005a	8b 4d fc	 mov	 ecx, DWORD PTR __$ArrayPad$[ebp]
  0005d	33 cd		 xor	 ecx, ebp
  0005f	e8 00 00 00 00	 call	 @__security_check_cookie@4
  00064	81 c4 c0 00 00
	00		 add	 esp, 192		; 000000c0H
  0006a	3b ec		 cmp	 ebp, esp
  0006c	e8 00 00 00 00	 call	 __RTC_CheckEsp
  00071	8b e5		 mov	 esp, ebp
  00073	5d		 pop	 ebp
  00074	c3		 ret	 0
  00075	0f 1f 00	 npad	 3
$LN5@stbi_is_hd:
  00078	01 00 00 00	 DD	 1
  0007c	00 00 00 00	 DD	 $LN4@stbi_is_hd
$LN4@stbi_is_hd:
  00080	44 ff ff ff	 DD	 -188			; ffffff44H
  00084	b4 00 00 00	 DD	 180			; 000000b4H
  00088	00 00 00 00	 DD	 $LN3@stbi_is_hd
$LN3@stbi_is_hd:
  0008c	73		 DB	 115			; 00000073H
  0008d	00		 DB	 0
_stbi_is_hdr_from_file ENDP
_TEXT	ENDS
; Function compile flags: /Odtp /RTCsu
; File e:\fusion3d_work\engine\src\staticlibs\stb_image.c
_TEXT	SEGMENT
_s$ = -188						; size = 180
__$ArrayPad$ = -4					; size = 4
_clbk$ = 8						; size = 4
_user$ = 12						; size = 4
_stbi_is_hdr_from_callbacks PROC

; 442  : {

  00000	55		 push	 ebp
  00001	8b ec		 mov	 ebp, esp
  00003	81 ec c0 00 00
	00		 sub	 esp, 192		; 000000c0H
  00009	57		 push	 edi
  0000a	8d bd 40 ff ff
	ff		 lea	 edi, DWORD PTR [ebp-192]
  00010	b9 30 00 00 00	 mov	 ecx, 48			; 00000030H
  00015	b8 cc cc cc cc	 mov	 eax, -858993460		; ccccccccH
  0001a	f3 ab		 rep stosd
  0001c	a1 00 00 00 00	 mov	 eax, DWORD PTR ___security_cookie
  00021	33 c5		 xor	 eax, ebp
  00023	89 45 fc	 mov	 DWORD PTR __$ArrayPad$[ebp], eax

; 443  :    #ifndef STBI_NO_HDR
; 444  :    stbi s;
; 445  :    start_callbacks(&s, (stbi_io_callbacks *) clbk, user);

  00026	8b 45 0c	 mov	 eax, DWORD PTR _user$[ebp]
  00029	50		 push	 eax
  0002a	8b 4d 08	 mov	 ecx, DWORD PTR _clbk$[ebp]
  0002d	51		 push	 ecx
  0002e	8d 95 44 ff ff
	ff		 lea	 edx, DWORD PTR _s$[ebp]
  00034	52		 push	 edx
  00035	e8 00 00 00 00	 call	 ?start_callbacks@@YAXPAUstbi@@PAUstbi_io_callbacks@@PAX@Z ; start_callbacks
  0003a	83 c4 0c	 add	 esp, 12			; 0000000cH

; 446  :    return stbi_hdr_test(&s);

  0003d	8d 85 44 ff ff
	ff		 lea	 eax, DWORD PTR _s$[ebp]
  00043	50		 push	 eax
  00044	e8 00 00 00 00	 call	 ?stbi_hdr_test@@YAHPAUstbi@@@Z ; stbi_hdr_test
  00049	83 c4 04	 add	 esp, 4

; 447  :    #else
; 448  :    return 0;
; 449  :    #endif
; 450  : }

  0004c	52		 push	 edx
  0004d	8b cd		 mov	 ecx, ebp
  0004f	50		 push	 eax
  00050	8d 15 00 00 00
	00		 lea	 edx, DWORD PTR $LN5@stbi_is_hd
  00056	e8 00 00 00 00	 call	 @_RTC_CheckStackVars@8
  0005b	58		 pop	 eax
  0005c	5a		 pop	 edx
  0005d	5f		 pop	 edi
  0005e	8b 4d fc	 mov	 ecx, DWORD PTR __$ArrayPad$[ebp]
  00061	33 cd		 xor	 ecx, ebp
  00063	e8 00 00 00 00	 call	 @__security_check_cookie@4
  00068	81 c4 c0 00 00
	00		 add	 esp, 192		; 000000c0H
  0006e	3b ec		 cmp	 ebp, esp
  00070	e8 00 00 00 00	 call	 __RTC_CheckEsp
  00075	8b e5		 mov	 esp, ebp
  00077	5d		 pop	 ebp
  00078	c3		 ret	 0
  00079	0f 1f 00	 npad	 3
$LN5@stbi_is_hd:
  0007c	01 00 00 00	 DD	 1
  00080	00 00 00 00	 DD	 $LN4@stbi_is_hd
$LN4@stbi_is_hd:
  00084	44 ff ff ff	 DD	 -188			; ffffff44H
  00088	b4 00 00 00	 DD	 180			; 000000b4H
  0008c	00 00 00 00	 DD	 $LN3@stbi_is_hd
$LN3@stbi_is_hd:
  00090	73		 DB	 115			; 00000073H
  00091	00		 DB	 0
_stbi_is_hdr_from_callbacks ENDP
_TEXT	ENDS
; Function compile flags: /Odtp /RTCsu
; File e:\fusion3d_work\engine\src\staticlibs\stb_image.c
_TEXT	SEGMENT
_gamma$ = 8						; size = 4
_stbi_hdr_to_ldr_gamma PROC

; 456  : void   stbi_hdr_to_ldr_gamma(float gamma) { h2l_gamma_i = 1/gamma; }

  00000	55		 push	 ebp
  00001	8b ec		 mov	 ebp, esp
  00003	f3 0f 10 05 00
	00 00 00	 movss	 xmm0, DWORD PTR __real@3f800000
  0000b	f3 0f 5e 45 08	 divss	 xmm0, DWORD PTR _gamma$[ebp]
  00010	f3 0f 11 05 00
	00 00 00	 movss	 DWORD PTR ?h2l_gamma_i@@3MA, xmm0
  00018	5d		 pop	 ebp
  00019	c3		 ret	 0
_stbi_hdr_to_ldr_gamma ENDP
_TEXT	ENDS
; Function compile flags: /Odtp /RTCsu
; File e:\fusion3d_work\engine\src\staticlibs\stb_image.c
_TEXT	SEGMENT
_scale$ = 8						; size = 4
_stbi_hdr_to_ldr_scale PROC

; 457  : void   stbi_hdr_to_ldr_scale(float scale) { h2l_scale_i = 1/scale; }

  00000	55		 push	 ebp
  00001	8b ec		 mov	 ebp, esp
  00003	f3 0f 10 05 00
	00 00 00	 movss	 xmm0, DWORD PTR __real@3f800000
  0000b	f3 0f 5e 45 08	 divss	 xmm0, DWORD PTR _scale$[ebp]
  00010	f3 0f 11 05 00
	00 00 00	 movss	 DWORD PTR ?h2l_scale_i@@3MA, xmm0
  00018	5d		 pop	 ebp
  00019	c3		 ret	 0
_stbi_hdr_to_ldr_scale ENDP
_TEXT	ENDS
; Function compile flags: /Odtp /RTCsu
; File e:\fusion3d_work\engine\src\staticlibs\stb_image.c
_TEXT	SEGMENT
_gamma$ = 8						; size = 4
_stbi_ldr_to_hdr_gamma PROC

; 459  : void   stbi_ldr_to_hdr_gamma(float gamma) { l2h_gamma = gamma; }

  00000	55		 push	 ebp
  00001	8b ec		 mov	 ebp, esp
  00003	f3 0f 10 45 08	 movss	 xmm0, DWORD PTR _gamma$[ebp]
  00008	f3 0f 11 05 00
	00 00 00	 movss	 DWORD PTR ?l2h_gamma@@3MA, xmm0
  00010	5d		 pop	 ebp
  00011	c3		 ret	 0
_stbi_ldr_to_hdr_gamma ENDP
_TEXT	ENDS
; Function compile flags: /Odtp /RTCsu
; File e:\fusion3d_work\engine\src\staticlibs\stb_image.c
_TEXT	SEGMENT
_scale$ = 8						; size = 4
_stbi_ldr_to_hdr_scale PROC

; 460  : void   stbi_ldr_to_hdr_scale(float scale) { l2h_scale = scale; }

  00000	55		 push	 ebp
  00001	8b ec		 mov	 ebp, esp
  00003	f3 0f 10 45 08	 movss	 xmm0, DWORD PTR _scale$[ebp]
  00008	f3 0f 11 05 00
	00 00 00	 movss	 DWORD PTR ?l2h_scale@@3MA, xmm0
  00010	5d		 pop	 ebp
  00011	c3		 ret	 0
_stbi_ldr_to_hdr_scale ENDP
_TEXT	ENDS
; Function compile flags: /Odtp /RTCsu
; File e:\fusion3d_work\engine\src\staticlibs\stb_image.c
_TEXT	SEGMENT
_n$ = -4						; size = 4
_s$ = 8							; size = 4
?refill_buffer@@YAXPAUstbi@@@Z PROC			; refill_buffer

; 477  : {

  00000	55		 push	 ebp
  00001	8b ec		 mov	 ebp, esp
  00003	51		 push	 ecx
  00004	56		 push	 esi
  00005	c7 45 fc cc cc
	cc cc		 mov	 DWORD PTR [ebp-4], -858993460 ; ccccccccH

; 478  :    int n = (s->io.read)(s->io_user_data,(char*)s->buffer_start,s->buflen);

  0000c	8b f4		 mov	 esi, esp
  0000e	8b 45 08	 mov	 eax, DWORD PTR _s$[ebp]
  00011	8b 48 24	 mov	 ecx, DWORD PTR [eax+36]
  00014	51		 push	 ecx
  00015	8b 55 08	 mov	 edx, DWORD PTR _s$[ebp]
  00018	83 c2 28	 add	 edx, 40			; 00000028H
  0001b	52		 push	 edx
  0001c	8b 45 08	 mov	 eax, DWORD PTR _s$[ebp]
  0001f	8b 48 1c	 mov	 ecx, DWORD PTR [eax+28]
  00022	51		 push	 ecx
  00023	8b 55 08	 mov	 edx, DWORD PTR _s$[ebp]
  00026	8b 42 10	 mov	 eax, DWORD PTR [edx+16]
  00029	ff d0		 call	 eax
  0002b	83 c4 0c	 add	 esp, 12			; 0000000cH
  0002e	3b f4		 cmp	 esi, esp
  00030	e8 00 00 00 00	 call	 __RTC_CheckEsp
  00035	89 45 fc	 mov	 DWORD PTR _n$[ebp], eax

; 479  :    if (n == 0) {

  00038	83 7d fc 00	 cmp	 DWORD PTR _n$[ebp], 0
  0003c	75 2d		 jne	 SHORT $LN2@refill_buf

; 480  :       // at end of file, treat same as if from memory
; 481  :       s->read_from_callbacks = 0;

  0003e	8b 4d 08	 mov	 ecx, DWORD PTR _s$[ebp]
  00041	c7 41 20 00 00
	00 00		 mov	 DWORD PTR [ecx+32], 0

; 482  :       s->img_buffer = s->img_buffer_end-1;

  00048	8b 55 08	 mov	 edx, DWORD PTR _s$[ebp]
  0004b	8b 82 ac 00 00
	00		 mov	 eax, DWORD PTR [edx+172]
  00051	83 e8 01	 sub	 eax, 1
  00054	8b 4d 08	 mov	 ecx, DWORD PTR _s$[ebp]
  00057	89 81 a8 00 00
	00		 mov	 DWORD PTR [ecx+168], eax

; 483  :       *s->img_buffer = 0;

  0005d	8b 55 08	 mov	 edx, DWORD PTR _s$[ebp]
  00060	8b 82 a8 00 00
	00		 mov	 eax, DWORD PTR [edx+168]
  00066	c6 00 00	 mov	 BYTE PTR [eax], 0

; 484  :    } else {

  00069	eb 22		 jmp	 SHORT $LN1@refill_buf
$LN2@refill_buf:

; 485  :       s->img_buffer = s->buffer_start;

  0006b	8b 4d 08	 mov	 ecx, DWORD PTR _s$[ebp]
  0006e	83 c1 28	 add	 ecx, 40			; 00000028H
  00071	8b 55 08	 mov	 edx, DWORD PTR _s$[ebp]
  00074	89 8a a8 00 00
	00		 mov	 DWORD PTR [edx+168], ecx

; 486  :       s->img_buffer_end = s->buffer_start + n;

  0007a	8b 45 fc	 mov	 eax, DWORD PTR _n$[ebp]
  0007d	8b 4d 08	 mov	 ecx, DWORD PTR _s$[ebp]
  00080	8d 54 01 28	 lea	 edx, DWORD PTR [ecx+eax+40]
  00084	8b 45 08	 mov	 eax, DWORD PTR _s$[ebp]
  00087	89 90 ac 00 00
	00		 mov	 DWORD PTR [eax+172], edx
$LN1@refill_buf:

; 487  :    }
; 488  : }

  0008d	5e		 pop	 esi
  0008e	83 c4 04	 add	 esp, 4
  00091	3b ec		 cmp	 ebp, esp
  00093	e8 00 00 00 00	 call	 __RTC_CheckEsp
  00098	8b e5		 mov	 esp, ebp
  0009a	5d		 pop	 ebp
  0009b	c3		 ret	 0
?refill_buffer@@YAXPAUstbi@@@Z ENDP			; refill_buffer
_TEXT	ENDS
; Function compile flags: /Odtp /RTCsu
; File e:\fusion3d_work\engine\src\staticlibs\stb_image.c
_TEXT	SEGMENT
tv83 = -8						; size = 4
tv73 = -4						; size = 4
_s$ = 8							; size = 4
?get8@@YAHPAUstbi@@@Z PROC				; get8

; 491  : {

  00000	55		 push	 ebp
  00001	8b ec		 mov	 ebp, esp
  00003	83 ec 08	 sub	 esp, 8
  00006	c7 45 f8 cc cc
	cc cc		 mov	 DWORD PTR [ebp-8], -858993460 ; ccccccccH
  0000d	c7 45 fc cc cc
	cc cc		 mov	 DWORD PTR [ebp-4], -858993460 ; ccccccccH

; 492  :    if (s->img_buffer < s->img_buffer_end)

  00014	8b 45 08	 mov	 eax, DWORD PTR _s$[ebp]
  00017	8b 4d 08	 mov	 ecx, DWORD PTR _s$[ebp]
  0001a	8b 90 a8 00 00
	00		 mov	 edx, DWORD PTR [eax+168]
  00020	3b 91 ac 00 00
	00		 cmp	 edx, DWORD PTR [ecx+172]
  00026	73 29		 jae	 SHORT $LN2@get8

; 493  :       return *s->img_buffer++;

  00028	8b 45 08	 mov	 eax, DWORD PTR _s$[ebp]
  0002b	8b 88 a8 00 00
	00		 mov	 ecx, DWORD PTR [eax+168]
  00031	0f b6 11	 movzx	 edx, BYTE PTR [ecx]
  00034	89 55 fc	 mov	 DWORD PTR tv73[ebp], edx
  00037	8b 45 08	 mov	 eax, DWORD PTR _s$[ebp]
  0003a	8b 88 a8 00 00
	00		 mov	 ecx, DWORD PTR [eax+168]
  00040	83 c1 01	 add	 ecx, 1
  00043	8b 55 08	 mov	 edx, DWORD PTR _s$[ebp]
  00046	89 8a a8 00 00
	00		 mov	 DWORD PTR [edx+168], ecx
  0004c	8b 45 fc	 mov	 eax, DWORD PTR tv73[ebp]
  0004f	eb 40		 jmp	 SHORT $LN1@get8
$LN2@get8:

; 494  :    if (s->read_from_callbacks) {

  00051	8b 45 08	 mov	 eax, DWORD PTR _s$[ebp]
  00054	83 78 20 00	 cmp	 DWORD PTR [eax+32], 0
  00058	74 35		 je	 SHORT $LN3@get8

; 495  :       refill_buffer(s);

  0005a	8b 4d 08	 mov	 ecx, DWORD PTR _s$[ebp]
  0005d	51		 push	 ecx
  0005e	e8 00 00 00 00	 call	 ?refill_buffer@@YAXPAUstbi@@@Z ; refill_buffer
  00063	83 c4 04	 add	 esp, 4

; 496  :       return *s->img_buffer++;

  00066	8b 55 08	 mov	 edx, DWORD PTR _s$[ebp]
  00069	8b 82 a8 00 00
	00		 mov	 eax, DWORD PTR [edx+168]
  0006f	0f b6 08	 movzx	 ecx, BYTE PTR [eax]
  00072	89 4d f8	 mov	 DWORD PTR tv83[ebp], ecx
  00075	8b 55 08	 mov	 edx, DWORD PTR _s$[ebp]
  00078	8b 82 a8 00 00
	00		 mov	 eax, DWORD PTR [edx+168]
  0007e	83 c0 01	 add	 eax, 1
  00081	8b 4d 08	 mov	 ecx, DWORD PTR _s$[ebp]
  00084	89 81 a8 00 00
	00		 mov	 DWORD PTR [ecx+168], eax
  0008a	8b 45 f8	 mov	 eax, DWORD PTR tv83[ebp]
  0008d	eb 02		 jmp	 SHORT $LN1@get8
$LN3@get8:

; 497  :    }
; 498  :    return 0;

  0008f	33 c0		 xor	 eax, eax
$LN1@get8:

; 499  : }

  00091	83 c4 08	 add	 esp, 8
  00094	3b ec		 cmp	 ebp, esp
  00096	e8 00 00 00 00	 call	 __RTC_CheckEsp
  0009b	8b e5		 mov	 esp, ebp
  0009d	5d		 pop	 ebp
  0009e	c3		 ret	 0
?get8@@YAHPAUstbi@@@Z ENDP				; get8
_TEXT	ENDS
; Function compile flags: /Odtp /RTCsu
; File e:\fusion3d_work\engine\src\staticlibs\stb_image.c
_TEXT	SEGMENT
tv78 = -4						; size = 4
_s$ = 8							; size = 4
?at_eof@@YAHPAUstbi@@@Z PROC				; at_eof

; 502  : {

  00000	55		 push	 ebp
  00001	8b ec		 mov	 ebp, esp
  00003	51		 push	 ecx
  00004	56		 push	 esi
  00005	c7 45 fc cc cc
	cc cc		 mov	 DWORD PTR [ebp-4], -858993460 ; ccccccccH

; 503  :    if (s->io.read) {

  0000c	8b 45 08	 mov	 eax, DWORD PTR _s$[ebp]
  0000f	83 78 10 00	 cmp	 DWORD PTR [eax+16], 0
  00013	74 33		 je	 SHORT $LN2@at_eof

; 504  :       if (!(s->io.eof)(s->io_user_data)) return 0;

  00015	8b f4		 mov	 esi, esp
  00017	8b 4d 08	 mov	 ecx, DWORD PTR _s$[ebp]
  0001a	8b 51 1c	 mov	 edx, DWORD PTR [ecx+28]
  0001d	52		 push	 edx
  0001e	8b 45 08	 mov	 eax, DWORD PTR _s$[ebp]
  00021	8b 48 18	 mov	 ecx, DWORD PTR [eax+24]
  00024	ff d1		 call	 ecx
  00026	83 c4 04	 add	 esp, 4
  00029	3b f4		 cmp	 esi, esp
  0002b	e8 00 00 00 00	 call	 __RTC_CheckEsp
  00030	85 c0		 test	 eax, eax
  00032	75 04		 jne	 SHORT $LN3@at_eof
  00034	33 c0		 xor	 eax, eax
  00036	eb 37		 jmp	 SHORT $LN1@at_eof
$LN3@at_eof:

; 505  :       // if feof() is true, check if buffer = end
; 506  :       // special case: we've only got the special 0 character at the end
; 507  :       if (s->read_from_callbacks == 0) return 1;

  00038	8b 55 08	 mov	 edx, DWORD PTR _s$[ebp]
  0003b	83 7a 20 00	 cmp	 DWORD PTR [edx+32], 0
  0003f	75 07		 jne	 SHORT $LN2@at_eof
  00041	b8 01 00 00 00	 mov	 eax, 1
  00046	eb 27		 jmp	 SHORT $LN1@at_eof
$LN2@at_eof:

; 508  :    }
; 509  : 
; 510  :    return s->img_buffer >= s->img_buffer_end;   

  00048	8b 45 08	 mov	 eax, DWORD PTR _s$[ebp]
  0004b	8b 4d 08	 mov	 ecx, DWORD PTR _s$[ebp]
  0004e	8b 90 a8 00 00
	00		 mov	 edx, DWORD PTR [eax+168]
  00054	3b 91 ac 00 00
	00		 cmp	 edx, DWORD PTR [ecx+172]
  0005a	72 09		 jb	 SHORT $LN6@at_eof
  0005c	c7 45 fc 01 00
	00 00		 mov	 DWORD PTR tv78[ebp], 1
  00063	eb 07		 jmp	 SHORT $LN7@at_eof
$LN6@at_eof:
  00065	c7 45 fc 00 00
	00 00		 mov	 DWORD PTR tv78[ebp], 0
$LN7@at_eof:
  0006c	8b 45 fc	 mov	 eax, DWORD PTR tv78[ebp]
$LN1@at_eof:

; 511  : }

  0006f	5e		 pop	 esi
  00070	83 c4 04	 add	 esp, 4
  00073	3b ec		 cmp	 ebp, esp
  00075	e8 00 00 00 00	 call	 __RTC_CheckEsp
  0007a	8b e5		 mov	 esp, ebp
  0007c	5d		 pop	 ebp
  0007d	c3		 ret	 0
?at_eof@@YAHPAUstbi@@@Z ENDP				; at_eof
_TEXT	ENDS
; Function compile flags: /Odtp /RTCsu
; File e:\fusion3d_work\engine\src\staticlibs\stb_image.c
_TEXT	SEGMENT
_s$ = 8							; size = 4
?get8u@@YAEPAUstbi@@@Z PROC				; get8u

; 514  : {

  00000	55		 push	 ebp
  00001	8b ec		 mov	 ebp, esp

; 515  :    return (uint8) get8(s);

  00003	8b 45 08	 mov	 eax, DWORD PTR _s$[ebp]
  00006	50		 push	 eax
  00007	e8 00 00 00 00	 call	 ?get8@@YAHPAUstbi@@@Z	; get8
  0000c	83 c4 04	 add	 esp, 4

; 516  : }

  0000f	3b ec		 cmp	 ebp, esp
  00011	e8 00 00 00 00	 call	 __RTC_CheckEsp
  00016	5d		 pop	 ebp
  00017	c3		 ret	 0
?get8u@@YAEPAUstbi@@@Z ENDP				; get8u
_TEXT	ENDS
; Function compile flags: /Odtp /RTCsu
; File e:\fusion3d_work\engine\src\staticlibs\stb_image.c
_TEXT	SEGMENT
_blen$1 = -4						; size = 4
_s$ = 8							; size = 4
_n$ = 12						; size = 4
?skip@@YAXPAUstbi@@H@Z PROC				; skip

; 519  : {

  00000	55		 push	 ebp
  00001	8b ec		 mov	 ebp, esp
  00003	51		 push	 ecx
  00004	56		 push	 esi
  00005	c7 45 fc cc cc
	cc cc		 mov	 DWORD PTR [ebp-4], -858993460 ; ccccccccH

; 520  :    if (s->io.read) {

  0000c	8b 45 08	 mov	 eax, DWORD PTR _s$[ebp]
  0000f	83 78 10 00	 cmp	 DWORD PTR [eax+16], 0
  00013	74 53		 je	 SHORT $LN2@skip

; 521  :       int blen = s->img_buffer_end - s->img_buffer;

  00015	8b 4d 08	 mov	 ecx, DWORD PTR _s$[ebp]
  00018	8b 55 08	 mov	 edx, DWORD PTR _s$[ebp]
  0001b	8b 81 ac 00 00
	00		 mov	 eax, DWORD PTR [ecx+172]
  00021	2b 82 a8 00 00
	00		 sub	 eax, DWORD PTR [edx+168]
  00027	89 45 fc	 mov	 DWORD PTR _blen$1[ebp], eax

; 522  :       if (blen < n) {

  0002a	8b 4d fc	 mov	 ecx, DWORD PTR _blen$1[ebp]
  0002d	3b 4d 0c	 cmp	 ecx, DWORD PTR _n$[ebp]
  00030	7d 36		 jge	 SHORT $LN2@skip

; 523  :          s->img_buffer = s->img_buffer_end;

  00032	8b 55 08	 mov	 edx, DWORD PTR _s$[ebp]
  00035	8b 45 08	 mov	 eax, DWORD PTR _s$[ebp]
  00038	8b 88 ac 00 00
	00		 mov	 ecx, DWORD PTR [eax+172]
  0003e	89 8a a8 00 00
	00		 mov	 DWORD PTR [edx+168], ecx

; 524  :          (s->io.skip)(s->io_user_data, n - blen);

  00044	8b 55 0c	 mov	 edx, DWORD PTR _n$[ebp]
  00047	2b 55 fc	 sub	 edx, DWORD PTR _blen$1[ebp]
  0004a	8b f4		 mov	 esi, esp
  0004c	52		 push	 edx
  0004d	8b 45 08	 mov	 eax, DWORD PTR _s$[ebp]
  00050	8b 48 1c	 mov	 ecx, DWORD PTR [eax+28]
  00053	51		 push	 ecx
  00054	8b 55 08	 mov	 edx, DWORD PTR _s$[ebp]
  00057	8b 42 14	 mov	 eax, DWORD PTR [edx+20]
  0005a	ff d0		 call	 eax
  0005c	83 c4 08	 add	 esp, 8
  0005f	3b f4		 cmp	 esi, esp
  00061	e8 00 00 00 00	 call	 __RTC_CheckEsp

; 525  :          return;

  00066	eb 15		 jmp	 SHORT $LN1@skip
$LN2@skip:

; 526  :       }
; 527  :    }
; 528  :    s->img_buffer += n;

  00068	8b 4d 08	 mov	 ecx, DWORD PTR _s$[ebp]
  0006b	8b 91 a8 00 00
	00		 mov	 edx, DWORD PTR [ecx+168]
  00071	03 55 0c	 add	 edx, DWORD PTR _n$[ebp]
  00074	8b 45 08	 mov	 eax, DWORD PTR _s$[ebp]
  00077	89 90 a8 00 00
	00		 mov	 DWORD PTR [eax+168], edx
$LN1@skip:

; 529  : }

  0007d	5e		 pop	 esi
  0007e	83 c4 04	 add	 esp, 4
  00081	3b ec		 cmp	 ebp, esp
  00083	e8 00 00 00 00	 call	 __RTC_CheckEsp
  00088	8b e5		 mov	 esp, ebp
  0008a	5d		 pop	 ebp
  0008b	c3		 ret	 0
?skip@@YAXPAUstbi@@H@Z ENDP				; skip
_TEXT	ENDS
; Function compile flags: /Odtp /RTCsu
; File e:\fusion3d_work\engine\src\staticlibs\stb_image.c
_TEXT	SEGMENT
tv86 = -16						; size = 4
_count$1 = -12						; size = 4
_res$2 = -8						; size = 4
_blen$3 = -4						; size = 4
_s$ = 8							; size = 4
_buffer$ = 12						; size = 4
_n$ = 16						; size = 4
?getn@@YAHPAUstbi@@PAEH@Z PROC				; getn

; 532  : {

  00000	55		 push	 ebp
  00001	8b ec		 mov	 ebp, esp
  00003	83 ec 10	 sub	 esp, 16			; 00000010H
  00006	56		 push	 esi
  00007	b8 cc cc cc cc	 mov	 eax, -858993460		; ccccccccH
  0000c	89 45 f0	 mov	 DWORD PTR [ebp-16], eax
  0000f	89 45 f4	 mov	 DWORD PTR [ebp-12], eax
  00012	89 45 f8	 mov	 DWORD PTR [ebp-8], eax
  00015	89 45 fc	 mov	 DWORD PTR [ebp-4], eax

; 533  :    if (s->io.read) {

  00018	8b 45 08	 mov	 eax, DWORD PTR _s$[ebp]
  0001b	83 78 10 00	 cmp	 DWORD PTR [eax+16], 0
  0001f	0f 84 a9 00 00
	00		 je	 $LN2@getn

; 534  :       int blen = s->img_buffer_end - s->img_buffer;

  00025	8b 4d 08	 mov	 ecx, DWORD PTR _s$[ebp]
  00028	8b 55 08	 mov	 edx, DWORD PTR _s$[ebp]
  0002b	8b 81 ac 00 00
	00		 mov	 eax, DWORD PTR [ecx+172]
  00031	2b 82 a8 00 00
	00		 sub	 eax, DWORD PTR [edx+168]
  00037	89 45 fc	 mov	 DWORD PTR _blen$3[ebp], eax

; 535  :       if (blen < n) {

  0003a	8b 4d fc	 mov	 ecx, DWORD PTR _blen$3[ebp]
  0003d	3b 4d 10	 cmp	 ecx, DWORD PTR _n$[ebp]
  00040	0f 8d 88 00 00
	00		 jge	 $LN2@getn

; 536  :          int res, count;
; 537  : 
; 538  :          memcpy(buffer, s->img_buffer, blen);

  00046	8b f4		 mov	 esi, esp
  00048	8b 55 fc	 mov	 edx, DWORD PTR _blen$3[ebp]
  0004b	52		 push	 edx
  0004c	8b 45 08	 mov	 eax, DWORD PTR _s$[ebp]
  0004f	8b 88 a8 00 00
	00		 mov	 ecx, DWORD PTR [eax+168]
  00055	51		 push	 ecx
  00056	8b 55 0c	 mov	 edx, DWORD PTR _buffer$[ebp]
  00059	52		 push	 edx
  0005a	ff 15 00 00 00
	00		 call	 DWORD PTR __imp__memcpy
  00060	83 c4 0c	 add	 esp, 12			; 0000000cH
  00063	3b f4		 cmp	 esi, esp
  00065	e8 00 00 00 00	 call	 __RTC_CheckEsp

; 539  :          
; 540  :          count = (s->io.read)(s->io_user_data, (char*) buffer + blen, n - blen);

  0006a	8b 45 10	 mov	 eax, DWORD PTR _n$[ebp]
  0006d	2b 45 fc	 sub	 eax, DWORD PTR _blen$3[ebp]
  00070	8b f4		 mov	 esi, esp
  00072	50		 push	 eax
  00073	8b 4d 0c	 mov	 ecx, DWORD PTR _buffer$[ebp]
  00076	03 4d fc	 add	 ecx, DWORD PTR _blen$3[ebp]
  00079	51		 push	 ecx
  0007a	8b 55 08	 mov	 edx, DWORD PTR _s$[ebp]
  0007d	8b 42 1c	 mov	 eax, DWORD PTR [edx+28]
  00080	50		 push	 eax
  00081	8b 4d 08	 mov	 ecx, DWORD PTR _s$[ebp]
  00084	8b 51 10	 mov	 edx, DWORD PTR [ecx+16]
  00087	ff d2		 call	 edx
  00089	83 c4 0c	 add	 esp, 12			; 0000000cH
  0008c	3b f4		 cmp	 esi, esp
  0008e	e8 00 00 00 00	 call	 __RTC_CheckEsp
  00093	89 45 f4	 mov	 DWORD PTR _count$1[ebp], eax

; 541  :          res = (count == (n-blen));

  00096	8b 45 10	 mov	 eax, DWORD PTR _n$[ebp]
  00099	2b 45 fc	 sub	 eax, DWORD PTR _blen$3[ebp]
  0009c	39 45 f4	 cmp	 DWORD PTR _count$1[ebp], eax
  0009f	75 09		 jne	 SHORT $LN7@getn
  000a1	c7 45 f0 01 00
	00 00		 mov	 DWORD PTR tv86[ebp], 1
  000a8	eb 07		 jmp	 SHORT $LN8@getn
$LN7@getn:
  000aa	c7 45 f0 00 00
	00 00		 mov	 DWORD PTR tv86[ebp], 0
$LN8@getn:
  000b1	8b 4d f0	 mov	 ecx, DWORD PTR tv86[ebp]
  000b4	89 4d f8	 mov	 DWORD PTR _res$2[ebp], ecx

; 542  :          s->img_buffer = s->img_buffer_end;

  000b7	8b 55 08	 mov	 edx, DWORD PTR _s$[ebp]
  000ba	8b 45 08	 mov	 eax, DWORD PTR _s$[ebp]
  000bd	8b 88 ac 00 00
	00		 mov	 ecx, DWORD PTR [eax+172]
  000c3	89 8a a8 00 00
	00		 mov	 DWORD PTR [edx+168], ecx

; 543  :          return res;

  000c9	8b 45 f8	 mov	 eax, DWORD PTR _res$2[ebp]
  000cc	eb 5b		 jmp	 SHORT $LN1@getn
$LN2@getn:

; 544  :       }
; 545  :    }
; 546  : 
; 547  :    if (s->img_buffer+n <= s->img_buffer_end) {

  000ce	8b 55 08	 mov	 edx, DWORD PTR _s$[ebp]
  000d1	8b 82 a8 00 00
	00		 mov	 eax, DWORD PTR [edx+168]
  000d7	03 45 10	 add	 eax, DWORD PTR _n$[ebp]
  000da	8b 4d 08	 mov	 ecx, DWORD PTR _s$[ebp]
  000dd	3b 81 ac 00 00
	00		 cmp	 eax, DWORD PTR [ecx+172]
  000e3	77 42		 ja	 SHORT $LN4@getn

; 548  :       memcpy(buffer, s->img_buffer, n);

  000e5	8b f4		 mov	 esi, esp
  000e7	8b 55 10	 mov	 edx, DWORD PTR _n$[ebp]
  000ea	52		 push	 edx
  000eb	8b 45 08	 mov	 eax, DWORD PTR _s$[ebp]
  000ee	8b 88 a8 00 00
	00		 mov	 ecx, DWORD PTR [eax+168]
  000f4	51		 push	 ecx
  000f5	8b 55 0c	 mov	 edx, DWORD PTR _buffer$[ebp]
  000f8	52		 push	 edx
  000f9	ff 15 00 00 00
	00		 call	 DWORD PTR __imp__memcpy
  000ff	83 c4 0c	 add	 esp, 12			; 0000000cH
  00102	3b f4		 cmp	 esi, esp
  00104	e8 00 00 00 00	 call	 __RTC_CheckEsp

; 549  :       s->img_buffer += n;

  00109	8b 45 08	 mov	 eax, DWORD PTR _s$[ebp]
  0010c	8b 88 a8 00 00
	00		 mov	 ecx, DWORD PTR [eax+168]
  00112	03 4d 10	 add	 ecx, DWORD PTR _n$[ebp]
  00115	8b 55 08	 mov	 edx, DWORD PTR _s$[ebp]
  00118	89 8a a8 00 00
	00		 mov	 DWORD PTR [edx+168], ecx

; 550  :       return 1;

  0011e	b8 01 00 00 00	 mov	 eax, 1
  00123	eb 04		 jmp	 SHORT $LN1@getn

; 551  :    } else

  00125	eb 02		 jmp	 SHORT $LN1@getn
$LN4@getn:

; 552  :       return 0;

  00127	33 c0		 xor	 eax, eax
$LN1@getn:

; 553  : }

  00129	5e		 pop	 esi
  0012a	83 c4 10	 add	 esp, 16			; 00000010H
  0012d	3b ec		 cmp	 ebp, esp
  0012f	e8 00 00 00 00	 call	 __RTC_CheckEsp
  00134	8b e5		 mov	 esp, ebp
  00136	5d		 pop	 ebp
  00137	c3		 ret	 0
?getn@@YAHPAUstbi@@PAEH@Z ENDP				; getn
_TEXT	ENDS
; Function compile flags: /Odtp /RTCsu
; File e:\fusion3d_work\engine\src\staticlibs\stb_image.c
_TEXT	SEGMENT
_z$ = -4						; size = 4
_s$ = 8							; size = 4
?get16@@YAHPAUstbi@@@Z PROC				; get16

; 556  : {

  00000	55		 push	 ebp
  00001	8b ec		 mov	 ebp, esp
  00003	51		 push	 ecx
  00004	56		 push	 esi
  00005	c7 45 fc cc cc
	cc cc		 mov	 DWORD PTR [ebp-4], -858993460 ; ccccccccH

; 557  :    int z = get8(s);

  0000c	8b 45 08	 mov	 eax, DWORD PTR _s$[ebp]
  0000f	50		 push	 eax
  00010	e8 00 00 00 00	 call	 ?get8@@YAHPAUstbi@@@Z	; get8
  00015	83 c4 04	 add	 esp, 4
  00018	89 45 fc	 mov	 DWORD PTR _z$[ebp], eax

; 558  :    return (z << 8) + get8(s);

  0001b	8b 75 fc	 mov	 esi, DWORD PTR _z$[ebp]
  0001e	c1 e6 08	 shl	 esi, 8
  00021	8b 4d 08	 mov	 ecx, DWORD PTR _s$[ebp]
  00024	51		 push	 ecx
  00025	e8 00 00 00 00	 call	 ?get8@@YAHPAUstbi@@@Z	; get8
  0002a	83 c4 04	 add	 esp, 4
  0002d	03 c6		 add	 eax, esi

; 559  : }

  0002f	5e		 pop	 esi
  00030	83 c4 04	 add	 esp, 4
  00033	3b ec		 cmp	 ebp, esp
  00035	e8 00 00 00 00	 call	 __RTC_CheckEsp
  0003a	8b e5		 mov	 esp, ebp
  0003c	5d		 pop	 ebp
  0003d	c3		 ret	 0
?get16@@YAHPAUstbi@@@Z ENDP				; get16
_TEXT	ENDS
; Function compile flags: /Odtp /RTCsu
; File e:\fusion3d_work\engine\src\staticlibs\stb_image.c
_TEXT	SEGMENT
_z$ = -4						; size = 4
_s$ = 8							; size = 4
?get32@@YAIPAUstbi@@@Z PROC				; get32

; 562  : {

  00000	55		 push	 ebp
  00001	8b ec		 mov	 ebp, esp
  00003	51		 push	 ecx
  00004	56		 push	 esi
  00005	c7 45 fc cc cc
	cc cc		 mov	 DWORD PTR [ebp-4], -858993460 ; ccccccccH

; 563  :    uint32 z = get16(s);

  0000c	8b 45 08	 mov	 eax, DWORD PTR _s$[ebp]
  0000f	50		 push	 eax
  00010	e8 00 00 00 00	 call	 ?get16@@YAHPAUstbi@@@Z	; get16
  00015	83 c4 04	 add	 esp, 4
  00018	89 45 fc	 mov	 DWORD PTR _z$[ebp], eax

; 564  :    return (z << 16) + get16(s);

  0001b	8b 75 fc	 mov	 esi, DWORD PTR _z$[ebp]
  0001e	c1 e6 10	 shl	 esi, 16			; 00000010H
  00021	8b 4d 08	 mov	 ecx, DWORD PTR _s$[ebp]
  00024	51		 push	 ecx
  00025	e8 00 00 00 00	 call	 ?get16@@YAHPAUstbi@@@Z	; get16
  0002a	83 c4 04	 add	 esp, 4
  0002d	03 c6		 add	 eax, esi

; 565  : }

  0002f	5e		 pop	 esi
  00030	83 c4 04	 add	 esp, 4
  00033	3b ec		 cmp	 ebp, esp
  00035	e8 00 00 00 00	 call	 __RTC_CheckEsp
  0003a	8b e5		 mov	 esp, ebp
  0003c	5d		 pop	 ebp
  0003d	c3		 ret	 0
?get32@@YAIPAUstbi@@@Z ENDP				; get32
_TEXT	ENDS
; Function compile flags: /Odtp /RTCsu
; File e:\fusion3d_work\engine\src\staticlibs\stb_image.c
_TEXT	SEGMENT
_z$ = -4						; size = 4
_s$ = 8							; size = 4
?get16le@@YAHPAUstbi@@@Z PROC				; get16le

; 568  : {

  00000	55		 push	 ebp
  00001	8b ec		 mov	 ebp, esp
  00003	51		 push	 ecx
  00004	c7 45 fc cc cc
	cc cc		 mov	 DWORD PTR [ebp-4], -858993460 ; ccccccccH

; 569  :    int z = get8(s);

  0000b	8b 45 08	 mov	 eax, DWORD PTR _s$[ebp]
  0000e	50		 push	 eax
  0000f	e8 00 00 00 00	 call	 ?get8@@YAHPAUstbi@@@Z	; get8
  00014	83 c4 04	 add	 esp, 4
  00017	89 45 fc	 mov	 DWORD PTR _z$[ebp], eax

; 570  :    return z + (get8(s) << 8);

  0001a	8b 4d 08	 mov	 ecx, DWORD PTR _s$[ebp]
  0001d	51		 push	 ecx
  0001e	e8 00 00 00 00	 call	 ?get8@@YAHPAUstbi@@@Z	; get8
  00023	83 c4 04	 add	 esp, 4
  00026	c1 e0 08	 shl	 eax, 8
  00029	03 45 fc	 add	 eax, DWORD PTR _z$[ebp]

; 571  : }

  0002c	83 c4 04	 add	 esp, 4
  0002f	3b ec		 cmp	 ebp, esp
  00031	e8 00 00 00 00	 call	 __RTC_CheckEsp
  00036	8b e5		 mov	 esp, ebp
  00038	5d		 pop	 ebp
  00039	c3		 ret	 0
?get16le@@YAHPAUstbi@@@Z ENDP				; get16le
_TEXT	ENDS
; Function compile flags: /Odtp /RTCsu
; File e:\fusion3d_work\engine\src\staticlibs\stb_image.c
_TEXT	SEGMENT
_z$ = -4						; size = 4
_s$ = 8							; size = 4
?get32le@@YAIPAUstbi@@@Z PROC				; get32le

; 574  : {

  00000	55		 push	 ebp
  00001	8b ec		 mov	 ebp, esp
  00003	51		 push	 ecx
  00004	c7 45 fc cc cc
	cc cc		 mov	 DWORD PTR [ebp-4], -858993460 ; ccccccccH

; 575  :    uint32 z = get16le(s);

  0000b	8b 45 08	 mov	 eax, DWORD PTR _s$[ebp]
  0000e	50		 push	 eax
  0000f	e8 00 00 00 00	 call	 ?get16le@@YAHPAUstbi@@@Z ; get16le
  00014	83 c4 04	 add	 esp, 4
  00017	89 45 fc	 mov	 DWORD PTR _z$[ebp], eax

; 576  :    return z + (get16le(s) << 16);

  0001a	8b 4d 08	 mov	 ecx, DWORD PTR _s$[ebp]
  0001d	51		 push	 ecx
  0001e	e8 00 00 00 00	 call	 ?get16le@@YAHPAUstbi@@@Z ; get16le
  00023	83 c4 04	 add	 esp, 4
  00026	c1 e0 10	 shl	 eax, 16			; 00000010H
  00029	03 45 fc	 add	 eax, DWORD PTR _z$[ebp]

; 577  : }

  0002c	83 c4 04	 add	 esp, 4
  0002f	3b ec		 cmp	 ebp, esp
  00031	e8 00 00 00 00	 call	 __RTC_CheckEsp
  00036	8b e5		 mov	 esp, ebp
  00038	5d		 pop	 ebp
  00039	c3		 ret	 0
?get32le@@YAIPAUstbi@@@Z ENDP				; get32le
_TEXT	ENDS
; Function compile flags: /Odtp /RTCsu
; File e:\fusion3d_work\engine\src\staticlibs\stb_image.c
_TEXT	SEGMENT
_r$ = 8							; size = 4
_g$ = 12						; size = 4
_b$ = 16						; size = 4
?compute_y@@YAEHHH@Z PROC				; compute_y

; 591  : {

  00000	55		 push	 ebp
  00001	8b ec		 mov	 ebp, esp

; 592  :    return (uint8) (((r*77) + (g*150) +  (29*b)) >> 8);

  00003	6b 45 08 4d	 imul	 eax, DWORD PTR _r$[ebp], 77
  00007	69 4d 0c 96 00
	00 00		 imul	 ecx, DWORD PTR _g$[ebp], 150
  0000e	03 c1		 add	 eax, ecx
  00010	6b 55 10 1d	 imul	 edx, DWORD PTR _b$[ebp], 29
  00014	03 c2		 add	 eax, edx
  00016	c1 f8 08	 sar	 eax, 8

; 593  : }

  00019	5d		 pop	 ebp
  0001a	c3		 ret	 0
?compute_y@@YAEHHH@Z ENDP				; compute_y
_TEXT	ENDS
; Function compile flags: /Odtp /RTCsu
; File e:\fusion3d_work\engine\src\staticlibs\stb_image.c
_TEXT	SEGMENT
tv94 = -28						; size = 4
tv83 = -24						; size = 4
_dest$1 = -20						; size = 4
_src$2 = -16						; size = 4
_good$ = -12						; size = 4
_j$ = -8						; size = 4
_i$ = -4						; size = 4
_data$ = 8						; size = 4
_img_n$ = 12						; size = 4
_req_comp$ = 16						; size = 4
_x$ = 20						; size = 4
_y$ = 24						; size = 4
?convert_format@@YAPAEPAEHHII@Z PROC			; convert_format

; 596  : {

  00000	55		 push	 ebp
  00001	8b ec		 mov	 ebp, esp
  00003	83 ec 1c	 sub	 esp, 28			; 0000001cH
  00006	56		 push	 esi
  00007	b8 cc cc cc cc	 mov	 eax, -858993460		; ccccccccH
  0000c	89 45 e4	 mov	 DWORD PTR [ebp-28], eax
  0000f	89 45 e8	 mov	 DWORD PTR [ebp-24], eax
  00012	89 45 ec	 mov	 DWORD PTR [ebp-20], eax
  00015	89 45 f0	 mov	 DWORD PTR [ebp-16], eax
  00018	89 45 f4	 mov	 DWORD PTR [ebp-12], eax
  0001b	89 45 f8	 mov	 DWORD PTR [ebp-8], eax
  0001e	89 45 fc	 mov	 DWORD PTR [ebp-4], eax

; 597  :    int i,j;
; 598  :    unsigned char *good;
; 599  : 
; 600  :    if (req_comp == img_n) return data;

  00021	8b 45 10	 mov	 eax, DWORD PTR _req_comp$[ebp]
  00024	3b 45 0c	 cmp	 eax, DWORD PTR _img_n$[ebp]
  00027	75 08		 jne	 SHORT $LN43@convert_fo
  00029	8b 45 08	 mov	 eax, DWORD PTR _data$[ebp]
  0002c	e9 5f 07 00 00	 jmp	 $LN1@convert_fo
$LN43@convert_fo:

; 601  :    assert(req_comp >= 1 && req_comp <= 4);

  00031	83 7d 10 01	 cmp	 DWORD PTR _req_comp$[ebp], 1
  00035	7c 06		 jl	 SHORT $LN59@convert_fo
  00037	83 7d 10 04	 cmp	 DWORD PTR _req_comp$[ebp], 4
  0003b	7e 21		 jle	 SHORT $LN60@convert_fo
$LN59@convert_fo:
  0003d	8b f4		 mov	 esi, esp
  0003f	68 59 02 00 00	 push	 601			; 00000259H
  00044	68 00 00 00 00	 push	 OFFSET $SG4294820271
  00049	68 00 00 00 00	 push	 OFFSET $SG4294820270
  0004e	ff 15 00 00 00
	00		 call	 DWORD PTR __imp___wassert
  00054	83 c4 0c	 add	 esp, 12			; 0000000cH
  00057	3b f4		 cmp	 esi, esp
  00059	e8 00 00 00 00	 call	 __RTC_CheckEsp
$LN60@convert_fo:

; 602  : 
; 603  :    good = (unsigned char *) malloc(req_comp * x * y);

  0005e	8b 55 10	 mov	 edx, DWORD PTR _req_comp$[ebp]
  00061	0f af 55 14	 imul	 edx, DWORD PTR _x$[ebp]
  00065	0f af 55 18	 imul	 edx, DWORD PTR _y$[ebp]
  00069	8b f4		 mov	 esi, esp
  0006b	52		 push	 edx
  0006c	ff 15 00 00 00
	00		 call	 DWORD PTR __imp__malloc
  00072	83 c4 04	 add	 esp, 4
  00075	3b f4		 cmp	 esi, esp
  00077	e8 00 00 00 00	 call	 __RTC_CheckEsp
  0007c	89 45 f4	 mov	 DWORD PTR _good$[ebp], eax

; 604  :    if (good == NULL) {

  0007f	83 7d f4 00	 cmp	 DWORD PTR _good$[ebp], 0
  00083	75 3f		 jne	 SHORT $LN44@convert_fo

; 605  :       free(data);

  00085	8b f4		 mov	 esi, esp
  00087	8b 45 08	 mov	 eax, DWORD PTR _data$[ebp]
  0008a	50		 push	 eax
  0008b	ff 15 00 00 00
	00		 call	 DWORD PTR __imp__free
  00091	83 c4 04	 add	 esp, 4
  00094	3b f4		 cmp	 esi, esp
  00096	e8 00 00 00 00	 call	 __RTC_CheckEsp

; 606  :       return epuc("outofmem", "Out of memory");

  0009b	68 00 00 00 00	 push	 OFFSET $SG4294820269
  000a0	e8 00 00 00 00	 call	 ?e@@YAHPBD@Z		; e
  000a5	83 c4 04	 add	 esp, 4
  000a8	85 c0		 test	 eax, eax
  000aa	74 09		 je	 SHORT $LN61@convert_fo
  000ac	c7 45 e8 00 00
	00 00		 mov	 DWORD PTR tv83[ebp], 0
  000b3	eb 07		 jmp	 SHORT $LN62@convert_fo
$LN61@convert_fo:
  000b5	c7 45 e8 00 00
	00 00		 mov	 DWORD PTR tv83[ebp], 0
$LN62@convert_fo:
  000bc	8b 45 e8	 mov	 eax, DWORD PTR tv83[ebp]
  000bf	e9 cc 06 00 00	 jmp	 $LN1@convert_fo
$LN44@convert_fo:

; 607  :    }
; 608  : 
; 609  :    for (j=0; j < (int) y; ++j) {

  000c4	c7 45 f8 00 00
	00 00		 mov	 DWORD PTR _j$[ebp], 0
  000cb	eb 09		 jmp	 SHORT $LN4@convert_fo
$LN2@convert_fo:
  000cd	8b 4d f8	 mov	 ecx, DWORD PTR _j$[ebp]
  000d0	83 c1 01	 add	 ecx, 1
  000d3	89 4d f8	 mov	 DWORD PTR _j$[ebp], ecx
$LN4@convert_fo:
  000d6	8b 55 f8	 mov	 edx, DWORD PTR _j$[ebp]
  000d9	3b 55 18	 cmp	 edx, DWORD PTR _y$[ebp]
  000dc	0f 8d 95 06 00
	00		 jge	 $LN3@convert_fo

; 610  :       unsigned char *src  = data + j * x * img_n   ;

  000e2	8b 45 f8	 mov	 eax, DWORD PTR _j$[ebp]
  000e5	0f af 45 14	 imul	 eax, DWORD PTR _x$[ebp]
  000e9	0f af 45 0c	 imul	 eax, DWORD PTR _img_n$[ebp]
  000ed	03 45 08	 add	 eax, DWORD PTR _data$[ebp]
  000f0	89 45 f0	 mov	 DWORD PTR _src$2[ebp], eax

; 611  :       unsigned char *dest = good + j * x * req_comp;

  000f3	8b 4d f8	 mov	 ecx, DWORD PTR _j$[ebp]
  000f6	0f af 4d 14	 imul	 ecx, DWORD PTR _x$[ebp]
  000fa	0f af 4d 10	 imul	 ecx, DWORD PTR _req_comp$[ebp]
  000fe	03 4d f4	 add	 ecx, DWORD PTR _good$[ebp]
  00101	89 4d ec	 mov	 DWORD PTR _dest$1[ebp], ecx

; 612  : 
; 613  :       #define COMBO(a,b)  ((a)*8+(b))
; 614  :       #define CASE(a,b)   case COMBO(a,b): for(i=x-1; i >= 0; --i, src += a, dest += b)
; 615  :       // convert source image with img_n components to one with req_comp components;
; 616  :       // avoid switch per pixel, so use switch per scanline and massive macros
; 617  :       switch (COMBO(img_n, req_comp)) {

  00104	8b 55 0c	 mov	 edx, DWORD PTR _img_n$[ebp]
  00107	8b 45 10	 mov	 eax, DWORD PTR _req_comp$[ebp]
  0010a	8d 0c d0	 lea	 ecx, DWORD PTR [eax+edx*8]
  0010d	89 4d e4	 mov	 DWORD PTR tv94[ebp], ecx
  00110	8b 55 e4	 mov	 edx, DWORD PTR tv94[ebp]
  00113	83 ea 0a	 sub	 edx, 10			; 0000000aH
  00116	89 55 e4	 mov	 DWORD PTR tv94[ebp], edx
  00119	83 7d e4 19	 cmp	 DWORD PTR tv94[ebp], 25	; 00000019H
  0011d	0f 87 2a 06 00
	00		 ja	 $LN57@convert_fo
  00123	8b 45 e4	 mov	 eax, DWORD PTR tv94[ebp]
  00126	0f b6 88 00 00
	00 00		 movzx	 ecx, BYTE PTR $LN64@convert_fo[eax]
  0012d	ff 24 8d 00 00
	00 00		 jmp	 DWORD PTR $LN65@convert_fo[ecx*4]
$LN45@convert_fo:

; 618  :          CASE(1,2) dest[0]=src[0], dest[1]=255; break;

  00134	8b 55 14	 mov	 edx, DWORD PTR _x$[ebp]
  00137	83 ea 01	 sub	 edx, 1
  0013a	89 55 fc	 mov	 DWORD PTR _i$[ebp], edx
  0013d	eb 1b		 jmp	 SHORT $LN9@convert_fo
$LN7@convert_fo:
  0013f	8b 45 fc	 mov	 eax, DWORD PTR _i$[ebp]
  00142	83 e8 01	 sub	 eax, 1
  00145	89 45 fc	 mov	 DWORD PTR _i$[ebp], eax
  00148	8b 4d f0	 mov	 ecx, DWORD PTR _src$2[ebp]
  0014b	83 c1 01	 add	 ecx, 1
  0014e	89 4d f0	 mov	 DWORD PTR _src$2[ebp], ecx
  00151	8b 55 ec	 mov	 edx, DWORD PTR _dest$1[ebp]
  00154	83 c2 02	 add	 edx, 2
  00157	89 55 ec	 mov	 DWORD PTR _dest$1[ebp], edx
$LN9@convert_fo:
  0015a	83 7d fc 00	 cmp	 DWORD PTR _i$[ebp], 0
  0015e	7c 2d		 jl	 SHORT $LN8@convert_fo
  00160	b8 01 00 00 00	 mov	 eax, 1
  00165	6b c8 00	 imul	 ecx, eax, 0
  00168	ba 01 00 00 00	 mov	 edx, 1
  0016d	6b c2 00	 imul	 eax, edx, 0
  00170	8b 55 ec	 mov	 edx, DWORD PTR _dest$1[ebp]
  00173	8b 75 f0	 mov	 esi, DWORD PTR _src$2[ebp]
  00176	8a 0c 0e	 mov	 cl, BYTE PTR [esi+ecx]
  00179	88 0c 02	 mov	 BYTE PTR [edx+eax], cl
  0017c	ba 01 00 00 00	 mov	 edx, 1
  00181	c1 e2 00	 shl	 edx, 0
  00184	8b 45 ec	 mov	 eax, DWORD PTR _dest$1[ebp]
  00187	c6 04 10 ff	 mov	 BYTE PTR [eax+edx], 255	; 000000ffH
  0018b	eb b2		 jmp	 SHORT $LN7@convert_fo
$LN8@convert_fo:
  0018d	e9 e0 05 00 00	 jmp	 $LN5@convert_fo
$LN46@convert_fo:

; 619  :          CASE(1,3) dest[0]=dest[1]=dest[2]=src[0]; break;

  00192	8b 4d 14	 mov	 ecx, DWORD PTR _x$[ebp]
  00195	83 e9 01	 sub	 ecx, 1
  00198	89 4d fc	 mov	 DWORD PTR _i$[ebp], ecx
  0019b	eb 1b		 jmp	 SHORT $LN12@convert_fo
$LN10@convert_fo:
  0019d	8b 55 fc	 mov	 edx, DWORD PTR _i$[ebp]
  001a0	83 ea 01	 sub	 edx, 1
  001a3	89 55 fc	 mov	 DWORD PTR _i$[ebp], edx
  001a6	8b 45 f0	 mov	 eax, DWORD PTR _src$2[ebp]
  001a9	83 c0 01	 add	 eax, 1
  001ac	89 45 f0	 mov	 DWORD PTR _src$2[ebp], eax
  001af	8b 4d ec	 mov	 ecx, DWORD PTR _dest$1[ebp]
  001b2	83 c1 03	 add	 ecx, 3
  001b5	89 4d ec	 mov	 DWORD PTR _dest$1[ebp], ecx
$LN12@convert_fo:
  001b8	83 7d fc 00	 cmp	 DWORD PTR _i$[ebp], 0
  001bc	7c 54		 jl	 SHORT $LN11@convert_fo
  001be	ba 01 00 00 00	 mov	 edx, 1
  001c3	6b c2 00	 imul	 eax, edx, 0
  001c6	b9 01 00 00 00	 mov	 ecx, 1
  001cb	d1 e1		 shl	 ecx, 1
  001cd	8b 55 ec	 mov	 edx, DWORD PTR _dest$1[ebp]
  001d0	8b 75 f0	 mov	 esi, DWORD PTR _src$2[ebp]
  001d3	8a 04 06	 mov	 al, BYTE PTR [esi+eax]
  001d6	88 04 0a	 mov	 BYTE PTR [edx+ecx], al
  001d9	b9 01 00 00 00	 mov	 ecx, 1
  001de	d1 e1		 shl	 ecx, 1
  001e0	ba 01 00 00 00	 mov	 edx, 1
  001e5	c1 e2 00	 shl	 edx, 0
  001e8	8b 45 ec	 mov	 eax, DWORD PTR _dest$1[ebp]
  001eb	8b 75 ec	 mov	 esi, DWORD PTR _dest$1[ebp]
  001ee	8a 0c 0e	 mov	 cl, BYTE PTR [esi+ecx]
  001f1	88 0c 10	 mov	 BYTE PTR [eax+edx], cl
  001f4	ba 01 00 00 00	 mov	 edx, 1
  001f9	c1 e2 00	 shl	 edx, 0
  001fc	b8 01 00 00 00	 mov	 eax, 1
  00201	6b c8 00	 imul	 ecx, eax, 0
  00204	8b 45 ec	 mov	 eax, DWORD PTR _dest$1[ebp]
  00207	8b 75 ec	 mov	 esi, DWORD PTR _dest$1[ebp]
  0020a	8a 14 16	 mov	 dl, BYTE PTR [esi+edx]
  0020d	88 14 08	 mov	 BYTE PTR [eax+ecx], dl
  00210	eb 8b		 jmp	 SHORT $LN10@convert_fo
$LN11@convert_fo:
  00212	e9 5b 05 00 00	 jmp	 $LN5@convert_fo
$LN47@convert_fo:

; 620  :          CASE(1,4) dest[0]=dest[1]=dest[2]=src[0], dest[3]=255; break;

  00217	8b 45 14	 mov	 eax, DWORD PTR _x$[ebp]
  0021a	83 e8 01	 sub	 eax, 1
  0021d	89 45 fc	 mov	 DWORD PTR _i$[ebp], eax
  00220	eb 1b		 jmp	 SHORT $LN15@convert_fo
$LN13@convert_fo:
  00222	8b 4d fc	 mov	 ecx, DWORD PTR _i$[ebp]
  00225	83 e9 01	 sub	 ecx, 1
  00228	89 4d fc	 mov	 DWORD PTR _i$[ebp], ecx
  0022b	8b 55 f0	 mov	 edx, DWORD PTR _src$2[ebp]
  0022e	83 c2 01	 add	 edx, 1
  00231	89 55 f0	 mov	 DWORD PTR _src$2[ebp], edx
  00234	8b 45 ec	 mov	 eax, DWORD PTR _dest$1[ebp]
  00237	83 c0 04	 add	 eax, 4
  0023a	89 45 ec	 mov	 DWORD PTR _dest$1[ebp], eax
$LN15@convert_fo:
  0023d	83 7d fc 00	 cmp	 DWORD PTR _i$[ebp], 0
  00241	7c 66		 jl	 SHORT $LN14@convert_fo
  00243	b9 01 00 00 00	 mov	 ecx, 1
  00248	6b d1 00	 imul	 edx, ecx, 0
  0024b	b8 01 00 00 00	 mov	 eax, 1
  00250	d1 e0		 shl	 eax, 1
  00252	8b 4d ec	 mov	 ecx, DWORD PTR _dest$1[ebp]
  00255	8b 75 f0	 mov	 esi, DWORD PTR _src$2[ebp]
  00258	8a 14 16	 mov	 dl, BYTE PTR [esi+edx]
  0025b	88 14 01	 mov	 BYTE PTR [ecx+eax], dl
  0025e	b8 01 00 00 00	 mov	 eax, 1
  00263	d1 e0		 shl	 eax, 1
  00265	b9 01 00 00 00	 mov	 ecx, 1
  0026a	c1 e1 00	 shl	 ecx, 0
  0026d	8b 55 ec	 mov	 edx, DWORD PTR _dest$1[ebp]
  00270	8b 75 ec	 mov	 esi, DWORD PTR _dest$1[ebp]
  00273	8a 04 06	 mov	 al, BYTE PTR [esi+eax]
  00276	88 04 0a	 mov	 BYTE PTR [edx+ecx], al
  00279	b9 01 00 00 00	 mov	 ecx, 1
  0027e	c1 e1 00	 shl	 ecx, 0
  00281	ba 01 00 00 00	 mov	 edx, 1
  00286	6b c2 00	 imul	 eax, edx, 0
  00289	8b 55 ec	 mov	 edx, DWORD PTR _dest$1[ebp]
  0028c	8b 75 ec	 mov	 esi, DWORD PTR _dest$1[ebp]
  0028f	8a 0c 0e	 mov	 cl, BYTE PTR [esi+ecx]
  00292	88 0c 02	 mov	 BYTE PTR [edx+eax], cl
  00295	ba 01 00 00 00	 mov	 edx, 1
  0029a	6b c2 03	 imul	 eax, edx, 3
  0029d	8b 4d ec	 mov	 ecx, DWORD PTR _dest$1[ebp]
  002a0	c6 04 01 ff	 mov	 BYTE PTR [ecx+eax], 255	; 000000ffH
  002a4	e9 79 ff ff ff	 jmp	 $LN13@convert_fo
$LN14@convert_fo:
  002a9	e9 c4 04 00 00	 jmp	 $LN5@convert_fo
$LN48@convert_fo:

; 621  :          CASE(2,1) dest[0]=src[0]; break;

  002ae	8b 55 14	 mov	 edx, DWORD PTR _x$[ebp]
  002b1	83 ea 01	 sub	 edx, 1
  002b4	89 55 fc	 mov	 DWORD PTR _i$[ebp], edx
  002b7	eb 1b		 jmp	 SHORT $LN18@convert_fo
$LN16@convert_fo:
  002b9	8b 45 fc	 mov	 eax, DWORD PTR _i$[ebp]
  002bc	83 e8 01	 sub	 eax, 1
  002bf	89 45 fc	 mov	 DWORD PTR _i$[ebp], eax
  002c2	8b 4d f0	 mov	 ecx, DWORD PTR _src$2[ebp]
  002c5	83 c1 02	 add	 ecx, 2
  002c8	89 4d f0	 mov	 DWORD PTR _src$2[ebp], ecx
  002cb	8b 55 ec	 mov	 edx, DWORD PTR _dest$1[ebp]
  002ce	83 c2 01	 add	 edx, 1
  002d1	89 55 ec	 mov	 DWORD PTR _dest$1[ebp], edx
$LN18@convert_fo:
  002d4	83 7d fc 00	 cmp	 DWORD PTR _i$[ebp], 0
  002d8	7c 1e		 jl	 SHORT $LN17@convert_fo
  002da	b8 01 00 00 00	 mov	 eax, 1
  002df	6b c8 00	 imul	 ecx, eax, 0
  002e2	ba 01 00 00 00	 mov	 edx, 1
  002e7	6b c2 00	 imul	 eax, edx, 0
  002ea	8b 55 ec	 mov	 edx, DWORD PTR _dest$1[ebp]
  002ed	8b 75 f0	 mov	 esi, DWORD PTR _src$2[ebp]
  002f0	8a 0c 0e	 mov	 cl, BYTE PTR [esi+ecx]
  002f3	88 0c 02	 mov	 BYTE PTR [edx+eax], cl
  002f6	eb c1		 jmp	 SHORT $LN16@convert_fo
$LN17@convert_fo:
  002f8	e9 75 04 00 00	 jmp	 $LN5@convert_fo
$LN49@convert_fo:

; 622  :          CASE(2,3) dest[0]=dest[1]=dest[2]=src[0]; break;

  002fd	8b 55 14	 mov	 edx, DWORD PTR _x$[ebp]
  00300	83 ea 01	 sub	 edx, 1
  00303	89 55 fc	 mov	 DWORD PTR _i$[ebp], edx
  00306	eb 1b		 jmp	 SHORT $LN21@convert_fo
$LN19@convert_fo:
  00308	8b 45 fc	 mov	 eax, DWORD PTR _i$[ebp]
  0030b	83 e8 01	 sub	 eax, 1
  0030e	89 45 fc	 mov	 DWORD PTR _i$[ebp], eax
  00311	8b 4d f0	 mov	 ecx, DWORD PTR _src$2[ebp]
  00314	83 c1 02	 add	 ecx, 2
  00317	89 4d f0	 mov	 DWORD PTR _src$2[ebp], ecx
  0031a	8b 55 ec	 mov	 edx, DWORD PTR _dest$1[ebp]
  0031d	83 c2 03	 add	 edx, 3
  00320	89 55 ec	 mov	 DWORD PTR _dest$1[ebp], edx
$LN21@convert_fo:
  00323	83 7d fc 00	 cmp	 DWORD PTR _i$[ebp], 0
  00327	7c 54		 jl	 SHORT $LN20@convert_fo
  00329	b8 01 00 00 00	 mov	 eax, 1
  0032e	6b c8 00	 imul	 ecx, eax, 0
  00331	ba 01 00 00 00	 mov	 edx, 1
  00336	d1 e2		 shl	 edx, 1
  00338	8b 45 ec	 mov	 eax, DWORD PTR _dest$1[ebp]
  0033b	8b 75 f0	 mov	 esi, DWORD PTR _src$2[ebp]
  0033e	8a 0c 0e	 mov	 cl, BYTE PTR [esi+ecx]
  00341	88 0c 10	 mov	 BYTE PTR [eax+edx], cl
  00344	ba 01 00 00 00	 mov	 edx, 1
  00349	d1 e2		 shl	 edx, 1
  0034b	b8 01 00 00 00	 mov	 eax, 1
  00350	c1 e0 00	 shl	 eax, 0
  00353	8b 4d ec	 mov	 ecx, DWORD PTR _dest$1[ebp]
  00356	8b 75 ec	 mov	 esi, DWORD PTR _dest$1[ebp]
  00359	8a 14 16	 mov	 dl, BYTE PTR [esi+edx]
  0035c	88 14 01	 mov	 BYTE PTR [ecx+eax], dl
  0035f	b8 01 00 00 00	 mov	 eax, 1
  00364	c1 e0 00	 shl	 eax, 0
  00367	b9 01 00 00 00	 mov	 ecx, 1
  0036c	6b d1 00	 imul	 edx, ecx, 0
  0036f	8b 4d ec	 mov	 ecx, DWORD PTR _dest$1[ebp]
  00372	8b 75 ec	 mov	 esi, DWORD PTR _dest$1[ebp]
  00375	8a 04 06	 mov	 al, BYTE PTR [esi+eax]
  00378	88 04 11	 mov	 BYTE PTR [ecx+edx], al
  0037b	eb 8b		 jmp	 SHORT $LN19@convert_fo
$LN20@convert_fo:
  0037d	e9 f0 03 00 00	 jmp	 $LN5@convert_fo
$LN50@convert_fo:

; 623  :          CASE(2,4) dest[0]=dest[1]=dest[2]=src[0], dest[3]=src[1]; break;

  00382	8b 4d 14	 mov	 ecx, DWORD PTR _x$[ebp]
  00385	83 e9 01	 sub	 ecx, 1
  00388	89 4d fc	 mov	 DWORD PTR _i$[ebp], ecx
  0038b	eb 1b		 jmp	 SHORT $LN24@convert_fo
$LN22@convert_fo:
  0038d	8b 55 fc	 mov	 edx, DWORD PTR _i$[ebp]
  00390	83 ea 01	 sub	 edx, 1
  00393	89 55 fc	 mov	 DWORD PTR _i$[ebp], edx
  00396	8b 45 f0	 mov	 eax, DWORD PTR _src$2[ebp]
  00399	83 c0 02	 add	 eax, 2
  0039c	89 45 f0	 mov	 DWORD PTR _src$2[ebp], eax
  0039f	8b 4d ec	 mov	 ecx, DWORD PTR _dest$1[ebp]
  003a2	83 c1 04	 add	 ecx, 4
  003a5	89 4d ec	 mov	 DWORD PTR _dest$1[ebp], ecx
$LN24@convert_fo:
  003a8	83 7d fc 00	 cmp	 DWORD PTR _i$[ebp], 0
  003ac	7c 73		 jl	 SHORT $LN23@convert_fo
  003ae	ba 01 00 00 00	 mov	 edx, 1
  003b3	6b c2 00	 imul	 eax, edx, 0
  003b6	b9 01 00 00 00	 mov	 ecx, 1
  003bb	d1 e1		 shl	 ecx, 1
  003bd	8b 55 ec	 mov	 edx, DWORD PTR _dest$1[ebp]
  003c0	8b 75 f0	 mov	 esi, DWORD PTR _src$2[ebp]
  003c3	8a 04 06	 mov	 al, BYTE PTR [esi+eax]
  003c6	88 04 0a	 mov	 BYTE PTR [edx+ecx], al
  003c9	b9 01 00 00 00	 mov	 ecx, 1
  003ce	d1 e1		 shl	 ecx, 1
  003d0	ba 01 00 00 00	 mov	 edx, 1
  003d5	c1 e2 00	 shl	 edx, 0
  003d8	8b 45 ec	 mov	 eax, DWORD PTR _dest$1[ebp]
  003db	8b 75 ec	 mov	 esi, DWORD PTR _dest$1[ebp]
  003de	8a 0c 0e	 mov	 cl, BYTE PTR [esi+ecx]
  003e1	88 0c 10	 mov	 BYTE PTR [eax+edx], cl
  003e4	ba 01 00 00 00	 mov	 edx, 1
  003e9	c1 e2 00	 shl	 edx, 0
  003ec	b8 01 00 00 00	 mov	 eax, 1
  003f1	6b c8 00	 imul	 ecx, eax, 0
  003f4	8b 45 ec	 mov	 eax, DWORD PTR _dest$1[ebp]
  003f7	8b 75 ec	 mov	 esi, DWORD PTR _dest$1[ebp]
  003fa	8a 14 16	 mov	 dl, BYTE PTR [esi+edx]
  003fd	88 14 08	 mov	 BYTE PTR [eax+ecx], dl
  00400	b8 01 00 00 00	 mov	 eax, 1
  00405	c1 e0 00	 shl	 eax, 0
  00408	b9 01 00 00 00	 mov	 ecx, 1
  0040d	6b d1 03	 imul	 edx, ecx, 3
  00410	8b 4d ec	 mov	 ecx, DWORD PTR _dest$1[ebp]
  00413	8b 75 f0	 mov	 esi, DWORD PTR _src$2[ebp]
  00416	8a 04 06	 mov	 al, BYTE PTR [esi+eax]
  00419	88 04 11	 mov	 BYTE PTR [ecx+edx], al
  0041c	e9 6c ff ff ff	 jmp	 $LN22@convert_fo
$LN23@convert_fo:
  00421	e9 4c 03 00 00	 jmp	 $LN5@convert_fo
$LN51@convert_fo:

; 624  :          CASE(3,4) dest[0]=src[0],dest[1]=src[1],dest[2]=src[2],dest[3]=255; break;

  00426	8b 4d 14	 mov	 ecx, DWORD PTR _x$[ebp]
  00429	83 e9 01	 sub	 ecx, 1
  0042c	89 4d fc	 mov	 DWORD PTR _i$[ebp], ecx
  0042f	eb 1b		 jmp	 SHORT $LN27@convert_fo
$LN25@convert_fo:
  00431	8b 55 fc	 mov	 edx, DWORD PTR _i$[ebp]
  00434	83 ea 01	 sub	 edx, 1
  00437	89 55 fc	 mov	 DWORD PTR _i$[ebp], edx
  0043a	8b 45 f0	 mov	 eax, DWORD PTR _src$2[ebp]
  0043d	83 c0 03	 add	 eax, 3
  00440	89 45 f0	 mov	 DWORD PTR _src$2[ebp], eax
  00443	8b 4d ec	 mov	 ecx, DWORD PTR _dest$1[ebp]
  00446	83 c1 04	 add	 ecx, 4
  00449	89 4d ec	 mov	 DWORD PTR _dest$1[ebp], ecx
$LN27@convert_fo:
  0044c	83 7d fc 00	 cmp	 DWORD PTR _i$[ebp], 0
  00450	7c 66		 jl	 SHORT $LN26@convert_fo
  00452	ba 01 00 00 00	 mov	 edx, 1
  00457	6b c2 00	 imul	 eax, edx, 0
  0045a	b9 01 00 00 00	 mov	 ecx, 1
  0045f	6b d1 00	 imul	 edx, ecx, 0
  00462	8b 4d ec	 mov	 ecx, DWORD PTR _dest$1[ebp]
  00465	8b 75 f0	 mov	 esi, DWORD PTR _src$2[ebp]
  00468	8a 04 06	 mov	 al, BYTE PTR [esi+eax]
  0046b	88 04 11	 mov	 BYTE PTR [ecx+edx], al
  0046e	b9 01 00 00 00	 mov	 ecx, 1
  00473	c1 e1 00	 shl	 ecx, 0
  00476	ba 01 00 00 00	 mov	 edx, 1
  0047b	c1 e2 00	 shl	 edx, 0
  0047e	8b 45 ec	 mov	 eax, DWORD PTR _dest$1[ebp]
  00481	8b 75 f0	 mov	 esi, DWORD PTR _src$2[ebp]
  00484	8a 0c 0e	 mov	 cl, BYTE PTR [esi+ecx]
  00487	88 0c 10	 mov	 BYTE PTR [eax+edx], cl
  0048a	ba 01 00 00 00	 mov	 edx, 1
  0048f	d1 e2		 shl	 edx, 1
  00491	b8 01 00 00 00	 mov	 eax, 1
  00496	d1 e0		 shl	 eax, 1
  00498	8b 4d ec	 mov	 ecx, DWORD PTR _dest$1[ebp]
  0049b	8b 75 f0	 mov	 esi, DWORD PTR _src$2[ebp]
  0049e	8a 14 16	 mov	 dl, BYTE PTR [esi+edx]
  004a1	88 14 01	 mov	 BYTE PTR [ecx+eax], dl
  004a4	b8 01 00 00 00	 mov	 eax, 1
  004a9	6b c8 03	 imul	 ecx, eax, 3
  004ac	8b 55 ec	 mov	 edx, DWORD PTR _dest$1[ebp]
  004af	c6 04 0a ff	 mov	 BYTE PTR [edx+ecx], 255	; 000000ffH
  004b3	e9 79 ff ff ff	 jmp	 $LN25@convert_fo
$LN26@convert_fo:
  004b8	e9 b5 02 00 00	 jmp	 $LN5@convert_fo
$LN52@convert_fo:

; 625  :          CASE(3,1) dest[0]=compute_y(src[0],src[1],src[2]); break;

  004bd	8b 45 14	 mov	 eax, DWORD PTR _x$[ebp]
  004c0	83 e8 01	 sub	 eax, 1
  004c3	89 45 fc	 mov	 DWORD PTR _i$[ebp], eax
  004c6	eb 1b		 jmp	 SHORT $LN30@convert_fo
$LN28@convert_fo:
  004c8	8b 4d fc	 mov	 ecx, DWORD PTR _i$[ebp]
  004cb	83 e9 01	 sub	 ecx, 1
  004ce	89 4d fc	 mov	 DWORD PTR _i$[ebp], ecx
  004d1	8b 55 f0	 mov	 edx, DWORD PTR _src$2[ebp]
  004d4	83 c2 03	 add	 edx, 3
  004d7	89 55 f0	 mov	 DWORD PTR _src$2[ebp], edx
  004da	8b 45 ec	 mov	 eax, DWORD PTR _dest$1[ebp]
  004dd	83 c0 01	 add	 eax, 1
  004e0	89 45 ec	 mov	 DWORD PTR _dest$1[ebp], eax
$LN30@convert_fo:
  004e3	83 7d fc 00	 cmp	 DWORD PTR _i$[ebp], 0
  004e7	7c 47		 jl	 SHORT $LN29@convert_fo
  004e9	b9 01 00 00 00	 mov	 ecx, 1
  004ee	d1 e1		 shl	 ecx, 1
  004f0	8b 55 f0	 mov	 edx, DWORD PTR _src$2[ebp]
  004f3	0f b6 04 0a	 movzx	 eax, BYTE PTR [edx+ecx]
  004f7	50		 push	 eax
  004f8	b9 01 00 00 00	 mov	 ecx, 1
  004fd	c1 e1 00	 shl	 ecx, 0
  00500	8b 55 f0	 mov	 edx, DWORD PTR _src$2[ebp]
  00503	0f b6 04 0a	 movzx	 eax, BYTE PTR [edx+ecx]
  00507	50		 push	 eax
  00508	b9 01 00 00 00	 mov	 ecx, 1
  0050d	6b d1 00	 imul	 edx, ecx, 0
  00510	8b 45 f0	 mov	 eax, DWORD PTR _src$2[ebp]
  00513	0f b6 0c 10	 movzx	 ecx, BYTE PTR [eax+edx]
  00517	51		 push	 ecx
  00518	e8 00 00 00 00	 call	 ?compute_y@@YAEHHH@Z	; compute_y
  0051d	83 c4 0c	 add	 esp, 12			; 0000000cH
  00520	ba 01 00 00 00	 mov	 edx, 1
  00525	6b ca 00	 imul	 ecx, edx, 0
  00528	8b 55 ec	 mov	 edx, DWORD PTR _dest$1[ebp]
  0052b	88 04 0a	 mov	 BYTE PTR [edx+ecx], al
  0052e	eb 98		 jmp	 SHORT $LN28@convert_fo
$LN29@convert_fo:
  00530	e9 3d 02 00 00	 jmp	 $LN5@convert_fo
$LN53@convert_fo:

; 626  :          CASE(3,2) dest[0]=compute_y(src[0],src[1],src[2]), dest[1] = 255; break;

  00535	8b 45 14	 mov	 eax, DWORD PTR _x$[ebp]
  00538	83 e8 01	 sub	 eax, 1
  0053b	89 45 fc	 mov	 DWORD PTR _i$[ebp], eax
  0053e	eb 1b		 jmp	 SHORT $LN33@convert_fo
$LN31@convert_fo:
  00540	8b 4d fc	 mov	 ecx, DWORD PTR _i$[ebp]
  00543	83 e9 01	 sub	 ecx, 1
  00546	89 4d fc	 mov	 DWORD PTR _i$[ebp], ecx
  00549	8b 55 f0	 mov	 edx, DWORD PTR _src$2[ebp]
  0054c	83 c2 03	 add	 edx, 3
  0054f	89 55 f0	 mov	 DWORD PTR _src$2[ebp], edx
  00552	8b 45 ec	 mov	 eax, DWORD PTR _dest$1[ebp]
  00555	83 c0 02	 add	 eax, 2
  00558	89 45 ec	 mov	 DWORD PTR _dest$1[ebp], eax
$LN33@convert_fo:
  0055b	83 7d fc 00	 cmp	 DWORD PTR _i$[ebp], 0
  0055f	7c 56		 jl	 SHORT $LN32@convert_fo
  00561	b9 01 00 00 00	 mov	 ecx, 1
  00566	d1 e1		 shl	 ecx, 1
  00568	8b 55 f0	 mov	 edx, DWORD PTR _src$2[ebp]
  0056b	0f b6 04 0a	 movzx	 eax, BYTE PTR [edx+ecx]
  0056f	50		 push	 eax
  00570	b9 01 00 00 00	 mov	 ecx, 1
  00575	c1 e1 00	 shl	 ecx, 0
  00578	8b 55 f0	 mov	 edx, DWORD PTR _src$2[ebp]
  0057b	0f b6 04 0a	 movzx	 eax, BYTE PTR [edx+ecx]
  0057f	50		 push	 eax
  00580	b9 01 00 00 00	 mov	 ecx, 1
  00585	6b d1 00	 imul	 edx, ecx, 0
  00588	8b 45 f0	 mov	 eax, DWORD PTR _src$2[ebp]
  0058b	0f b6 0c 10	 movzx	 ecx, BYTE PTR [eax+edx]
  0058f	51		 push	 ecx
  00590	e8 00 00 00 00	 call	 ?compute_y@@YAEHHH@Z	; compute_y
  00595	83 c4 0c	 add	 esp, 12			; 0000000cH
  00598	ba 01 00 00 00	 mov	 edx, 1
  0059d	6b ca 00	 imul	 ecx, edx, 0
  005a0	8b 55 ec	 mov	 edx, DWORD PTR _dest$1[ebp]
  005a3	88 04 0a	 mov	 BYTE PTR [edx+ecx], al
  005a6	b8 01 00 00 00	 mov	 eax, 1
  005ab	c1 e0 00	 shl	 eax, 0
  005ae	8b 4d ec	 mov	 ecx, DWORD PTR _dest$1[ebp]
  005b1	c6 04 01 ff	 mov	 BYTE PTR [ecx+eax], 255	; 000000ffH
  005b5	eb 89		 jmp	 SHORT $LN31@convert_fo
$LN32@convert_fo:
  005b7	e9 b6 01 00 00	 jmp	 $LN5@convert_fo
$LN54@convert_fo:

; 627  :          CASE(4,1) dest[0]=compute_y(src[0],src[1],src[2]); break;

  005bc	8b 55 14	 mov	 edx, DWORD PTR _x$[ebp]
  005bf	83 ea 01	 sub	 edx, 1
  005c2	89 55 fc	 mov	 DWORD PTR _i$[ebp], edx
  005c5	eb 1b		 jmp	 SHORT $LN36@convert_fo
$LN34@convert_fo:
  005c7	8b 45 fc	 mov	 eax, DWORD PTR _i$[ebp]
  005ca	83 e8 01	 sub	 eax, 1
  005cd	89 45 fc	 mov	 DWORD PTR _i$[ebp], eax
  005d0	8b 4d f0	 mov	 ecx, DWORD PTR _src$2[ebp]
  005d3	83 c1 04	 add	 ecx, 4
  005d6	89 4d f0	 mov	 DWORD PTR _src$2[ebp], ecx
  005d9	8b 55 ec	 mov	 edx, DWORD PTR _dest$1[ebp]
  005dc	83 c2 01	 add	 edx, 1
  005df	89 55 ec	 mov	 DWORD PTR _dest$1[ebp], edx
$LN36@convert_fo:
  005e2	83 7d fc 00	 cmp	 DWORD PTR _i$[ebp], 0
  005e6	7c 47		 jl	 SHORT $LN35@convert_fo
  005e8	b8 01 00 00 00	 mov	 eax, 1
  005ed	d1 e0		 shl	 eax, 1
  005ef	8b 4d f0	 mov	 ecx, DWORD PTR _src$2[ebp]
  005f2	0f b6 14 01	 movzx	 edx, BYTE PTR [ecx+eax]
  005f6	52		 push	 edx
  005f7	b8 01 00 00 00	 mov	 eax, 1
  005fc	c1 e0 00	 shl	 eax, 0
  005ff	8b 4d f0	 mov	 ecx, DWORD PTR _src$2[ebp]
  00602	0f b6 14 01	 movzx	 edx, BYTE PTR [ecx+eax]
  00606	52		 push	 edx
  00607	b8 01 00 00 00	 mov	 eax, 1
  0060c	6b c8 00	 imul	 ecx, eax, 0
  0060f	8b 55 f0	 mov	 edx, DWORD PTR _src$2[ebp]
  00612	0f b6 04 0a	 movzx	 eax, BYTE PTR [edx+ecx]
  00616	50		 push	 eax
  00617	e8 00 00 00 00	 call	 ?compute_y@@YAEHHH@Z	; compute_y
  0061c	83 c4 0c	 add	 esp, 12			; 0000000cH
  0061f	b9 01 00 00 00	 mov	 ecx, 1
  00624	6b d1 00	 imul	 edx, ecx, 0
  00627	8b 4d ec	 mov	 ecx, DWORD PTR _dest$1[ebp]
  0062a	88 04 11	 mov	 BYTE PTR [ecx+edx], al
  0062d	eb 98		 jmp	 SHORT $LN34@convert_fo
$LN35@convert_fo:
  0062f	e9 3e 01 00 00	 jmp	 $LN5@convert_fo
$LN55@convert_fo:

; 628  :          CASE(4,2) dest[0]=compute_y(src[0],src[1],src[2]), dest[1] = src[3]; break;

  00634	8b 55 14	 mov	 edx, DWORD PTR _x$[ebp]
  00637	83 ea 01	 sub	 edx, 1
  0063a	89 55 fc	 mov	 DWORD PTR _i$[ebp], edx
  0063d	eb 1b		 jmp	 SHORT $LN39@convert_fo
$LN37@convert_fo:
  0063f	8b 45 fc	 mov	 eax, DWORD PTR _i$[ebp]
  00642	83 e8 01	 sub	 eax, 1
  00645	89 45 fc	 mov	 DWORD PTR _i$[ebp], eax
  00648	8b 4d f0	 mov	 ecx, DWORD PTR _src$2[ebp]
  0064b	83 c1 04	 add	 ecx, 4
  0064e	89 4d f0	 mov	 DWORD PTR _src$2[ebp], ecx
  00651	8b 55 ec	 mov	 edx, DWORD PTR _dest$1[ebp]
  00654	83 c2 02	 add	 edx, 2
  00657	89 55 ec	 mov	 DWORD PTR _dest$1[ebp], edx
$LN39@convert_fo:
  0065a	83 7d fc 00	 cmp	 DWORD PTR _i$[ebp], 0
  0065e	7c 66		 jl	 SHORT $LN38@convert_fo
  00660	b8 01 00 00 00	 mov	 eax, 1
  00665	d1 e0		 shl	 eax, 1
  00667	8b 4d f0	 mov	 ecx, DWORD PTR _src$2[ebp]
  0066a	0f b6 14 01	 movzx	 edx, BYTE PTR [ecx+eax]
  0066e	52		 push	 edx
  0066f	b8 01 00 00 00	 mov	 eax, 1
  00674	c1 e0 00	 shl	 eax, 0
  00677	8b 4d f0	 mov	 ecx, DWORD PTR _src$2[ebp]
  0067a	0f b6 14 01	 movzx	 edx, BYTE PTR [ecx+eax]
  0067e	52		 push	 edx
  0067f	b8 01 00 00 00	 mov	 eax, 1
  00684	6b c8 00	 imul	 ecx, eax, 0
  00687	8b 55 f0	 mov	 edx, DWORD PTR _src$2[ebp]
  0068a	0f b6 04 0a	 movzx	 eax, BYTE PTR [edx+ecx]
  0068e	50		 push	 eax
  0068f	e8 00 00 00 00	 call	 ?compute_y@@YAEHHH@Z	; compute_y
  00694	83 c4 0c	 add	 esp, 12			; 0000000cH
  00697	b9 01 00 00 00	 mov	 ecx, 1
  0069c	6b d1 00	 imul	 edx, ecx, 0
  0069f	8b 4d ec	 mov	 ecx, DWORD PTR _dest$1[ebp]
  006a2	88 04 11	 mov	 BYTE PTR [ecx+edx], al
  006a5	ba 01 00 00 00	 mov	 edx, 1
  006aa	6b c2 03	 imul	 eax, edx, 3
  006ad	b9 01 00 00 00	 mov	 ecx, 1
  006b2	c1 e1 00	 shl	 ecx, 0
  006b5	8b 55 ec	 mov	 edx, DWORD PTR _dest$1[ebp]
  006b8	8b 75 f0	 mov	 esi, DWORD PTR _src$2[ebp]
  006bb	8a 04 06	 mov	 al, BYTE PTR [esi+eax]
  006be	88 04 0a	 mov	 BYTE PTR [edx+ecx], al
  006c1	e9 79 ff ff ff	 jmp	 $LN37@convert_fo
$LN38@convert_fo:
  006c6	e9 a7 00 00 00	 jmp	 $LN5@convert_fo
$LN56@convert_fo:

; 629  :          CASE(4,3) dest[0]=src[0],dest[1]=src[1],dest[2]=src[2]; break;

  006cb	8b 4d 14	 mov	 ecx, DWORD PTR _x$[ebp]
  006ce	83 e9 01	 sub	 ecx, 1
  006d1	89 4d fc	 mov	 DWORD PTR _i$[ebp], ecx
  006d4	eb 1b		 jmp	 SHORT $LN42@convert_fo
$LN40@convert_fo:
  006d6	8b 55 fc	 mov	 edx, DWORD PTR _i$[ebp]
  006d9	83 ea 01	 sub	 edx, 1
  006dc	89 55 fc	 mov	 DWORD PTR _i$[ebp], edx
  006df	8b 45 f0	 mov	 eax, DWORD PTR _src$2[ebp]
  006e2	83 c0 04	 add	 eax, 4
  006e5	89 45 f0	 mov	 DWORD PTR _src$2[ebp], eax
  006e8	8b 4d ec	 mov	 ecx, DWORD PTR _dest$1[ebp]
  006eb	83 c1 03	 add	 ecx, 3
  006ee	89 4d ec	 mov	 DWORD PTR _dest$1[ebp], ecx
$LN42@convert_fo:
  006f1	83 7d fc 00	 cmp	 DWORD PTR _i$[ebp], 0
  006f5	7c 54		 jl	 SHORT $LN41@convert_fo
  006f7	ba 01 00 00 00	 mov	 edx, 1
  006fc	6b c2 00	 imul	 eax, edx, 0
  006ff	b9 01 00 00 00	 mov	 ecx, 1
  00704	6b d1 00	 imul	 edx, ecx, 0
  00707	8b 4d ec	 mov	 ecx, DWORD PTR _dest$1[ebp]
  0070a	8b 75 f0	 mov	 esi, DWORD PTR _src$2[ebp]
  0070d	8a 04 06	 mov	 al, BYTE PTR [esi+eax]
  00710	88 04 11	 mov	 BYTE PTR [ecx+edx], al
  00713	b9 01 00 00 00	 mov	 ecx, 1
  00718	c1 e1 00	 shl	 ecx, 0
  0071b	ba 01 00 00 00	 mov	 edx, 1
  00720	c1 e2 00	 shl	 edx, 0
  00723	8b 45 ec	 mov	 eax, DWORD PTR _dest$1[ebp]
  00726	8b 75 f0	 mov	 esi, DWORD PTR _src$2[ebp]
  00729	8a 0c 0e	 mov	 cl, BYTE PTR [esi+ecx]
  0072c	88 0c 10	 mov	 BYTE PTR [eax+edx], cl
  0072f	ba 01 00 00 00	 mov	 edx, 1
  00734	d1 e2		 shl	 edx, 1
  00736	b8 01 00 00 00	 mov	 eax, 1
  0073b	d1 e0		 shl	 eax, 1
  0073d	8b 4d ec	 mov	 ecx, DWORD PTR _dest$1[ebp]
  00740	8b 75 f0	 mov	 esi, DWORD PTR _src$2[ebp]
  00743	8a 14 16	 mov	 dl, BYTE PTR [esi+edx]
  00746	88 14 01	 mov	 BYTE PTR [ecx+eax], dl
  00749	eb 8b		 jmp	 SHORT $LN40@convert_fo
$LN41@convert_fo:
  0074b	eb 25		 jmp	 SHORT $LN5@convert_fo
$LN57@convert_fo:

; 630  :          default: assert(0);

  0074d	33 c0		 xor	 eax, eax
  0074f	75 21		 jne	 SHORT $LN5@convert_fo
  00751	8b f4		 mov	 esi, esp
  00753	68 76 02 00 00	 push	 630			; 00000276H
  00758	68 00 00 00 00	 push	 OFFSET $SG4294820268
  0075d	68 00 00 00 00	 push	 OFFSET $SG4294820267
  00762	ff 15 00 00 00
	00		 call	 DWORD PTR __imp___wassert
  00768	83 c4 0c	 add	 esp, 12			; 0000000cH
  0076b	3b f4		 cmp	 esi, esp
  0076d	e8 00 00 00 00	 call	 __RTC_CheckEsp
$LN5@convert_fo:

; 631  :       }
; 632  :       #undef CASE
; 633  :    }

  00772	e9 56 f9 ff ff	 jmp	 $LN2@convert_fo
$LN3@convert_fo:

; 634  : 
; 635  :    free(data);

  00777	8b f4		 mov	 esi, esp
  00779	8b 55 08	 mov	 edx, DWORD PTR _data$[ebp]
  0077c	52		 push	 edx
  0077d	ff 15 00 00 00
	00		 call	 DWORD PTR __imp__free
  00783	83 c4 04	 add	 esp, 4
  00786	3b f4		 cmp	 esi, esp
  00788	e8 00 00 00 00	 call	 __RTC_CheckEsp

; 636  :    return good;

  0078d	8b 45 f4	 mov	 eax, DWORD PTR _good$[ebp]
$LN1@convert_fo:

; 637  : }

  00790	5e		 pop	 esi
  00791	83 c4 1c	 add	 esp, 28			; 0000001cH
  00794	3b ec		 cmp	 ebp, esp
  00796	e8 00 00 00 00	 call	 __RTC_CheckEsp
  0079b	8b e5		 mov	 esp, ebp
  0079d	5d		 pop	 ebp
  0079e	c3		 ret	 0
  0079f	90		 npad	 1
$LN65@convert_fo:
  007a0	00 00 00 00	 DD	 $LN45@convert_fo
  007a4	00 00 00 00	 DD	 $LN46@convert_fo
  007a8	00 00 00 00	 DD	 $LN47@convert_fo
  007ac	00 00 00 00	 DD	 $LN48@convert_fo
  007b0	00 00 00 00	 DD	 $LN49@convert_fo
  007b4	00 00 00 00	 DD	 $LN50@convert_fo
  007b8	00 00 00 00	 DD	 $LN52@convert_fo
  007bc	00 00 00 00	 DD	 $LN53@convert_fo
  007c0	00 00 00 00	 DD	 $LN51@convert_fo
  007c4	00 00 00 00	 DD	 $LN54@convert_fo
  007c8	00 00 00 00	 DD	 $LN55@convert_fo
  007cc	00 00 00 00	 DD	 $LN56@convert_fo
  007d0	00 00 00 00	 DD	 $LN57@convert_fo
$LN64@convert_fo:
  007d4	00		 DB	 0
  007d5	01		 DB	 1
  007d6	02		 DB	 2
  007d7	0c		 DB	 12			; 0000000cH
  007d8	0c		 DB	 12			; 0000000cH
  007d9	0c		 DB	 12			; 0000000cH
  007da	0c		 DB	 12			; 0000000cH
  007db	03		 DB	 3
  007dc	0c		 DB	 12			; 0000000cH
  007dd	04		 DB	 4
  007de	05		 DB	 5
  007df	0c		 DB	 12			; 0000000cH
  007e0	0c		 DB	 12			; 0000000cH
  007e1	0c		 DB	 12			; 0000000cH
  007e2	0c		 DB	 12			; 0000000cH
  007e3	06		 DB	 6
  007e4	07		 DB	 7
  007e5	0c		 DB	 12			; 0000000cH
  007e6	08		 DB	 8
  007e7	0c		 DB	 12			; 0000000cH
  007e8	0c		 DB	 12			; 0000000cH
  007e9	0c		 DB	 12			; 0000000cH
  007ea	0c		 DB	 12			; 0000000cH
  007eb	09		 DB	 9
  007ec	0a		 DB	 10			; 0000000aH
  007ed	0b		 DB	 11			; 0000000bH
?convert_format@@YAPAEPAEHHII@Z ENDP			; convert_format
_TEXT	ENDS
; Function compile flags: /Odtp /RTCsu
; File e:\fusion3d_work\engine\src\staticlibs\stb_image.c
_TEXT	SEGMENT
tv175 = -28						; size = 4
tv174 = -24						; size = 4
tv77 = -20						; size = 4
_output$ = -16						; size = 4
_n$ = -12						; size = 4
_k$ = -8						; size = 4
_i$ = -4						; size = 4
_data$ = 8						; size = 4
_x$ = 12						; size = 4
_y$ = 16						; size = 4
_comp$ = 20						; size = 4
?ldr_to_hdr@@YAPAMPAEHHH@Z PROC				; ldr_to_hdr

; 641  : {

  00000	55		 push	 ebp
  00001	8b ec		 mov	 ebp, esp
  00003	83 ec 1c	 sub	 esp, 28			; 0000001cH
  00006	56		 push	 esi
  00007	b8 cc cc cc cc	 mov	 eax, -858993460		; ccccccccH
  0000c	89 45 e4	 mov	 DWORD PTR [ebp-28], eax
  0000f	89 45 e8	 mov	 DWORD PTR [ebp-24], eax
  00012	89 45 ec	 mov	 DWORD PTR [ebp-20], eax
  00015	89 45 f0	 mov	 DWORD PTR [ebp-16], eax
  00018	89 45 f4	 mov	 DWORD PTR [ebp-12], eax
  0001b	89 45 f8	 mov	 DWORD PTR [ebp-8], eax
  0001e	89 45 fc	 mov	 DWORD PTR [ebp-4], eax

; 642  :    int i,k,n;
; 643  :    float *output = (float *) malloc(x * y * comp * sizeof(float));

  00021	8b 45 0c	 mov	 eax, DWORD PTR _x$[ebp]
  00024	0f af 45 10	 imul	 eax, DWORD PTR _y$[ebp]
  00028	0f af 45 14	 imul	 eax, DWORD PTR _comp$[ebp]
  0002c	c1 e0 02	 shl	 eax, 2
  0002f	8b f4		 mov	 esi, esp
  00031	50		 push	 eax
  00032	ff 15 00 00 00
	00		 call	 DWORD PTR __imp__malloc
  00038	83 c4 04	 add	 esp, 4
  0003b	3b f4		 cmp	 esi, esp
  0003d	e8 00 00 00 00	 call	 __RTC_CheckEsp
  00042	89 45 f0	 mov	 DWORD PTR _output$[ebp], eax

; 644  :    if (output == NULL) { free(data); return epf("outofmem", "Out of memory"); }

  00045	83 7d f0 00	 cmp	 DWORD PTR _output$[ebp], 0
  00049	75 3f		 jne	 SHORT $LN8@ldr_to_hdr
  0004b	8b f4		 mov	 esi, esp
  0004d	8b 4d 08	 mov	 ecx, DWORD PTR _data$[ebp]
  00050	51		 push	 ecx
  00051	ff 15 00 00 00
	00		 call	 DWORD PTR __imp__free
  00057	83 c4 04	 add	 esp, 4
  0005a	3b f4		 cmp	 esi, esp
  0005c	e8 00 00 00 00	 call	 __RTC_CheckEsp
  00061	68 00 00 00 00	 push	 OFFSET $SG4294820266
  00066	e8 00 00 00 00	 call	 ?e@@YAHPBD@Z		; e
  0006b	83 c4 04	 add	 esp, 4
  0006e	85 c0		 test	 eax, eax
  00070	74 09		 je	 SHORT $LN13@ldr_to_hdr
  00072	c7 45 ec 00 00
	00 00		 mov	 DWORD PTR tv77[ebp], 0
  00079	eb 07		 jmp	 SHORT $LN14@ldr_to_hdr
$LN13@ldr_to_hdr:
  0007b	c7 45 ec 00 00
	00 00		 mov	 DWORD PTR tv77[ebp], 0
$LN14@ldr_to_hdr:
  00082	8b 45 ec	 mov	 eax, DWORD PTR tv77[ebp]
  00085	e9 22 01 00 00	 jmp	 $LN1@ldr_to_hdr
$LN8@ldr_to_hdr:

; 645  :    // compute number of non-alpha components
; 646  :    if (comp & 1) n = comp; else n = comp-1;

  0008a	8b 55 14	 mov	 edx, DWORD PTR _comp$[ebp]
  0008d	83 e2 01	 and	 edx, 1
  00090	74 08		 je	 SHORT $LN9@ldr_to_hdr
  00092	8b 45 14	 mov	 eax, DWORD PTR _comp$[ebp]
  00095	89 45 f4	 mov	 DWORD PTR _n$[ebp], eax
  00098	eb 09		 jmp	 SHORT $LN10@ldr_to_hdr
$LN9@ldr_to_hdr:
  0009a	8b 4d 14	 mov	 ecx, DWORD PTR _comp$[ebp]
  0009d	83 e9 01	 sub	 ecx, 1
  000a0	89 4d f4	 mov	 DWORD PTR _n$[ebp], ecx
$LN10@ldr_to_hdr:

; 647  :    for (i=0; i < x*y; ++i) {

  000a3	c7 45 fc 00 00
	00 00		 mov	 DWORD PTR _i$[ebp], 0
  000aa	eb 09		 jmp	 SHORT $LN4@ldr_to_hdr
$LN2@ldr_to_hdr:
  000ac	8b 55 fc	 mov	 edx, DWORD PTR _i$[ebp]
  000af	83 c2 01	 add	 edx, 1
  000b2	89 55 fc	 mov	 DWORD PTR _i$[ebp], edx
$LN4@ldr_to_hdr:
  000b5	8b 45 0c	 mov	 eax, DWORD PTR _x$[ebp]
  000b8	0f af 45 10	 imul	 eax, DWORD PTR _y$[ebp]
  000bc	39 45 fc	 cmp	 DWORD PTR _i$[ebp], eax
  000bf	0f 8d ce 00 00
	00		 jge	 $LN3@ldr_to_hdr

; 648  :       for (k=0; k < n; ++k) {

  000c5	c7 45 f8 00 00
	00 00		 mov	 DWORD PTR _k$[ebp], 0
  000cc	eb 09		 jmp	 SHORT $LN7@ldr_to_hdr
$LN5@ldr_to_hdr:
  000ce	8b 4d f8	 mov	 ecx, DWORD PTR _k$[ebp]
  000d1	83 c1 01	 add	 ecx, 1
  000d4	89 4d f8	 mov	 DWORD PTR _k$[ebp], ecx
$LN7@ldr_to_hdr:
  000d7	8b 55 f8	 mov	 edx, DWORD PTR _k$[ebp]
  000da	3b 55 f4	 cmp	 edx, DWORD PTR _n$[ebp]
  000dd	7d 78		 jge	 SHORT $LN6@ldr_to_hdr

; 649  :          output[i*comp + k] = (float) pow(data[i*comp+k]/255.0f, l2h_gamma) * l2h_scale;

  000df	f3 0f 5a 05 00
	00 00 00	 cvtss2sd xmm0, DWORD PTR ?l2h_gamma@@3MA
  000e7	8b f4		 mov	 esi, esp
  000e9	83 ec 08	 sub	 esp, 8
  000ec	f2 0f 11 04 24	 movsd	 QWORD PTR [esp], xmm0
  000f1	8b 45 fc	 mov	 eax, DWORD PTR _i$[ebp]
  000f4	0f af 45 14	 imul	 eax, DWORD PTR _comp$[ebp]
  000f8	03 45 f8	 add	 eax, DWORD PTR _k$[ebp]
  000fb	8b 4d 08	 mov	 ecx, DWORD PTR _data$[ebp]
  000fe	0f b6 14 01	 movzx	 edx, BYTE PTR [ecx+eax]
  00102	f3 0f 2a c2	 cvtsi2ss xmm0, edx
  00106	f3 0f 5e 05 00
	00 00 00	 divss	 xmm0, DWORD PTR __real@437f0000
  0010e	f3 0f 5a c0	 cvtss2sd xmm0, xmm0
  00112	83 ec 08	 sub	 esp, 8
  00115	f2 0f 11 04 24	 movsd	 QWORD PTR [esp], xmm0
  0011a	ff 15 00 00 00
	00		 call	 DWORD PTR __imp__pow
  00120	83 c4 10	 add	 esp, 16			; 00000010H
  00123	3b f4		 cmp	 esi, esp
  00125	e8 00 00 00 00	 call	 __RTC_CheckEsp
  0012a	d9 5d e8	 fstp	 DWORD PTR tv174[ebp]
  0012d	d9 45 e8	 fld	 DWORD PTR tv174[ebp]
  00130	d9 5d e4	 fstp	 DWORD PTR tv175[ebp]
  00133	f3 0f 10 45 e4	 movss	 xmm0, DWORD PTR tv175[ebp]
  00138	f3 0f 59 05 00
	00 00 00	 mulss	 xmm0, DWORD PTR ?l2h_scale@@3MA
  00140	8b 45 fc	 mov	 eax, DWORD PTR _i$[ebp]
  00143	0f af 45 14	 imul	 eax, DWORD PTR _comp$[ebp]
  00147	03 45 f8	 add	 eax, DWORD PTR _k$[ebp]
  0014a	8b 4d f0	 mov	 ecx, DWORD PTR _output$[ebp]
  0014d	f3 0f 11 04 81	 movss	 DWORD PTR [ecx+eax*4], xmm0

; 650  :       }

  00152	e9 77 ff ff ff	 jmp	 $LN5@ldr_to_hdr
$LN6@ldr_to_hdr:

; 651  :       if (k < comp) output[i*comp + k] = data[i*comp+k]/255.0f;

  00157	8b 55 f8	 mov	 edx, DWORD PTR _k$[ebp]
  0015a	3b 55 14	 cmp	 edx, DWORD PTR _comp$[ebp]
  0015d	7d 2f		 jge	 SHORT $LN11@ldr_to_hdr
  0015f	8b 45 fc	 mov	 eax, DWORD PTR _i$[ebp]
  00162	0f af 45 14	 imul	 eax, DWORD PTR _comp$[ebp]
  00166	03 45 f8	 add	 eax, DWORD PTR _k$[ebp]
  00169	8b 4d 08	 mov	 ecx, DWORD PTR _data$[ebp]
  0016c	0f b6 14 01	 movzx	 edx, BYTE PTR [ecx+eax]
  00170	f3 0f 2a c2	 cvtsi2ss xmm0, edx
  00174	f3 0f 5e 05 00
	00 00 00	 divss	 xmm0, DWORD PTR __real@437f0000
  0017c	8b 45 fc	 mov	 eax, DWORD PTR _i$[ebp]
  0017f	0f af 45 14	 imul	 eax, DWORD PTR _comp$[ebp]
  00183	03 45 f8	 add	 eax, DWORD PTR _k$[ebp]
  00186	8b 4d f0	 mov	 ecx, DWORD PTR _output$[ebp]
  00189	f3 0f 11 04 81	 movss	 DWORD PTR [ecx+eax*4], xmm0
$LN11@ldr_to_hdr:

; 652  :    }

  0018e	e9 19 ff ff ff	 jmp	 $LN2@ldr_to_hdr
$LN3@ldr_to_hdr:

; 653  :    free(data);

  00193	8b f4		 mov	 esi, esp
  00195	8b 55 08	 mov	 edx, DWORD PTR _data$[ebp]
  00198	52		 push	 edx
  00199	ff 15 00 00 00
	00		 call	 DWORD PTR __imp__free
  0019f	83 c4 04	 add	 esp, 4
  001a2	3b f4		 cmp	 esi, esp
  001a4	e8 00 00 00 00	 call	 __RTC_CheckEsp

; 654  :    return output;

  001a9	8b 45 f0	 mov	 eax, DWORD PTR _output$[ebp]
$LN1@ldr_to_hdr:

; 655  : }

  001ac	5e		 pop	 esi
  001ad	83 c4 1c	 add	 esp, 28			; 0000001cH
  001b0	3b ec		 cmp	 ebp, esp
  001b2	e8 00 00 00 00	 call	 __RTC_CheckEsp
  001b7	8b e5		 mov	 esp, ebp
  001b9	5d		 pop	 ebp
  001ba	c3		 ret	 0
?ldr_to_hdr@@YAPAMPAEHHH@Z ENDP				; ldr_to_hdr
_TEXT	ENDS
; Function compile flags: /Odtp /RTCsu
; File e:\fusion3d_work\engine\src\staticlibs\stb_image.c
_TEXT	SEGMENT
tv181 = -36						; size = 4
tv180 = -32						; size = 4
tv76 = -28						; size = 4
_z$1 = -24						; size = 4
_z$2 = -20						; size = 4
_output$ = -16						; size = 4
_n$ = -12						; size = 4
_k$ = -8						; size = 4
_i$ = -4						; size = 4
_data$ = 8						; size = 4
_x$ = 12						; size = 4
_y$ = 16						; size = 4
_comp$ = 20						; size = 4
?hdr_to_ldr@@YAPAEPAMHHH@Z PROC				; hdr_to_ldr

; 659  : {

  00000	55		 push	 ebp
  00001	8b ec		 mov	 ebp, esp
  00003	83 ec 24	 sub	 esp, 36			; 00000024H
  00006	56		 push	 esi
  00007	b8 cc cc cc cc	 mov	 eax, -858993460		; ccccccccH
  0000c	89 45 dc	 mov	 DWORD PTR [ebp-36], eax
  0000f	89 45 e0	 mov	 DWORD PTR [ebp-32], eax
  00012	89 45 e4	 mov	 DWORD PTR [ebp-28], eax
  00015	89 45 e8	 mov	 DWORD PTR [ebp-24], eax
  00018	89 45 ec	 mov	 DWORD PTR [ebp-20], eax
  0001b	89 45 f0	 mov	 DWORD PTR [ebp-16], eax
  0001e	89 45 f4	 mov	 DWORD PTR [ebp-12], eax
  00021	89 45 f8	 mov	 DWORD PTR [ebp-8], eax
  00024	89 45 fc	 mov	 DWORD PTR [ebp-4], eax

; 660  :    int i,k,n;
; 661  :    stbi_uc *output = (stbi_uc *) malloc(x * y * comp);

  00027	8b 45 0c	 mov	 eax, DWORD PTR _x$[ebp]
  0002a	0f af 45 10	 imul	 eax, DWORD PTR _y$[ebp]
  0002e	0f af 45 14	 imul	 eax, DWORD PTR _comp$[ebp]
  00032	8b f4		 mov	 esi, esp
  00034	50		 push	 eax
  00035	ff 15 00 00 00
	00		 call	 DWORD PTR __imp__malloc
  0003b	83 c4 04	 add	 esp, 4
  0003e	3b f4		 cmp	 esi, esp
  00040	e8 00 00 00 00	 call	 __RTC_CheckEsp
  00045	89 45 f0	 mov	 DWORD PTR _output$[ebp], eax

; 662  :    if (output == NULL) { free(data); return epuc("outofmem", "Out of memory"); }

  00048	83 7d f0 00	 cmp	 DWORD PTR _output$[ebp], 0
  0004c	75 3f		 jne	 SHORT $LN8@hdr_to_ldr
  0004e	8b f4		 mov	 esi, esp
  00050	8b 4d 08	 mov	 ecx, DWORD PTR _data$[ebp]
  00053	51		 push	 ecx
  00054	ff 15 00 00 00
	00		 call	 DWORD PTR __imp__free
  0005a	83 c4 04	 add	 esp, 4
  0005d	3b f4		 cmp	 esi, esp
  0005f	e8 00 00 00 00	 call	 __RTC_CheckEsp
  00064	68 00 00 00 00	 push	 OFFSET $SG4294820265
  00069	e8 00 00 00 00	 call	 ?e@@YAHPBD@Z		; e
  0006e	83 c4 04	 add	 esp, 4
  00071	85 c0		 test	 eax, eax
  00073	74 09		 je	 SHORT $LN17@hdr_to_ldr
  00075	c7 45 e4 00 00
	00 00		 mov	 DWORD PTR tv76[ebp], 0
  0007c	eb 07		 jmp	 SHORT $LN18@hdr_to_ldr
$LN17@hdr_to_ldr:
  0007e	c7 45 e4 00 00
	00 00		 mov	 DWORD PTR tv76[ebp], 0
$LN18@hdr_to_ldr:
  00085	8b 45 e4	 mov	 eax, DWORD PTR tv76[ebp]
  00088	e9 ac 01 00 00	 jmp	 $LN1@hdr_to_ldr
$LN8@hdr_to_ldr:

; 663  :    // compute number of non-alpha components
; 664  :    if (comp & 1) n = comp; else n = comp-1;

  0008d	8b 55 14	 mov	 edx, DWORD PTR _comp$[ebp]
  00090	83 e2 01	 and	 edx, 1
  00093	74 08		 je	 SHORT $LN9@hdr_to_ldr
  00095	8b 45 14	 mov	 eax, DWORD PTR _comp$[ebp]
  00098	89 45 f4	 mov	 DWORD PTR _n$[ebp], eax
  0009b	eb 09		 jmp	 SHORT $LN10@hdr_to_ldr
$LN9@hdr_to_ldr:
  0009d	8b 4d 14	 mov	 ecx, DWORD PTR _comp$[ebp]
  000a0	83 e9 01	 sub	 ecx, 1
  000a3	89 4d f4	 mov	 DWORD PTR _n$[ebp], ecx
$LN10@hdr_to_ldr:

; 665  :    for (i=0; i < x*y; ++i) {

  000a6	c7 45 fc 00 00
	00 00		 mov	 DWORD PTR _i$[ebp], 0
  000ad	eb 09		 jmp	 SHORT $LN4@hdr_to_ldr
$LN2@hdr_to_ldr:
  000af	8b 55 fc	 mov	 edx, DWORD PTR _i$[ebp]
  000b2	83 c2 01	 add	 edx, 1
  000b5	89 55 fc	 mov	 DWORD PTR _i$[ebp], edx
$LN4@hdr_to_ldr:
  000b8	8b 45 0c	 mov	 eax, DWORD PTR _x$[ebp]
  000bb	0f af 45 10	 imul	 eax, DWORD PTR _y$[ebp]
  000bf	39 45 fc	 cmp	 DWORD PTR _i$[ebp], eax
  000c2	0f 8d 58 01 00
	00		 jge	 $LN3@hdr_to_ldr

; 666  :       for (k=0; k < n; ++k) {

  000c8	c7 45 f8 00 00
	00 00		 mov	 DWORD PTR _k$[ebp], 0
  000cf	eb 09		 jmp	 SHORT $LN7@hdr_to_ldr
$LN5@hdr_to_ldr:
  000d1	8b 4d f8	 mov	 ecx, DWORD PTR _k$[ebp]
  000d4	83 c1 01	 add	 ecx, 1
  000d7	89 4d f8	 mov	 DWORD PTR _k$[ebp], ecx
$LN7@hdr_to_ldr:
  000da	8b 55 f8	 mov	 edx, DWORD PTR _k$[ebp]
  000dd	3b 55 f4	 cmp	 edx, DWORD PTR _n$[ebp]
  000e0	0f 8d bb 00 00
	00		 jge	 $LN6@hdr_to_ldr

; 667  :          float z = (float) pow(data[i*comp+k]*h2l_scale_i, h2l_gamma_i) * 255 + 0.5f;

  000e6	f3 0f 5a 05 00
	00 00 00	 cvtss2sd xmm0, DWORD PTR ?h2l_gamma_i@@3MA
  000ee	8b f4		 mov	 esi, esp
  000f0	83 ec 08	 sub	 esp, 8
  000f3	f2 0f 11 04 24	 movsd	 QWORD PTR [esp], xmm0
  000f8	8b 45 fc	 mov	 eax, DWORD PTR _i$[ebp]
  000fb	0f af 45 14	 imul	 eax, DWORD PTR _comp$[ebp]
  000ff	03 45 f8	 add	 eax, DWORD PTR _k$[ebp]
  00102	8b 4d 08	 mov	 ecx, DWORD PTR _data$[ebp]
  00105	f3 0f 10 04 81	 movss	 xmm0, DWORD PTR [ecx+eax*4]
  0010a	f3 0f 59 05 00
	00 00 00	 mulss	 xmm0, DWORD PTR ?h2l_scale_i@@3MA
  00112	f3 0f 5a c0	 cvtss2sd xmm0, xmm0
  00116	83 ec 08	 sub	 esp, 8
  00119	f2 0f 11 04 24	 movsd	 QWORD PTR [esp], xmm0
  0011e	ff 15 00 00 00
	00		 call	 DWORD PTR __imp__pow
  00124	83 c4 10	 add	 esp, 16			; 00000010H
  00127	3b f4		 cmp	 esi, esp
  00129	e8 00 00 00 00	 call	 __RTC_CheckEsp
  0012e	d9 5d e0	 fstp	 DWORD PTR tv180[ebp]
  00131	d9 45 e0	 fld	 DWORD PTR tv180[ebp]
  00134	d9 5d dc	 fstp	 DWORD PTR tv181[ebp]
  00137	f3 0f 10 45 dc	 movss	 xmm0, DWORD PTR tv181[ebp]
  0013c	f3 0f 59 05 00
	00 00 00	 mulss	 xmm0, DWORD PTR __real@437f0000
  00144	f3 0f 58 05 00
	00 00 00	 addss	 xmm0, DWORD PTR __real@3f000000
  0014c	f3 0f 11 45 ec	 movss	 DWORD PTR _z$2[ebp], xmm0

; 668  :          if (z < 0) z = 0;

  00151	f3 0f 10 05 00
	00 00 00	 movss	 xmm0, DWORD PTR __real@00000000
  00159	0f 2f 45 ec	 comiss	 xmm0, DWORD PTR _z$2[ebp]
  0015d	76 0d		 jbe	 SHORT $LN11@hdr_to_ldr
  0015f	f3 0f 10 05 00
	00 00 00	 movss	 xmm0, DWORD PTR __real@00000000
  00167	f3 0f 11 45 ec	 movss	 DWORD PTR _z$2[ebp], xmm0
$LN11@hdr_to_ldr:

; 669  :          if (z > 255) z = 255;

  0016c	f3 0f 10 45 ec	 movss	 xmm0, DWORD PTR _z$2[ebp]
  00171	0f 2f 05 00 00
	00 00		 comiss	 xmm0, DWORD PTR __real@437f0000
  00178	76 0d		 jbe	 SHORT $LN12@hdr_to_ldr
  0017a	f3 0f 10 05 00
	00 00 00	 movss	 xmm0, DWORD PTR __real@437f0000
  00182	f3 0f 11 45 ec	 movss	 DWORD PTR _z$2[ebp], xmm0
$LN12@hdr_to_ldr:

; 670  :          output[i*comp + k] = (uint8) float2int(z);

  00187	f3 0f 2c 55 ec	 cvttss2si edx, DWORD PTR _z$2[ebp]
  0018c	8b 45 fc	 mov	 eax, DWORD PTR _i$[ebp]
  0018f	0f af 45 14	 imul	 eax, DWORD PTR _comp$[ebp]
  00193	03 45 f8	 add	 eax, DWORD PTR _k$[ebp]
  00196	8b 4d f0	 mov	 ecx, DWORD PTR _output$[ebp]
  00199	88 14 01	 mov	 BYTE PTR [ecx+eax], dl

; 671  :       }

  0019c	e9 30 ff ff ff	 jmp	 $LN5@hdr_to_ldr
$LN6@hdr_to_ldr:

; 672  :       if (k < comp) {

  001a1	8b 55 f8	 mov	 edx, DWORD PTR _k$[ebp]
  001a4	3b 55 14	 cmp	 edx, DWORD PTR _comp$[ebp]
  001a7	7d 72		 jge	 SHORT $LN13@hdr_to_ldr

; 673  :          float z = data[i*comp+k] * 255 + 0.5f;

  001a9	8b 45 fc	 mov	 eax, DWORD PTR _i$[ebp]
  001ac	0f af 45 14	 imul	 eax, DWORD PTR _comp$[ebp]
  001b0	03 45 f8	 add	 eax, DWORD PTR _k$[ebp]
  001b3	8b 4d 08	 mov	 ecx, DWORD PTR _data$[ebp]
  001b6	f3 0f 10 04 81	 movss	 xmm0, DWORD PTR [ecx+eax*4]
  001bb	f3 0f 59 05 00
	00 00 00	 mulss	 xmm0, DWORD PTR __real@437f0000
  001c3	f3 0f 58 05 00
	00 00 00	 addss	 xmm0, DWORD PTR __real@3f000000
  001cb	f3 0f 11 45 e8	 movss	 DWORD PTR _z$1[ebp], xmm0

; 674  :          if (z < 0) z = 0;

  001d0	f3 0f 10 05 00
	00 00 00	 movss	 xmm0, DWORD PTR __real@00000000
  001d8	0f 2f 45 e8	 comiss	 xmm0, DWORD PTR _z$1[ebp]
  001dc	76 0d		 jbe	 SHORT $LN14@hdr_to_ldr
  001de	f3 0f 10 05 00
	00 00 00	 movss	 xmm0, DWORD PTR __real@00000000
  001e6	f3 0f 11 45 e8	 movss	 DWORD PTR _z$1[ebp], xmm0
$LN14@hdr_to_ldr:

; 675  :          if (z > 255) z = 255;

  001eb	f3 0f 10 45 e8	 movss	 xmm0, DWORD PTR _z$1[ebp]
  001f0	0f 2f 05 00 00
	00 00		 comiss	 xmm0, DWORD PTR __real@437f0000
  001f7	76 0d		 jbe	 SHORT $LN15@hdr_to_ldr
  001f9	f3 0f 10 05 00
	00 00 00	 movss	 xmm0, DWORD PTR __real@437f0000
  00201	f3 0f 11 45 e8	 movss	 DWORD PTR _z$1[ebp], xmm0
$LN15@hdr_to_ldr:

; 676  :          output[i*comp + k] = (uint8) float2int(z);

  00206	f3 0f 2c 55 e8	 cvttss2si edx, DWORD PTR _z$1[ebp]
  0020b	8b 45 fc	 mov	 eax, DWORD PTR _i$[ebp]
  0020e	0f af 45 14	 imul	 eax, DWORD PTR _comp$[ebp]
  00212	03 45 f8	 add	 eax, DWORD PTR _k$[ebp]
  00215	8b 4d f0	 mov	 ecx, DWORD PTR _output$[ebp]
  00218	88 14 01	 mov	 BYTE PTR [ecx+eax], dl
$LN13@hdr_to_ldr:

; 677  :       }
; 678  :    }

  0021b	e9 8f fe ff ff	 jmp	 $LN2@hdr_to_ldr
$LN3@hdr_to_ldr:

; 679  :    free(data);

  00220	8b f4		 mov	 esi, esp
  00222	8b 55 08	 mov	 edx, DWORD PTR _data$[ebp]
  00225	52		 push	 edx
  00226	ff 15 00 00 00
	00		 call	 DWORD PTR __imp__free
  0022c	83 c4 04	 add	 esp, 4
  0022f	3b f4		 cmp	 esi, esp
  00231	e8 00 00 00 00	 call	 __RTC_CheckEsp

; 680  :    return output;

  00236	8b 45 f0	 mov	 eax, DWORD PTR _output$[ebp]
$LN1@hdr_to_ldr:

; 681  : }

  00239	5e		 pop	 esi
  0023a	83 c4 24	 add	 esp, 36			; 00000024H
  0023d	3b ec		 cmp	 ebp, esp
  0023f	e8 00 00 00 00	 call	 __RTC_CheckEsp
  00244	8b e5		 mov	 esp, ebp
  00246	5d		 pop	 ebp
  00247	c3		 ret	 0
?hdr_to_ldr@@YAPAEPAMHHH@Z ENDP				; hdr_to_ldr
_TEXT	ENDS
; Function compile flags: /Odtp /RTCsu
; File e:\fusion3d_work\engine\src\staticlibs\stb_image.c
_TEXT	SEGMENT
_m$1 = -28						; size = 4
_c$2 = -24						; size = 4
_s$3 = -20						; size = 4
_code$ = -16						; size = 4
_k$ = -12						; size = 4
_j$ = -8						; size = 4
_i$ = -4						; size = 4
_h$ = 8							; size = 4
_count$ = 12						; size = 4
?build_huffman@@YAHPAUhuffman@@PAH@Z PROC		; build_huffman

; 765  : {

  00000	55		 push	 ebp
  00001	8b ec		 mov	 ebp, esp
  00003	83 ec 1c	 sub	 esp, 28			; 0000001cH
  00006	56		 push	 esi
  00007	b8 cc cc cc cc	 mov	 eax, -858993460		; ccccccccH
  0000c	89 45 e4	 mov	 DWORD PTR [ebp-28], eax
  0000f	89 45 e8	 mov	 DWORD PTR [ebp-24], eax
  00012	89 45 ec	 mov	 DWORD PTR [ebp-20], eax
  00015	89 45 f0	 mov	 DWORD PTR [ebp-16], eax
  00018	89 45 f4	 mov	 DWORD PTR [ebp-12], eax
  0001b	89 45 f8	 mov	 DWORD PTR [ebp-8], eax
  0001e	89 45 fc	 mov	 DWORD PTR [ebp-4], eax

; 766  :    int i,j,k=0,code;

  00021	c7 45 f4 00 00
	00 00		 mov	 DWORD PTR _k$[ebp], 0

; 767  :    // build size list for each symbol (from JPEG spec)
; 768  :    for (i=0; i < 16; ++i)

  00028	c7 45 fc 00 00
	00 00		 mov	 DWORD PTR _i$[ebp], 0
  0002f	eb 09		 jmp	 SHORT $LN4@build_huff
$LN2@build_huff:
  00031	8b 45 fc	 mov	 eax, DWORD PTR _i$[ebp]
  00034	83 c0 01	 add	 eax, 1
  00037	89 45 fc	 mov	 DWORD PTR _i$[ebp], eax
$LN4@build_huff:
  0003a	83 7d fc 10	 cmp	 DWORD PTR _i$[ebp], 16	; 00000010H
  0003e	7d 3f		 jge	 SHORT $LN3@build_huff

; 769  :       for (j=0; j < count[i]; ++j)

  00040	c7 45 f8 00 00
	00 00		 mov	 DWORD PTR _j$[ebp], 0
  00047	eb 09		 jmp	 SHORT $LN7@build_huff
$LN5@build_huff:
  00049	8b 4d f8	 mov	 ecx, DWORD PTR _j$[ebp]
  0004c	83 c1 01	 add	 ecx, 1
  0004f	89 4d f8	 mov	 DWORD PTR _j$[ebp], ecx
$LN7@build_huff:
  00052	8b 55 fc	 mov	 edx, DWORD PTR _i$[ebp]
  00055	8b 45 0c	 mov	 eax, DWORD PTR _count$[ebp]
  00058	8b 4d f8	 mov	 ecx, DWORD PTR _j$[ebp]
  0005b	3b 0c 90	 cmp	 ecx, DWORD PTR [eax+edx*4]
  0005e	7d 1d		 jge	 SHORT $LN6@build_huff

; 770  :          h->size[k++] = (uint8) (i+1);

  00060	8b 55 fc	 mov	 edx, DWORD PTR _i$[ebp]
  00063	83 c2 01	 add	 edx, 1
  00066	8b 45 08	 mov	 eax, DWORD PTR _h$[ebp]
  00069	03 45 f4	 add	 eax, DWORD PTR _k$[ebp]
  0006c	88 90 00 05 00
	00		 mov	 BYTE PTR [eax+1280], dl
  00072	8b 4d f4	 mov	 ecx, DWORD PTR _k$[ebp]
  00075	83 c1 01	 add	 ecx, 1
  00078	89 4d f4	 mov	 DWORD PTR _k$[ebp], ecx
  0007b	eb cc		 jmp	 SHORT $LN5@build_huff
$LN6@build_huff:
  0007d	eb b2		 jmp	 SHORT $LN2@build_huff
$LN3@build_huff:

; 771  :    h->size[k] = 0;

  0007f	8b 55 08	 mov	 edx, DWORD PTR _h$[ebp]
  00082	03 55 f4	 add	 edx, DWORD PTR _k$[ebp]
  00085	c6 82 00 05 00
	00 00		 mov	 BYTE PTR [edx+1280], 0

; 772  : 
; 773  :    // compute actual symbols (from jpeg spec)
; 774  :    code = 0;

  0008c	c7 45 f0 00 00
	00 00		 mov	 DWORD PTR _code$[ebp], 0

; 775  :    k = 0;

  00093	c7 45 f4 00 00
	00 00		 mov	 DWORD PTR _k$[ebp], 0

; 776  :    for(j=1; j <= 16; ++j) {

  0009a	c7 45 f8 01 00
	00 00		 mov	 DWORD PTR _j$[ebp], 1
  000a1	eb 09		 jmp	 SHORT $LN10@build_huff
$LN8@build_huff:
  000a3	8b 45 f8	 mov	 eax, DWORD PTR _j$[ebp]
  000a6	83 c0 01	 add	 eax, 1
  000a9	89 45 f8	 mov	 DWORD PTR _j$[ebp], eax
$LN10@build_huff:
  000ac	83 7d f8 10	 cmp	 DWORD PTR _j$[ebp], 16	; 00000010H
  000b0	0f 8f aa 00 00
	00		 jg	 $LN9@build_huff

; 777  :       // compute delta to add to code to compute symbol id
; 778  :       h->delta[j] = k - code;

  000b6	8b 4d f4	 mov	 ecx, DWORD PTR _k$[ebp]
  000b9	2b 4d f0	 sub	 ecx, DWORD PTR _code$[ebp]
  000bc	8b 55 f8	 mov	 edx, DWORD PTR _j$[ebp]
  000bf	8b 45 08	 mov	 eax, DWORD PTR _h$[ebp]
  000c2	89 8c 90 4c 06
	00 00		 mov	 DWORD PTR [eax+edx*4+1612], ecx

; 779  :       if (h->size[k] == j) {

  000c9	8b 4d 08	 mov	 ecx, DWORD PTR _h$[ebp]
  000cc	03 4d f4	 add	 ecx, DWORD PTR _k$[ebp]
  000cf	0f b6 91 00 05
	00 00		 movzx	 edx, BYTE PTR [ecx+1280]
  000d6	3b 55 f8	 cmp	 edx, DWORD PTR _j$[ebp]
  000d9	75 5e		 jne	 SHORT $LN19@build_huff
$LN11@build_huff:

; 780  :          while (h->size[k] == j)

  000db	8b 45 08	 mov	 eax, DWORD PTR _h$[ebp]
  000de	03 45 f4	 add	 eax, DWORD PTR _k$[ebp]
  000e1	0f b6 88 00 05
	00 00		 movzx	 ecx, BYTE PTR [eax+1280]
  000e8	3b 4d f8	 cmp	 ecx, DWORD PTR _j$[ebp]
  000eb	75 26		 jne	 SHORT $LN12@build_huff

; 781  :             h->code[k++] = (uint16) (code++);

  000ed	8b 55 f4	 mov	 edx, DWORD PTR _k$[ebp]
  000f0	8b 45 08	 mov	 eax, DWORD PTR _h$[ebp]
  000f3	66 8b 4d f0	 mov	 cx, WORD PTR _code$[ebp]
  000f7	66 89 8c 50 00
	02 00 00	 mov	 WORD PTR [eax+edx*2+512], cx
  000ff	8b 55 f4	 mov	 edx, DWORD PTR _k$[ebp]
  00102	83 c2 01	 add	 edx, 1
  00105	89 55 f4	 mov	 DWORD PTR _k$[ebp], edx
  00108	8b 45 f0	 mov	 eax, DWORD PTR _code$[ebp]
  0010b	83 c0 01	 add	 eax, 1
  0010e	89 45 f0	 mov	 DWORD PTR _code$[ebp], eax
  00111	eb c8		 jmp	 SHORT $LN11@build_huff
$LN12@build_huff:

; 782  :          if (code-1 >= (1 << j)) return e("bad code lengths","Corrupt JPEG");

  00113	8b 55 f0	 mov	 edx, DWORD PTR _code$[ebp]
  00116	83 ea 01	 sub	 edx, 1
  00119	b8 01 00 00 00	 mov	 eax, 1
  0011e	8b 4d f8	 mov	 ecx, DWORD PTR _j$[ebp]
  00121	d3 e0		 shl	 eax, cl
  00123	3b d0		 cmp	 edx, eax
  00125	7c 12		 jl	 SHORT $LN19@build_huff
  00127	68 00 00 00 00	 push	 OFFSET $SG4294820264
  0012c	e8 00 00 00 00	 call	 ?e@@YAHPBD@Z		; e
  00131	83 c4 04	 add	 esp, 4
  00134	e9 ea 00 00 00	 jmp	 $LN1@build_huff
$LN19@build_huff:

; 783  :       }
; 784  :       // compute largest code + 1 for this size, preshifted as needed later
; 785  :       h->maxcode[j] = code << (16-j);

  00139	b9 10 00 00 00	 mov	 ecx, 16			; 00000010H
  0013e	2b 4d f8	 sub	 ecx, DWORD PTR _j$[ebp]
  00141	8b 55 f0	 mov	 edx, DWORD PTR _code$[ebp]
  00144	d3 e2		 shl	 edx, cl
  00146	8b 45 f8	 mov	 eax, DWORD PTR _j$[ebp]
  00149	8b 4d 08	 mov	 ecx, DWORD PTR _h$[ebp]
  0014c	89 94 81 04 06
	00 00		 mov	 DWORD PTR [ecx+eax*4+1540], edx

; 786  :       code <<= 1;

  00153	8b 55 f0	 mov	 edx, DWORD PTR _code$[ebp]
  00156	d1 e2		 shl	 edx, 1
  00158	89 55 f0	 mov	 DWORD PTR _code$[ebp], edx

; 787  :    }

  0015b	e9 43 ff ff ff	 jmp	 $LN8@build_huff
$LN9@build_huff:

; 788  :    h->maxcode[j] = 0xffffffff;

  00160	8b 45 f8	 mov	 eax, DWORD PTR _j$[ebp]
  00163	8b 4d 08	 mov	 ecx, DWORD PTR _h$[ebp]
  00166	c7 84 81 04 06
	00 00 ff ff ff
	ff		 mov	 DWORD PTR [ecx+eax*4+1540], -1

; 789  : 
; 790  :    // build non-spec acceleration table; 255 is flag for not-accelerated
; 791  :    memset(h->fast, 255, 1 << FAST_BITS);

  00171	8b f4		 mov	 esi, esp
  00173	68 00 02 00 00	 push	 512			; 00000200H
  00178	68 ff 00 00 00	 push	 255			; 000000ffH
  0017d	8b 55 08	 mov	 edx, DWORD PTR _h$[ebp]
  00180	52		 push	 edx
  00181	ff 15 00 00 00
	00		 call	 DWORD PTR __imp__memset
  00187	83 c4 0c	 add	 esp, 12			; 0000000cH
  0018a	3b f4		 cmp	 esi, esp
  0018c	e8 00 00 00 00	 call	 __RTC_CheckEsp

; 792  :    for (i=0; i < k; ++i) {

  00191	c7 45 fc 00 00
	00 00		 mov	 DWORD PTR _i$[ebp], 0
  00198	eb 09		 jmp	 SHORT $LN15@build_huff
$LN13@build_huff:
  0019a	8b 45 fc	 mov	 eax, DWORD PTR _i$[ebp]
  0019d	83 c0 01	 add	 eax, 1
  001a0	89 45 fc	 mov	 DWORD PTR _i$[ebp], eax
$LN15@build_huff:
  001a3	8b 4d fc	 mov	 ecx, DWORD PTR _i$[ebp]
  001a6	3b 4d f4	 cmp	 ecx, DWORD PTR _k$[ebp]
  001a9	7d 73		 jge	 SHORT $LN14@build_huff

; 793  :       int s = h->size[i];

  001ab	8b 55 08	 mov	 edx, DWORD PTR _h$[ebp]
  001ae	03 55 fc	 add	 edx, DWORD PTR _i$[ebp]
  001b1	0f b6 82 00 05
	00 00		 movzx	 eax, BYTE PTR [edx+1280]
  001b8	89 45 ec	 mov	 DWORD PTR _s$3[ebp], eax

; 794  :       if (s <= FAST_BITS) {

  001bb	83 7d ec 09	 cmp	 DWORD PTR _s$3[ebp], 9
  001bf	7f 58		 jg	 SHORT $LN21@build_huff

; 795  :          int c = h->code[i] << (FAST_BITS-s);

  001c1	8b 4d fc	 mov	 ecx, DWORD PTR _i$[ebp]
  001c4	8b 55 08	 mov	 edx, DWORD PTR _h$[ebp]
  001c7	0f b7 84 4a 00
	02 00 00	 movzx	 eax, WORD PTR [edx+ecx*2+512]
  001cf	b9 09 00 00 00	 mov	 ecx, 9
  001d4	2b 4d ec	 sub	 ecx, DWORD PTR _s$3[ebp]
  001d7	d3 e0		 shl	 eax, cl
  001d9	89 45 e8	 mov	 DWORD PTR _c$2[ebp], eax

; 796  :          int m = 1 << (FAST_BITS-s);

  001dc	b9 09 00 00 00	 mov	 ecx, 9
  001e1	2b 4d ec	 sub	 ecx, DWORD PTR _s$3[ebp]
  001e4	ba 01 00 00 00	 mov	 edx, 1
  001e9	d3 e2		 shl	 edx, cl
  001eb	89 55 e4	 mov	 DWORD PTR _m$1[ebp], edx

; 797  :          for (j=0; j < m; ++j) {

  001ee	c7 45 f8 00 00
	00 00		 mov	 DWORD PTR _j$[ebp], 0
  001f5	eb 09		 jmp	 SHORT $LN18@build_huff
$LN16@build_huff:
  001f7	8b 45 f8	 mov	 eax, DWORD PTR _j$[ebp]
  001fa	83 c0 01	 add	 eax, 1
  001fd	89 45 f8	 mov	 DWORD PTR _j$[ebp], eax
$LN18@build_huff:
  00200	8b 4d f8	 mov	 ecx, DWORD PTR _j$[ebp]
  00203	3b 4d e4	 cmp	 ecx, DWORD PTR _m$1[ebp]
  00206	7d 11		 jge	 SHORT $LN21@build_huff

; 798  :             h->fast[c+j] = (uint8) i;

  00208	8b 55 e8	 mov	 edx, DWORD PTR _c$2[ebp]
  0020b	03 55 f8	 add	 edx, DWORD PTR _j$[ebp]
  0020e	8b 45 08	 mov	 eax, DWORD PTR _h$[ebp]
  00211	8a 4d fc	 mov	 cl, BYTE PTR _i$[ebp]
  00214	88 0c 10	 mov	 BYTE PTR [eax+edx], cl

; 799  :          }

  00217	eb de		 jmp	 SHORT $LN16@build_huff
$LN21@build_huff:

; 800  :       }
; 801  :    }

  00219	e9 7c ff ff ff	 jmp	 $LN13@build_huff
$LN14@build_huff:

; 802  :    return 1;

  0021e	b8 01 00 00 00	 mov	 eax, 1
$LN1@build_huff:

; 803  : }

  00223	5e		 pop	 esi
  00224	83 c4 1c	 add	 esp, 28			; 0000001cH
  00227	3b ec		 cmp	 ebp, esp
  00229	e8 00 00 00 00	 call	 __RTC_CheckEsp
  0022e	8b e5		 mov	 esp, ebp
  00230	5d		 pop	 ebp
  00231	c3		 ret	 0
?build_huffman@@YAHPAUhuffman@@PAH@Z ENDP		; build_huffman
_TEXT	ENDS
; Function compile flags: /Odtp /RTCsu
; File e:\fusion3d_work\engine\src\staticlibs\stb_image.c
_TEXT	SEGMENT
tv69 = -12						; size = 4
_c$1 = -8						; size = 4
_b$2 = -4						; size = 4
_j$ = 8							; size = 4
?grow_buffer_unsafe@@YAXPAUjpeg@@@Z PROC		; grow_buffer_unsafe

; 806  : {

  00000	55		 push	 ebp
  00001	8b ec		 mov	 ebp, esp
  00003	83 ec 0c	 sub	 esp, 12			; 0000000cH
  00006	c7 45 f4 cc cc
	cc cc		 mov	 DWORD PTR [ebp-12], -858993460 ; ccccccccH
  0000d	c7 45 f8 cc cc
	cc cc		 mov	 DWORD PTR [ebp-8], -858993460 ; ccccccccH
  00014	c7 45 fc cc cc
	cc cc		 mov	 DWORD PTR [ebp-4], -858993460 ; ccccccccH
$LN4@grow_buffe:

; 807  :    do {
; 808  :       int b = j->nomore ? 0 : get8(j->s);

  0001b	8b 45 08	 mov	 eax, DWORD PTR _j$[ebp]
  0001e	83 b8 88 36 00
	00 00		 cmp	 DWORD PTR [eax+13960], 0
  00025	74 09		 je	 SHORT $LN8@grow_buffe
  00027	c7 45 f4 00 00
	00 00		 mov	 DWORD PTR tv69[ebp], 0
  0002e	eb 11		 jmp	 SHORT $LN9@grow_buffe
$LN8@grow_buffe:
  00030	8b 4d 08	 mov	 ecx, DWORD PTR _j$[ebp]
  00033	8b 11		 mov	 edx, DWORD PTR [ecx]
  00035	52		 push	 edx
  00036	e8 00 00 00 00	 call	 ?get8@@YAHPAUstbi@@@Z	; get8
  0003b	83 c4 04	 add	 esp, 4
  0003e	89 45 f4	 mov	 DWORD PTR tv69[ebp], eax
$LN9@grow_buffe:
  00041	8b 45 f4	 mov	 eax, DWORD PTR tv69[ebp]
  00044	89 45 fc	 mov	 DWORD PTR _b$2[ebp], eax

; 809  :       if (b == 0xff) {

  00047	81 7d fc ff 00
	00 00		 cmp	 DWORD PTR _b$2[ebp], 255 ; 000000ffH
  0004e	75 32		 jne	 SHORT $LN5@grow_buffe

; 810  :          int c = get8(j->s);

  00050	8b 4d 08	 mov	 ecx, DWORD PTR _j$[ebp]
  00053	8b 11		 mov	 edx, DWORD PTR [ecx]
  00055	52		 push	 edx
  00056	e8 00 00 00 00	 call	 ?get8@@YAHPAUstbi@@@Z	; get8
  0005b	83 c4 04	 add	 esp, 4
  0005e	89 45 f8	 mov	 DWORD PTR _c$1[ebp], eax

; 811  :          if (c != 0) {

  00061	83 7d f8 00	 cmp	 DWORD PTR _c$1[ebp], 0
  00065	74 1b		 je	 SHORT $LN5@grow_buffe

; 812  :             j->marker = (unsigned char) c;

  00067	8b 45 08	 mov	 eax, DWORD PTR _j$[ebp]
  0006a	8a 4d f8	 mov	 cl, BYTE PTR _c$1[ebp]
  0006d	88 88 84 36 00
	00		 mov	 BYTE PTR [eax+13956], cl

; 813  :             j->nomore = 1;

  00073	8b 55 08	 mov	 edx, DWORD PTR _j$[ebp]
  00076	c7 82 88 36 00
	00 01 00 00 00	 mov	 DWORD PTR [edx+13960], 1

; 814  :             return;

  00080	eb 4a		 jmp	 SHORT $LN1@grow_buffe
$LN5@grow_buffe:

; 815  :          }
; 816  :       }
; 817  :       j->code_buffer |= b << (24 - j->code_bits);

  00082	8b 45 08	 mov	 eax, DWORD PTR _j$[ebp]
  00085	b9 18 00 00 00	 mov	 ecx, 24			; 00000018H
  0008a	2b 88 80 36 00
	00		 sub	 ecx, DWORD PTR [eax+13952]
  00090	8b 55 fc	 mov	 edx, DWORD PTR _b$2[ebp]
  00093	d3 e2		 shl	 edx, cl
  00095	8b 45 08	 mov	 eax, DWORD PTR _j$[ebp]
  00098	0b 90 7c 36 00
	00		 or	 edx, DWORD PTR [eax+13948]
  0009e	8b 4d 08	 mov	 ecx, DWORD PTR _j$[ebp]
  000a1	89 91 7c 36 00
	00		 mov	 DWORD PTR [ecx+13948], edx

; 818  :       j->code_bits += 8;

  000a7	8b 55 08	 mov	 edx, DWORD PTR _j$[ebp]
  000aa	8b 82 80 36 00
	00		 mov	 eax, DWORD PTR [edx+13952]
  000b0	83 c0 08	 add	 eax, 8
  000b3	8b 4d 08	 mov	 ecx, DWORD PTR _j$[ebp]
  000b6	89 81 80 36 00
	00		 mov	 DWORD PTR [ecx+13952], eax

; 819  :    } while (j->code_bits <= 24);

  000bc	8b 55 08	 mov	 edx, DWORD PTR _j$[ebp]
  000bf	83 ba 80 36 00
	00 18		 cmp	 DWORD PTR [edx+13952], 24 ; 00000018H
  000c6	0f 8e 4f ff ff
	ff		 jle	 $LN4@grow_buffe
$LN1@grow_buffe:

; 820  : }

  000cc	83 c4 0c	 add	 esp, 12			; 0000000cH
  000cf	3b ec		 cmp	 ebp, esp
  000d1	e8 00 00 00 00	 call	 __RTC_CheckEsp
  000d6	8b e5		 mov	 esp, ebp
  000d8	5d		 pop	 ebp
  000d9	c3		 ret	 0
?grow_buffer_unsafe@@YAXPAUjpeg@@@Z ENDP		; grow_buffer_unsafe
_TEXT	ENDS
; Function compile flags: /Odtp /RTCsu
; File e:\fusion3d_work\engine\src\staticlibs\stb_image.c
_TEXT	SEGMENT
_s$1 = -16						; size = 4
_k$ = -12						; size = 4
_c$ = -8						; size = 4
_temp$ = -4						; size = 4
_j$ = 8							; size = 4
_h$ = 12						; size = 4
?decode@@YAHPAUjpeg@@PAUhuffman@@@Z PROC		; decode

; 827  : {

  00000	55		 push	 ebp
  00001	8b ec		 mov	 ebp, esp
  00003	83 ec 10	 sub	 esp, 16			; 00000010H
  00006	56		 push	 esi
  00007	b8 cc cc cc cc	 mov	 eax, -858993460		; ccccccccH
  0000c	89 45 f0	 mov	 DWORD PTR [ebp-16], eax
  0000f	89 45 f4	 mov	 DWORD PTR [ebp-12], eax
  00012	89 45 f8	 mov	 DWORD PTR [ebp-8], eax
  00015	89 45 fc	 mov	 DWORD PTR [ebp-4], eax

; 828  :    unsigned int temp;
; 829  :    int c,k;
; 830  : 
; 831  :    if (j->code_bits < 16) grow_buffer_unsafe(j);

  00018	8b 45 08	 mov	 eax, DWORD PTR _j$[ebp]
  0001b	83 b8 80 36 00
	00 10		 cmp	 DWORD PTR [eax+13952], 16 ; 00000010H
  00022	7d 0c		 jge	 SHORT $LN5@decode
  00024	8b 4d 08	 mov	 ecx, DWORD PTR _j$[ebp]
  00027	51		 push	 ecx
  00028	e8 00 00 00 00	 call	 ?grow_buffer_unsafe@@YAXPAUjpeg@@@Z ; grow_buffer_unsafe
  0002d	83 c4 04	 add	 esp, 4
$LN5@decode:

; 832  : 
; 833  :    // look at the top FAST_BITS and determine what symbol ID it is,
; 834  :    // if the code is <= FAST_BITS
; 835  :    c = (j->code_buffer >> (32 - FAST_BITS)) & ((1 << FAST_BITS)-1);

  00030	8b 55 08	 mov	 edx, DWORD PTR _j$[ebp]
  00033	8b 82 7c 36 00
	00		 mov	 eax, DWORD PTR [edx+13948]
  00039	c1 e8 17	 shr	 eax, 23			; 00000017H
  0003c	25 ff 01 00 00	 and	 eax, 511		; 000001ffH
  00041	89 45 f8	 mov	 DWORD PTR _c$[ebp], eax

; 836  :    k = h->fast[c];

  00044	8b 4d 0c	 mov	 ecx, DWORD PTR _h$[ebp]
  00047	03 4d f8	 add	 ecx, DWORD PTR _c$[ebp]
  0004a	0f b6 11	 movzx	 edx, BYTE PTR [ecx]
  0004d	89 55 f4	 mov	 DWORD PTR _k$[ebp], edx

; 837  :    if (k < 255) {

  00050	81 7d f4 ff 00
	00 00		 cmp	 DWORD PTR _k$[ebp], 255	; 000000ffH
  00057	7d 64		 jge	 SHORT $LN6@decode

; 838  :       int s = h->size[k];

  00059	8b 45 0c	 mov	 eax, DWORD PTR _h$[ebp]
  0005c	03 45 f4	 add	 eax, DWORD PTR _k$[ebp]
  0005f	0f b6 88 00 05
	00 00		 movzx	 ecx, BYTE PTR [eax+1280]
  00066	89 4d f0	 mov	 DWORD PTR _s$1[ebp], ecx

; 839  :       if (s > j->code_bits)

  00069	8b 55 08	 mov	 edx, DWORD PTR _j$[ebp]
  0006c	8b 45 f0	 mov	 eax, DWORD PTR _s$1[ebp]
  0006f	3b 82 80 36 00
	00		 cmp	 eax, DWORD PTR [edx+13952]
  00075	7e 08		 jle	 SHORT $LN7@decode

; 840  :          return -1;

  00077	83 c8 ff	 or	 eax, -1
  0007a	e9 7a 01 00 00	 jmp	 $LN1@decode
$LN7@decode:

; 841  :       j->code_buffer <<= s;

  0007f	8b 4d 08	 mov	 ecx, DWORD PTR _j$[ebp]
  00082	8b 91 7c 36 00
	00		 mov	 edx, DWORD PTR [ecx+13948]
  00088	8b 4d f0	 mov	 ecx, DWORD PTR _s$1[ebp]
  0008b	d3 e2		 shl	 edx, cl
  0008d	8b 45 08	 mov	 eax, DWORD PTR _j$[ebp]
  00090	89 90 7c 36 00
	00		 mov	 DWORD PTR [eax+13948], edx

; 842  :       j->code_bits -= s;

  00096	8b 4d 08	 mov	 ecx, DWORD PTR _j$[ebp]
  00099	8b 91 80 36 00
	00		 mov	 edx, DWORD PTR [ecx+13952]
  0009f	2b 55 f0	 sub	 edx, DWORD PTR _s$1[ebp]
  000a2	8b 45 08	 mov	 eax, DWORD PTR _j$[ebp]
  000a5	89 90 80 36 00
	00		 mov	 DWORD PTR [eax+13952], edx

; 843  :       return h->values[k];

  000ab	8b 4d 0c	 mov	 ecx, DWORD PTR _h$[ebp]
  000ae	03 4d f4	 add	 ecx, DWORD PTR _k$[ebp]
  000b1	0f b6 81 00 04
	00 00		 movzx	 eax, BYTE PTR [ecx+1024]
  000b8	e9 3c 01 00 00	 jmp	 $LN1@decode
$LN6@decode:

; 844  :    }
; 845  : 
; 846  :    // naive test is to shift the code_buffer down so k bits are
; 847  :    // valid, then test against maxcode. To speed this up, we've
; 848  :    // preshifted maxcode left so that it has (16-k) 0s at the
; 849  :    // end; in other words, regardless of the number of bits, it
; 850  :    // wants to be compared against something shifted to have 16;
; 851  :    // that way we don't need to shift inside the loop.
; 852  :    temp = j->code_buffer >> 16;

  000bd	8b 55 08	 mov	 edx, DWORD PTR _j$[ebp]
  000c0	8b 82 7c 36 00
	00		 mov	 eax, DWORD PTR [edx+13948]
  000c6	c1 e8 10	 shr	 eax, 16			; 00000010H
  000c9	89 45 fc	 mov	 DWORD PTR _temp$[ebp], eax

; 853  :    for (k=FAST_BITS+1 ; ; ++k)

  000cc	c7 45 f4 0a 00
	00 00		 mov	 DWORD PTR _k$[ebp], 10	; 0000000aH
  000d3	eb 09		 jmp	 SHORT $LN4@decode
$LN2@decode:
  000d5	8b 4d f4	 mov	 ecx, DWORD PTR _k$[ebp]
  000d8	83 c1 01	 add	 ecx, 1
  000db	89 4d f4	 mov	 DWORD PTR _k$[ebp], ecx
$LN4@decode:

; 854  :       if (temp < h->maxcode[k])

  000de	8b 55 f4	 mov	 edx, DWORD PTR _k$[ebp]
  000e1	8b 45 0c	 mov	 eax, DWORD PTR _h$[ebp]
  000e4	8b 4d fc	 mov	 ecx, DWORD PTR _temp$[ebp]
  000e7	3b 8c 90 04 06
	00 00		 cmp	 ecx, DWORD PTR [eax+edx*4+1540]
  000ee	73 02		 jae	 SHORT $LN8@decode

; 855  :          break;

  000f0	eb 02		 jmp	 SHORT $LN3@decode
$LN8@decode:

; 856  :    if (k == 17) {

  000f2	eb e1		 jmp	 SHORT $LN2@decode
$LN3@decode:
  000f4	83 7d f4 11	 cmp	 DWORD PTR _k$[ebp], 17	; 00000011H
  000f8	75 1d		 jne	 SHORT $LN9@decode

; 857  :       // error! code not found
; 858  :       j->code_bits -= 16;

  000fa	8b 55 08	 mov	 edx, DWORD PTR _j$[ebp]
  000fd	8b 82 80 36 00
	00		 mov	 eax, DWORD PTR [edx+13952]
  00103	83 e8 10	 sub	 eax, 16			; 00000010H
  00106	8b 4d 08	 mov	 ecx, DWORD PTR _j$[ebp]
  00109	89 81 80 36 00
	00		 mov	 DWORD PTR [ecx+13952], eax

; 859  :       return -1;

  0010f	83 c8 ff	 or	 eax, -1
  00112	e9 e2 00 00 00	 jmp	 $LN1@decode
$LN9@decode:

; 860  :    }
; 861  : 
; 862  :    if (k > j->code_bits)

  00117	8b 55 08	 mov	 edx, DWORD PTR _j$[ebp]
  0011a	8b 45 f4	 mov	 eax, DWORD PTR _k$[ebp]
  0011d	3b 82 80 36 00
	00		 cmp	 eax, DWORD PTR [edx+13952]
  00123	7e 08		 jle	 SHORT $LN10@decode

; 863  :       return -1;

  00125	83 c8 ff	 or	 eax, -1
  00128	e9 cc 00 00 00	 jmp	 $LN1@decode
$LN10@decode:

; 864  : 
; 865  :    // convert the huffman code to the symbol id
; 866  :    c = ((j->code_buffer >> (32 - k)) & bmask[k]) + h->delta[k];

  0012d	b9 20 00 00 00	 mov	 ecx, 32			; 00000020H
  00132	2b 4d f4	 sub	 ecx, DWORD PTR _k$[ebp]
  00135	8b 55 08	 mov	 edx, DWORD PTR _j$[ebp]
  00138	8b 82 7c 36 00
	00		 mov	 eax, DWORD PTR [edx+13948]
  0013e	d3 e8		 shr	 eax, cl
  00140	8b 4d f4	 mov	 ecx, DWORD PTR _k$[ebp]
  00143	23 04 8d 00 00
	00 00		 and	 eax, DWORD PTR ?bmask@@3PAIA[ecx*4]
  0014a	8b 55 f4	 mov	 edx, DWORD PTR _k$[ebp]
  0014d	8b 4d 0c	 mov	 ecx, DWORD PTR _h$[ebp]
  00150	03 84 91 4c 06
	00 00		 add	 eax, DWORD PTR [ecx+edx*4+1612]
  00157	89 45 f8	 mov	 DWORD PTR _c$[ebp], eax

; 867  :    assert((((j->code_buffer) >> (32 - h->size[c])) & bmask[h->size[c]]) == h->code[c]);

  0015a	8b 55 0c	 mov	 edx, DWORD PTR _h$[ebp]
  0015d	03 55 f8	 add	 edx, DWORD PTR _c$[ebp]
  00160	0f b6 82 00 05
	00 00		 movzx	 eax, BYTE PTR [edx+1280]
  00167	b9 20 00 00 00	 mov	 ecx, 32			; 00000020H
  0016c	2b c8		 sub	 ecx, eax
  0016e	8b 55 08	 mov	 edx, DWORD PTR _j$[ebp]
  00171	8b 82 7c 36 00
	00		 mov	 eax, DWORD PTR [edx+13948]
  00177	d3 e8		 shr	 eax, cl
  00179	8b 4d 0c	 mov	 ecx, DWORD PTR _h$[ebp]
  0017c	03 4d f8	 add	 ecx, DWORD PTR _c$[ebp]
  0017f	0f b6 91 00 05
	00 00		 movzx	 edx, BYTE PTR [ecx+1280]
  00186	23 04 95 00 00
	00 00		 and	 eax, DWORD PTR ?bmask@@3PAIA[edx*4]
  0018d	8b 4d f8	 mov	 ecx, DWORD PTR _c$[ebp]
  00190	8b 55 0c	 mov	 edx, DWORD PTR _h$[ebp]
  00193	0f b7 8c 4a 00
	02 00 00	 movzx	 ecx, WORD PTR [edx+ecx*2+512]
  0019b	3b c1		 cmp	 eax, ecx
  0019d	74 21		 je	 SHORT $LN12@decode
  0019f	8b f4		 mov	 esi, esp
  001a1	68 63 03 00 00	 push	 867			; 00000363H
  001a6	68 00 00 00 00	 push	 OFFSET $SG4294820263
  001ab	68 00 00 00 00	 push	 OFFSET $SG4294820262
  001b0	ff 15 00 00 00
	00		 call	 DWORD PTR __imp___wassert
  001b6	83 c4 0c	 add	 esp, 12			; 0000000cH
  001b9	3b f4		 cmp	 esi, esp
  001bb	e8 00 00 00 00	 call	 __RTC_CheckEsp
$LN12@decode:

; 868  : 
; 869  :    // convert the id to a symbol
; 870  :    j->code_bits -= k;

  001c0	8b 45 08	 mov	 eax, DWORD PTR _j$[ebp]
  001c3	8b 88 80 36 00
	00		 mov	 ecx, DWORD PTR [eax+13952]
  001c9	2b 4d f4	 sub	 ecx, DWORD PTR _k$[ebp]
  001cc	8b 55 08	 mov	 edx, DWORD PTR _j$[ebp]
  001cf	89 8a 80 36 00
	00		 mov	 DWORD PTR [edx+13952], ecx

; 871  :    j->code_buffer <<= k;

  001d5	8b 45 08	 mov	 eax, DWORD PTR _j$[ebp]
  001d8	8b 90 7c 36 00
	00		 mov	 edx, DWORD PTR [eax+13948]
  001de	8b 4d f4	 mov	 ecx, DWORD PTR _k$[ebp]
  001e1	d3 e2		 shl	 edx, cl
  001e3	8b 45 08	 mov	 eax, DWORD PTR _j$[ebp]
  001e6	89 90 7c 36 00
	00		 mov	 DWORD PTR [eax+13948], edx

; 872  :    return h->values[c];

  001ec	8b 4d 0c	 mov	 ecx, DWORD PTR _h$[ebp]
  001ef	03 4d f8	 add	 ecx, DWORD PTR _c$[ebp]
  001f2	0f b6 81 00 04
	00 00		 movzx	 eax, BYTE PTR [ecx+1024]
$LN1@decode:

; 873  : }

  001f9	5e		 pop	 esi
  001fa	83 c4 10	 add	 esp, 16			; 00000010H
  001fd	3b ec		 cmp	 ebp, esp
  001ff	e8 00 00 00 00	 call	 __RTC_CheckEsp
  00204	8b e5		 mov	 esp, ebp
  00206	5d		 pop	 ebp
  00207	c3		 ret	 0
?decode@@YAHPAUjpeg@@PAUhuffman@@@Z ENDP		; decode
_TEXT	ENDS
; Function compile flags: /Odtp /RTCsu
; File e:\fusion3d_work\engine\src\staticlibs\stb_image.c
_TEXT	SEGMENT
_k$ = -8						; size = 4
_m$ = -4						; size = 4
_j$ = 8							; size = 4
_n$ = 12						; size = 4
?extend_receive@@YAHPAUjpeg@@H@Z PROC			; extend_receive

; 878  : {

  00000	55		 push	 ebp
  00001	8b ec		 mov	 ebp, esp
  00003	83 ec 08	 sub	 esp, 8
  00006	56		 push	 esi
  00007	c7 45 f8 cc cc
	cc cc		 mov	 DWORD PTR [ebp-8], -858993460 ; ccccccccH
  0000e	c7 45 fc cc cc
	cc cc		 mov	 DWORD PTR [ebp-4], -858993460 ; ccccccccH

; 879  :    unsigned int m = 1 << (n-1);

  00015	8b 4d 0c	 mov	 ecx, DWORD PTR _n$[ebp]
  00018	83 e9 01	 sub	 ecx, 1
  0001b	b8 01 00 00 00	 mov	 eax, 1
  00020	d3 e0		 shl	 eax, cl
  00022	89 45 fc	 mov	 DWORD PTR _m$[ebp], eax

; 880  :    unsigned int k;
; 881  :    if (j->code_bits < n) grow_buffer_unsafe(j);

  00025	8b 4d 08	 mov	 ecx, DWORD PTR _j$[ebp]
  00028	8b 91 80 36 00
	00		 mov	 edx, DWORD PTR [ecx+13952]
  0002e	3b 55 0c	 cmp	 edx, DWORD PTR _n$[ebp]
  00031	7d 0c		 jge	 SHORT $LN2@extend_rec
  00033	8b 45 08	 mov	 eax, DWORD PTR _j$[ebp]
  00036	50		 push	 eax
  00037	e8 00 00 00 00	 call	 ?grow_buffer_unsafe@@YAXPAUjpeg@@@Z ; grow_buffer_unsafe
  0003c	83 c4 04	 add	 esp, 4
$LN2@extend_rec:

; 882  : 
; 883  :    #if 1
; 884  :    k = stbi_lrot(j->code_buffer, n);

  0003f	8b f4		 mov	 esi, esp
  00041	8b 4d 0c	 mov	 ecx, DWORD PTR _n$[ebp]
  00044	51		 push	 ecx
  00045	8b 55 08	 mov	 edx, DWORD PTR _j$[ebp]
  00048	8b 82 7c 36 00
	00		 mov	 eax, DWORD PTR [edx+13948]
  0004e	50		 push	 eax
  0004f	ff 15 00 00 00
	00		 call	 DWORD PTR __imp___lrotl
  00055	83 c4 08	 add	 esp, 8
  00058	3b f4		 cmp	 esi, esp
  0005a	e8 00 00 00 00	 call	 __RTC_CheckEsp
  0005f	89 45 f8	 mov	 DWORD PTR _k$[ebp], eax

; 885  :    j->code_buffer = k & ~bmask[n];

  00062	8b 4d 0c	 mov	 ecx, DWORD PTR _n$[ebp]
  00065	8b 14 8d 00 00
	00 00		 mov	 edx, DWORD PTR ?bmask@@3PAIA[ecx*4]
  0006c	f7 d2		 not	 edx
  0006e	23 55 f8	 and	 edx, DWORD PTR _k$[ebp]
  00071	8b 45 08	 mov	 eax, DWORD PTR _j$[ebp]
  00074	89 90 7c 36 00
	00		 mov	 DWORD PTR [eax+13948], edx

; 886  :    k &= bmask[n];

  0007a	8b 4d 0c	 mov	 ecx, DWORD PTR _n$[ebp]
  0007d	8b 55 f8	 mov	 edx, DWORD PTR _k$[ebp]
  00080	23 14 8d 00 00
	00 00		 and	 edx, DWORD PTR ?bmask@@3PAIA[ecx*4]
  00087	89 55 f8	 mov	 DWORD PTR _k$[ebp], edx

; 887  :    j->code_bits -= n;

  0008a	8b 45 08	 mov	 eax, DWORD PTR _j$[ebp]
  0008d	8b 88 80 36 00
	00		 mov	 ecx, DWORD PTR [eax+13952]
  00093	2b 4d 0c	 sub	 ecx, DWORD PTR _n$[ebp]
  00096	8b 55 08	 mov	 edx, DWORD PTR _j$[ebp]
  00099	89 8a 80 36 00
	00		 mov	 DWORD PTR [edx+13952], ecx

; 888  :    #else
; 889  :    k = (j->code_buffer >> (32 - n)) & bmask[n];
; 890  :    j->code_bits -= n;
; 891  :    j->code_buffer <<= n;
; 892  :    #endif
; 893  :    // the following test is probably a random branch that won't
; 894  :    // predict well. I tried to table accelerate it but failed.
; 895  :    // maybe it's compiling as a conditional move?
; 896  :    if (k < m)

  0009f	8b 45 f8	 mov	 eax, DWORD PTR _k$[ebp]
  000a2	3b 45 fc	 cmp	 eax, DWORD PTR _m$[ebp]
  000a5	73 13		 jae	 SHORT $LN3@extend_rec

; 897  :       return (-1 << n) + k + 1;

  000a7	83 ca ff	 or	 edx, -1
  000aa	8b 4d 0c	 mov	 ecx, DWORD PTR _n$[ebp]
  000ad	d3 e2		 shl	 edx, cl
  000af	8b 45 f8	 mov	 eax, DWORD PTR _k$[ebp]
  000b2	8d 44 02 01	 lea	 eax, DWORD PTR [edx+eax+1]
  000b6	eb 05		 jmp	 SHORT $LN1@extend_rec

; 898  :    else

  000b8	eb 03		 jmp	 SHORT $LN1@extend_rec
$LN3@extend_rec:

; 899  :       return k;

  000ba	8b 45 f8	 mov	 eax, DWORD PTR _k$[ebp]
$LN1@extend_rec:

; 900  : }

  000bd	5e		 pop	 esi
  000be	83 c4 08	 add	 esp, 8
  000c1	3b ec		 cmp	 ebp, esp
  000c3	e8 00 00 00 00	 call	 __RTC_CheckEsp
  000c8	8b e5		 mov	 esp, ebp
  000ca	5d		 pop	 ebp
  000cb	c3		 ret	 0
?extend_receive@@YAHPAUjpeg@@H@Z ENDP			; extend_receive
_TEXT	ENDS
; Function compile flags: /Odtp /RTCsu
; File e:\fusion3d_work\engine\src\staticlibs\stb_image.c
_TEXT	SEGMENT
tv77 = -32						; size = 4
_rs$1 = -28						; size = 4
_s$2 = -24						; size = 4
_r$3 = -20						; size = 4
_t$ = -16						; size = 4
_k$ = -12						; size = 4
_dc$ = -8						; size = 4
_diff$ = -4						; size = 4
_j$ = 8							; size = 4
_data$ = 12						; size = 4
_hdc$ = 16						; size = 4
_hac$ = 20						; size = 4
_b$ = 24						; size = 4
?decode_block@@YAHPAUjpeg@@QAFPAUhuffman@@2H@Z PROC	; decode_block

; 921  : {

  00000	55		 push	 ebp
  00001	8b ec		 mov	 ebp, esp
  00003	83 ec 20	 sub	 esp, 32			; 00000020H
  00006	56		 push	 esi
  00007	b8 cc cc cc cc	 mov	 eax, -858993460		; ccccccccH
  0000c	89 45 e0	 mov	 DWORD PTR [ebp-32], eax
  0000f	89 45 e4	 mov	 DWORD PTR [ebp-28], eax
  00012	89 45 e8	 mov	 DWORD PTR [ebp-24], eax
  00015	89 45 ec	 mov	 DWORD PTR [ebp-20], eax
  00018	89 45 f0	 mov	 DWORD PTR [ebp-16], eax
  0001b	89 45 f4	 mov	 DWORD PTR [ebp-12], eax
  0001e	89 45 f8	 mov	 DWORD PTR [ebp-8], eax
  00021	89 45 fc	 mov	 DWORD PTR [ebp-4], eax

; 922  :    int diff,dc,k;
; 923  :    int t = decode(j, hdc);

  00024	8b 45 10	 mov	 eax, DWORD PTR _hdc$[ebp]
  00027	50		 push	 eax
  00028	8b 4d 08	 mov	 ecx, DWORD PTR _j$[ebp]
  0002b	51		 push	 ecx
  0002c	e8 00 00 00 00	 call	 ?decode@@YAHPAUjpeg@@PAUhuffman@@@Z ; decode
  00031	83 c4 08	 add	 esp, 8
  00034	89 45 f0	 mov	 DWORD PTR _t$[ebp], eax

; 924  :    if (t < 0) return e("bad huffman code","Corrupt JPEG");

  00037	83 7d f0 00	 cmp	 DWORD PTR _t$[ebp], 0
  0003b	7d 12		 jge	 SHORT $LN5@decode_blo
  0003d	68 00 00 00 00	 push	 OFFSET $SG4294820261
  00042	e8 00 00 00 00	 call	 ?e@@YAHPBD@Z		; e
  00047	83 c4 04	 add	 esp, 4
  0004a	e9 1c 01 00 00	 jmp	 $LN1@decode_blo
$LN5@decode_blo:

; 925  : 
; 926  :    // 0 all the ac values now so we can do it 32-bits at a time
; 927  :    memset(data,0,64*sizeof(data[0]));

  0004f	8b f4		 mov	 esi, esp
  00051	68 80 00 00 00	 push	 128			; 00000080H
  00056	6a 00		 push	 0
  00058	8b 55 0c	 mov	 edx, DWORD PTR _data$[ebp]
  0005b	52		 push	 edx
  0005c	ff 15 00 00 00
	00		 call	 DWORD PTR __imp__memset
  00062	83 c4 0c	 add	 esp, 12			; 0000000cH
  00065	3b f4		 cmp	 esi, esp
  00067	e8 00 00 00 00	 call	 __RTC_CheckEsp

; 928  : 
; 929  :    diff = t ? extend_receive(j, t) : 0;

  0006c	83 7d f0 00	 cmp	 DWORD PTR _t$[ebp], 0
  00070	74 15		 je	 SHORT $LN11@decode_blo
  00072	8b 45 f0	 mov	 eax, DWORD PTR _t$[ebp]
  00075	50		 push	 eax
  00076	8b 4d 08	 mov	 ecx, DWORD PTR _j$[ebp]
  00079	51		 push	 ecx
  0007a	e8 00 00 00 00	 call	 ?extend_receive@@YAHPAUjpeg@@H@Z ; extend_receive
  0007f	83 c4 08	 add	 esp, 8
  00082	89 45 e0	 mov	 DWORD PTR tv77[ebp], eax
  00085	eb 07		 jmp	 SHORT $LN12@decode_blo
$LN11@decode_blo:
  00087	c7 45 e0 00 00
	00 00		 mov	 DWORD PTR tv77[ebp], 0
$LN12@decode_blo:
  0008e	8b 55 e0	 mov	 edx, DWORD PTR tv77[ebp]
  00091	89 55 fc	 mov	 DWORD PTR _diff$[ebp], edx

; 930  :    dc = j->img_comp[b].dc_pred + diff;

  00094	6b 45 18 38	 imul	 eax, DWORD PTR _b$[ebp], 56
  00098	8b 4d 08	 mov	 ecx, DWORD PTR _j$[ebp]
  0009b	8b 94 01 b4 35
	00 00		 mov	 edx, DWORD PTR [ecx+eax+13748]
  000a2	03 55 fc	 add	 edx, DWORD PTR _diff$[ebp]
  000a5	89 55 f8	 mov	 DWORD PTR _dc$[ebp], edx

; 931  :    j->img_comp[b].dc_pred = dc;

  000a8	6b 45 18 38	 imul	 eax, DWORD PTR _b$[ebp], 56
  000ac	8b 4d 08	 mov	 ecx, DWORD PTR _j$[ebp]
  000af	8b 55 f8	 mov	 edx, DWORD PTR _dc$[ebp]
  000b2	89 94 01 b4 35
	00 00		 mov	 DWORD PTR [ecx+eax+13748], edx

; 932  :    data[0] = (short) dc;

  000b9	b8 02 00 00 00	 mov	 eax, 2
  000be	6b c8 00	 imul	 ecx, eax, 0
  000c1	8b 55 0c	 mov	 edx, DWORD PTR _data$[ebp]
  000c4	66 8b 45 f8	 mov	 ax, WORD PTR _dc$[ebp]
  000c8	66 89 04 0a	 mov	 WORD PTR [edx+ecx], ax

; 933  : 
; 934  :    // decode AC components, see JPEG spec
; 935  :    k = 1;

  000cc	c7 45 f4 01 00
	00 00		 mov	 DWORD PTR _k$[ebp], 1
$LN4@decode_blo:

; 936  :    do {
; 937  :       int r,s;
; 938  :       int rs = decode(j, hac);

  000d3	8b 4d 14	 mov	 ecx, DWORD PTR _hac$[ebp]
  000d6	51		 push	 ecx
  000d7	8b 55 08	 mov	 edx, DWORD PTR _j$[ebp]
  000da	52		 push	 edx
  000db	e8 00 00 00 00	 call	 ?decode@@YAHPAUjpeg@@PAUhuffman@@@Z ; decode
  000e0	83 c4 08	 add	 esp, 8
  000e3	89 45 e4	 mov	 DWORD PTR _rs$1[ebp], eax

; 939  :       if (rs < 0) return e("bad huffman code","Corrupt JPEG");

  000e6	83 7d e4 00	 cmp	 DWORD PTR _rs$1[ebp], 0
  000ea	7d 0f		 jge	 SHORT $LN6@decode_blo
  000ec	68 00 00 00 00	 push	 OFFSET $SG4294820260
  000f1	e8 00 00 00 00	 call	 ?e@@YAHPBD@Z		; e
  000f6	83 c4 04	 add	 esp, 4
  000f9	eb 70		 jmp	 SHORT $LN1@decode_blo
$LN6@decode_blo:

; 940  :       s = rs & 15;

  000fb	8b 45 e4	 mov	 eax, DWORD PTR _rs$1[ebp]
  000fe	83 e0 0f	 and	 eax, 15			; 0000000fH
  00101	89 45 e8	 mov	 DWORD PTR _s$2[ebp], eax

; 941  :       r = rs >> 4;

  00104	8b 4d e4	 mov	 ecx, DWORD PTR _rs$1[ebp]
  00107	c1 f9 04	 sar	 ecx, 4
  0010a	89 4d ec	 mov	 DWORD PTR _r$3[ebp], ecx

; 942  :       if (s == 0) {

  0010d	83 7d e8 00	 cmp	 DWORD PTR _s$2[ebp], 0
  00111	75 16		 jne	 SHORT $LN7@decode_blo

; 943  :          if (rs != 0xf0) break; // end block

  00113	81 7d e4 f0 00
	00 00		 cmp	 DWORD PTR _rs$1[ebp], 240 ; 000000f0H
  0011a	74 02		 je	 SHORT $LN9@decode_blo
  0011c	eb 48		 jmp	 SHORT $LN3@decode_blo
$LN9@decode_blo:

; 944  :          k += 16;

  0011e	8b 55 f4	 mov	 edx, DWORD PTR _k$[ebp]
  00121	83 c2 10	 add	 edx, 16			; 00000010H
  00124	89 55 f4	 mov	 DWORD PTR _k$[ebp], edx

; 945  :       } else {

  00127	eb 33		 jmp	 SHORT $LN2@decode_blo
$LN7@decode_blo:

; 946  :          k += r;

  00129	8b 45 f4	 mov	 eax, DWORD PTR _k$[ebp]
  0012c	03 45 ec	 add	 eax, DWORD PTR _r$3[ebp]
  0012f	89 45 f4	 mov	 DWORD PTR _k$[ebp], eax

; 947  :          // decode into unzigzag'd location
; 948  :          data[dezigzag[k++]] = (short) extend_receive(j,s);

  00132	8b 4d e8	 mov	 ecx, DWORD PTR _s$2[ebp]
  00135	51		 push	 ecx
  00136	8b 55 08	 mov	 edx, DWORD PTR _j$[ebp]
  00139	52		 push	 edx
  0013a	e8 00 00 00 00	 call	 ?extend_receive@@YAHPAUjpeg@@H@Z ; extend_receive
  0013f	83 c4 08	 add	 esp, 8
  00142	8b 4d f4	 mov	 ecx, DWORD PTR _k$[ebp]
  00145	0f b6 91 00 00
	00 00		 movzx	 edx, BYTE PTR ?dezigzag@@3PAEA[ecx]
  0014c	8b 4d 0c	 mov	 ecx, DWORD PTR _data$[ebp]
  0014f	66 89 04 51	 mov	 WORD PTR [ecx+edx*2], ax
  00153	8b 55 f4	 mov	 edx, DWORD PTR _k$[ebp]
  00156	83 c2 01	 add	 edx, 1
  00159	89 55 f4	 mov	 DWORD PTR _k$[ebp], edx
$LN2@decode_blo:

; 949  :       }
; 950  :    } while (k < 64);

  0015c	83 7d f4 40	 cmp	 DWORD PTR _k$[ebp], 64	; 00000040H
  00160	0f 8c 6d ff ff
	ff		 jl	 $LN4@decode_blo
$LN3@decode_blo:

; 951  :    return 1;

  00166	b8 01 00 00 00	 mov	 eax, 1
$LN1@decode_blo:

; 952  : }

  0016b	5e		 pop	 esi
  0016c	83 c4 20	 add	 esp, 32			; 00000020H
  0016f	3b ec		 cmp	 ebp, esp
  00171	e8 00 00 00 00	 call	 __RTC_CheckEsp
  00176	8b e5		 mov	 esp, ebp
  00178	5d		 pop	 ebp
  00179	c3		 ret	 0
?decode_block@@YAHPAUjpeg@@QAFPAUhuffman@@2H@Z ENDP	; decode_block
_TEXT	ENDS
; Function compile flags: /Odtp /RTCsu
; File e:\fusion3d_work\engine\src\staticlibs\stb_image.c
_TEXT	SEGMENT
_x$ = 8							; size = 4
?clamp@@YAEH@Z PROC					; clamp

; 956  : {

  00000	55		 push	 ebp
  00001	8b ec		 mov	 ebp, esp

; 957  :    // trick to use a single test to catch both cases
; 958  :    if ((unsigned int) x > 255) {

  00003	81 7d 08 ff 00
	00 00		 cmp	 DWORD PTR _x$[ebp], 255	; 000000ffH
  0000a	76 17		 jbe	 SHORT $LN2@clamp

; 959  :       if (x < 0) return 0;

  0000c	83 7d 08 00	 cmp	 DWORD PTR _x$[ebp], 0
  00010	7d 04		 jge	 SHORT $LN3@clamp
  00012	32 c0		 xor	 al, al
  00014	eb 10		 jmp	 SHORT $LN1@clamp
$LN3@clamp:

; 960  :       if (x > 255) return 255;

  00016	81 7d 08 ff 00
	00 00		 cmp	 DWORD PTR _x$[ebp], 255	; 000000ffH
  0001d	7e 04		 jle	 SHORT $LN2@clamp
  0001f	0c ff		 or	 al, 255			; 000000ffH
  00021	eb 03		 jmp	 SHORT $LN1@clamp
$LN2@clamp:

; 961  :    }
; 962  :    return (uint8) x;

  00023	8a 45 08	 mov	 al, BYTE PTR _x$[ebp]
$LN1@clamp:

; 963  : }

  00026	5d		 pop	 ebp
  00027	c3		 ret	 0
?clamp@@YAEH@Z ENDP					; clamp
_TEXT	ENDS
; Function compile flags: /Odtp /RTCsu
; File e:\fusion3d_work\engine\src\staticlibs\stb_image.c
_TEXT	SEGMENT
_x3$1 = -396						; size = 4
_x2$2 = -392						; size = 4
_x1$3 = -388						; size = 4
_x0$4 = -384						; size = 4
_p5$5 = -380						; size = 4
_p4$6 = -376						; size = 4
_p3$7 = -372						; size = 4
_p2$8 = -368						; size = 4
_p1$9 = -364						; size = 4
_t3$10 = -360						; size = 4
_t2$11 = -356						; size = 4
_t1$12 = -352						; size = 4
_t0$13 = -348						; size = 4
_x3$14 = -344						; size = 4
_x2$15 = -340						; size = 4
_x1$16 = -336						; size = 4
_x0$17 = -332						; size = 4
_p5$18 = -328						; size = 4
_p4$19 = -324						; size = 4
_p3$20 = -320						; size = 4
_p2$21 = -316						; size = 4
_p1$22 = -312						; size = 4
_t3$23 = -308						; size = 4
_t2$24 = -304						; size = 4
_t1$25 = -300						; size = 4
_t0$26 = -296						; size = 4
_dcterm$27 = -292					; size = 4
_d$ = -288						; size = 4
_o$ = -284						; size = 4
_dq$ = -280						; size = 4
_v$ = -276						; size = 4
_val$ = -268						; size = 256
_i$ = -8						; size = 4
__$ArrayPad$ = -4					; size = 4
_out$ = 8						; size = 4
_out_stride$ = 12					; size = 4
_data$ = 16						; size = 4
_dequantize$ = 20					; size = 4
?idct_block@@YAXPAEHQAF0@Z PROC				; idct_block

; 1014 : {

  00000	55		 push	 ebp
  00001	8b ec		 mov	 ebp, esp
  00003	81 ec 8c 01 00
	00		 sub	 esp, 396		; 0000018cH
  00009	57		 push	 edi
  0000a	8d bd 74 fe ff
	ff		 lea	 edi, DWORD PTR [ebp-396]
  00010	b9 63 00 00 00	 mov	 ecx, 99			; 00000063H
  00015	b8 cc cc cc cc	 mov	 eax, -858993460		; ccccccccH
  0001a	f3 ab		 rep stosd
  0001c	a1 00 00 00 00	 mov	 eax, DWORD PTR ___security_cookie
  00021	33 c5		 xor	 eax, ebp
  00023	89 45 fc	 mov	 DWORD PTR __$ArrayPad$[ebp], eax

; 1015 :    int i,val[64],*v=val;

  00026	8d 85 f4 fe ff
	ff		 lea	 eax, DWORD PTR _val$[ebp]
  0002c	89 85 ec fe ff
	ff		 mov	 DWORD PTR _v$[ebp], eax

; 1016 :    stbi_dequantize_t *dq = dequantize;

  00032	8b 4d 14	 mov	 ecx, DWORD PTR _dequantize$[ebp]
  00035	89 8d e8 fe ff
	ff		 mov	 DWORD PTR _dq$[ebp], ecx

; 1017 :    uint8 *o;
; 1018 :    short *d = data;

  0003b	8b 55 10	 mov	 edx, DWORD PTR _data$[ebp]
  0003e	89 95 e0 fe ff
	ff		 mov	 DWORD PTR _d$[ebp], edx

; 1019 : 
; 1020 :    // columns
; 1021 :    for (i=0; i < 8; ++i,++d,++dq, ++v) {

  00044	c7 45 f8 00 00
	00 00		 mov	 DWORD PTR _i$[ebp], 0
  0004b	eb 36		 jmp	 SHORT $LN4@idct_block
$LN2@idct_block:
  0004d	8b 45 f8	 mov	 eax, DWORD PTR _i$[ebp]
  00050	83 c0 01	 add	 eax, 1
  00053	89 45 f8	 mov	 DWORD PTR _i$[ebp], eax
  00056	8b 8d e0 fe ff
	ff		 mov	 ecx, DWORD PTR _d$[ebp]
  0005c	83 c1 02	 add	 ecx, 2
  0005f	89 8d e0 fe ff
	ff		 mov	 DWORD PTR _d$[ebp], ecx
  00065	8b 95 e8 fe ff
	ff		 mov	 edx, DWORD PTR _dq$[ebp]
  0006b	83 c2 01	 add	 edx, 1
  0006e	89 95 e8 fe ff
	ff		 mov	 DWORD PTR _dq$[ebp], edx
  00074	8b 85 ec fe ff
	ff		 mov	 eax, DWORD PTR _v$[ebp]
  0007a	83 c0 04	 add	 eax, 4
  0007d	89 85 ec fe ff
	ff		 mov	 DWORD PTR _v$[ebp], eax
$LN4@idct_block:
  00083	83 7d f8 08	 cmp	 DWORD PTR _i$[ebp], 8
  00087	0f 8d 59 06 00
	00		 jge	 $LN3@idct_block

; 1022 :       // if all zeroes, shortcut -- this avoids dequantizing 0s and IDCTing
; 1023 :       if (d[ 8]==0 && d[16]==0 && d[24]==0 && d[32]==0
; 1024 :            && d[40]==0 && d[48]==0 && d[56]==0) {

  0008d	b9 02 00 00 00	 mov	 ecx, 2
  00092	c1 e1 03	 shl	 ecx, 3
  00095	8b 95 e0 fe ff
	ff		 mov	 edx, DWORD PTR _d$[ebp]
  0009b	0f bf 04 0a	 movsx	 eax, WORD PTR [edx+ecx]
  0009f	85 c0		 test	 eax, eax
  000a1	0f 85 89 01 00
	00		 jne	 $LN8@idct_block
  000a7	b9 02 00 00 00	 mov	 ecx, 2
  000ac	c1 e1 04	 shl	 ecx, 4
  000af	8b 95 e0 fe ff
	ff		 mov	 edx, DWORD PTR _d$[ebp]
  000b5	0f bf 04 0a	 movsx	 eax, WORD PTR [edx+ecx]
  000b9	85 c0		 test	 eax, eax
  000bb	0f 85 6f 01 00
	00		 jne	 $LN8@idct_block
  000c1	b9 02 00 00 00	 mov	 ecx, 2
  000c6	6b d1 18	 imul	 edx, ecx, 24
  000c9	8b 85 e0 fe ff
	ff		 mov	 eax, DWORD PTR _d$[ebp]
  000cf	0f bf 0c 10	 movsx	 ecx, WORD PTR [eax+edx]
  000d3	85 c9		 test	 ecx, ecx
  000d5	0f 85 55 01 00
	00		 jne	 $LN8@idct_block
  000db	ba 02 00 00 00	 mov	 edx, 2
  000e0	c1 e2 05	 shl	 edx, 5
  000e3	8b 85 e0 fe ff
	ff		 mov	 eax, DWORD PTR _d$[ebp]
  000e9	0f bf 0c 10	 movsx	 ecx, WORD PTR [eax+edx]
  000ed	85 c9		 test	 ecx, ecx
  000ef	0f 85 3b 01 00
	00		 jne	 $LN8@idct_block
  000f5	ba 02 00 00 00	 mov	 edx, 2
  000fa	6b c2 28	 imul	 eax, edx, 40
  000fd	8b 8d e0 fe ff
	ff		 mov	 ecx, DWORD PTR _d$[ebp]
  00103	0f bf 14 01	 movsx	 edx, WORD PTR [ecx+eax]
  00107	85 d2		 test	 edx, edx
  00109	0f 85 21 01 00
	00		 jne	 $LN8@idct_block
  0010f	b8 02 00 00 00	 mov	 eax, 2
  00114	6b c8 30	 imul	 ecx, eax, 48
  00117	8b 95 e0 fe ff
	ff		 mov	 edx, DWORD PTR _d$[ebp]
  0011d	0f bf 04 0a	 movsx	 eax, WORD PTR [edx+ecx]
  00121	85 c0		 test	 eax, eax
  00123	0f 85 07 01 00
	00		 jne	 $LN8@idct_block
  00129	b9 02 00 00 00	 mov	 ecx, 2
  0012e	6b d1 38	 imul	 edx, ecx, 56
  00131	8b 85 e0 fe ff
	ff		 mov	 eax, DWORD PTR _d$[ebp]
  00137	0f bf 0c 10	 movsx	 ecx, WORD PTR [eax+edx]
  0013b	85 c9		 test	 ecx, ecx
  0013d	0f 85 ed 00 00
	00		 jne	 $LN8@idct_block

; 1025 :          //    no shortcut                 0     seconds
; 1026 :          //    (1|2|3|4|5|6|7)==0          0     seconds
; 1027 :          //    all separate               -0.047 seconds
; 1028 :          //    1 && 2|3 && 4|5 && 6|7:    -0.047 seconds
; 1029 :          int dcterm = d[0] * dq[0] << 2;

  00143	ba 02 00 00 00	 mov	 edx, 2
  00148	6b c2 00	 imul	 eax, edx, 0
  0014b	8b 8d e0 fe ff
	ff		 mov	 ecx, DWORD PTR _d$[ebp]
  00151	0f bf 14 01	 movsx	 edx, WORD PTR [ecx+eax]
  00155	b8 01 00 00 00	 mov	 eax, 1
  0015a	6b c8 00	 imul	 ecx, eax, 0
  0015d	8b 85 e8 fe ff
	ff		 mov	 eax, DWORD PTR _dq$[ebp]
  00163	0f b6 0c 08	 movzx	 ecx, BYTE PTR [eax+ecx]
  00167	0f af d1	 imul	 edx, ecx
  0016a	c1 e2 02	 shl	 edx, 2
  0016d	89 95 dc fe ff
	ff		 mov	 DWORD PTR _dcterm$27[ebp], edx

; 1030 :          v[0] = v[8] = v[16] = v[24] = v[32] = v[40] = v[48] = v[56] = dcterm;

  00173	ba 04 00 00 00	 mov	 edx, 4
  00178	6b c2 38	 imul	 eax, edx, 56
  0017b	8b 8d ec fe ff
	ff		 mov	 ecx, DWORD PTR _v$[ebp]
  00181	8b 95 dc fe ff
	ff		 mov	 edx, DWORD PTR _dcterm$27[ebp]
  00187	89 14 01	 mov	 DWORD PTR [ecx+eax], edx
  0018a	b8 04 00 00 00	 mov	 eax, 4
  0018f	6b c8 30	 imul	 ecx, eax, 48
  00192	8b 95 ec fe ff
	ff		 mov	 edx, DWORD PTR _v$[ebp]
  00198	8b 85 dc fe ff
	ff		 mov	 eax, DWORD PTR _dcterm$27[ebp]
  0019e	89 04 0a	 mov	 DWORD PTR [edx+ecx], eax
  001a1	b9 04 00 00 00	 mov	 ecx, 4
  001a6	6b d1 28	 imul	 edx, ecx, 40
  001a9	8b 85 ec fe ff
	ff		 mov	 eax, DWORD PTR _v$[ebp]
  001af	8b 8d dc fe ff
	ff		 mov	 ecx, DWORD PTR _dcterm$27[ebp]
  001b5	89 0c 10	 mov	 DWORD PTR [eax+edx], ecx
  001b8	ba 04 00 00 00	 mov	 edx, 4
  001bd	c1 e2 05	 shl	 edx, 5
  001c0	8b 85 ec fe ff
	ff		 mov	 eax, DWORD PTR _v$[ebp]
  001c6	8b 8d dc fe ff
	ff		 mov	 ecx, DWORD PTR _dcterm$27[ebp]
  001cc	89 0c 10	 mov	 DWORD PTR [eax+edx], ecx
  001cf	ba 04 00 00 00	 mov	 edx, 4
  001d4	6b c2 18	 imul	 eax, edx, 24
  001d7	8b 8d ec fe ff
	ff		 mov	 ecx, DWORD PTR _v$[ebp]
  001dd	8b 95 dc fe ff
	ff		 mov	 edx, DWORD PTR _dcterm$27[ebp]
  001e3	89 14 01	 mov	 DWORD PTR [ecx+eax], edx
  001e6	b8 04 00 00 00	 mov	 eax, 4
  001eb	c1 e0 04	 shl	 eax, 4
  001ee	8b 8d ec fe ff
	ff		 mov	 ecx, DWORD PTR _v$[ebp]
  001f4	8b 95 dc fe ff
	ff		 mov	 edx, DWORD PTR _dcterm$27[ebp]
  001fa	89 14 01	 mov	 DWORD PTR [ecx+eax], edx
  001fd	b8 04 00 00 00	 mov	 eax, 4
  00202	c1 e0 03	 shl	 eax, 3
  00205	8b 8d ec fe ff
	ff		 mov	 ecx, DWORD PTR _v$[ebp]
  0020b	8b 95 dc fe ff
	ff		 mov	 edx, DWORD PTR _dcterm$27[ebp]
  00211	89 14 01	 mov	 DWORD PTR [ecx+eax], edx
  00214	b8 04 00 00 00	 mov	 eax, 4
  00219	6b c8 00	 imul	 ecx, eax, 0
  0021c	8b 95 ec fe ff
	ff		 mov	 edx, DWORD PTR _v$[ebp]
  00222	8b 85 dc fe ff
	ff		 mov	 eax, DWORD PTR _dcterm$27[ebp]
  00228	89 04 0a	 mov	 DWORD PTR [edx+ecx], eax

; 1031 :       } else {

  0022b	e9 b1 04 00 00	 jmp	 $LN9@idct_block
$LN8@idct_block:

; 1032 :          IDCT_1D(d[ 0]*dq[ 0],d[ 8]*dq[ 8],d[16]*dq[16],d[24]*dq[24],

  00230	b9 02 00 00 00	 mov	 ecx, 2
  00235	c1 e1 04	 shl	 ecx, 4
  00238	8b 95 e0 fe ff
	ff		 mov	 edx, DWORD PTR _d$[ebp]
  0023e	0f bf 04 0a	 movsx	 eax, WORD PTR [edx+ecx]
  00242	b9 01 00 00 00	 mov	 ecx, 1
  00247	c1 e1 04	 shl	 ecx, 4
  0024a	8b 95 e8 fe ff
	ff		 mov	 edx, DWORD PTR _dq$[ebp]
  00250	0f b6 0c 0a	 movzx	 ecx, BYTE PTR [edx+ecx]
  00254	0f af c1	 imul	 eax, ecx
  00257	89 85 c4 fe ff
	ff		 mov	 DWORD PTR _p2$21[ebp], eax
  0025d	ba 02 00 00 00	 mov	 edx, 2
  00262	6b c2 30	 imul	 eax, edx, 48
  00265	8b 8d e0 fe ff
	ff		 mov	 ecx, DWORD PTR _d$[ebp]
  0026b	0f bf 14 01	 movsx	 edx, WORD PTR [ecx+eax]
  0026f	b8 01 00 00 00	 mov	 eax, 1
  00274	6b c8 30	 imul	 ecx, eax, 48
  00277	8b 85 e8 fe ff
	ff		 mov	 eax, DWORD PTR _dq$[ebp]
  0027d	0f b6 0c 08	 movzx	 ecx, BYTE PTR [eax+ecx]
  00281	0f af d1	 imul	 edx, ecx
  00284	89 95 c0 fe ff
	ff		 mov	 DWORD PTR _p3$20[ebp], edx
  0028a	8b 95 c4 fe ff
	ff		 mov	 edx, DWORD PTR _p2$21[ebp]
  00290	03 95 c0 fe ff
	ff		 add	 edx, DWORD PTR _p3$20[ebp]
  00296	69 c2 a9 08 00
	00		 imul	 eax, edx, 2217
  0029c	89 85 c8 fe ff
	ff		 mov	 DWORD PTR _p1$22[ebp], eax
  002a2	69 8d c0 fe ff
	ff 71 e2 ff ff	 imul	 ecx, DWORD PTR _p3$20[ebp], -7567
  002ac	03 8d c8 fe ff
	ff		 add	 ecx, DWORD PTR _p1$22[ebp]
  002b2	89 8d d0 fe ff
	ff		 mov	 DWORD PTR _t2$24[ebp], ecx
  002b8	69 95 c4 fe ff
	ff 3f 0c 00 00	 imul	 edx, DWORD PTR _p2$21[ebp], 3135
  002c2	03 95 c8 fe ff
	ff		 add	 edx, DWORD PTR _p1$22[ebp]
  002c8	89 95 cc fe ff
	ff		 mov	 DWORD PTR _t3$23[ebp], edx
  002ce	b8 02 00 00 00	 mov	 eax, 2
  002d3	6b c8 00	 imul	 ecx, eax, 0
  002d6	8b 95 e0 fe ff
	ff		 mov	 edx, DWORD PTR _d$[ebp]
  002dc	0f bf 04 0a	 movsx	 eax, WORD PTR [edx+ecx]
  002e0	b9 01 00 00 00	 mov	 ecx, 1
  002e5	6b d1 00	 imul	 edx, ecx, 0
  002e8	8b 8d e8 fe ff
	ff		 mov	 ecx, DWORD PTR _dq$[ebp]
  002ee	0f b6 14 11	 movzx	 edx, BYTE PTR [ecx+edx]
  002f2	0f af c2	 imul	 eax, edx
  002f5	89 85 c4 fe ff
	ff		 mov	 DWORD PTR _p2$21[ebp], eax
  002fb	b8 02 00 00 00	 mov	 eax, 2
  00300	c1 e0 05	 shl	 eax, 5
  00303	8b 8d e0 fe ff
	ff		 mov	 ecx, DWORD PTR _d$[ebp]
  00309	0f bf 14 01	 movsx	 edx, WORD PTR [ecx+eax]
  0030d	b8 01 00 00 00	 mov	 eax, 1
  00312	c1 e0 05	 shl	 eax, 5
  00315	8b 8d e8 fe ff
	ff		 mov	 ecx, DWORD PTR _dq$[ebp]
  0031b	0f b6 04 01	 movzx	 eax, BYTE PTR [ecx+eax]
  0031f	0f af d0	 imul	 edx, eax
  00322	89 95 c0 fe ff
	ff		 mov	 DWORD PTR _p3$20[ebp], edx
  00328	8b 8d c4 fe ff
	ff		 mov	 ecx, DWORD PTR _p2$21[ebp]
  0032e	03 8d c0 fe ff
	ff		 add	 ecx, DWORD PTR _p3$20[ebp]
  00334	c1 e1 0c	 shl	 ecx, 12			; 0000000cH
  00337	89 8d d8 fe ff
	ff		 mov	 DWORD PTR _t0$26[ebp], ecx
  0033d	8b 95 c4 fe ff
	ff		 mov	 edx, DWORD PTR _p2$21[ebp]
  00343	2b 95 c0 fe ff
	ff		 sub	 edx, DWORD PTR _p3$20[ebp]
  00349	c1 e2 0c	 shl	 edx, 12			; 0000000cH
  0034c	89 95 d4 fe ff
	ff		 mov	 DWORD PTR _t1$25[ebp], edx
  00352	8b 85 d8 fe ff
	ff		 mov	 eax, DWORD PTR _t0$26[ebp]
  00358	03 85 cc fe ff
	ff		 add	 eax, DWORD PTR _t3$23[ebp]
  0035e	89 85 b4 fe ff
	ff		 mov	 DWORD PTR _x0$17[ebp], eax
  00364	8b 8d d8 fe ff
	ff		 mov	 ecx, DWORD PTR _t0$26[ebp]
  0036a	2b 8d cc fe ff
	ff		 sub	 ecx, DWORD PTR _t3$23[ebp]
  00370	89 8d a8 fe ff
	ff		 mov	 DWORD PTR _x3$14[ebp], ecx
  00376	8b 95 d4 fe ff
	ff		 mov	 edx, DWORD PTR _t1$25[ebp]
  0037c	03 95 d0 fe ff
	ff		 add	 edx, DWORD PTR _t2$24[ebp]
  00382	89 95 b0 fe ff
	ff		 mov	 DWORD PTR _x1$16[ebp], edx
  00388	8b 85 d4 fe ff
	ff		 mov	 eax, DWORD PTR _t1$25[ebp]
  0038e	2b 85 d0 fe ff
	ff		 sub	 eax, DWORD PTR _t2$24[ebp]
  00394	89 85 ac fe ff
	ff		 mov	 DWORD PTR _x2$15[ebp], eax
  0039a	b9 02 00 00 00	 mov	 ecx, 2
  0039f	6b d1 38	 imul	 edx, ecx, 56
  003a2	8b 85 e0 fe ff
	ff		 mov	 eax, DWORD PTR _d$[ebp]
  003a8	0f bf 0c 10	 movsx	 ecx, WORD PTR [eax+edx]
  003ac	ba 01 00 00 00	 mov	 edx, 1
  003b1	6b c2 38	 imul	 eax, edx, 56
  003b4	8b 95 e8 fe ff
	ff		 mov	 edx, DWORD PTR _dq$[ebp]
  003ba	0f b6 04 02	 movzx	 eax, BYTE PTR [edx+eax]
  003be	0f af c8	 imul	 ecx, eax
  003c1	89 8d d8 fe ff
	ff		 mov	 DWORD PTR _t0$26[ebp], ecx
  003c7	b9 02 00 00 00	 mov	 ecx, 2
  003cc	6b d1 28	 imul	 edx, ecx, 40
  003cf	8b 85 e0 fe ff
	ff		 mov	 eax, DWORD PTR _d$[ebp]
  003d5	0f bf 0c 10	 movsx	 ecx, WORD PTR [eax+edx]
  003d9	ba 01 00 00 00	 mov	 edx, 1
  003de	6b c2 28	 imul	 eax, edx, 40
  003e1	8b 95 e8 fe ff
	ff		 mov	 edx, DWORD PTR _dq$[ebp]
  003e7	0f b6 04 02	 movzx	 eax, BYTE PTR [edx+eax]
  003eb	0f af c8	 imul	 ecx, eax
  003ee	89 8d d4 fe ff
	ff		 mov	 DWORD PTR _t1$25[ebp], ecx
  003f4	b9 02 00 00 00	 mov	 ecx, 2
  003f9	6b d1 18	 imul	 edx, ecx, 24
  003fc	8b 85 e0 fe ff
	ff		 mov	 eax, DWORD PTR _d$[ebp]
  00402	0f bf 0c 10	 movsx	 ecx, WORD PTR [eax+edx]
  00406	ba 01 00 00 00	 mov	 edx, 1
  0040b	6b c2 18	 imul	 eax, edx, 24
  0040e	8b 95 e8 fe ff
	ff		 mov	 edx, DWORD PTR _dq$[ebp]
  00414	0f b6 04 02	 movzx	 eax, BYTE PTR [edx+eax]
  00418	0f af c8	 imul	 ecx, eax
  0041b	89 8d d0 fe ff
	ff		 mov	 DWORD PTR _t2$24[ebp], ecx
  00421	b9 02 00 00 00	 mov	 ecx, 2
  00426	c1 e1 03	 shl	 ecx, 3
  00429	8b 95 e0 fe ff
	ff		 mov	 edx, DWORD PTR _d$[ebp]
  0042f	0f bf 04 0a	 movsx	 eax, WORD PTR [edx+ecx]
  00433	b9 01 00 00 00	 mov	 ecx, 1
  00438	c1 e1 03	 shl	 ecx, 3
  0043b	8b 95 e8 fe ff
	ff		 mov	 edx, DWORD PTR _dq$[ebp]
  00441	0f b6 0c 0a	 movzx	 ecx, BYTE PTR [edx+ecx]
  00445	0f af c1	 imul	 eax, ecx
  00448	89 85 cc fe ff
	ff		 mov	 DWORD PTR _t3$23[ebp], eax
  0044e	8b 95 d8 fe ff
	ff		 mov	 edx, DWORD PTR _t0$26[ebp]
  00454	03 95 d0 fe ff
	ff		 add	 edx, DWORD PTR _t2$24[ebp]
  0045a	89 95 c0 fe ff
	ff		 mov	 DWORD PTR _p3$20[ebp], edx
  00460	8b 85 d4 fe ff
	ff		 mov	 eax, DWORD PTR _t1$25[ebp]
  00466	03 85 cc fe ff
	ff		 add	 eax, DWORD PTR _t3$23[ebp]
  0046c	89 85 bc fe ff
	ff		 mov	 DWORD PTR _p4$19[ebp], eax
  00472	8b 8d d8 fe ff
	ff		 mov	 ecx, DWORD PTR _t0$26[ebp]
  00478	03 8d cc fe ff
	ff		 add	 ecx, DWORD PTR _t3$23[ebp]
  0047e	89 8d c8 fe ff
	ff		 mov	 DWORD PTR _p1$22[ebp], ecx
  00484	8b 95 d4 fe ff
	ff		 mov	 edx, DWORD PTR _t1$25[ebp]
  0048a	03 95 d0 fe ff
	ff		 add	 edx, DWORD PTR _t2$24[ebp]
  00490	89 95 c4 fe ff
	ff		 mov	 DWORD PTR _p2$21[ebp], edx
  00496	8b 85 c0 fe ff
	ff		 mov	 eax, DWORD PTR _p3$20[ebp]
  0049c	03 85 bc fe ff
	ff		 add	 eax, DWORD PTR _p4$19[ebp]
  004a2	69 c8 d0 12 00
	00		 imul	 ecx, eax, 4816
  004a8	89 8d b8 fe ff
	ff		 mov	 DWORD PTR _p5$18[ebp], ecx
  004ae	69 95 d8 fe ff
	ff c7 04 00 00	 imul	 edx, DWORD PTR _t0$26[ebp], 1223
  004b8	89 95 d8 fe ff
	ff		 mov	 DWORD PTR _t0$26[ebp], edx
  004be	69 85 d4 fe ff
	ff da 20 00 00	 imul	 eax, DWORD PTR _t1$25[ebp], 8410
  004c8	89 85 d4 fe ff
	ff		 mov	 DWORD PTR _t1$25[ebp], eax
  004ce	69 8d d0 fe ff
	ff 2a 31 00 00	 imul	 ecx, DWORD PTR _t2$24[ebp], 12586
  004d8	89 8d d0 fe ff
	ff		 mov	 DWORD PTR _t2$24[ebp], ecx
  004de	69 95 cc fe ff
	ff 05 18 00 00	 imul	 edx, DWORD PTR _t3$23[ebp], 6149
  004e8	89 95 cc fe ff
	ff		 mov	 DWORD PTR _t3$23[ebp], edx
  004ee	69 85 c8 fe ff
	ff 9b f1 ff ff	 imul	 eax, DWORD PTR _p1$22[ebp], -3685
  004f8	03 85 b8 fe ff
	ff		 add	 eax, DWORD PTR _p5$18[ebp]
  004fe	89 85 c8 fe ff
	ff		 mov	 DWORD PTR _p1$22[ebp], eax
  00504	69 8d c4 fe ff
	ff ff d6 ff ff	 imul	 ecx, DWORD PTR _p2$21[ebp], -10497
  0050e	03 8d b8 fe ff
	ff		 add	 ecx, DWORD PTR _p5$18[ebp]
  00514	89 8d c4 fe ff
	ff		 mov	 DWORD PTR _p2$21[ebp], ecx
  0051a	69 95 c0 fe ff
	ff 9e e0 ff ff	 imul	 edx, DWORD PTR _p3$20[ebp], -8034
  00524	89 95 c0 fe ff
	ff		 mov	 DWORD PTR _p3$20[ebp], edx
  0052a	69 85 bc fe ff
	ff c3 f9 ff ff	 imul	 eax, DWORD PTR _p4$19[ebp], -1597
  00534	89 85 bc fe ff
	ff		 mov	 DWORD PTR _p4$19[ebp], eax
  0053a	8b 8d c8 fe ff
	ff		 mov	 ecx, DWORD PTR _p1$22[ebp]
  00540	03 8d bc fe ff
	ff		 add	 ecx, DWORD PTR _p4$19[ebp]
  00546	03 8d cc fe ff
	ff		 add	 ecx, DWORD PTR _t3$23[ebp]
  0054c	89 8d cc fe ff
	ff		 mov	 DWORD PTR _t3$23[ebp], ecx
  00552	8b 95 c4 fe ff
	ff		 mov	 edx, DWORD PTR _p2$21[ebp]
  00558	03 95 c0 fe ff
	ff		 add	 edx, DWORD PTR _p3$20[ebp]
  0055e	03 95 d0 fe ff
	ff		 add	 edx, DWORD PTR _t2$24[ebp]
  00564	89 95 d0 fe ff
	ff		 mov	 DWORD PTR _t2$24[ebp], edx
  0056a	8b 85 c4 fe ff
	ff		 mov	 eax, DWORD PTR _p2$21[ebp]
  00570	03 85 bc fe ff
	ff		 add	 eax, DWORD PTR _p4$19[ebp]
  00576	03 85 d4 fe ff
	ff		 add	 eax, DWORD PTR _t1$25[ebp]
  0057c	89 85 d4 fe ff
	ff		 mov	 DWORD PTR _t1$25[ebp], eax
  00582	8b 8d c8 fe ff
	ff		 mov	 ecx, DWORD PTR _p1$22[ebp]
  00588	03 8d c0 fe ff
	ff		 add	 ecx, DWORD PTR _p3$20[ebp]
  0058e	03 8d d8 fe ff
	ff		 add	 ecx, DWORD PTR _t0$26[ebp]
  00594	89 8d d8 fe ff
	ff		 mov	 DWORD PTR _t0$26[ebp], ecx

; 1033 :                  d[32]*dq[32],d[40]*dq[40],d[48]*dq[48],d[56]*dq[56])
; 1034 :          // constants scaled things up by 1<<12; let's bring them back
; 1035 :          // down, but keep 2 extra bits of precision
; 1036 :          x0 += 512; x1 += 512; x2 += 512; x3 += 512;

  0059a	8b 95 b4 fe ff
	ff		 mov	 edx, DWORD PTR _x0$17[ebp]
  005a0	81 c2 00 02 00
	00		 add	 edx, 512		; 00000200H
  005a6	89 95 b4 fe ff
	ff		 mov	 DWORD PTR _x0$17[ebp], edx
  005ac	8b 85 b0 fe ff
	ff		 mov	 eax, DWORD PTR _x1$16[ebp]
  005b2	05 00 02 00 00	 add	 eax, 512		; 00000200H
  005b7	89 85 b0 fe ff
	ff		 mov	 DWORD PTR _x1$16[ebp], eax
  005bd	8b 8d ac fe ff
	ff		 mov	 ecx, DWORD PTR _x2$15[ebp]
  005c3	81 c1 00 02 00
	00		 add	 ecx, 512		; 00000200H
  005c9	89 8d ac fe ff
	ff		 mov	 DWORD PTR _x2$15[ebp], ecx
  005cf	8b 95 a8 fe ff
	ff		 mov	 edx, DWORD PTR _x3$14[ebp]
  005d5	81 c2 00 02 00
	00		 add	 edx, 512		; 00000200H
  005db	89 95 a8 fe ff
	ff		 mov	 DWORD PTR _x3$14[ebp], edx

; 1037 :          v[ 0] = (x0+t3) >> 10;

  005e1	8b 85 b4 fe ff
	ff		 mov	 eax, DWORD PTR _x0$17[ebp]
  005e7	03 85 cc fe ff
	ff		 add	 eax, DWORD PTR _t3$23[ebp]
  005ed	c1 f8 0a	 sar	 eax, 10			; 0000000aH
  005f0	b9 04 00 00 00	 mov	 ecx, 4
  005f5	6b d1 00	 imul	 edx, ecx, 0
  005f8	8b 8d ec fe ff
	ff		 mov	 ecx, DWORD PTR _v$[ebp]
  005fe	89 04 11	 mov	 DWORD PTR [ecx+edx], eax

; 1038 :          v[56] = (x0-t3) >> 10;

  00601	8b 95 b4 fe ff
	ff		 mov	 edx, DWORD PTR _x0$17[ebp]
  00607	2b 95 cc fe ff
	ff		 sub	 edx, DWORD PTR _t3$23[ebp]
  0060d	c1 fa 0a	 sar	 edx, 10			; 0000000aH
  00610	b8 04 00 00 00	 mov	 eax, 4
  00615	6b c8 38	 imul	 ecx, eax, 56
  00618	8b 85 ec fe ff
	ff		 mov	 eax, DWORD PTR _v$[ebp]
  0061e	89 14 08	 mov	 DWORD PTR [eax+ecx], edx

; 1039 :          v[ 8] = (x1+t2) >> 10;

  00621	8b 8d b0 fe ff
	ff		 mov	 ecx, DWORD PTR _x1$16[ebp]
  00627	03 8d d0 fe ff
	ff		 add	 ecx, DWORD PTR _t2$24[ebp]
  0062d	c1 f9 0a	 sar	 ecx, 10			; 0000000aH
  00630	ba 04 00 00 00	 mov	 edx, 4
  00635	c1 e2 03	 shl	 edx, 3
  00638	8b 85 ec fe ff
	ff		 mov	 eax, DWORD PTR _v$[ebp]
  0063e	89 0c 10	 mov	 DWORD PTR [eax+edx], ecx

; 1040 :          v[48] = (x1-t2) >> 10;

  00641	8b 8d b0 fe ff
	ff		 mov	 ecx, DWORD PTR _x1$16[ebp]
  00647	2b 8d d0 fe ff
	ff		 sub	 ecx, DWORD PTR _t2$24[ebp]
  0064d	c1 f9 0a	 sar	 ecx, 10			; 0000000aH
  00650	ba 04 00 00 00	 mov	 edx, 4
  00655	6b c2 30	 imul	 eax, edx, 48
  00658	8b 95 ec fe ff
	ff		 mov	 edx, DWORD PTR _v$[ebp]
  0065e	89 0c 02	 mov	 DWORD PTR [edx+eax], ecx

; 1041 :          v[16] = (x2+t1) >> 10;

  00661	8b 85 ac fe ff
	ff		 mov	 eax, DWORD PTR _x2$15[ebp]
  00667	03 85 d4 fe ff
	ff		 add	 eax, DWORD PTR _t1$25[ebp]
  0066d	c1 f8 0a	 sar	 eax, 10			; 0000000aH
  00670	b9 04 00 00 00	 mov	 ecx, 4
  00675	c1 e1 04	 shl	 ecx, 4
  00678	8b 95 ec fe ff
	ff		 mov	 edx, DWORD PTR _v$[ebp]
  0067e	89 04 0a	 mov	 DWORD PTR [edx+ecx], eax

; 1042 :          v[40] = (x2-t1) >> 10;

  00681	8b 85 ac fe ff
	ff		 mov	 eax, DWORD PTR _x2$15[ebp]
  00687	2b 85 d4 fe ff
	ff		 sub	 eax, DWORD PTR _t1$25[ebp]
  0068d	c1 f8 0a	 sar	 eax, 10			; 0000000aH
  00690	b9 04 00 00 00	 mov	 ecx, 4
  00695	6b d1 28	 imul	 edx, ecx, 40
  00698	8b 8d ec fe ff
	ff		 mov	 ecx, DWORD PTR _v$[ebp]
  0069e	89 04 11	 mov	 DWORD PTR [ecx+edx], eax

; 1043 :          v[24] = (x3+t0) >> 10;

  006a1	8b 95 a8 fe ff
	ff		 mov	 edx, DWORD PTR _x3$14[ebp]
  006a7	03 95 d8 fe ff
	ff		 add	 edx, DWORD PTR _t0$26[ebp]
  006ad	c1 fa 0a	 sar	 edx, 10			; 0000000aH
  006b0	b8 04 00 00 00	 mov	 eax, 4
  006b5	6b c8 18	 imul	 ecx, eax, 24
  006b8	8b 85 ec fe ff
	ff		 mov	 eax, DWORD PTR _v$[ebp]
  006be	89 14 08	 mov	 DWORD PTR [eax+ecx], edx

; 1044 :          v[32] = (x3-t0) >> 10;

  006c1	8b 8d a8 fe ff
	ff		 mov	 ecx, DWORD PTR _x3$14[ebp]
  006c7	2b 8d d8 fe ff
	ff		 sub	 ecx, DWORD PTR _t0$26[ebp]
  006cd	c1 f9 0a	 sar	 ecx, 10			; 0000000aH
  006d0	ba 04 00 00 00	 mov	 edx, 4
  006d5	c1 e2 05	 shl	 edx, 5
  006d8	8b 85 ec fe ff
	ff		 mov	 eax, DWORD PTR _v$[ebp]
  006de	89 0c 10	 mov	 DWORD PTR [eax+edx], ecx
$LN9@idct_block:

; 1045 :       }
; 1046 :    }

  006e1	e9 67 f9 ff ff	 jmp	 $LN2@idct_block
$LN3@idct_block:

; 1047 : 
; 1048 :    for (i=0, v=val, o=out; i < 8; ++i,v+=8,o+=out_stride) {

  006e6	c7 45 f8 00 00
	00 00		 mov	 DWORD PTR _i$[ebp], 0
  006ed	8d 8d f4 fe ff
	ff		 lea	 ecx, DWORD PTR _val$[ebp]
  006f3	89 8d ec fe ff
	ff		 mov	 DWORD PTR _v$[ebp], ecx
  006f9	8b 55 08	 mov	 edx, DWORD PTR _out$[ebp]
  006fc	89 95 e4 fe ff
	ff		 mov	 DWORD PTR _o$[ebp], edx
  00702	eb 27		 jmp	 SHORT $LN7@idct_block
$LN5@idct_block:
  00704	8b 45 f8	 mov	 eax, DWORD PTR _i$[ebp]
  00707	83 c0 01	 add	 eax, 1
  0070a	89 45 f8	 mov	 DWORD PTR _i$[ebp], eax
  0070d	8b 8d ec fe ff
	ff		 mov	 ecx, DWORD PTR _v$[ebp]
  00713	83 c1 20	 add	 ecx, 32			; 00000020H
  00716	89 8d ec fe ff
	ff		 mov	 DWORD PTR _v$[ebp], ecx
  0071c	8b 95 e4 fe ff
	ff		 mov	 edx, DWORD PTR _o$[ebp]
  00722	03 55 0c	 add	 edx, DWORD PTR _out_stride$[ebp]
  00725	89 95 e4 fe ff
	ff		 mov	 DWORD PTR _o$[ebp], edx
$LN7@idct_block:
  0072b	83 7d f8 08	 cmp	 DWORD PTR _i$[ebp], 8
  0072f	0f 8d 4b 04 00
	00		 jge	 $LN1@idct_block

; 1049 :       // no fast case since the first 1D IDCT spread components out
; 1050 :       IDCT_1D(v[0],v[1],v[2],v[3],v[4],v[5],v[6],v[7])

  00735	b8 04 00 00 00	 mov	 eax, 4
  0073a	d1 e0		 shl	 eax, 1
  0073c	8b 8d ec fe ff
	ff		 mov	 ecx, DWORD PTR _v$[ebp]
  00742	8b 14 01	 mov	 edx, DWORD PTR [ecx+eax]
  00745	89 95 90 fe ff
	ff		 mov	 DWORD PTR _p2$8[ebp], edx
  0074b	b8 04 00 00 00	 mov	 eax, 4
  00750	6b c8 06	 imul	 ecx, eax, 6
  00753	8b 95 ec fe ff
	ff		 mov	 edx, DWORD PTR _v$[ebp]
  00759	8b 04 0a	 mov	 eax, DWORD PTR [edx+ecx]
  0075c	89 85 8c fe ff
	ff		 mov	 DWORD PTR _p3$7[ebp], eax
  00762	8b 8d 90 fe ff
	ff		 mov	 ecx, DWORD PTR _p2$8[ebp]
  00768	03 8d 8c fe ff
	ff		 add	 ecx, DWORD PTR _p3$7[ebp]
  0076e	69 d1 a9 08 00
	00		 imul	 edx, ecx, 2217
  00774	89 95 94 fe ff
	ff		 mov	 DWORD PTR _p1$9[ebp], edx
  0077a	69 85 8c fe ff
	ff 71 e2 ff ff	 imul	 eax, DWORD PTR _p3$7[ebp], -7567
  00784	03 85 94 fe ff
	ff		 add	 eax, DWORD PTR _p1$9[ebp]
  0078a	89 85 9c fe ff
	ff		 mov	 DWORD PTR _t2$11[ebp], eax
  00790	69 8d 90 fe ff
	ff 3f 0c 00 00	 imul	 ecx, DWORD PTR _p2$8[ebp], 3135
  0079a	03 8d 94 fe ff
	ff		 add	 ecx, DWORD PTR _p1$9[ebp]
  007a0	89 8d 98 fe ff
	ff		 mov	 DWORD PTR _t3$10[ebp], ecx
  007a6	ba 04 00 00 00	 mov	 edx, 4
  007ab	6b c2 00	 imul	 eax, edx, 0
  007ae	8b 8d ec fe ff
	ff		 mov	 ecx, DWORD PTR _v$[ebp]
  007b4	8b 14 01	 mov	 edx, DWORD PTR [ecx+eax]
  007b7	89 95 90 fe ff
	ff		 mov	 DWORD PTR _p2$8[ebp], edx
  007bd	b8 04 00 00 00	 mov	 eax, 4
  007c2	c1 e0 02	 shl	 eax, 2
  007c5	8b 8d ec fe ff
	ff		 mov	 ecx, DWORD PTR _v$[ebp]
  007cb	8b 14 01	 mov	 edx, DWORD PTR [ecx+eax]
  007ce	89 95 8c fe ff
	ff		 mov	 DWORD PTR _p3$7[ebp], edx
  007d4	8b 85 90 fe ff
	ff		 mov	 eax, DWORD PTR _p2$8[ebp]
  007da	03 85 8c fe ff
	ff		 add	 eax, DWORD PTR _p3$7[ebp]
  007e0	c1 e0 0c	 shl	 eax, 12			; 0000000cH
  007e3	89 85 a4 fe ff
	ff		 mov	 DWORD PTR _t0$13[ebp], eax
  007e9	8b 8d 90 fe ff
	ff		 mov	 ecx, DWORD PTR _p2$8[ebp]
  007ef	2b 8d 8c fe ff
	ff		 sub	 ecx, DWORD PTR _p3$7[ebp]
  007f5	c1 e1 0c	 shl	 ecx, 12			; 0000000cH
  007f8	89 8d a0 fe ff
	ff		 mov	 DWORD PTR _t1$12[ebp], ecx
  007fe	8b 95 a4 fe ff
	ff		 mov	 edx, DWORD PTR _t0$13[ebp]
  00804	03 95 98 fe ff
	ff		 add	 edx, DWORD PTR _t3$10[ebp]
  0080a	89 95 80 fe ff
	ff		 mov	 DWORD PTR _x0$4[ebp], edx
  00810	8b 85 a4 fe ff
	ff		 mov	 eax, DWORD PTR _t0$13[ebp]
  00816	2b 85 98 fe ff
	ff		 sub	 eax, DWORD PTR _t3$10[ebp]
  0081c	89 85 74 fe ff
	ff		 mov	 DWORD PTR _x3$1[ebp], eax
  00822	8b 8d a0 fe ff
	ff		 mov	 ecx, DWORD PTR _t1$12[ebp]
  00828	03 8d 9c fe ff
	ff		 add	 ecx, DWORD PTR _t2$11[ebp]
  0082e	89 8d 7c fe ff
	ff		 mov	 DWORD PTR _x1$3[ebp], ecx
  00834	8b 95 a0 fe ff
	ff		 mov	 edx, DWORD PTR _t1$12[ebp]
  0083a	2b 95 9c fe ff
	ff		 sub	 edx, DWORD PTR _t2$11[ebp]
  00840	89 95 78 fe ff
	ff		 mov	 DWORD PTR _x2$2[ebp], edx
  00846	b8 04 00 00 00	 mov	 eax, 4
  0084b	6b c8 07	 imul	 ecx, eax, 7
  0084e	8b 95 ec fe ff
	ff		 mov	 edx, DWORD PTR _v$[ebp]
  00854	8b 04 0a	 mov	 eax, DWORD PTR [edx+ecx]
  00857	89 85 a4 fe ff
	ff		 mov	 DWORD PTR _t0$13[ebp], eax
  0085d	b9 04 00 00 00	 mov	 ecx, 4
  00862	6b d1 05	 imul	 edx, ecx, 5
  00865	8b 85 ec fe ff
	ff		 mov	 eax, DWORD PTR _v$[ebp]
  0086b	8b 0c 10	 mov	 ecx, DWORD PTR [eax+edx]
  0086e	89 8d a0 fe ff
	ff		 mov	 DWORD PTR _t1$12[ebp], ecx
  00874	ba 04 00 00 00	 mov	 edx, 4
  00879	6b c2 03	 imul	 eax, edx, 3
  0087c	8b 8d ec fe ff
	ff		 mov	 ecx, DWORD PTR _v$[ebp]
  00882	8b 14 01	 mov	 edx, DWORD PTR [ecx+eax]
  00885	89 95 9c fe ff
	ff		 mov	 DWORD PTR _t2$11[ebp], edx
  0088b	b8 04 00 00 00	 mov	 eax, 4
  00890	c1 e0 00	 shl	 eax, 0
  00893	8b 8d ec fe ff
	ff		 mov	 ecx, DWORD PTR _v$[ebp]
  00899	8b 14 01	 mov	 edx, DWORD PTR [ecx+eax]
  0089c	89 95 98 fe ff
	ff		 mov	 DWORD PTR _t3$10[ebp], edx
  008a2	8b 85 a4 fe ff
	ff		 mov	 eax, DWORD PTR _t0$13[ebp]
  008a8	03 85 9c fe ff
	ff		 add	 eax, DWORD PTR _t2$11[ebp]
  008ae	89 85 8c fe ff
	ff		 mov	 DWORD PTR _p3$7[ebp], eax
  008b4	8b 8d a0 fe ff
	ff		 mov	 ecx, DWORD PTR _t1$12[ebp]
  008ba	03 8d 98 fe ff
	ff		 add	 ecx, DWORD PTR _t3$10[ebp]
  008c0	89 8d 88 fe ff
	ff		 mov	 DWORD PTR _p4$6[ebp], ecx
  008c6	8b 95 a4 fe ff
	ff		 mov	 edx, DWORD PTR _t0$13[ebp]
  008cc	03 95 98 fe ff
	ff		 add	 edx, DWORD PTR _t3$10[ebp]
  008d2	89 95 94 fe ff
	ff		 mov	 DWORD PTR _p1$9[ebp], edx
  008d8	8b 85 a0 fe ff
	ff		 mov	 eax, DWORD PTR _t1$12[ebp]
  008de	03 85 9c fe ff
	ff		 add	 eax, DWORD PTR _t2$11[ebp]
  008e4	89 85 90 fe ff
	ff		 mov	 DWORD PTR _p2$8[ebp], eax
  008ea	8b 8d 8c fe ff
	ff		 mov	 ecx, DWORD PTR _p3$7[ebp]
  008f0	03 8d 88 fe ff
	ff		 add	 ecx, DWORD PTR _p4$6[ebp]
  008f6	69 d1 d0 12 00
	00		 imul	 edx, ecx, 4816
  008fc	89 95 84 fe ff
	ff		 mov	 DWORD PTR _p5$5[ebp], edx
  00902	69 85 a4 fe ff
	ff c7 04 00 00	 imul	 eax, DWORD PTR _t0$13[ebp], 1223
  0090c	89 85 a4 fe ff
	ff		 mov	 DWORD PTR _t0$13[ebp], eax
  00912	69 8d a0 fe ff
	ff da 20 00 00	 imul	 ecx, DWORD PTR _t1$12[ebp], 8410
  0091c	89 8d a0 fe ff
	ff		 mov	 DWORD PTR _t1$12[ebp], ecx
  00922	69 95 9c fe ff
	ff 2a 31 00 00	 imul	 edx, DWORD PTR _t2$11[ebp], 12586
  0092c	89 95 9c fe ff
	ff		 mov	 DWORD PTR _t2$11[ebp], edx
  00932	69 85 98 fe ff
	ff 05 18 00 00	 imul	 eax, DWORD PTR _t3$10[ebp], 6149
  0093c	89 85 98 fe ff
	ff		 mov	 DWORD PTR _t3$10[ebp], eax
  00942	69 8d 94 fe ff
	ff 9b f1 ff ff	 imul	 ecx, DWORD PTR _p1$9[ebp], -3685
  0094c	03 8d 84 fe ff
	ff		 add	 ecx, DWORD PTR _p5$5[ebp]
  00952	89 8d 94 fe ff
	ff		 mov	 DWORD PTR _p1$9[ebp], ecx
  00958	69 95 90 fe ff
	ff ff d6 ff ff	 imul	 edx, DWORD PTR _p2$8[ebp], -10497
  00962	03 95 84 fe ff
	ff		 add	 edx, DWORD PTR _p5$5[ebp]
  00968	89 95 90 fe ff
	ff		 mov	 DWORD PTR _p2$8[ebp], edx
  0096e	69 85 8c fe ff
	ff 9e e0 ff ff	 imul	 eax, DWORD PTR _p3$7[ebp], -8034
  00978	89 85 8c fe ff
	ff		 mov	 DWORD PTR _p3$7[ebp], eax
  0097e	69 8d 88 fe ff
	ff c3 f9 ff ff	 imul	 ecx, DWORD PTR _p4$6[ebp], -1597
  00988	89 8d 88 fe ff
	ff		 mov	 DWORD PTR _p4$6[ebp], ecx
  0098e	8b 95 94 fe ff
	ff		 mov	 edx, DWORD PTR _p1$9[ebp]
  00994	03 95 88 fe ff
	ff		 add	 edx, DWORD PTR _p4$6[ebp]
  0099a	03 95 98 fe ff
	ff		 add	 edx, DWORD PTR _t3$10[ebp]
  009a0	89 95 98 fe ff
	ff		 mov	 DWORD PTR _t3$10[ebp], edx
  009a6	8b 85 90 fe ff
	ff		 mov	 eax, DWORD PTR _p2$8[ebp]
  009ac	03 85 8c fe ff
	ff		 add	 eax, DWORD PTR _p3$7[ebp]
  009b2	03 85 9c fe ff
	ff		 add	 eax, DWORD PTR _t2$11[ebp]
  009b8	89 85 9c fe ff
	ff		 mov	 DWORD PTR _t2$11[ebp], eax
  009be	8b 8d 90 fe ff
	ff		 mov	 ecx, DWORD PTR _p2$8[ebp]
  009c4	03 8d 88 fe ff
	ff		 add	 ecx, DWORD PTR _p4$6[ebp]
  009ca	03 8d a0 fe ff
	ff		 add	 ecx, DWORD PTR _t1$12[ebp]
  009d0	89 8d a0 fe ff
	ff		 mov	 DWORD PTR _t1$12[ebp], ecx
  009d6	8b 95 94 fe ff
	ff		 mov	 edx, DWORD PTR _p1$9[ebp]
  009dc	03 95 8c fe ff
	ff		 add	 edx, DWORD PTR _p3$7[ebp]
  009e2	03 95 a4 fe ff
	ff		 add	 edx, DWORD PTR _t0$13[ebp]
  009e8	89 95 a4 fe ff
	ff		 mov	 DWORD PTR _t0$13[ebp], edx

; 1051 :       // constants scaled things up by 1<<12, plus we had 1<<2 from first
; 1052 :       // loop, plus horizontal and vertical each scale by sqrt(8) so together
; 1053 :       // we've got an extra 1<<3, so 1<<17 total we need to remove.
; 1054 :       // so we want to round that, which means adding 0.5 * 1<<17,
; 1055 :       // aka 65536. Also, we'll end up with -128 to 127 that we want
; 1056 :       // to encode as 0..255 by adding 128, so we'll add that before the shift
; 1057 :       x0 += 65536 + (128<<17);

  009ee	8b 85 80 fe ff
	ff		 mov	 eax, DWORD PTR _x0$4[ebp]
  009f4	05 00 00 01 01	 add	 eax, 16842752		; 01010000H
  009f9	89 85 80 fe ff
	ff		 mov	 DWORD PTR _x0$4[ebp], eax

; 1058 :       x1 += 65536 + (128<<17);

  009ff	8b 8d 7c fe ff
	ff		 mov	 ecx, DWORD PTR _x1$3[ebp]
  00a05	81 c1 00 00 01
	01		 add	 ecx, 16842752		; 01010000H
  00a0b	89 8d 7c fe ff
	ff		 mov	 DWORD PTR _x1$3[ebp], ecx

; 1059 :       x2 += 65536 + (128<<17);

  00a11	8b 95 78 fe ff
	ff		 mov	 edx, DWORD PTR _x2$2[ebp]
  00a17	81 c2 00 00 01
	01		 add	 edx, 16842752		; 01010000H
  00a1d	89 95 78 fe ff
	ff		 mov	 DWORD PTR _x2$2[ebp], edx

; 1060 :       x3 += 65536 + (128<<17);

  00a23	8b 85 74 fe ff
	ff		 mov	 eax, DWORD PTR _x3$1[ebp]
  00a29	05 00 00 01 01	 add	 eax, 16842752		; 01010000H
  00a2e	89 85 74 fe ff
	ff		 mov	 DWORD PTR _x3$1[ebp], eax

; 1061 :       // tried computing the shifts into temps, or'ing the temps to see
; 1062 :       // if any were out of range, but that was slower
; 1063 :       o[0] = clamp((x0+t3) >> 17);

  00a34	8b 8d 80 fe ff
	ff		 mov	 ecx, DWORD PTR _x0$4[ebp]
  00a3a	03 8d 98 fe ff
	ff		 add	 ecx, DWORD PTR _t3$10[ebp]
  00a40	c1 f9 11	 sar	 ecx, 17			; 00000011H
  00a43	51		 push	 ecx
  00a44	e8 00 00 00 00	 call	 ?clamp@@YAEH@Z		; clamp
  00a49	83 c4 04	 add	 esp, 4
  00a4c	ba 01 00 00 00	 mov	 edx, 1
  00a51	6b ca 00	 imul	 ecx, edx, 0
  00a54	8b 95 e4 fe ff
	ff		 mov	 edx, DWORD PTR _o$[ebp]
  00a5a	88 04 0a	 mov	 BYTE PTR [edx+ecx], al

; 1064 :       o[7] = clamp((x0-t3) >> 17);

  00a5d	8b 85 80 fe ff
	ff		 mov	 eax, DWORD PTR _x0$4[ebp]
  00a63	2b 85 98 fe ff
	ff		 sub	 eax, DWORD PTR _t3$10[ebp]
  00a69	c1 f8 11	 sar	 eax, 17			; 00000011H
  00a6c	50		 push	 eax
  00a6d	e8 00 00 00 00	 call	 ?clamp@@YAEH@Z		; clamp
  00a72	83 c4 04	 add	 esp, 4
  00a75	b9 01 00 00 00	 mov	 ecx, 1
  00a7a	6b d1 07	 imul	 edx, ecx, 7
  00a7d	8b 8d e4 fe ff
	ff		 mov	 ecx, DWORD PTR _o$[ebp]
  00a83	88 04 11	 mov	 BYTE PTR [ecx+edx], al

; 1065 :       o[1] = clamp((x1+t2) >> 17);

  00a86	8b 95 7c fe ff
	ff		 mov	 edx, DWORD PTR _x1$3[ebp]
  00a8c	03 95 9c fe ff
	ff		 add	 edx, DWORD PTR _t2$11[ebp]
  00a92	c1 fa 11	 sar	 edx, 17			; 00000011H
  00a95	52		 push	 edx
  00a96	e8 00 00 00 00	 call	 ?clamp@@YAEH@Z		; clamp
  00a9b	83 c4 04	 add	 esp, 4
  00a9e	b9 01 00 00 00	 mov	 ecx, 1
  00aa3	c1 e1 00	 shl	 ecx, 0
  00aa6	8b 95 e4 fe ff
	ff		 mov	 edx, DWORD PTR _o$[ebp]
  00aac	88 04 0a	 mov	 BYTE PTR [edx+ecx], al

; 1066 :       o[6] = clamp((x1-t2) >> 17);

  00aaf	8b 85 7c fe ff
	ff		 mov	 eax, DWORD PTR _x1$3[ebp]
  00ab5	2b 85 9c fe ff
	ff		 sub	 eax, DWORD PTR _t2$11[ebp]
  00abb	c1 f8 11	 sar	 eax, 17			; 00000011H
  00abe	50		 push	 eax
  00abf	e8 00 00 00 00	 call	 ?clamp@@YAEH@Z		; clamp
  00ac4	83 c4 04	 add	 esp, 4
  00ac7	b9 01 00 00 00	 mov	 ecx, 1
  00acc	6b d1 06	 imul	 edx, ecx, 6
  00acf	8b 8d e4 fe ff
	ff		 mov	 ecx, DWORD PTR _o$[ebp]
  00ad5	88 04 11	 mov	 BYTE PTR [ecx+edx], al

; 1067 :       o[2] = clamp((x2+t1) >> 17);

  00ad8	8b 95 78 fe ff
	ff		 mov	 edx, DWORD PTR _x2$2[ebp]
  00ade	03 95 a0 fe ff
	ff		 add	 edx, DWORD PTR _t1$12[ebp]
  00ae4	c1 fa 11	 sar	 edx, 17			; 00000011H
  00ae7	52		 push	 edx
  00ae8	e8 00 00 00 00	 call	 ?clamp@@YAEH@Z		; clamp
  00aed	83 c4 04	 add	 esp, 4
  00af0	b9 01 00 00 00	 mov	 ecx, 1
  00af5	d1 e1		 shl	 ecx, 1
  00af7	8b 95 e4 fe ff
	ff		 mov	 edx, DWORD PTR _o$[ebp]
  00afd	88 04 0a	 mov	 BYTE PTR [edx+ecx], al

; 1068 :       o[5] = clamp((x2-t1) >> 17);

  00b00	8b 85 78 fe ff
	ff		 mov	 eax, DWORD PTR _x2$2[ebp]
  00b06	2b 85 a0 fe ff
	ff		 sub	 eax, DWORD PTR _t1$12[ebp]
  00b0c	c1 f8 11	 sar	 eax, 17			; 00000011H
  00b0f	50		 push	 eax
  00b10	e8 00 00 00 00	 call	 ?clamp@@YAEH@Z		; clamp
  00b15	83 c4 04	 add	 esp, 4
  00b18	b9 01 00 00 00	 mov	 ecx, 1
  00b1d	6b d1 05	 imul	 edx, ecx, 5
  00b20	8b 8d e4 fe ff
	ff		 mov	 ecx, DWORD PTR _o$[ebp]
  00b26	88 04 11	 mov	 BYTE PTR [ecx+edx], al

; 1069 :       o[3] = clamp((x3+t0) >> 17);

  00b29	8b 95 74 fe ff
	ff		 mov	 edx, DWORD PTR _x3$1[ebp]
  00b2f	03 95 a4 fe ff
	ff		 add	 edx, DWORD PTR _t0$13[ebp]
  00b35	c1 fa 11	 sar	 edx, 17			; 00000011H
  00b38	52		 push	 edx
  00b39	e8 00 00 00 00	 call	 ?clamp@@YAEH@Z		; clamp
  00b3e	83 c4 04	 add	 esp, 4
  00b41	b9 01 00 00 00	 mov	 ecx, 1
  00b46	6b d1 03	 imul	 edx, ecx, 3
  00b49	8b 8d e4 fe ff
	ff		 mov	 ecx, DWORD PTR _o$[ebp]
  00b4f	88 04 11	 mov	 BYTE PTR [ecx+edx], al

; 1070 :       o[4] = clamp((x3-t0) >> 17);

  00b52	8b 95 74 fe ff
	ff		 mov	 edx, DWORD PTR _x3$1[ebp]
  00b58	2b 95 a4 fe ff
	ff		 sub	 edx, DWORD PTR _t0$13[ebp]
  00b5e	c1 fa 11	 sar	 edx, 17			; 00000011H
  00b61	52		 push	 edx
  00b62	e8 00 00 00 00	 call	 ?clamp@@YAEH@Z		; clamp
  00b67	83 c4 04	 add	 esp, 4
  00b6a	b9 01 00 00 00	 mov	 ecx, 1
  00b6f	c1 e1 02	 shl	 ecx, 2
  00b72	8b 95 e4 fe ff
	ff		 mov	 edx, DWORD PTR _o$[ebp]
  00b78	88 04 0a	 mov	 BYTE PTR [edx+ecx], al

; 1071 :    }

  00b7b	e9 84 fb ff ff	 jmp	 $LN5@idct_block
$LN1@idct_block:

; 1072 : }

  00b80	52		 push	 edx
  00b81	8b cd		 mov	 ecx, ebp
  00b83	50		 push	 eax
  00b84	8d 15 00 00 00
	00		 lea	 edx, DWORD PTR $LN13@idct_block
  00b8a	e8 00 00 00 00	 call	 @_RTC_CheckStackVars@8
  00b8f	58		 pop	 eax
  00b90	5a		 pop	 edx
  00b91	5f		 pop	 edi
  00b92	8b 4d fc	 mov	 ecx, DWORD PTR __$ArrayPad$[ebp]
  00b95	33 cd		 xor	 ecx, ebp
  00b97	e8 00 00 00 00	 call	 @__security_check_cookie@4
  00b9c	81 c4 8c 01 00
	00		 add	 esp, 396		; 0000018cH
  00ba2	3b ec		 cmp	 ebp, esp
  00ba4	e8 00 00 00 00	 call	 __RTC_CheckEsp
  00ba9	8b e5		 mov	 esp, ebp
  00bab	5d		 pop	 ebp
  00bac	c3		 ret	 0
  00bad	0f 1f 00	 npad	 3
$LN13@idct_block:
  00bb0	01 00 00 00	 DD	 1
  00bb4	00 00 00 00	 DD	 $LN12@idct_block
$LN12@idct_block:
  00bb8	f4 fe ff ff	 DD	 -268			; fffffef4H
  00bbc	00 01 00 00	 DD	 256			; 00000100H
  00bc0	00 00 00 00	 DD	 $LN11@idct_block
$LN11@idct_block:
  00bc4	76		 DB	 118			; 00000076H
  00bc5	61		 DB	 97			; 00000061H
  00bc6	6c		 DB	 108			; 0000006cH
  00bc7	00		 DB	 0
?idct_block@@YAXPAEHQAF0@Z ENDP				; idct_block
_TEXT	ENDS
; Function compile flags: /Odtp /RTCsu
; File e:\fusion3d_work\engine\src\staticlibs\stb_image.c
_TEXT	SEGMENT
_x$ = -1						; size = 1
_j$ = 8							; size = 4
?get_marker@@YAEPAUjpeg@@@Z PROC			; get_marker

; 1088 : {

  00000	55		 push	 ebp
  00001	8b ec		 mov	 ebp, esp
  00003	51		 push	 ecx
  00004	c7 45 fc cc cc
	cc cc		 mov	 DWORD PTR [ebp-4], -858993460 ; ccccccccH

; 1089 :    uint8 x;
; 1090 :    if (j->marker != MARKER_none) { x = j->marker; j->marker = MARKER_none; return x; }

  0000b	8b 45 08	 mov	 eax, DWORD PTR _j$[ebp]
  0000e	0f b6 88 84 36
	00 00		 movzx	 ecx, BYTE PTR [eax+13956]
  00015	81 f9 ff 00 00
	00		 cmp	 ecx, 255		; 000000ffH
  0001b	74 1b		 je	 SHORT $LN4@get_marker
  0001d	8b 55 08	 mov	 edx, DWORD PTR _j$[ebp]
  00020	8a 82 84 36 00
	00		 mov	 al, BYTE PTR [edx+13956]
  00026	88 45 ff	 mov	 BYTE PTR _x$[ebp], al
  00029	8b 4d 08	 mov	 ecx, DWORD PTR _j$[ebp]
  0002c	c6 81 84 36 00
	00 ff		 mov	 BYTE PTR [ecx+13956], 255 ; 000000ffH
  00033	8a 45 ff	 mov	 al, BYTE PTR _x$[ebp]
  00036	eb 43		 jmp	 SHORT $LN1@get_marker
$LN4@get_marker:

; 1091 :    x = get8u(j->s);

  00038	8b 55 08	 mov	 edx, DWORD PTR _j$[ebp]
  0003b	8b 02		 mov	 eax, DWORD PTR [edx]
  0003d	50		 push	 eax
  0003e	e8 00 00 00 00	 call	 ?get8u@@YAEPAUstbi@@@Z	; get8u
  00043	83 c4 04	 add	 esp, 4
  00046	88 45 ff	 mov	 BYTE PTR _x$[ebp], al

; 1092 :    if (x != 0xff) return MARKER_none;

  00049	0f b6 4d ff	 movzx	 ecx, BYTE PTR _x$[ebp]
  0004d	81 f9 ff 00 00
	00		 cmp	 ecx, 255		; 000000ffH
  00053	74 04		 je	 SHORT $LN2@get_marker
  00055	0c ff		 or	 al, 255			; 000000ffH
  00057	eb 22		 jmp	 SHORT $LN1@get_marker
$LN2@get_marker:

; 1093 :    while (x == 0xff)

  00059	0f b6 55 ff	 movzx	 edx, BYTE PTR _x$[ebp]
  0005d	81 fa ff 00 00
	00		 cmp	 edx, 255		; 000000ffH
  00063	75 13		 jne	 SHORT $LN3@get_marker

; 1094 :       x = get8u(j->s);

  00065	8b 45 08	 mov	 eax, DWORD PTR _j$[ebp]
  00068	8b 08		 mov	 ecx, DWORD PTR [eax]
  0006a	51		 push	 ecx
  0006b	e8 00 00 00 00	 call	 ?get8u@@YAEPAUstbi@@@Z	; get8u
  00070	83 c4 04	 add	 esp, 4
  00073	88 45 ff	 mov	 BYTE PTR _x$[ebp], al
  00076	eb e1		 jmp	 SHORT $LN2@get_marker
$LN3@get_marker:

; 1095 :    return x;

  00078	8a 45 ff	 mov	 al, BYTE PTR _x$[ebp]
$LN1@get_marker:

; 1096 : }

  0007b	83 c4 04	 add	 esp, 4
  0007e	3b ec		 cmp	 ebp, esp
  00080	e8 00 00 00 00	 call	 __RTC_CheckEsp
  00085	8b e5		 mov	 esp, ebp
  00087	5d		 pop	 ebp
  00088	c3		 ret	 0
?get_marker@@YAEPAUjpeg@@@Z ENDP			; get_marker
_TEXT	ENDS
; Function compile flags: /Odtp /RTCsu
; File e:\fusion3d_work\engine\src\staticlibs\stb_image.c
_TEXT	SEGMENT
tv84 = -4						; size = 4
_j$ = 8							; size = 4
?reset@@YAXPAUjpeg@@@Z PROC				; reset

; 1105 : {

  00000	55		 push	 ebp
  00001	8b ec		 mov	 ebp, esp
  00003	51		 push	 ecx
  00004	c7 45 fc cc cc
	cc cc		 mov	 DWORD PTR [ebp-4], -858993460 ; ccccccccH

; 1106 :    j->code_bits = 0;

  0000b	8b 45 08	 mov	 eax, DWORD PTR _j$[ebp]
  0000e	c7 80 80 36 00
	00 00 00 00 00	 mov	 DWORD PTR [eax+13952], 0

; 1107 :    j->code_buffer = 0;

  00018	8b 4d 08	 mov	 ecx, DWORD PTR _j$[ebp]
  0001b	c7 81 7c 36 00
	00 00 00 00 00	 mov	 DWORD PTR [ecx+13948], 0

; 1108 :    j->nomore = 0;

  00025	8b 55 08	 mov	 edx, DWORD PTR _j$[ebp]
  00028	c7 82 88 36 00
	00 00 00 00 00	 mov	 DWORD PTR [edx+13960], 0

; 1109 :    j->img_comp[0].dc_pred = j->img_comp[1].dc_pred = j->img_comp[2].dc_pred = 0;

  00032	b8 38 00 00 00	 mov	 eax, 56			; 00000038H
  00037	d1 e0		 shl	 eax, 1
  00039	8b 4d 08	 mov	 ecx, DWORD PTR _j$[ebp]
  0003c	c7 84 01 b4 35
	00 00 00 00 00
	00		 mov	 DWORD PTR [ecx+eax+13748], 0
  00047	ba 38 00 00 00	 mov	 edx, 56			; 00000038H
  0004c	c1 e2 00	 shl	 edx, 0
  0004f	8b 45 08	 mov	 eax, DWORD PTR _j$[ebp]
  00052	c7 84 10 b4 35
	00 00 00 00 00
	00		 mov	 DWORD PTR [eax+edx+13748], 0
  0005d	b9 38 00 00 00	 mov	 ecx, 56			; 00000038H
  00062	6b d1 00	 imul	 edx, ecx, 0
  00065	8b 45 08	 mov	 eax, DWORD PTR _j$[ebp]
  00068	c7 84 10 b4 35
	00 00 00 00 00
	00		 mov	 DWORD PTR [eax+edx+13748], 0

; 1110 :    j->marker = MARKER_none;

  00073	8b 4d 08	 mov	 ecx, DWORD PTR _j$[ebp]
  00076	c6 81 84 36 00
	00 ff		 mov	 BYTE PTR [ecx+13956], 255 ; 000000ffH

; 1111 :    j->todo = j->restart_interval ? j->restart_interval : 0x7fffffff;

  0007d	8b 55 08	 mov	 edx, DWORD PTR _j$[ebp]
  00080	83 ba a0 36 00
	00 00		 cmp	 DWORD PTR [edx+13984], 0
  00087	74 0e		 je	 SHORT $LN3@reset
  00089	8b 45 08	 mov	 eax, DWORD PTR _j$[ebp]
  0008c	8b 88 a0 36 00
	00		 mov	 ecx, DWORD PTR [eax+13984]
  00092	89 4d fc	 mov	 DWORD PTR tv84[ebp], ecx
  00095	eb 07		 jmp	 SHORT $LN4@reset
$LN3@reset:
  00097	c7 45 fc ff ff
	ff 7f		 mov	 DWORD PTR tv84[ebp], 2147483647 ; 7fffffffH
$LN4@reset:
  0009e	8b 55 08	 mov	 edx, DWORD PTR _j$[ebp]
  000a1	8b 45 fc	 mov	 eax, DWORD PTR tv84[ebp]
  000a4	89 82 a4 36 00
	00		 mov	 DWORD PTR [edx+13988], eax

; 1112 :    // no more than 1<<31 MCUs if no restart_interal? that's plenty safe,
; 1113 :    // since we don't even allow 1<<30 pixels
; 1114 : }

  000aa	8b e5		 mov	 esp, ebp
  000ac	5d		 pop	 ebp
  000ad	c3		 ret	 0
?reset@@YAXPAUjpeg@@@Z ENDP				; reset
_TEXT	ENDS
; Function compile flags: /Odtp /RTCsu
; File e:\fusion3d_work\engine\src\staticlibs\stb_image.c
_TEXT	SEGMENT
tv268 = -336						; size = 4
tv169 = -332						; size = 4
_y2$1 = -328						; size = 4
_x2$2 = -324						; size = 4
_n$3 = -320						; size = 4
_data$4 = -312						; size = 128
_y$5 = -180						; size = 4
_x$6 = -176						; size = 4
_k$7 = -172						; size = 4
_j$8 = -168						; size = 4
_i$9 = -164						; size = 4
_h$10 = -160						; size = 4
_w$11 = -156						; size = 4
_n$12 = -152						; size = 4
_data$13 = -144						; size = 128
_j$14 = -12						; size = 4
_i$15 = -8						; size = 4
__$ArrayPad$ = -4					; size = 4
_z$ = 8							; size = 4
?parse_entropy_coded_data@@YAHPAUjpeg@@@Z PROC		; parse_entropy_coded_data

; 1117 : {

  00000	55		 push	 ebp
  00001	8b ec		 mov	 ebp, esp
  00003	81 ec 50 01 00
	00		 sub	 esp, 336		; 00000150H
  00009	57		 push	 edi
  0000a	8d bd b0 fe ff
	ff		 lea	 edi, DWORD PTR [ebp-336]
  00010	b9 54 00 00 00	 mov	 ecx, 84			; 00000054H
  00015	b8 cc cc cc cc	 mov	 eax, -858993460		; ccccccccH
  0001a	f3 ab		 rep stosd
  0001c	a1 00 00 00 00	 mov	 eax, DWORD PTR ___security_cookie
  00021	33 c5		 xor	 eax, ebp
  00023	89 45 fc	 mov	 DWORD PTR __$ArrayPad$[ebp], eax

; 1118 :    reset(z);

  00026	8b 45 08	 mov	 eax, DWORD PTR _z$[ebp]
  00029	50		 push	 eax
  0002a	e8 00 00 00 00	 call	 ?reset@@YAXPAUjpeg@@@Z	; reset
  0002f	83 c4 04	 add	 esp, 4

; 1119 :    if (z->scan_n == 1) {

  00032	8b 4d 08	 mov	 ecx, DWORD PTR _z$[ebp]
  00035	83 b9 8c 36 00
	00 01		 cmp	 DWORD PTR [ecx+13964], 1
  0003c	0f 85 f0 01 00
	00		 jne	 $LN23@parse_entr

; 1120 :       int i,j;
; 1121 :       #ifdef STBI_SIMD
; 1122 :       __declspec(align(16))
; 1123 :       #endif
; 1124 :       short data[64];
; 1125 :       int n = z->order[0];

  00042	ba 04 00 00 00	 mov	 edx, 4
  00047	6b c2 00	 imul	 eax, edx, 0
  0004a	8b 4d 08	 mov	 ecx, DWORD PTR _z$[ebp]
  0004d	8b 94 01 90 36
	00 00		 mov	 edx, DWORD PTR [ecx+eax+13968]
  00054	89 95 68 ff ff
	ff		 mov	 DWORD PTR _n$12[ebp], edx

; 1126 :       // non-interleaved data, we just need to process one block at a time,
; 1127 :       // in trivial scanline order
; 1128 :       // number of blocks to do just depends on how many actual "pixels" this
; 1129 :       // component has, independent of interleaved MCU blocking and such
; 1130 :       int w = (z->img_comp[n].x+7) >> 3;

  0005a	6b 85 68 ff ff
	ff 38		 imul	 eax, DWORD PTR _n$12[ebp], 56
  00061	8b 4d 08	 mov	 ecx, DWORD PTR _z$[ebp]
  00064	8b 94 01 b8 35
	00 00		 mov	 edx, DWORD PTR [ecx+eax+13752]
  0006b	83 c2 07	 add	 edx, 7
  0006e	c1 fa 03	 sar	 edx, 3
  00071	89 95 64 ff ff
	ff		 mov	 DWORD PTR _w$11[ebp], edx

; 1131 :       int h = (z->img_comp[n].y+7) >> 3;

  00077	6b 85 68 ff ff
	ff 38		 imul	 eax, DWORD PTR _n$12[ebp], 56
  0007e	8b 4d 08	 mov	 ecx, DWORD PTR _z$[ebp]
  00081	8b 94 01 bc 35
	00 00		 mov	 edx, DWORD PTR [ecx+eax+13756]
  00088	83 c2 07	 add	 edx, 7
  0008b	c1 fa 03	 sar	 edx, 3
  0008e	89 95 60 ff ff
	ff		 mov	 DWORD PTR _h$10[ebp], edx

; 1132 :       for (j=0; j < h; ++j) {

  00094	c7 45 f4 00 00
	00 00		 mov	 DWORD PTR _j$14[ebp], 0
  0009b	eb 09		 jmp	 SHORT $LN4@parse_entr
$LN2@parse_entr:
  0009d	8b 45 f4	 mov	 eax, DWORD PTR _j$14[ebp]
  000a0	83 c0 01	 add	 eax, 1
  000a3	89 45 f4	 mov	 DWORD PTR _j$14[ebp], eax
$LN4@parse_entr:
  000a6	8b 4d f4	 mov	 ecx, DWORD PTR _j$14[ebp]
  000a9	3b 8d 60 ff ff
	ff		 cmp	 ecx, DWORD PTR _h$10[ebp]
  000af	0f 8d 78 01 00
	00		 jge	 $LN3@parse_entr

; 1133 :          for (i=0; i < w; ++i) {

  000b5	c7 45 f8 00 00
	00 00		 mov	 DWORD PTR _i$15[ebp], 0
  000bc	eb 09		 jmp	 SHORT $LN7@parse_entr
$LN5@parse_entr:
  000be	8b 55 f8	 mov	 edx, DWORD PTR _i$15[ebp]
  000c1	83 c2 01	 add	 edx, 1
  000c4	89 55 f8	 mov	 DWORD PTR _i$15[ebp], edx
$LN7@parse_entr:
  000c7	8b 45 f8	 mov	 eax, DWORD PTR _i$15[ebp]
  000ca	3b 85 64 ff ff
	ff		 cmp	 eax, DWORD PTR _w$11[ebp]
  000d0	0f 8d 52 01 00
	00		 jge	 $LN6@parse_entr

; 1134 :             if (!decode_block(z, data, z->huff_dc+z->img_comp[n].hd, z->huff_ac+z->img_comp[n].ha, n)) return 0;

  000d6	8b 8d 68 ff ff
	ff		 mov	 ecx, DWORD PTR _n$12[ebp]
  000dc	51		 push	 ecx
  000dd	6b 95 68 ff ff
	ff 38		 imul	 edx, DWORD PTR _n$12[ebp], 56
  000e4	8b 45 08	 mov	 eax, DWORD PTR _z$[ebp]
  000e7	69 8c 10 b0 35
	00 00 90 06 00
	00		 imul	 ecx, DWORD PTR [eax+edx+13744], 1680
  000f2	8b 55 08	 mov	 edx, DWORD PTR _z$[ebp]
  000f5	8d 84 0a 44 1a
	00 00		 lea	 eax, DWORD PTR [edx+ecx+6724]
  000fc	50		 push	 eax
  000fd	6b 8d 68 ff ff
	ff 38		 imul	 ecx, DWORD PTR _n$12[ebp], 56
  00104	8b 55 08	 mov	 edx, DWORD PTR _z$[ebp]
  00107	69 84 0a ac 35
	00 00 90 06 00
	00		 imul	 eax, DWORD PTR [edx+ecx+13740], 1680
  00112	8b 4d 08	 mov	 ecx, DWORD PTR _z$[ebp]
  00115	8d 54 01 04	 lea	 edx, DWORD PTR [ecx+eax+4]
  00119	52		 push	 edx
  0011a	8d 85 70 ff ff
	ff		 lea	 eax, DWORD PTR _data$13[ebp]
  00120	50		 push	 eax
  00121	8b 4d 08	 mov	 ecx, DWORD PTR _z$[ebp]
  00124	51		 push	 ecx
  00125	e8 00 00 00 00	 call	 ?decode_block@@YAHPAUjpeg@@QAFPAUhuffman@@2H@Z ; decode_block
  0012a	83 c4 14	 add	 esp, 20			; 00000014H
  0012d	85 c0		 test	 eax, eax
  0012f	75 07		 jne	 SHORT $LN25@parse_entr
  00131	33 c0		 xor	 eax, eax
  00133	e9 c8 03 00 00	 jmp	 $LN1@parse_entr
$LN25@parse_entr:

; 1135 :             #ifdef STBI_SIMD
; 1136 :             stbi_idct_installed(z->img_comp[n].data+z->img_comp[n].w2*j*8+i*8, z->img_comp[n].w2, data, z->dequant2[z->img_comp[n].tq]);
; 1137 :             #else
; 1138 :             idct_block(z->img_comp[n].data+z->img_comp[n].w2*j*8+i*8, z->img_comp[n].w2, data, z->dequant[z->img_comp[n].tq]);

  00138	6b 95 68 ff ff
	ff 38		 imul	 edx, DWORD PTR _n$12[ebp], 56
  0013f	8b 45 08	 mov	 eax, DWORD PTR _z$[ebp]
  00142	8b 8c 10 a8 35
	00 00		 mov	 ecx, DWORD PTR [eax+edx+13736]
  00149	c1 e1 06	 shl	 ecx, 6
  0014c	8b 55 08	 mov	 edx, DWORD PTR _z$[ebp]
  0014f	8d 84 0a 84 34
	00 00		 lea	 eax, DWORD PTR [edx+ecx+13444]
  00156	50		 push	 eax
  00157	8d 8d 70 ff ff
	ff		 lea	 ecx, DWORD PTR _data$13[ebp]
  0015d	51		 push	 ecx
  0015e	6b 95 68 ff ff
	ff 38		 imul	 edx, DWORD PTR _n$12[ebp], 56
  00165	8b 45 08	 mov	 eax, DWORD PTR _z$[ebp]
  00168	8b 8c 10 c0 35
	00 00		 mov	 ecx, DWORD PTR [eax+edx+13760]
  0016f	51		 push	 ecx
  00170	6b 95 68 ff ff
	ff 38		 imul	 edx, DWORD PTR _n$12[ebp], 56
  00177	6b 85 68 ff ff
	ff 38		 imul	 eax, DWORD PTR _n$12[ebp], 56
  0017e	8b 4d 08	 mov	 ecx, DWORD PTR _z$[ebp]
  00181	8b 84 01 c0 35
	00 00		 mov	 eax, DWORD PTR [ecx+eax+13760]
  00188	0f af 45 f4	 imul	 eax, DWORD PTR _j$14[ebp]
  0018c	8b 4d 08	 mov	 ecx, DWORD PTR _z$[ebp]
  0018f	8b 94 11 c8 35
	00 00		 mov	 edx, DWORD PTR [ecx+edx+13768]
  00196	8d 04 c2	 lea	 eax, DWORD PTR [edx+eax*8]
  00199	8b 4d f8	 mov	 ecx, DWORD PTR _i$15[ebp]
  0019c	8d 14 c8	 lea	 edx, DWORD PTR [eax+ecx*8]
  0019f	52		 push	 edx
  001a0	e8 00 00 00 00	 call	 ?idct_block@@YAXPAEHQAF0@Z ; idct_block
  001a5	83 c4 10	 add	 esp, 16			; 00000010H

; 1139 :             #endif
; 1140 :             // every data block is an MCU, so countdown the restart interval
; 1141 :             if (--z->todo <= 0) {

  001a8	8b 45 08	 mov	 eax, DWORD PTR _z$[ebp]
  001ab	8b 88 a4 36 00
	00		 mov	 ecx, DWORD PTR [eax+13988]
  001b1	83 e9 01	 sub	 ecx, 1
  001b4	89 8d b4 fe ff
	ff		 mov	 DWORD PTR tv169[ebp], ecx
  001ba	8b 55 08	 mov	 edx, DWORD PTR _z$[ebp]
  001bd	8b 85 b4 fe ff
	ff		 mov	 eax, DWORD PTR tv169[ebp]
  001c3	89 82 a4 36 00
	00		 mov	 DWORD PTR [edx+13988], eax
  001c9	83 bd b4 fe ff
	ff 00		 cmp	 DWORD PTR tv169[ebp], 0
  001d0	7f 51		 jg	 SHORT $LN26@parse_entr

; 1142 :                if (z->code_bits < 24) grow_buffer_unsafe(z);

  001d2	8b 4d 08	 mov	 ecx, DWORD PTR _z$[ebp]
  001d5	83 b9 80 36 00
	00 18		 cmp	 DWORD PTR [ecx+13952], 24 ; 00000018H
  001dc	7d 0c		 jge	 SHORT $LN27@parse_entr
  001de	8b 55 08	 mov	 edx, DWORD PTR _z$[ebp]
  001e1	52		 push	 edx
  001e2	e8 00 00 00 00	 call	 ?grow_buffer_unsafe@@YAXPAUjpeg@@@Z ; grow_buffer_unsafe
  001e7	83 c4 04	 add	 esp, 4
$LN27@parse_entr:

; 1143 :                // if it's NOT a restart, then just bail, so we get corrupt data
; 1144 :                // rather than no data
; 1145 :                if (!RESTART(z->marker)) return 1;

  001ea	8b 45 08	 mov	 eax, DWORD PTR _z$[ebp]
  001ed	0f b6 88 84 36
	00 00		 movzx	 ecx, BYTE PTR [eax+13956]
  001f4	81 f9 d0 00 00
	00		 cmp	 ecx, 208		; 000000d0H
  001fa	7c 11		 jl	 SHORT $LN29@parse_entr
  001fc	8b 55 08	 mov	 edx, DWORD PTR _z$[ebp]
  001ff	0f b6 82 84 36
	00 00		 movzx	 eax, BYTE PTR [edx+13956]
  00206	3d d7 00 00 00	 cmp	 eax, 215		; 000000d7H
  0020b	7e 0a		 jle	 SHORT $LN28@parse_entr
$LN29@parse_entr:
  0020d	b8 01 00 00 00	 mov	 eax, 1
  00212	e9 e9 02 00 00	 jmp	 $LN1@parse_entr
$LN28@parse_entr:

; 1146 :                reset(z);

  00217	8b 4d 08	 mov	 ecx, DWORD PTR _z$[ebp]
  0021a	51		 push	 ecx
  0021b	e8 00 00 00 00	 call	 ?reset@@YAXPAUjpeg@@@Z	; reset
  00220	83 c4 04	 add	 esp, 4
$LN26@parse_entr:

; 1147 :             }
; 1148 :          }

  00223	e9 96 fe ff ff	 jmp	 $LN5@parse_entr
$LN6@parse_entr:

; 1149 :       }

  00228	e9 70 fe ff ff	 jmp	 $LN2@parse_entr
$LN3@parse_entr:

; 1150 :    } else { // interleaved!

  0022d	e9 c9 02 00 00	 jmp	 $LN24@parse_entr
$LN23@parse_entr:

; 1151 :       int i,j,k,x,y;
; 1152 :       short data[64];
; 1153 :       for (j=0; j < z->img_mcu_y; ++j) {

  00232	c7 85 58 ff ff
	ff 00 00 00 00	 mov	 DWORD PTR _j$8[ebp], 0
  0023c	eb 0f		 jmp	 SHORT $LN10@parse_entr
$LN8@parse_entr:
  0023e	8b 95 58 ff ff
	ff		 mov	 edx, DWORD PTR _j$8[ebp]
  00244	83 c2 01	 add	 edx, 1
  00247	89 95 58 ff ff
	ff		 mov	 DWORD PTR _j$8[ebp], edx
$LN10@parse_entr:
  0024d	8b 45 08	 mov	 eax, DWORD PTR _z$[ebp]
  00250	8b 8d 58 ff ff
	ff		 mov	 ecx, DWORD PTR _j$8[ebp]
  00256	3b 88 90 35 00
	00		 cmp	 ecx, DWORD PTR [eax+13712]
  0025c	0f 8d 99 02 00
	00		 jge	 $LN24@parse_entr

; 1154 :          for (i=0; i < z->img_mcu_x; ++i) {

  00262	c7 85 5c ff ff
	ff 00 00 00 00	 mov	 DWORD PTR _i$9[ebp], 0
  0026c	eb 0f		 jmp	 SHORT $LN13@parse_entr
$LN11@parse_entr:
  0026e	8b 95 5c ff ff
	ff		 mov	 edx, DWORD PTR _i$9[ebp]
  00274	83 c2 01	 add	 edx, 1
  00277	89 95 5c ff ff
	ff		 mov	 DWORD PTR _i$9[ebp], edx
$LN13@parse_entr:
  0027d	8b 45 08	 mov	 eax, DWORD PTR _z$[ebp]
  00280	8b 8d 5c ff ff
	ff		 mov	 ecx, DWORD PTR _i$9[ebp]
  00286	3b 88 8c 35 00
	00		 cmp	 ecx, DWORD PTR [eax+13708]
  0028c	0f 8d 64 02 00
	00		 jge	 $LN12@parse_entr

; 1155 :             // scan an interleaved mcu... process scan_n components in order
; 1156 :             for (k=0; k < z->scan_n; ++k) {

  00292	c7 85 54 ff ff
	ff 00 00 00 00	 mov	 DWORD PTR _k$7[ebp], 0
  0029c	eb 0f		 jmp	 SHORT $LN16@parse_entr
$LN14@parse_entr:
  0029e	8b 95 54 ff ff
	ff		 mov	 edx, DWORD PTR _k$7[ebp]
  002a4	83 c2 01	 add	 edx, 1
  002a7	89 95 54 ff ff
	ff		 mov	 DWORD PTR _k$7[ebp], edx
$LN16@parse_entr:
  002ad	8b 45 08	 mov	 eax, DWORD PTR _z$[ebp]
  002b0	8b 8d 54 ff ff
	ff		 mov	 ecx, DWORD PTR _k$7[ebp]
  002b6	3b 88 8c 36 00
	00		 cmp	 ecx, DWORD PTR [eax+13964]
  002bc	0f 8d b7 01 00
	00		 jge	 $LN15@parse_entr

; 1157 :                int n = z->order[k];

  002c2	8b 95 54 ff ff
	ff		 mov	 edx, DWORD PTR _k$7[ebp]
  002c8	8b 45 08	 mov	 eax, DWORD PTR _z$[ebp]
  002cb	8b 8c 90 90 36
	00 00		 mov	 ecx, DWORD PTR [eax+edx*4+13968]
  002d2	89 8d c0 fe ff
	ff		 mov	 DWORD PTR _n$3[ebp], ecx

; 1158 :                // scan out an mcu's worth of this component; that's just determined
; 1159 :                // by the basic H and V specified for the component
; 1160 :                for (y=0; y < z->img_comp[n].v; ++y) {

  002d8	c7 85 4c ff ff
	ff 00 00 00 00	 mov	 DWORD PTR _y$5[ebp], 0
  002e2	eb 0f		 jmp	 SHORT $LN19@parse_entr
$LN17@parse_entr:
  002e4	8b 95 4c ff ff
	ff		 mov	 edx, DWORD PTR _y$5[ebp]
  002ea	83 c2 01	 add	 edx, 1
  002ed	89 95 4c ff ff
	ff		 mov	 DWORD PTR _y$5[ebp], edx
$LN19@parse_entr:
  002f3	6b 85 c0 fe ff
	ff 38		 imul	 eax, DWORD PTR _n$3[ebp], 56
  002fa	8b 4d 08	 mov	 ecx, DWORD PTR _z$[ebp]
  002fd	8b 95 4c ff ff
	ff		 mov	 edx, DWORD PTR _y$5[ebp]
  00303	3b 94 01 a4 35
	00 00		 cmp	 edx, DWORD PTR [ecx+eax+13732]
  0030a	0f 8d 64 01 00
	00		 jge	 $LN18@parse_entr

; 1161 :                   for (x=0; x < z->img_comp[n].h; ++x) {

  00310	c7 85 50 ff ff
	ff 00 00 00 00	 mov	 DWORD PTR _x$6[ebp], 0
  0031a	eb 0f		 jmp	 SHORT $LN22@parse_entr
$LN20@parse_entr:
  0031c	8b 85 50 ff ff
	ff		 mov	 eax, DWORD PTR _x$6[ebp]
  00322	83 c0 01	 add	 eax, 1
  00325	89 85 50 ff ff
	ff		 mov	 DWORD PTR _x$6[ebp], eax
$LN22@parse_entr:
  0032b	6b 8d c0 fe ff
	ff 38		 imul	 ecx, DWORD PTR _n$3[ebp], 56
  00332	8b 55 08	 mov	 edx, DWORD PTR _z$[ebp]
  00335	8b 85 50 ff ff
	ff		 mov	 eax, DWORD PTR _x$6[ebp]
  0033b	3b 84 0a a0 35
	00 00		 cmp	 eax, DWORD PTR [edx+ecx+13728]
  00342	0f 8d 27 01 00
	00		 jge	 $LN21@parse_entr

; 1162 :                      int x2 = (i*z->img_comp[n].h + x)*8;

  00348	6b 8d c0 fe ff
	ff 38		 imul	 ecx, DWORD PTR _n$3[ebp], 56
  0034f	8b 55 08	 mov	 edx, DWORD PTR _z$[ebp]
  00352	8b 85 5c ff ff
	ff		 mov	 eax, DWORD PTR _i$9[ebp]
  00358	0f af 84 0a a0
	35 00 00	 imul	 eax, DWORD PTR [edx+ecx+13728]
  00360	03 85 50 ff ff
	ff		 add	 eax, DWORD PTR _x$6[ebp]
  00366	c1 e0 03	 shl	 eax, 3
  00369	89 85 bc fe ff
	ff		 mov	 DWORD PTR _x2$2[ebp], eax

; 1163 :                      int y2 = (j*z->img_comp[n].v + y)*8;

  0036f	6b 8d c0 fe ff
	ff 38		 imul	 ecx, DWORD PTR _n$3[ebp], 56
  00376	8b 55 08	 mov	 edx, DWORD PTR _z$[ebp]
  00379	8b 85 58 ff ff
	ff		 mov	 eax, DWORD PTR _j$8[ebp]
  0037f	0f af 84 0a a4
	35 00 00	 imul	 eax, DWORD PTR [edx+ecx+13732]
  00387	03 85 4c ff ff
	ff		 add	 eax, DWORD PTR _y$5[ebp]
  0038d	c1 e0 03	 shl	 eax, 3
  00390	89 85 b8 fe ff
	ff		 mov	 DWORD PTR _y2$1[ebp], eax

; 1164 :                      if (!decode_block(z, data, z->huff_dc+z->img_comp[n].hd, z->huff_ac+z->img_comp[n].ha, n)) return 0;

  00396	8b 8d c0 fe ff
	ff		 mov	 ecx, DWORD PTR _n$3[ebp]
  0039c	51		 push	 ecx
  0039d	6b 95 c0 fe ff
	ff 38		 imul	 edx, DWORD PTR _n$3[ebp], 56
  003a4	8b 45 08	 mov	 eax, DWORD PTR _z$[ebp]
  003a7	69 8c 10 b0 35
	00 00 90 06 00
	00		 imul	 ecx, DWORD PTR [eax+edx+13744], 1680
  003b2	8b 55 08	 mov	 edx, DWORD PTR _z$[ebp]
  003b5	8d 84 0a 44 1a
	00 00		 lea	 eax, DWORD PTR [edx+ecx+6724]
  003bc	50		 push	 eax
  003bd	6b 8d c0 fe ff
	ff 38		 imul	 ecx, DWORD PTR _n$3[ebp], 56
  003c4	8b 55 08	 mov	 edx, DWORD PTR _z$[ebp]
  003c7	69 84 0a ac 35
	00 00 90 06 00
	00		 imul	 eax, DWORD PTR [edx+ecx+13740], 1680
  003d2	8b 4d 08	 mov	 ecx, DWORD PTR _z$[ebp]
  003d5	8d 54 01 04	 lea	 edx, DWORD PTR [ecx+eax+4]
  003d9	52		 push	 edx
  003da	8d 85 c8 fe ff
	ff		 lea	 eax, DWORD PTR _data$4[ebp]
  003e0	50		 push	 eax
  003e1	8b 4d 08	 mov	 ecx, DWORD PTR _z$[ebp]
  003e4	51		 push	 ecx
  003e5	e8 00 00 00 00	 call	 ?decode_block@@YAHPAUjpeg@@QAFPAUhuffman@@2H@Z ; decode_block
  003ea	83 c4 14	 add	 esp, 20			; 00000014H
  003ed	85 c0		 test	 eax, eax
  003ef	75 07		 jne	 SHORT $LN30@parse_entr
  003f1	33 c0		 xor	 eax, eax
  003f3	e9 08 01 00 00	 jmp	 $LN1@parse_entr
$LN30@parse_entr:

; 1165 :                      #ifdef STBI_SIMD
; 1166 :                      stbi_idct_installed(z->img_comp[n].data+z->img_comp[n].w2*y2+x2, z->img_comp[n].w2, data, z->dequant2[z->img_comp[n].tq]);
; 1167 :                      #else
; 1168 :                      idct_block(z->img_comp[n].data+z->img_comp[n].w2*y2+x2, z->img_comp[n].w2, data, z->dequant[z->img_comp[n].tq]);

  003f8	6b 95 c0 fe ff
	ff 38		 imul	 edx, DWORD PTR _n$3[ebp], 56
  003ff	8b 45 08	 mov	 eax, DWORD PTR _z$[ebp]
  00402	8b 8c 10 a8 35
	00 00		 mov	 ecx, DWORD PTR [eax+edx+13736]
  00409	c1 e1 06	 shl	 ecx, 6
  0040c	8b 55 08	 mov	 edx, DWORD PTR _z$[ebp]
  0040f	8d 84 0a 84 34
	00 00		 lea	 eax, DWORD PTR [edx+ecx+13444]
  00416	50		 push	 eax
  00417	8d 8d c8 fe ff
	ff		 lea	 ecx, DWORD PTR _data$4[ebp]
  0041d	51		 push	 ecx
  0041e	6b 95 c0 fe ff
	ff 38		 imul	 edx, DWORD PTR _n$3[ebp], 56
  00425	8b 45 08	 mov	 eax, DWORD PTR _z$[ebp]
  00428	8b 8c 10 c0 35
	00 00		 mov	 ecx, DWORD PTR [eax+edx+13760]
  0042f	51		 push	 ecx
  00430	6b 95 c0 fe ff
	ff 38		 imul	 edx, DWORD PTR _n$3[ebp], 56
  00437	6b 85 c0 fe ff
	ff 38		 imul	 eax, DWORD PTR _n$3[ebp], 56
  0043e	8b 4d 08	 mov	 ecx, DWORD PTR _z$[ebp]
  00441	8b 84 01 c0 35
	00 00		 mov	 eax, DWORD PTR [ecx+eax+13760]
  00448	0f af 85 b8 fe
	ff ff		 imul	 eax, DWORD PTR _y2$1[ebp]
  0044f	8b 4d 08	 mov	 ecx, DWORD PTR _z$[ebp]
  00452	8b 94 11 c8 35
	00 00		 mov	 edx, DWORD PTR [ecx+edx+13768]
  00459	03 d0		 add	 edx, eax
  0045b	03 95 bc fe ff
	ff		 add	 edx, DWORD PTR _x2$2[ebp]
  00461	52		 push	 edx
  00462	e8 00 00 00 00	 call	 ?idct_block@@YAXPAEHQAF0@Z ; idct_block
  00467	83 c4 10	 add	 esp, 16			; 00000010H

; 1169 :                      #endif
; 1170 :                   }

  0046a	e9 ad fe ff ff	 jmp	 $LN20@parse_entr
$LN21@parse_entr:

; 1171 :                }

  0046f	e9 70 fe ff ff	 jmp	 $LN17@parse_entr
$LN18@parse_entr:

; 1172 :             }

  00474	e9 25 fe ff ff	 jmp	 $LN14@parse_entr
$LN15@parse_entr:

; 1173 :             // after all interleaved components, that's an interleaved MCU,
; 1174 :             // so now count down the restart interval
; 1175 :             if (--z->todo <= 0) {

  00479	8b 45 08	 mov	 eax, DWORD PTR _z$[ebp]
  0047c	8b 88 a4 36 00
	00		 mov	 ecx, DWORD PTR [eax+13988]
  00482	83 e9 01	 sub	 ecx, 1
  00485	89 8d b0 fe ff
	ff		 mov	 DWORD PTR tv268[ebp], ecx
  0048b	8b 55 08	 mov	 edx, DWORD PTR _z$[ebp]
  0048e	8b 85 b0 fe ff
	ff		 mov	 eax, DWORD PTR tv268[ebp]
  00494	89 82 a4 36 00
	00		 mov	 DWORD PTR [edx+13988], eax
  0049a	83 bd b0 fe ff
	ff 00		 cmp	 DWORD PTR tv268[ebp], 0
  004a1	7f 4e		 jg	 SHORT $LN31@parse_entr

; 1176 :                if (z->code_bits < 24) grow_buffer_unsafe(z);

  004a3	8b 4d 08	 mov	 ecx, DWORD PTR _z$[ebp]
  004a6	83 b9 80 36 00
	00 18		 cmp	 DWORD PTR [ecx+13952], 24 ; 00000018H
  004ad	7d 0c		 jge	 SHORT $LN32@parse_entr
  004af	8b 55 08	 mov	 edx, DWORD PTR _z$[ebp]
  004b2	52		 push	 edx
  004b3	e8 00 00 00 00	 call	 ?grow_buffer_unsafe@@YAXPAUjpeg@@@Z ; grow_buffer_unsafe
  004b8	83 c4 04	 add	 esp, 4
$LN32@parse_entr:

; 1177 :                // if it's NOT a restart, then just bail, so we get corrupt data
; 1178 :                // rather than no data
; 1179 :                if (!RESTART(z->marker)) return 1;

  004bb	8b 45 08	 mov	 eax, DWORD PTR _z$[ebp]
  004be	0f b6 88 84 36
	00 00		 movzx	 ecx, BYTE PTR [eax+13956]
  004c5	81 f9 d0 00 00
	00		 cmp	 ecx, 208		; 000000d0H
  004cb	7c 11		 jl	 SHORT $LN34@parse_entr
  004cd	8b 55 08	 mov	 edx, DWORD PTR _z$[ebp]
  004d0	0f b6 82 84 36
	00 00		 movzx	 eax, BYTE PTR [edx+13956]
  004d7	3d d7 00 00 00	 cmp	 eax, 215		; 000000d7H
  004dc	7e 07		 jle	 SHORT $LN33@parse_entr
$LN34@parse_entr:
  004de	b8 01 00 00 00	 mov	 eax, 1
  004e3	eb 1b		 jmp	 SHORT $LN1@parse_entr
$LN33@parse_entr:

; 1180 :                reset(z);

  004e5	8b 4d 08	 mov	 ecx, DWORD PTR _z$[ebp]
  004e8	51		 push	 ecx
  004e9	e8 00 00 00 00	 call	 ?reset@@YAXPAUjpeg@@@Z	; reset
  004ee	83 c4 04	 add	 esp, 4
$LN31@parse_entr:

; 1181 :             }
; 1182 :          }

  004f1	e9 78 fd ff ff	 jmp	 $LN11@parse_entr
$LN12@parse_entr:

; 1183 :       }

  004f6	e9 43 fd ff ff	 jmp	 $LN8@parse_entr
$LN24@parse_entr:

; 1184 :    }
; 1185 :    return 1;

  004fb	b8 01 00 00 00	 mov	 eax, 1
$LN1@parse_entr:

; 1186 : }

  00500	52		 push	 edx
  00501	8b cd		 mov	 ecx, ebp
  00503	50		 push	 eax
  00504	8d 15 00 00 00
	00		 lea	 edx, DWORD PTR $LN39@parse_entr
  0050a	e8 00 00 00 00	 call	 @_RTC_CheckStackVars@8
  0050f	58		 pop	 eax
  00510	5a		 pop	 edx
  00511	5f		 pop	 edi
  00512	8b 4d fc	 mov	 ecx, DWORD PTR __$ArrayPad$[ebp]
  00515	33 cd		 xor	 ecx, ebp
  00517	e8 00 00 00 00	 call	 @__security_check_cookie@4
  0051c	81 c4 50 01 00
	00		 add	 esp, 336		; 00000150H
  00522	3b ec		 cmp	 ebp, esp
  00524	e8 00 00 00 00	 call	 __RTC_CheckEsp
  00529	8b e5		 mov	 esp, ebp
  0052b	5d		 pop	 ebp
  0052c	c3		 ret	 0
  0052d	0f 1f 00	 npad	 3
$LN39@parse_entr:
  00530	02 00 00 00	 DD	 2
  00534	00 00 00 00	 DD	 $LN38@parse_entr
$LN38@parse_entr:
  00538	70 ff ff ff	 DD	 -144			; ffffff70H
  0053c	80 00 00 00	 DD	 128			; 00000080H
  00540	00 00 00 00	 DD	 $LN36@parse_entr
  00544	c8 fe ff ff	 DD	 -312			; fffffec8H
  00548	80 00 00 00	 DD	 128			; 00000080H
  0054c	00 00 00 00	 DD	 $LN37@parse_entr
$LN37@parse_entr:
  00550	64		 DB	 100			; 00000064H
  00551	61		 DB	 97			; 00000061H
  00552	74		 DB	 116			; 00000074H
  00553	61		 DB	 97			; 00000061H
  00554	00		 DB	 0
$LN36@parse_entr:
  00555	64		 DB	 100			; 00000064H
  00556	61		 DB	 97			; 00000061H
  00557	74		 DB	 116			; 00000074H
  00558	61		 DB	 97			; 00000061H
  00559	00		 DB	 0
?parse_entropy_coded_data@@YAHPAUjpeg@@@Z ENDP		; parse_entropy_coded_data
_TEXT	ENDS
; Function compile flags: /Odtp /RTCsu
; File e:\fusion3d_work\engine\src\staticlibs\stb_image.c
_TEXT	SEGMENT
tv200 = -132						; size = 4
tv142 = -128						; size = 4
tv64 = -124						; size = 4
_th$1 = -120						; size = 4
_tc$2 = -116						; size = 4
_q$3 = -112						; size = 4
_m$4 = -108						; size = 4
_i$5 = -104						; size = 4
_sizes$6 = -96						; size = 64
_v$7 = -28						; size = 4
_i$8 = -24						; size = 4
_t$9 = -20						; size = 4
_p$10 = -16						; size = 4
_q$11 = -12						; size = 4
_L$ = -8						; size = 4
__$ArrayPad$ = -4					; size = 4
_z$ = 8							; size = 4
_m$ = 12						; size = 4
?process_marker@@YAHPAUjpeg@@H@Z PROC			; process_marker

; 1189 : {

  00000	55		 push	 ebp
  00001	8b ec		 mov	 ebp, esp
  00003	81 ec 84 00 00
	00		 sub	 esp, 132		; 00000084H
  00009	57		 push	 edi
  0000a	8d bd 7c ff ff
	ff		 lea	 edi, DWORD PTR [ebp-132]
  00010	b9 21 00 00 00	 mov	 ecx, 33			; 00000021H
  00015	b8 cc cc cc cc	 mov	 eax, -858993460		; ccccccccH
  0001a	f3 ab		 rep stosd
  0001c	a1 00 00 00 00	 mov	 eax, DWORD PTR ___security_cookie
  00021	33 c5		 xor	 eax, ebp
  00023	89 45 fc	 mov	 DWORD PTR __$ArrayPad$[ebp], eax

; 1190 :    int L;
; 1191 :    switch (m) {

  00026	8b 45 0c	 mov	 eax, DWORD PTR _m$[ebp]
  00029	89 45 84	 mov	 DWORD PTR tv64[ebp], eax
  0002c	8b 4d 84	 mov	 ecx, DWORD PTR tv64[ebp]
  0002f	81 e9 c2 00 00
	00		 sub	 ecx, 194		; 000000c2H
  00035	89 4d 84	 mov	 DWORD PTR tv64[ebp], ecx
  00038	83 7d 84 3d	 cmp	 DWORD PTR tv64[ebp], 61	; 0000003dH
  0003c	0f 87 eb 02 00
	00		 ja	 $LN2@process_ma
  00042	8b 55 84	 mov	 edx, DWORD PTR tv64[ebp]
  00045	0f b6 82 00 00
	00 00		 movzx	 eax, BYTE PTR $LN39@process_ma[edx]
  0004c	ff 24 85 00 00
	00 00		 jmp	 DWORD PTR $LN43@process_ma[eax*4]
$LN17@process_ma:

; 1192 :       case MARKER_none: // no marker found
; 1193 :          return e("expected marker","Corrupt JPEG");

  00053	68 00 00 00 00	 push	 OFFSET $SG4294820259
  00058	e8 00 00 00 00	 call	 ?e@@YAHPBD@Z		; e
  0005d	83 c4 04	 add	 esp, 4
  00060	e9 0c 03 00 00	 jmp	 $LN1@process_ma
$LN18@process_ma:

; 1194 : 
; 1195 :       case 0xC2: // SOF - progressive
; 1196 :          return e("progressive jpeg","JPEG format not supported (progressive)");

  00065	68 00 00 00 00	 push	 OFFSET $SG4294820258
  0006a	e8 00 00 00 00	 call	 ?e@@YAHPBD@Z		; e
  0006f	83 c4 04	 add	 esp, 4
  00072	e9 fa 02 00 00	 jmp	 $LN1@process_ma
$LN19@process_ma:

; 1197 : 
; 1198 :       case 0xDD: // DRI - specify restart interval
; 1199 :          if (get16(z->s) != 4) return e("bad DRI len","Corrupt JPEG");

  00077	8b 4d 08	 mov	 ecx, DWORD PTR _z$[ebp]
  0007a	8b 11		 mov	 edx, DWORD PTR [ecx]
  0007c	52		 push	 edx
  0007d	e8 00 00 00 00	 call	 ?get16@@YAHPAUstbi@@@Z	; get16
  00082	83 c4 04	 add	 esp, 4
  00085	83 f8 04	 cmp	 eax, 4
  00088	74 12		 je	 SHORT $LN20@process_ma
  0008a	68 00 00 00 00	 push	 OFFSET $SG4294820257
  0008f	e8 00 00 00 00	 call	 ?e@@YAHPBD@Z		; e
  00094	83 c4 04	 add	 esp, 4
  00097	e9 d5 02 00 00	 jmp	 $LN1@process_ma
$LN20@process_ma:

; 1200 :          z->restart_interval = get16(z->s);

  0009c	8b 45 08	 mov	 eax, DWORD PTR _z$[ebp]
  0009f	8b 08		 mov	 ecx, DWORD PTR [eax]
  000a1	51		 push	 ecx
  000a2	e8 00 00 00 00	 call	 ?get16@@YAHPAUstbi@@@Z	; get16
  000a7	83 c4 04	 add	 esp, 4
  000aa	8b 55 08	 mov	 edx, DWORD PTR _z$[ebp]
  000ad	89 82 a0 36 00
	00		 mov	 DWORD PTR [edx+13984], eax

; 1201 :          return 1;

  000b3	b8 01 00 00 00	 mov	 eax, 1
  000b8	e9 b4 02 00 00	 jmp	 $LN1@process_ma
$LN21@process_ma:

; 1202 : 
; 1203 :       case 0xDB: // DQT - define quantization table
; 1204 :          L = get16(z->s)-2;

  000bd	8b 45 08	 mov	 eax, DWORD PTR _z$[ebp]
  000c0	8b 08		 mov	 ecx, DWORD PTR [eax]
  000c2	51		 push	 ecx
  000c3	e8 00 00 00 00	 call	 ?get16@@YAHPAUstbi@@@Z	; get16
  000c8	83 c4 04	 add	 esp, 4
  000cb	83 e8 02	 sub	 eax, 2
  000ce	89 45 f8	 mov	 DWORD PTR _L$[ebp], eax
$LN4@process_ma:

; 1205 :          while (L > 0) {

  000d1	83 7d f8 00	 cmp	 DWORD PTR _L$[ebp], 0
  000d5	0f 8e a6 00 00
	00		 jle	 $LN5@process_ma

; 1206 :             int q = get8(z->s);

  000db	8b 55 08	 mov	 edx, DWORD PTR _z$[ebp]
  000de	8b 02		 mov	 eax, DWORD PTR [edx]
  000e0	50		 push	 eax
  000e1	e8 00 00 00 00	 call	 ?get8@@YAHPAUstbi@@@Z	; get8
  000e6	83 c4 04	 add	 esp, 4
  000e9	89 45 f4	 mov	 DWORD PTR _q$11[ebp], eax

; 1207 :             int p = q >> 4;

  000ec	8b 4d f4	 mov	 ecx, DWORD PTR _q$11[ebp]
  000ef	c1 f9 04	 sar	 ecx, 4
  000f2	89 4d f0	 mov	 DWORD PTR _p$10[ebp], ecx

; 1208 :             int t = q & 15,i;

  000f5	8b 55 f4	 mov	 edx, DWORD PTR _q$11[ebp]
  000f8	83 e2 0f	 and	 edx, 15			; 0000000fH
  000fb	89 55 ec	 mov	 DWORD PTR _t$9[ebp], edx

; 1209 :             if (p != 0) return e("bad DQT type","Corrupt JPEG");

  000fe	83 7d f0 00	 cmp	 DWORD PTR _p$10[ebp], 0
  00102	74 12		 je	 SHORT $LN22@process_ma
  00104	68 00 00 00 00	 push	 OFFSET $SG4294820256
  00109	e8 00 00 00 00	 call	 ?e@@YAHPBD@Z		; e
  0010e	83 c4 04	 add	 esp, 4
  00111	e9 5b 02 00 00	 jmp	 $LN1@process_ma
$LN22@process_ma:

; 1210 :             if (t > 3) return e("bad DQT table","Corrupt JPEG");

  00116	83 7d ec 03	 cmp	 DWORD PTR _t$9[ebp], 3
  0011a	7e 12		 jle	 SHORT $LN23@process_ma
  0011c	68 00 00 00 00	 push	 OFFSET $SG4294820255
  00121	e8 00 00 00 00	 call	 ?e@@YAHPBD@Z		; e
  00126	83 c4 04	 add	 esp, 4
  00129	e9 43 02 00 00	 jmp	 $LN1@process_ma
$LN23@process_ma:

; 1211 :             for (i=0; i < 64; ++i)

  0012e	c7 45 e8 00 00
	00 00		 mov	 DWORD PTR _i$8[ebp], 0
  00135	eb 09		 jmp	 SHORT $LN8@process_ma
$LN6@process_ma:
  00137	8b 45 e8	 mov	 eax, DWORD PTR _i$8[ebp]
  0013a	83 c0 01	 add	 eax, 1
  0013d	89 45 e8	 mov	 DWORD PTR _i$8[ebp], eax
$LN8@process_ma:
  00140	83 7d e8 40	 cmp	 DWORD PTR _i$8[ebp], 64	; 00000040H
  00144	7d 2d		 jge	 SHORT $LN7@process_ma

; 1212 :                z->dequant[t][dezigzag[i]] = get8u(z->s);

  00146	8b 4d 08	 mov	 ecx, DWORD PTR _z$[ebp]
  00149	8b 11		 mov	 edx, DWORD PTR [ecx]
  0014b	52		 push	 edx
  0014c	e8 00 00 00 00	 call	 ?get8u@@YAEPAUstbi@@@Z	; get8u
  00151	83 c4 04	 add	 esp, 4
  00154	8b 4d ec	 mov	 ecx, DWORD PTR _t$9[ebp]
  00157	c1 e1 06	 shl	 ecx, 6
  0015a	8b 55 08	 mov	 edx, DWORD PTR _z$[ebp]
  0015d	8d 8c 0a 84 34
