; Listing generated by Microsoft (R) Optimizing Compiler Version 19.00.23506.0 

	TITLE	e:\fusion3d_work\engine\src\testing.cpp
	.686P
	.XMM
	include listing.inc
	.model	flat

INCLUDELIB OLDNAMES

	ORG $+3
?btInfinityMask@@3HA DD 07f800000H			; btInfinityMask
	ORG $+3
?btNanMask@@3HA DD 07f800001H				; btNanMask
$SG4294932472 DB 'Assert e:\fusion3d_work\lib\bullet3\include\BulletColli'
	DB	'sion/BroadphaseCollision/btAxisSweep3.h:%u (!pair.m_algorithm'
	DB	')', 0aH, 00H
	ORG $+1
$SG4294932471 DB 'Assert e:\fusion3d_work\lib\bullet3\include\BulletColli'
	DB	'sion/BroadphaseCollision/btAxisSweep3.h:%u (!pair.m_algorithm'
	DB	')', 0aH, 00H
	ORG $+1
$SG4294932470 DB 'Assert e:\fusion3d_work\lib\bullet3\include\BulletColli'
	DB	'sion/BroadphaseCollision/btAxisSweep3.h:%u (m_firstFreeHandle'
	DB	')', 0aH, 00H
	ORG $+1
$SG4294932469 DB 'Assert e:\fusion3d_work\lib\bullet3\include\BulletColli'
	DB	'sion/BroadphaseCollision/btAxisSweep3.h:%u (handle > 0 && han'
	DB	'dle < m_maxHandles)', 0aH, 00H
$SG4294932468 DB 'Assert e:\fusion3d_work\lib\bullet3\include\BulletColli'
	DB	'sion/BroadphaseCollision/btAxisSweep3.h:%u (m_firstFreeHandle'
	DB	')', 0aH, 00H
	ORG $+1
$SG4294932467 DB 'Assert e:\fusion3d_work\lib\bullet3\include\BulletColli'
	DB	'sion/BroadphaseCollision/btAxisSweep3.h:%u (handle > 0 && han'
	DB	'dle < m_maxHandles)', 0aH, 00H
PUBLIC	?RunAllTests@Testing@@YAXXZ			; Testing::RunAllTests
; Function compile flags: /Odtp /RTCsu
; File e:\fusion3d_work\engine\src\testing.cpp
_TEXT	SEGMENT
?RunAllTests@Testing@@YAXXZ PROC			; Testing::RunAllTests

; 26   : {

  00000	55		 push	 ebp
  00001	8b ec		 mov	 ebp, esp

; 27   :     
; 28   : }

  00003	5d		 pop	 ebp
  00004	c3		 ret	 0
?RunAllTests@Testing@@YAXXZ ENDP			; Testing::RunAllTests
_TEXT	ENDS
END
