; Listing generated by Microsoft (R) Optimizing Compiler Version 19.00.23506.0 

	TITLE	e:\fusion3d_work\engine\src\staticlibs\tinyxml2.cpp
	.686P
	.XMM
	include listing.inc
	.model	flat

INCLUDELIB OLDNAMES

PUBLIC	??_R4XMLAttribute@tinyxml2@@6B@			; tinyxml2::XMLAttribute::`RTTI Complete Object Locator'
PUBLIC	??_R3XMLAttribute@tinyxml2@@8			; tinyxml2::XMLAttribute::`RTTI Class Hierarchy Descriptor'
PUBLIC	??_R0?AV?$MemPoolT@$0DA@@tinyxml2@@@8		; tinyxml2::MemPoolT<48> `RTTI Type Descriptor'
PUBLIC	??_R0?AVXMLText@tinyxml2@@@8			; tinyxml2::XMLText `RTTI Type Descriptor'
PUBLIC	??_R3?$MemPoolT@$0CM@@tinyxml2@@8		; tinyxml2::MemPoolT<44>::`RTTI Class Hierarchy Descriptor'
PUBLIC	??_R0?AVXMLVisitor@tinyxml2@@@8			; tinyxml2::XMLVisitor `RTTI Type Descriptor'
PUBLIC	??_R1A@?0A@EA@?$MemPoolT@$0CM@@tinyxml2@@8	; tinyxml2::MemPoolT<44>::`RTTI Base Class Descriptor at (0,-1,0,64)'
PUBLIC	??_R2XMLPrinter@tinyxml2@@8			; tinyxml2::XMLPrinter::`RTTI Base Class Array'
PUBLIC	??_R4XMLComment@tinyxml2@@6B@			; tinyxml2::XMLComment::`RTTI Complete Object Locator'
PUBLIC	??_R4?$MemPoolT@$0CE@@tinyxml2@@6B@		; tinyxml2::MemPoolT<36>::`RTTI Complete Object Locator'
PUBLIC	??_7?$MemPoolT@$0DA@@tinyxml2@@6B@		; tinyxml2::MemPoolT<48>::`vftable'
PUBLIC	??_7XMLPrinter@tinyxml2@@6B@			; tinyxml2::XMLPrinter::`vftable'
PUBLIC	??_R1A@?0A@EA@XMLElement@tinyxml2@@8		; tinyxml2::XMLElement::`RTTI Base Class Descriptor at (0,-1,0,64)'
PUBLIC	??_7?$MemPoolT@$0CM@@tinyxml2@@6B@		; tinyxml2::MemPoolT<44>::`vftable'
PUBLIC	??_7XMLComment@tinyxml2@@6B@			; tinyxml2::XMLComment::`vftable'
PUBLIC	??_R1A@?0A@EA@XMLUnknown@tinyxml2@@8		; tinyxml2::XMLUnknown::`RTTI Base Class Descriptor at (0,-1,0,64)'
PUBLIC	??_R4XMLDocument@tinyxml2@@6B@			; tinyxml2::XMLDocument::`RTTI Complete Object Locator'
PUBLIC	??_R1A@?0A@EA@?$MemPoolT@$0DE@@tinyxml2@@8	; tinyxml2::MemPoolT<52>::`RTTI Base Class Descriptor at (0,-1,0,64)'
PUBLIC	??_R2XMLVisitor@tinyxml2@@8			; tinyxml2::XMLVisitor::`RTTI Base Class Array'
PUBLIC	??_7?$MemPoolT@$0DE@@tinyxml2@@6B@		; tinyxml2::MemPoolT<52>::`vftable'
PUBLIC	??_R4MemPool@tinyxml2@@6B@			; tinyxml2::MemPool::`RTTI Complete Object Locator'
PUBLIC	??_R2XMLText@tinyxml2@@8			; tinyxml2::XMLText::`RTTI Base Class Array'
PUBLIC	??_R3XMLVisitor@tinyxml2@@8			; tinyxml2::XMLVisitor::`RTTI Class Hierarchy Descriptor'
PUBLIC	??_7XMLText@tinyxml2@@6B@			; tinyxml2::XMLText::`vftable'
PUBLIC	??_7XMLVisitor@tinyxml2@@6B@			; tinyxml2::XMLVisitor::`vftable'
PUBLIC	??_R0?AVXMLPrinter@tinyxml2@@@8			; tinyxml2::XMLPrinter `RTTI Type Descriptor'
PUBLIC	??_R4XMLDeclaration@tinyxml2@@6B@		; tinyxml2::XMLDeclaration::`RTTI Complete Object Locator'
PUBLIC	??_7XMLElement@tinyxml2@@6B@			; tinyxml2::XMLElement::`vftable'
PUBLIC	??_R1A@?0A@EA@MemPool@tinyxml2@@8		; tinyxml2::MemPool::`RTTI Base Class Descriptor at (0,-1,0,64)'
PUBLIC	??_7MemPool@tinyxml2@@6B@			; tinyxml2::MemPool::`vftable'
PUBLIC	??_R0?AV?$MemPoolT@$0CM@@tinyxml2@@@8		; tinyxml2::MemPoolT<44> `RTTI Type Descriptor'
PUBLIC	??_R3XMLUnknown@tinyxml2@@8			; tinyxml2::XMLUnknown::`RTTI Class Hierarchy Descriptor'
PUBLIC	??_R4XMLUnknown@tinyxml2@@6B@			; tinyxml2::XMLUnknown::`RTTI Complete Object Locator'
PUBLIC	??_R0?AVXMLComment@tinyxml2@@@8			; tinyxml2::XMLComment `RTTI Type Descriptor'
PUBLIC	??_R1A@?0A@EA@XMLDocument@tinyxml2@@8		; tinyxml2::XMLDocument::`RTTI Base Class Descriptor at (0,-1,0,64)'
PUBLIC	??_R3XMLElement@tinyxml2@@8			; tinyxml2::XMLElement::`RTTI Class Hierarchy Descriptor'
PUBLIC	??_R2XMLComment@tinyxml2@@8			; tinyxml2::XMLComment::`RTTI Base Class Array'
PUBLIC	??_R0?AVXMLUnknown@tinyxml2@@@8			; tinyxml2::XMLUnknown `RTTI Type Descriptor'
PUBLIC	??_R0?AVXMLDeclaration@tinyxml2@@@8		; tinyxml2::XMLDeclaration `RTTI Type Descriptor'
PUBLIC	??_R3?$MemPoolT@$0CE@@tinyxml2@@8		; tinyxml2::MemPoolT<36>::`RTTI Class Hierarchy Descriptor'
PUBLIC	??_R2XMLDeclaration@tinyxml2@@8			; tinyxml2::XMLDeclaration::`RTTI Base Class Array'
PUBLIC	??_R0?AVXMLNode@tinyxml2@@@8			; tinyxml2::XMLNode `RTTI Type Descriptor'
PUBLIC	??_7XMLAttribute@tinyxml2@@6B@			; tinyxml2::XMLAttribute::`vftable'
PUBLIC	??_R3XMLText@tinyxml2@@8			; tinyxml2::XMLText::`RTTI Class Hierarchy Descriptor'
PUBLIC	??_R2?$MemPoolT@$0DE@@tinyxml2@@8		; tinyxml2::MemPoolT<52>::`RTTI Base Class Array'
PUBLIC	??_R1A@?0A@EA@XMLComment@tinyxml2@@8		; tinyxml2::XMLComment::`RTTI Base Class Descriptor at (0,-1,0,64)'
PUBLIC	??_R3?$MemPoolT@$0DE@@tinyxml2@@8		; tinyxml2::MemPoolT<52>::`RTTI Class Hierarchy Descriptor'
PUBLIC	??_R4?$MemPoolT@$0DE@@tinyxml2@@6B@		; tinyxml2::MemPoolT<52>::`RTTI Complete Object Locator'
PUBLIC	??_R0?AVXMLElement@tinyxml2@@@8			; tinyxml2::XMLElement `RTTI Type Descriptor'
PUBLIC	??_R0?AV?$MemPoolT@$0DE@@tinyxml2@@@8		; tinyxml2::MemPoolT<52> `RTTI Type Descriptor'
PUBLIC	??_R4?$MemPoolT@$0CM@@tinyxml2@@6B@		; tinyxml2::MemPoolT<44>::`RTTI Complete Object Locator'
PUBLIC	??_R2XMLUnknown@tinyxml2@@8			; tinyxml2::XMLUnknown::`RTTI Base Class Array'
PUBLIC	??_R4XMLElement@tinyxml2@@6B@			; tinyxml2::XMLElement::`RTTI Complete Object Locator'
PUBLIC	??_7XMLNode@tinyxml2@@6B@			; tinyxml2::XMLNode::`vftable'
PUBLIC	??_R2?$MemPoolT@$0CE@@tinyxml2@@8		; tinyxml2::MemPoolT<36>::`RTTI Base Class Array'
PUBLIC	??_R1A@?0A@EA@XMLText@tinyxml2@@8		; tinyxml2::XMLText::`RTTI Base Class Descriptor at (0,-1,0,64)'
PUBLIC	??_R2XMLDocument@tinyxml2@@8			; tinyxml2::XMLDocument::`RTTI Base Class Array'
PUBLIC	??_R2?$MemPoolT@$0DA@@tinyxml2@@8		; tinyxml2::MemPoolT<48>::`RTTI Base Class Array'
PUBLIC	??_R2XMLAttribute@tinyxml2@@8			; tinyxml2::XMLAttribute::`RTTI Base Class Array'
PUBLIC	??_R4XMLText@tinyxml2@@6B@			; tinyxml2::XMLText::`RTTI Complete Object Locator'
PUBLIC	??_7XMLDeclaration@tinyxml2@@6B@		; tinyxml2::XMLDeclaration::`vftable'
PUBLIC	??_R3XMLDocument@tinyxml2@@8			; tinyxml2::XMLDocument::`RTTI Class Hierarchy Descriptor'
PUBLIC	??_R2XMLElement@tinyxml2@@8			; tinyxml2::XMLElement::`RTTI Base Class Array'
PUBLIC	??_R1A@?0A@EA@XMLPrinter@tinyxml2@@8		; tinyxml2::XMLPrinter::`RTTI Base Class Descriptor at (0,-1,0,64)'
PUBLIC	??_R1A@?0A@EA@?$MemPoolT@$0DA@@tinyxml2@@8	; tinyxml2::MemPoolT<48>::`RTTI Base Class Descriptor at (0,-1,0,64)'
PUBLIC	??_R1A@?0A@EA@?$MemPoolT@$0CE@@tinyxml2@@8	; tinyxml2::MemPoolT<36>::`RTTI Base Class Descriptor at (0,-1,0,64)'
PUBLIC	??_R3XMLNode@tinyxml2@@8			; tinyxml2::XMLNode::`RTTI Class Hierarchy Descriptor'
PUBLIC	??_R1A@?0A@EA@XMLNode@tinyxml2@@8		; tinyxml2::XMLNode::`RTTI Base Class Descriptor at (0,-1,0,64)'
PUBLIC	??_7?$MemPoolT@$0CE@@tinyxml2@@6B@		; tinyxml2::MemPoolT<36>::`vftable'
PUBLIC	??_R3XMLPrinter@tinyxml2@@8			; tinyxml2::XMLPrinter::`RTTI Class Hierarchy Descriptor'
PUBLIC	?_errorNames@XMLDocument@tinyxml2@@0PAPBDA	; tinyxml2::XMLDocument::_errorNames
PUBLIC	??_7XMLDocument@tinyxml2@@6B@			; tinyxml2::XMLDocument::`vftable'
PUBLIC	??_R0?AVMemPool@tinyxml2@@@8			; tinyxml2::MemPool `RTTI Type Descriptor'
PUBLIC	??_R0?AVXMLDocument@tinyxml2@@@8		; tinyxml2::XMLDocument `RTTI Type Descriptor'
PUBLIC	??_R4XMLNode@tinyxml2@@6B@			; tinyxml2::XMLNode::`RTTI Complete Object Locator'
PUBLIC	??_R2?$MemPoolT@$0CM@@tinyxml2@@8		; tinyxml2::MemPoolT<44>::`RTTI Base Class Array'
PUBLIC	??_R2MemPool@tinyxml2@@8			; tinyxml2::MemPool::`RTTI Base Class Array'
PUBLIC	?_OptionsStorage@?1??__local_stdio_scanf_options@@9@4_KA ; `__local_stdio_scanf_options'::`2'::_OptionsStorage
PUBLIC	??_R1A@?0A@EA@XMLVisitor@tinyxml2@@8		; tinyxml2::XMLVisitor::`RTTI Base Class Descriptor at (0,-1,0,64)'
PUBLIC	??_R3?$MemPoolT@$0DA@@tinyxml2@@8		; tinyxml2::MemPoolT<48>::`RTTI Class Hierarchy Descriptor'
PUBLIC	??_R2XMLNode@tinyxml2@@8			; tinyxml2::XMLNode::`RTTI Base Class Array'
PUBLIC	??_R3MemPool@tinyxml2@@8			; tinyxml2::MemPool::`RTTI Class Hierarchy Descriptor'
PUBLIC	??_R0?AVXMLAttribute@tinyxml2@@@8		; tinyxml2::XMLAttribute `RTTI Type Descriptor'
PUBLIC	??_R4XMLPrinter@tinyxml2@@6B@			; tinyxml2::XMLPrinter::`RTTI Complete Object Locator'
PUBLIC	??_7XMLUnknown@tinyxml2@@6B@			; tinyxml2::XMLUnknown::`vftable'
PUBLIC	??_R1A@?0A@EA@XMLDeclaration@tinyxml2@@8	; tinyxml2::XMLDeclaration::`RTTI Base Class Descriptor at (0,-1,0,64)'
PUBLIC	??_R4?$MemPoolT@$0DA@@tinyxml2@@6B@		; tinyxml2::MemPoolT<48>::`RTTI Complete Object Locator'
PUBLIC	??_R1A@?0A@EA@XMLAttribute@tinyxml2@@8		; tinyxml2::XMLAttribute::`RTTI Base Class Descriptor at (0,-1,0,64)'
PUBLIC	??_R0?AV?$MemPoolT@$0CE@@tinyxml2@@@8		; tinyxml2::MemPoolT<36> `RTTI Type Descriptor'
PUBLIC	??_R3XMLDeclaration@tinyxml2@@8			; tinyxml2::XMLDeclaration::`RTTI Class Hierarchy Descriptor'
PUBLIC	??_R4XMLVisitor@tinyxml2@@6B@			; tinyxml2::XMLVisitor::`RTTI Complete Object Locator'
PUBLIC	??_R3XMLComment@tinyxml2@@8			; tinyxml2::XMLComment::`RTTI Class Hierarchy Descriptor'
EXTRN	__imp____stdio_common_vsscanf:PROC
EXTRN	__imp__fread:PROC
EXTRN	__imp__isdigit:PROC
EXTRN	__imp__strchr:PROC
EXTRN	__imp__isspace:PROC
EXTRN	__imp____stdio_common_vsprintf:PROC
EXTRN	__imp__fopen_s:PROC
EXTRN	__imp__strncmp:PROC
EXTRN	__imp____stdio_common_vsnprintf_s:PROC
EXTRN	__imp__isalpha:PROC
EXTRN	__imp__fseek:PROC
EXTRN	__imp__ferror:PROC
EXTRN	__imp__ftell:PROC
;	COMDAT ?_OptionsStorage@?1??__local_stdio_scanf_options@@9@4_KA
_BSS	SEGMENT
?_OptionsStorage@?1??__local_stdio_scanf_options@@9@4_KA DQ 01H DUP (?) ; `__local_stdio_scanf_options'::`2'::_OptionsStorage
_BSS	ENDS
;	COMDAT ??_R3XMLComment@tinyxml2@@8
rdata$r	SEGMENT
??_R3XMLComment@tinyxml2@@8 DD 00H			; tinyxml2::XMLComment::`RTTI Class Hierarchy Descriptor'
	DD	00H
	DD	02H
	DD	FLAT:??_R2XMLComment@tinyxml2@@8
rdata$r	ENDS
;	COMDAT ??_R4XMLVisitor@tinyxml2@@6B@
rdata$r	SEGMENT
??_R4XMLVisitor@tinyxml2@@6B@ DD 00H			; tinyxml2::XMLVisitor::`RTTI Complete Object Locator'
	DD	00H
	DD	00H
	DD	FLAT:??_R0?AVXMLVisitor@tinyxml2@@@8
	DD	FLAT:??_R3XMLVisitor@tinyxml2@@8
rdata$r	ENDS
;	COMDAT ??_R3XMLDeclaration@tinyxml2@@8
rdata$r	SEGMENT
??_R3XMLDeclaration@tinyxml2@@8 DD 00H			; tinyxml2::XMLDeclaration::`RTTI Class Hierarchy Descriptor'
	DD	00H
	DD	02H
	DD	FLAT:??_R2XMLDeclaration@tinyxml2@@8
rdata$r	ENDS
;	COMDAT ??_R0?AV?$MemPoolT@$0CE@@tinyxml2@@@8
data$r	SEGMENT
??_R0?AV?$MemPoolT@$0CE@@tinyxml2@@@8 DD FLAT:??_7type_info@@6B@ ; tinyxml2::MemPoolT<36> `RTTI Type Descriptor'
	DD	00H
	DB	'.?AV?$MemPoolT@$0CE@@tinyxml2@@', 00H
data$r	ENDS
;	COMDAT ?elementHeaderLen@?1??Identify@XMLDocument@tinyxml2@@QAEPADPADPAPAVXMLNode@3@@Z@4HB
CONST	SEGMENT
?elementHeaderLen@?1??Identify@XMLDocument@tinyxml2@@QAEPADPADPAPAVXMLNode@3@@Z@4HB DD 01H ; `tinyxml2::XMLDocument::Identify'::`2'::elementHeaderLen
CONST	ENDS
;	COMDAT ??_R1A@?0A@EA@XMLAttribute@tinyxml2@@8
rdata$r	SEGMENT
??_R1A@?0A@EA@XMLAttribute@tinyxml2@@8 DD FLAT:??_R0?AVXMLAttribute@tinyxml2@@@8 ; tinyxml2::XMLAttribute::`RTTI Base Class Descriptor at (0,-1,0,64)'
	DD	00H
	DD	00H
	DD	0ffffffffH
	DD	00H
	DD	040H
	DD	FLAT:??_R3XMLAttribute@tinyxml2@@8
rdata$r	ENDS
;	COMDAT ?cdataHeaderLen@?1??Identify@XMLDocument@tinyxml2@@QAEPADPADPAPAVXMLNode@3@@Z@4HB
CONST	SEGMENT
?cdataHeaderLen@?1??Identify@XMLDocument@tinyxml2@@QAEPADPADPAPAVXMLNode@3@@Z@4HB DD 09H ; `tinyxml2::XMLDocument::Identify'::`2'::cdataHeaderLen
CONST	ENDS
;	COMDAT ??_R4?$MemPoolT@$0DA@@tinyxml2@@6B@
rdata$r	SEGMENT
??_R4?$MemPoolT@$0DA@@tinyxml2@@6B@ DD 00H		; tinyxml2::MemPoolT<48>::`RTTI Complete Object Locator'
	DD	00H
	DD	00H
	DD	FLAT:??_R0?AV?$MemPoolT@$0DA@@tinyxml2@@@8
	DD	FLAT:??_R3?$MemPoolT@$0DA@@tinyxml2@@8
rdata$r	ENDS
;	COMDAT ??_R1A@?0A@EA@XMLDeclaration@tinyxml2@@8
rdata$r	SEGMENT
??_R1A@?0A@EA@XMLDeclaration@tinyxml2@@8 DD FLAT:??_R0?AVXMLDeclaration@tinyxml2@@@8 ; tinyxml2::XMLDeclaration::`RTTI Base Class Descriptor at (0,-1,0,64)'
	DD	01H
	DD	00H
	DD	0ffffffffH
	DD	00H
	DD	040H
	DD	FLAT:??_R3XMLDeclaration@tinyxml2@@8
rdata$r	ENDS
;	COMDAT ?LEN@?4??PrintError@XMLDocument@tinyxml2@@QBEXXZ@4HB
CONST	SEGMENT
?LEN@?4??PrintError@XMLDocument@tinyxml2@@QBEXXZ@4HB DD 014H ; `tinyxml2::XMLDocument::PrintError'::`5'::LEN
CONST	ENDS
;	COMDAT ??_7XMLUnknown@tinyxml2@@6B@
CONST	SEGMENT
??_7XMLUnknown@tinyxml2@@6B@ DD FLAT:??_R4XMLUnknown@tinyxml2@@6B@ ; tinyxml2::XMLUnknown::`vftable'
	DD	FLAT:?ToElement@XMLNode@tinyxml2@@UBEPBVXMLElement@2@XZ
	DD	FLAT:?ToElement@XMLNode@tinyxml2@@UAEPAVXMLElement@2@XZ
	DD	FLAT:?ToText@XMLNode@tinyxml2@@UBEPBVXMLText@2@XZ
	DD	FLAT:?ToText@XMLNode@tinyxml2@@UAEPAVXMLText@2@XZ
	DD	FLAT:?ToComment@XMLNode@tinyxml2@@UBEPBVXMLComment@2@XZ
	DD	FLAT:?ToComment@XMLNode@tinyxml2@@UAEPAVXMLComment@2@XZ
	DD	FLAT:?ToDocument@XMLNode@tinyxml2@@UBEPBVXMLDocument@2@XZ
	DD	FLAT:?ToDocument@XMLNode@tinyxml2@@UAEPAVXMLDocument@2@XZ
	DD	FLAT:?ToDeclaration@XMLNode@tinyxml2@@UBEPBVXMLDeclaration@2@XZ
	DD	FLAT:?ToDeclaration@XMLNode@tinyxml2@@UAEPAVXMLDeclaration@2@XZ
	DD	FLAT:?ToUnknown@XMLUnknown@tinyxml2@@UBEPBV12@XZ
	DD	FLAT:?ToUnknown@XMLUnknown@tinyxml2@@UAEPAV12@XZ
	DD	FLAT:?ShallowClone@XMLUnknown@tinyxml2@@UBEPAVXMLNode@2@PAVXMLDocument@2@@Z
	DD	FLAT:?ShallowEqual@XMLUnknown@tinyxml2@@UBE_NPBVXMLNode@2@@Z
	DD	FLAT:?Accept@XMLUnknown@tinyxml2@@UBE_NPAVXMLVisitor@2@@Z
	DD	FLAT:??_EXMLUnknown@tinyxml2@@MAEPAXI@Z
	DD	FLAT:?ParseDeep@XMLUnknown@tinyxml2@@MAEPADPADPAVStrPair@2@@Z
CONST	ENDS
;	COMDAT ??_R4XMLPrinter@tinyxml2@@6B@
rdata$r	SEGMENT
??_R4XMLPrinter@tinyxml2@@6B@ DD 00H			; tinyxml2::XMLPrinter::`RTTI Complete Object Locator'
	DD	00H
	DD	00H
	DD	FLAT:??_R0?AVXMLPrinter@tinyxml2@@@8
	DD	FLAT:??_R3XMLPrinter@tinyxml2@@8
rdata$r	ENDS
;	COMDAT ??_R0?AVXMLAttribute@tinyxml2@@@8
data$r	SEGMENT
??_R0?AVXMLAttribute@tinyxml2@@@8 DD FLAT:??_7type_info@@6B@ ; tinyxml2::XMLAttribute `RTTI Type Descriptor'
	DD	00H
	DB	'.?AVXMLAttribute@tinyxml2@@', 00H
data$r	ENDS
;	COMDAT ??_R3MemPool@tinyxml2@@8
rdata$r	SEGMENT
??_R3MemPool@tinyxml2@@8 DD 00H				; tinyxml2::MemPool::`RTTI Class Hierarchy Descriptor'
	DD	00H
	DD	01H
	DD	FLAT:??_R2MemPool@tinyxml2@@8
rdata$r	ENDS
;	COMDAT ??_R2XMLNode@tinyxml2@@8
rdata$r	SEGMENT
??_R2XMLNode@tinyxml2@@8 DD FLAT:??_R1A@?0A@EA@XMLNode@tinyxml2@@8 ; tinyxml2::XMLNode::`RTTI Base Class Array'
rdata$r	ENDS
;	COMDAT ?dtdHeaderLen@?1??Identify@XMLDocument@tinyxml2@@QAEPADPADPAPAVXMLNode@3@@Z@4HB
CONST	SEGMENT
?dtdHeaderLen@?1??Identify@XMLDocument@tinyxml2@@QAEPADPADPAPAVXMLNode@3@@Z@4HB DD 02H ; `tinyxml2::XMLDocument::Identify'::`2'::dtdHeaderLen
CONST	ENDS
;	COMDAT ??_R3?$MemPoolT@$0DA@@tinyxml2@@8
rdata$r	SEGMENT
??_R3?$MemPoolT@$0DA@@tinyxml2@@8 DD 00H		; tinyxml2::MemPoolT<48>::`RTTI Class Hierarchy Descriptor'
	DD	00H
	DD	02H
	DD	FLAT:??_R2?$MemPoolT@$0DA@@tinyxml2@@8
rdata$r	ENDS
;	COMDAT ??_R1A@?0A@EA@XMLVisitor@tinyxml2@@8
rdata$r	SEGMENT
??_R1A@?0A@EA@XMLVisitor@tinyxml2@@8 DD FLAT:??_R0?AVXMLVisitor@tinyxml2@@@8 ; tinyxml2::XMLVisitor::`RTTI Base Class Descriptor at (0,-1,0,64)'
	DD	00H
	DD	00H
	DD	0ffffffffH
	DD	00H
	DD	040H
	DD	FLAT:??_R3XMLVisitor@tinyxml2@@8
rdata$r	ENDS
;	COMDAT ??_R2MemPool@tinyxml2@@8
rdata$r	SEGMENT
??_R2MemPool@tinyxml2@@8 DD FLAT:??_R1A@?0A@EA@MemPool@tinyxml2@@8 ; tinyxml2::MemPool::`RTTI Base Class Array'
rdata$r	ENDS
;	COMDAT ??_R2?$MemPoolT@$0CM@@tinyxml2@@8
rdata$r	SEGMENT
??_R2?$MemPoolT@$0CM@@tinyxml2@@8 DD FLAT:??_R1A@?0A@EA@?$MemPoolT@$0CM@@tinyxml2@@8 ; tinyxml2::MemPoolT<44>::`RTTI Base Class Array'
	DD	FLAT:??_R1A@?0A@EA@MemPool@tinyxml2@@8
rdata$r	ENDS
;	COMDAT ?dtdHeader@?1??Identify@XMLDocument@tinyxml2@@QAEPADPADPAPAVXMLNode@3@@Z@4PBDB
_DATA	SEGMENT
?dtdHeader@?1??Identify@XMLDocument@tinyxml2@@QAEPADPADPAPAVXMLNode@3@@Z@4PBDB DD FLAT:$SG4294882684 ; `tinyxml2::XMLDocument::Identify'::`2'::dtdHeader
_DATA	ENDS
;	COMDAT ??_R4XMLNode@tinyxml2@@6B@
rdata$r	SEGMENT
??_R4XMLNode@tinyxml2@@6B@ DD 00H			; tinyxml2::XMLNode::`RTTI Complete Object Locator'
	DD	00H
	DD	00H
	DD	FLAT:??_R0?AVXMLNode@tinyxml2@@@8
	DD	FLAT:??_R3XMLNode@tinyxml2@@8
rdata$r	ENDS
;	COMDAT ?bom@?4??PushHeader@XMLPrinter@tinyxml2@@QAEX_N0@Z@4QBEB
CONST	SEGMENT
?bom@?4??PushHeader@XMLPrinter@tinyxml2@@QAEX_N0@Z@4QBEB DB 0efH ; `tinyxml2::XMLPrinter::PushHeader'::`5'::bom
	DB	0bbH
	DB	0bfH
	DB	00H
CONST	ENDS
;	COMDAT ??_R0?AVXMLDocument@tinyxml2@@@8
data$r	SEGMENT
??_R0?AVXMLDocument@tinyxml2@@@8 DD FLAT:??_7type_info@@6B@ ; tinyxml2::XMLDocument `RTTI Type Descriptor'
	DD	00H
	DB	'.?AVXMLDocument@tinyxml2@@', 00H
data$r	ENDS
;	COMDAT ??_R0?AVMemPool@tinyxml2@@@8
data$r	SEGMENT
??_R0?AVMemPool@tinyxml2@@@8 DD FLAT:??_7type_info@@6B@	; tinyxml2::MemPool `RTTI Type Descriptor'
	DD	00H
	DB	'.?AVMemPool@tinyxml2@@', 00H
data$r	ENDS
;	COMDAT ??_7XMLDocument@tinyxml2@@6B@
CONST	SEGMENT
??_7XMLDocument@tinyxml2@@6B@ DD FLAT:??_R4XMLDocument@tinyxml2@@6B@ ; tinyxml2::XMLDocument::`vftable'
	DD	FLAT:?ToElement@XMLNode@tinyxml2@@UBEPBVXMLElement@2@XZ
	DD	FLAT:?ToElement@XMLNode@tinyxml2@@UAEPAVXMLElement@2@XZ
	DD	FLAT:?ToText@XMLNode@tinyxml2@@UBEPBVXMLText@2@XZ
	DD	FLAT:?ToText@XMLNode@tinyxml2@@UAEPAVXMLText@2@XZ
	DD	FLAT:?ToComment@XMLNode@tinyxml2@@UBEPBVXMLComment@2@XZ
	DD	FLAT:?ToComment@XMLNode@tinyxml2@@UAEPAVXMLComment@2@XZ
	DD	FLAT:?ToDocument@XMLDocument@tinyxml2@@UBEPBV12@XZ
	DD	FLAT:?ToDocument@XMLDocument@tinyxml2@@UAEPAV12@XZ
	DD	FLAT:?ToDeclaration@XMLNode@tinyxml2@@UBEPBVXMLDeclaration@2@XZ
	DD	FLAT:?ToDeclaration@XMLNode@tinyxml2@@UAEPAVXMLDeclaration@2@XZ
	DD	FLAT:?ToUnknown@XMLNode@tinyxml2@@UBEPBVXMLUnknown@2@XZ
	DD	FLAT:?ToUnknown@XMLNode@tinyxml2@@UAEPAVXMLUnknown@2@XZ
	DD	FLAT:?ShallowClone@XMLDocument@tinyxml2@@UBEPAVXMLNode@2@PAV12@@Z
	DD	FLAT:?ShallowEqual@XMLDocument@tinyxml2@@UBE_NPBVXMLNode@2@@Z
	DD	FLAT:?Accept@XMLDocument@tinyxml2@@UBE_NPAVXMLVisitor@2@@Z
	DD	FLAT:??_EXMLDocument@tinyxml2@@UAEPAXI@Z
	DD	FLAT:?ParseDeep@XMLNode@tinyxml2@@MAEPADPADPAVStrPair@2@@Z
CONST	ENDS
;	COMDAT ??_R3XMLPrinter@tinyxml2@@8
rdata$r	SEGMENT
??_R3XMLPrinter@tinyxml2@@8 DD 00H			; tinyxml2::XMLPrinter::`RTTI Class Hierarchy Descriptor'
	DD	00H
	DD	02H
	DD	FLAT:??_R2XMLPrinter@tinyxml2@@8
rdata$r	ENDS
;	COMDAT ??_7?$MemPoolT@$0CE@@tinyxml2@@6B@
CONST	SEGMENT
??_7?$MemPoolT@$0CE@@tinyxml2@@6B@ DD FLAT:??_R4?$MemPoolT@$0CE@@tinyxml2@@6B@ ; tinyxml2::MemPoolT<36>::`vftable'
	DD	FLAT:??_E?$MemPoolT@$0CE@@tinyxml2@@UAEPAXI@Z
	DD	FLAT:?ItemSize@?$MemPoolT@$0CE@@tinyxml2@@UBEHXZ
	DD	FLAT:?Alloc@?$MemPoolT@$0CE@@tinyxml2@@UAEPAXXZ
	DD	FLAT:?Free@?$MemPoolT@$0CE@@tinyxml2@@UAEXPAX@Z
	DD	FLAT:?SetTracked@?$MemPoolT@$0CE@@tinyxml2@@UAEXXZ
	DD	FLAT:?Clear@?$MemPoolT@$0CE@@tinyxml2@@UAEXXZ
CONST	ENDS
;	COMDAT ??_R1A@?0A@EA@XMLNode@tinyxml2@@8
rdata$r	SEGMENT
??_R1A@?0A@EA@XMLNode@tinyxml2@@8 DD FLAT:??_R0?AVXMLNode@tinyxml2@@@8 ; tinyxml2::XMLNode::`RTTI Base Class Descriptor at (0,-1,0,64)'
	DD	00H
	DD	00H
	DD	0ffffffffH
	DD	00H
	DD	040H
	DD	FLAT:??_R3XMLNode@tinyxml2@@8
rdata$r	ENDS
;	COMDAT ??_R3XMLNode@tinyxml2@@8
rdata$r	SEGMENT
??_R3XMLNode@tinyxml2@@8 DD 00H				; tinyxml2::XMLNode::`RTTI Class Hierarchy Descriptor'
	DD	00H
	DD	01H
	DD	FLAT:??_R2XMLNode@tinyxml2@@8
rdata$r	ENDS
;	COMDAT ?xmlHeaderLen@?1??Identify@XMLDocument@tinyxml2@@QAEPADPADPAPAVXMLNode@3@@Z@4HB
CONST	SEGMENT
?xmlHeaderLen@?1??Identify@XMLDocument@tinyxml2@@QAEPADPADPAPAVXMLNode@3@@Z@4HB DD 02H ; `tinyxml2::XMLDocument::Identify'::`2'::xmlHeaderLen
CONST	ENDS
;	COMDAT ??_R1A@?0A@EA@?$MemPoolT@$0CE@@tinyxml2@@8
rdata$r	SEGMENT
??_R1A@?0A@EA@?$MemPoolT@$0CE@@tinyxml2@@8 DD FLAT:??_R0?AV?$MemPoolT@$0CE@@tinyxml2@@@8 ; tinyxml2::MemPoolT<36>::`RTTI Base Class Descriptor at (0,-1,0,64)'
	DD	01H
	DD	00H
	DD	0ffffffffH
	DD	00H
	DD	040H
	DD	FLAT:??_R3?$MemPoolT@$0CE@@tinyxml2@@8
rdata$r	ENDS
;	COMDAT ??_R1A@?0A@EA@?$MemPoolT@$0DA@@tinyxml2@@8
rdata$r	SEGMENT
??_R1A@?0A@EA@?$MemPoolT@$0DA@@tinyxml2@@8 DD FLAT:??_R0?AV?$MemPoolT@$0DA@@tinyxml2@@@8 ; tinyxml2::MemPoolT<48>::`RTTI Base Class Descriptor at (0,-1,0,64)'
	DD	01H
	DD	00H
	DD	0ffffffffH
	DD	00H
	DD	040H
	DD	FLAT:??_R3?$MemPoolT@$0DA@@tinyxml2@@8
rdata$r	ENDS
;	COMDAT ??_R1A@?0A@EA@XMLPrinter@tinyxml2@@8
rdata$r	SEGMENT
??_R1A@?0A@EA@XMLPrinter@tinyxml2@@8 DD FLAT:??_R0?AVXMLPrinter@tinyxml2@@@8 ; tinyxml2::XMLPrinter::`RTTI Base Class Descriptor at (0,-1,0,64)'
	DD	01H
	DD	00H
	DD	0ffffffffH
	DD	00H
	DD	040H
	DD	FLAT:??_R3XMLPrinter@tinyxml2@@8
rdata$r	ENDS
;	COMDAT ??_R2XMLElement@tinyxml2@@8
rdata$r	SEGMENT
??_R2XMLElement@tinyxml2@@8 DD FLAT:??_R1A@?0A@EA@XMLElement@tinyxml2@@8 ; tinyxml2::XMLElement::`RTTI Base Class Array'
	DD	FLAT:??_R1A@?0A@EA@XMLNode@tinyxml2@@8
rdata$r	ENDS
;	COMDAT ??_R3XMLDocument@tinyxml2@@8
rdata$r	SEGMENT
??_R3XMLDocument@tinyxml2@@8 DD 00H			; tinyxml2::XMLDocument::`RTTI Class Hierarchy Descriptor'
	DD	00H
	DD	02H
	DD	FLAT:??_R2XMLDocument@tinyxml2@@8
rdata$r	ENDS
;	COMDAT ??_7XMLDeclaration@tinyxml2@@6B@
CONST	SEGMENT
??_7XMLDeclaration@tinyxml2@@6B@ DD FLAT:??_R4XMLDeclaration@tinyxml2@@6B@ ; tinyxml2::XMLDeclaration::`vftable'
	DD	FLAT:?ToElement@XMLNode@tinyxml2@@UBEPBVXMLElement@2@XZ
	DD	FLAT:?ToElement@XMLNode@tinyxml2@@UAEPAVXMLElement@2@XZ
	DD	FLAT:?ToText@XMLNode@tinyxml2@@UBEPBVXMLText@2@XZ
	DD	FLAT:?ToText@XMLNode@tinyxml2@@UAEPAVXMLText@2@XZ
	DD	FLAT:?ToComment@XMLNode@tinyxml2@@UBEPBVXMLComment@2@XZ
	DD	FLAT:?ToComment@XMLNode@tinyxml2@@UAEPAVXMLComment@2@XZ
	DD	FLAT:?ToDocument@XMLNode@tinyxml2@@UBEPBVXMLDocument@2@XZ
	DD	FLAT:?ToDocument@XMLNode@tinyxml2@@UAEPAVXMLDocument@2@XZ
	DD	FLAT:?ToDeclaration@XMLDeclaration@tinyxml2@@UBEPBV12@XZ
	DD	FLAT:?ToDeclaration@XMLDeclaration@tinyxml2@@UAEPAV12@XZ
	DD	FLAT:?ToUnknown@XMLNode@tinyxml2@@UBEPBVXMLUnknown@2@XZ
	DD	FLAT:?ToUnknown@XMLNode@tinyxml2@@UAEPAVXMLUnknown@2@XZ
	DD	FLAT:?ShallowClone@XMLDeclaration@tinyxml2@@UBEPAVXMLNode@2@PAVXMLDocument@2@@Z
	DD	FLAT:?ShallowEqual@XMLDeclaration@tinyxml2@@UBE_NPBVXMLNode@2@@Z
	DD	FLAT:?Accept@XMLDeclaration@tinyxml2@@UBE_NPAVXMLVisitor@2@@Z
	DD	FLAT:??_EXMLDeclaration@tinyxml2@@MAEPAXI@Z
	DD	FLAT:?ParseDeep@XMLDeclaration@tinyxml2@@MAEPADPADPAVStrPair@2@@Z
CONST	ENDS
;	COMDAT ??_R4XMLText@tinyxml2@@6B@
rdata$r	SEGMENT
??_R4XMLText@tinyxml2@@6B@ DD 00H			; tinyxml2::XMLText::`RTTI Complete Object Locator'
	DD	00H
	DD	00H
	DD	FLAT:??_R0?AVXMLText@tinyxml2@@@8
	DD	FLAT:??_R3XMLText@tinyxml2@@8
rdata$r	ENDS
;	COMDAT ?xmlHeader@?1??Identify@XMLDocument@tinyxml2@@QAEPADPADPAPAVXMLNode@3@@Z@4PBDB
_DATA	SEGMENT
?xmlHeader@?1??Identify@XMLDocument@tinyxml2@@QAEPADPADPAPAVXMLNode@3@@Z@4PBDB DD FLAT:$SG4294882687 ; `tinyxml2::XMLDocument::Identify'::`2'::xmlHeader
_DATA	ENDS
;	COMDAT ??_R2XMLAttribute@tinyxml2@@8
rdata$r	SEGMENT
??_R2XMLAttribute@tinyxml2@@8 DD FLAT:??_R1A@?0A@EA@XMLAttribute@tinyxml2@@8 ; tinyxml2::XMLAttribute::`RTTI Base Class Array'
rdata$r	ENDS
;	COMDAT ??_R2?$MemPoolT@$0DA@@tinyxml2@@8
rdata$r	SEGMENT
??_R2?$MemPoolT@$0DA@@tinyxml2@@8 DD FLAT:??_R1A@?0A@EA@?$MemPoolT@$0DA@@tinyxml2@@8 ; tinyxml2::MemPoolT<48>::`RTTI Base Class Array'
	DD	FLAT:??_R1A@?0A@EA@MemPool@tinyxml2@@8
rdata$r	ENDS
;	COMDAT ??_R2XMLDocument@tinyxml2@@8
rdata$r	SEGMENT
??_R2XMLDocument@tinyxml2@@8 DD FLAT:??_R1A@?0A@EA@XMLDocument@tinyxml2@@8 ; tinyxml2::XMLDocument::`RTTI Base Class Array'
	DD	FLAT:??_R1A@?0A@EA@XMLNode@tinyxml2@@8
rdata$r	ENDS
;	COMDAT ??_R1A@?0A@EA@XMLText@tinyxml2@@8
rdata$r	SEGMENT
??_R1A@?0A@EA@XMLText@tinyxml2@@8 DD FLAT:??_R0?AVXMLText@tinyxml2@@@8 ; tinyxml2::XMLText::`RTTI Base Class Descriptor at (0,-1,0,64)'
	DD	01H
	DD	00H
	DD	0ffffffffH
	DD	00H
	DD	040H
	DD	FLAT:??_R3XMLText@tinyxml2@@8
rdata$r	ENDS
;	COMDAT ??_R2?$MemPoolT@$0CE@@tinyxml2@@8
rdata$r	SEGMENT
??_R2?$MemPoolT@$0CE@@tinyxml2@@8 DD FLAT:??_R1A@?0A@EA@?$MemPoolT@$0CE@@tinyxml2@@8 ; tinyxml2::MemPoolT<36>::`RTTI Base Class Array'
	DD	FLAT:??_R1A@?0A@EA@MemPool@tinyxml2@@8
rdata$r	ENDS
;	COMDAT ??_7XMLNode@tinyxml2@@6B@
CONST	SEGMENT
??_7XMLNode@tinyxml2@@6B@ DD FLAT:??_R4XMLNode@tinyxml2@@6B@ ; tinyxml2::XMLNode::`vftable'
	DD	FLAT:?ToElement@XMLNode@tinyxml2@@UBEPBVXMLElement@2@XZ
	DD	FLAT:?ToElement@XMLNode@tinyxml2@@UAEPAVXMLElement@2@XZ
	DD	FLAT:?ToText@XMLNode@tinyxml2@@UBEPBVXMLText@2@XZ
	DD	FLAT:?ToText@XMLNode@tinyxml2@@UAEPAVXMLText@2@XZ
	DD	FLAT:?ToComment@XMLNode@tinyxml2@@UBEPBVXMLComment@2@XZ
	DD	FLAT:?ToComment@XMLNode@tinyxml2@@UAEPAVXMLComment@2@XZ
	DD	FLAT:?ToDocument@XMLNode@tinyxml2@@UBEPBVXMLDocument@2@XZ
	DD	FLAT:?ToDocument@XMLNode@tinyxml2@@UAEPAVXMLDocument@2@XZ
	DD	FLAT:?ToDeclaration@XMLNode@tinyxml2@@UBEPBVXMLDeclaration@2@XZ
	DD	FLAT:?ToDeclaration@XMLNode@tinyxml2@@UAEPAVXMLDeclaration@2@XZ
	DD	FLAT:?ToUnknown@XMLNode@tinyxml2@@UBEPBVXMLUnknown@2@XZ
	DD	FLAT:?ToUnknown@XMLNode@tinyxml2@@UAEPAVXMLUnknown@2@XZ
	DD	FLAT:__purecall
	DD	FLAT:__purecall
	DD	FLAT:__purecall
	DD	FLAT:??_EXMLNode@tinyxml2@@MAEPAXI@Z
	DD	FLAT:?ParseDeep@XMLNode@tinyxml2@@MAEPADPADPAVStrPair@2@@Z
CONST	ENDS
;	COMDAT ??_R4XMLElement@tinyxml2@@6B@
rdata$r	SEGMENT
??_R4XMLElement@tinyxml2@@6B@ DD 00H			; tinyxml2::XMLElement::`RTTI Complete Object Locator'
	DD	00H
	DD	00H
	DD	FLAT:??_R0?AVXMLElement@tinyxml2@@@8
	DD	FLAT:??_R3XMLElement@tinyxml2@@8
rdata$r	ENDS
;	COMDAT ??_R2XMLUnknown@tinyxml2@@8
rdata$r	SEGMENT
??_R2XMLUnknown@tinyxml2@@8 DD FLAT:??_R1A@?0A@EA@XMLUnknown@tinyxml2@@8 ; tinyxml2::XMLUnknown::`RTTI Base Class Array'
	DD	FLAT:??_R1A@?0A@EA@XMLNode@tinyxml2@@8
rdata$r	ENDS
;	COMDAT ??_R4?$MemPoolT@$0CM@@tinyxml2@@6B@
rdata$r	SEGMENT
??_R4?$MemPoolT@$0CM@@tinyxml2@@6B@ DD 00H		; tinyxml2::MemPoolT<44>::`RTTI Complete Object Locator'
	DD	00H
	DD	00H
	DD	FLAT:??_R0?AV?$MemPoolT@$0CM@@tinyxml2@@@8
	DD	FLAT:??_R3?$MemPoolT@$0CM@@tinyxml2@@8
rdata$r	ENDS
;	COMDAT ??_R0?AV?$MemPoolT@$0DE@@tinyxml2@@@8
data$r	SEGMENT
??_R0?AV?$MemPoolT@$0DE@@tinyxml2@@@8 DD FLAT:??_7type_info@@6B@ ; tinyxml2::MemPoolT<52> `RTTI Type Descriptor'
	DD	00H
	DB	'.?AV?$MemPoolT@$0DE@@tinyxml2@@', 00H
data$r	ENDS
;	COMDAT ??_R0?AVXMLElement@tinyxml2@@@8
data$r	SEGMENT
??_R0?AVXMLElement@tinyxml2@@@8 DD FLAT:??_7type_info@@6B@ ; tinyxml2::XMLElement `RTTI Type Descriptor'
	DD	00H
	DB	'.?AVXMLElement@tinyxml2@@', 00H
data$r	ENDS
;	COMDAT ?commentHeaderLen@?1??Identify@XMLDocument@tinyxml2@@QAEPADPADPAPAVXMLNode@3@@Z@4HB
CONST	SEGMENT
?commentHeaderLen@?1??Identify@XMLDocument@tinyxml2@@QAEPADPADPAPAVXMLNode@3@@Z@4HB DD 04H ; `tinyxml2::XMLDocument::Identify'::`2'::commentHeaderLen
CONST	ENDS
;	COMDAT ??_R4?$MemPoolT@$0DE@@tinyxml2@@6B@
rdata$r	SEGMENT
??_R4?$MemPoolT@$0DE@@tinyxml2@@6B@ DD 00H		; tinyxml2::MemPoolT<52>::`RTTI Complete Object Locator'
	DD	00H
	DD	00H
	DD	FLAT:??_R0?AV?$MemPoolT@$0DE@@tinyxml2@@@8
	DD	FLAT:??_R3?$MemPoolT@$0DE@@tinyxml2@@8
rdata$r	ENDS
;	COMDAT ?SEMICOLON@?4??GetCharacterRef@XMLUtil@tinyxml2@@SAPBDPBDPADPAH@Z@4DB
CONST	SEGMENT
?SEMICOLON@?4??GetCharacterRef@XMLUtil@tinyxml2@@SAPBDPBDPADPAH@Z@4DB DB 03bH ; `tinyxml2::XMLUtil::GetCharacterRef'::`5'::SEMICOLON
CONST	ENDS
;	COMDAT ??_R3?$MemPoolT@$0DE@@tinyxml2@@8
rdata$r	SEGMENT
??_R3?$MemPoolT@$0DE@@tinyxml2@@8 DD 00H		; tinyxml2::MemPoolT<52>::`RTTI Class Hierarchy Descriptor'
	DD	00H
	DD	02H
	DD	FLAT:??_R2?$MemPoolT@$0DE@@tinyxml2@@8
rdata$r	ENDS
;	COMDAT ??_R1A@?0A@EA@XMLComment@tinyxml2@@8
rdata$r	SEGMENT
??_R1A@?0A@EA@XMLComment@tinyxml2@@8 DD FLAT:??_R0?AVXMLComment@tinyxml2@@@8 ; tinyxml2::XMLComment::`RTTI Base Class Descriptor at (0,-1,0,64)'
	DD	01H
	DD	00H
	DD	0ffffffffH
	DD	00H
	DD	040H
	DD	FLAT:??_R3XMLComment@tinyxml2@@8
rdata$r	ENDS
;	COMDAT ?elementHeader@?1??Identify@XMLDocument@tinyxml2@@QAEPADPADPAPAVXMLNode@3@@Z@4PBDB
_DATA	SEGMENT
?elementHeader@?1??Identify@XMLDocument@tinyxml2@@QAEPADPADPAPAVXMLNode@3@@Z@4PBDB DD FLAT:$SG4294882683 ; `tinyxml2::XMLDocument::Identify'::`2'::elementHeader
_DATA	ENDS
;	COMDAT ??_R2?$MemPoolT@$0DE@@tinyxml2@@8
rdata$r	SEGMENT
??_R2?$MemPoolT@$0DE@@tinyxml2@@8 DD FLAT:??_R1A@?0A@EA@?$MemPoolT@$0DE@@tinyxml2@@8 ; tinyxml2::MemPoolT<52>::`RTTI Base Class Array'
	DD	FLAT:??_R1A@?0A@EA@MemPool@tinyxml2@@8
rdata$r	ENDS
;	COMDAT ??_R3XMLText@tinyxml2@@8
rdata$r	SEGMENT
??_R3XMLText@tinyxml2@@8 DD 00H				; tinyxml2::XMLText::`RTTI Class Hierarchy Descriptor'
	DD	00H
	DD	02H
	DD	FLAT:??_R2XMLText@tinyxml2@@8
rdata$r	ENDS
;	COMDAT ??_7XMLAttribute@tinyxml2@@6B@
CONST	SEGMENT
??_7XMLAttribute@tinyxml2@@6B@ DD FLAT:??_R4XMLAttribute@tinyxml2@@6B@ ; tinyxml2::XMLAttribute::`vftable'
	DD	FLAT:??_EXMLAttribute@tinyxml2@@EAEPAXI@Z
CONST	ENDS
;	COMDAT ?commentHeader@?1??Identify@XMLDocument@tinyxml2@@QAEPADPADPAPAVXMLNode@3@@Z@4PBDB
_DATA	SEGMENT
?commentHeader@?1??Identify@XMLDocument@tinyxml2@@QAEPADPADPAPAVXMLNode@3@@Z@4PBDB DD FLAT:$SG4294882686 ; `tinyxml2::XMLDocument::Identify'::`2'::commentHeader
_DATA	ENDS
;	COMDAT ??_R0?AVXMLNode@tinyxml2@@@8
data$r	SEGMENT
??_R0?AVXMLNode@tinyxml2@@@8 DD FLAT:??_7type_info@@6B@	; tinyxml2::XMLNode `RTTI Type Descriptor'
	DD	00H
	DB	'.?AVXMLNode@tinyxml2@@', 00H
data$r	ENDS
;	COMDAT ??_R2XMLDeclaration@tinyxml2@@8
rdata$r	SEGMENT
??_R2XMLDeclaration@tinyxml2@@8 DD FLAT:??_R1A@?0A@EA@XMLDeclaration@tinyxml2@@8 ; tinyxml2::XMLDeclaration::`RTTI Base Class Array'
	DD	FLAT:??_R1A@?0A@EA@XMLNode@tinyxml2@@8
rdata$r	ENDS
;	COMDAT ??_R3?$MemPoolT@$0CE@@tinyxml2@@8
rdata$r	SEGMENT
??_R3?$MemPoolT@$0CE@@tinyxml2@@8 DD 00H		; tinyxml2::MemPoolT<36>::`RTTI Class Hierarchy Descriptor'
	DD	00H
	DD	02H
	DD	FLAT:??_R2?$MemPoolT@$0CE@@tinyxml2@@8
rdata$r	ENDS
;	COMDAT ??_R0?AVXMLDeclaration@tinyxml2@@@8
data$r	SEGMENT
??_R0?AVXMLDeclaration@tinyxml2@@@8 DD FLAT:??_7type_info@@6B@ ; tinyxml2::XMLDeclaration `RTTI Type Descriptor'
	DD	00H
	DB	'.?AVXMLDeclaration@tinyxml2@@', 00H
data$r	ENDS
;	COMDAT ??_R0?AVXMLUnknown@tinyxml2@@@8
data$r	SEGMENT
??_R0?AVXMLUnknown@tinyxml2@@@8 DD FLAT:??_7type_info@@6B@ ; tinyxml2::XMLUnknown `RTTI Type Descriptor'
	DD	00H
	DB	'.?AVXMLUnknown@tinyxml2@@', 00H
data$r	ENDS
;	COMDAT ??_R2XMLComment@tinyxml2@@8
rdata$r	SEGMENT
??_R2XMLComment@tinyxml2@@8 DD FLAT:??_R1A@?0A@EA@XMLComment@tinyxml2@@8 ; tinyxml2::XMLComment::`RTTI Base Class Array'
	DD	FLAT:??_R1A@?0A@EA@XMLNode@tinyxml2@@8
rdata$r	ENDS
;	COMDAT ??_R3XMLElement@tinyxml2@@8
rdata$r	SEGMENT
??_R3XMLElement@tinyxml2@@8 DD 00H			; tinyxml2::XMLElement::`RTTI Class Hierarchy Descriptor'
	DD	00H
	DD	02H
	DD	FLAT:??_R2XMLElement@tinyxml2@@8
rdata$r	ENDS
;	COMDAT ??_R1A@?0A@EA@XMLDocument@tinyxml2@@8
rdata$r	SEGMENT
??_R1A@?0A@EA@XMLDocument@tinyxml2@@8 DD FLAT:??_R0?AVXMLDocument@tinyxml2@@@8 ; tinyxml2::XMLDocument::`RTTI Base Class Descriptor at (0,-1,0,64)'
	DD	01H
	DD	00H
	DD	0ffffffffH
	DD	00H
	DD	040H
	DD	FLAT:??_R3XMLDocument@tinyxml2@@8
rdata$r	ENDS
;	COMDAT ??_R0?AVXMLComment@tinyxml2@@@8
data$r	SEGMENT
??_R0?AVXMLComment@tinyxml2@@@8 DD FLAT:??_7type_info@@6B@ ; tinyxml2::XMLComment `RTTI Type Descriptor'
	DD	00H
	DB	'.?AVXMLComment@tinyxml2@@', 00H
data$r	ENDS
;	COMDAT ??_R4XMLUnknown@tinyxml2@@6B@
rdata$r	SEGMENT
??_R4XMLUnknown@tinyxml2@@6B@ DD 00H			; tinyxml2::XMLUnknown::`RTTI Complete Object Locator'
	DD	00H
	DD	00H
	DD	FLAT:??_R0?AVXMLUnknown@tinyxml2@@@8
	DD	FLAT:??_R3XMLUnknown@tinyxml2@@8
rdata$r	ENDS
;	COMDAT ??_R3XMLUnknown@tinyxml2@@8
rdata$r	SEGMENT
??_R3XMLUnknown@tinyxml2@@8 DD 00H			; tinyxml2::XMLUnknown::`RTTI Class Hierarchy Descriptor'
	DD	00H
	DD	02H
	DD	FLAT:??_R2XMLUnknown@tinyxml2@@8
rdata$r	ENDS
;	COMDAT ??_R0?AV?$MemPoolT@$0CM@@tinyxml2@@@8
data$r	SEGMENT
??_R0?AV?$MemPoolT@$0CM@@tinyxml2@@@8 DD FLAT:??_7type_info@@6B@ ; tinyxml2::MemPoolT<44> `RTTI Type Descriptor'
	DD	00H
	DB	'.?AV?$MemPoolT@$0CM@@tinyxml2@@', 00H
data$r	ENDS
;	COMDAT ??_7MemPool@tinyxml2@@6B@
CONST	SEGMENT
??_7MemPool@tinyxml2@@6B@ DD FLAT:??_R4MemPool@tinyxml2@@6B@ ; tinyxml2::MemPool::`vftable'
	DD	FLAT:??_EMemPool@tinyxml2@@UAEPAXI@Z
	DD	FLAT:__purecall
	DD	FLAT:__purecall
	DD	FLAT:__purecall
	DD	FLAT:__purecall
	DD	FLAT:__purecall
CONST	ENDS
;	COMDAT ??_R1A@?0A@EA@MemPool@tinyxml2@@8
rdata$r	SEGMENT
??_R1A@?0A@EA@MemPool@tinyxml2@@8 DD FLAT:??_R0?AVMemPool@tinyxml2@@@8 ; tinyxml2::MemPool::`RTTI Base Class Descriptor at (0,-1,0,64)'
	DD	00H
	DD	00H
	DD	0ffffffffH
	DD	00H
	DD	040H
	DD	FLAT:??_R3MemPool@tinyxml2@@8
rdata$r	ENDS
;	COMDAT ??_7XMLElement@tinyxml2@@6B@
CONST	SEGMENT
??_7XMLElement@tinyxml2@@6B@ DD FLAT:??_R4XMLElement@tinyxml2@@6B@ ; tinyxml2::XMLElement::`vftable'
	DD	FLAT:?ToElement@XMLElement@tinyxml2@@UBEPBV12@XZ
	DD	FLAT:?ToElement@XMLElement@tinyxml2@@UAEPAV12@XZ
	DD	FLAT:?ToText@XMLNode@tinyxml2@@UBEPBVXMLText@2@XZ
	DD	FLAT:?ToText@XMLNode@tinyxml2@@UAEPAVXMLText@2@XZ
	DD	FLAT:?ToComment@XMLNode@tinyxml2@@UBEPBVXMLComment@2@XZ
	DD	FLAT:?ToComment@XMLNode@tinyxml2@@UAEPAVXMLComment@2@XZ
	DD	FLAT:?ToDocument@XMLNode@tinyxml2@@UBEPBVXMLDocument@2@XZ
	DD	FLAT:?ToDocument@XMLNode@tinyxml2@@UAEPAVXMLDocument@2@XZ
	DD	FLAT:?ToDeclaration@XMLNode@tinyxml2@@UBEPBVXMLDeclaration@2@XZ
	DD	FLAT:?ToDeclaration@XMLNode@tinyxml2@@UAEPAVXMLDeclaration@2@XZ
	DD	FLAT:?ToUnknown@XMLNode@tinyxml2@@UBEPBVXMLUnknown@2@XZ
	DD	FLAT:?ToUnknown@XMLNode@tinyxml2@@UAEPAVXMLUnknown@2@XZ
	DD	FLAT:?ShallowClone@XMLElement@tinyxml2@@UBEPAVXMLNode@2@PAVXMLDocument@2@@Z
	DD	FLAT:?ShallowEqual@XMLElement@tinyxml2@@UBE_NPBVXMLNode@2@@Z
	DD	FLAT:?Accept@XMLElement@tinyxml2@@UBE_NPAVXMLVisitor@2@@Z
	DD	FLAT:??_EXMLElement@tinyxml2@@EAEPAXI@Z
	DD	FLAT:?ParseDeep@XMLElement@tinyxml2@@MAEPADPADPAVStrPair@2@@Z
CONST	ENDS
;	COMDAT ??_R4XMLDeclaration@tinyxml2@@6B@
rdata$r	SEGMENT
??_R4XMLDeclaration@tinyxml2@@6B@ DD 00H		; tinyxml2::XMLDeclaration::`RTTI Complete Object Locator'
	DD	00H
	DD	00H
	DD	FLAT:??_R0?AVXMLDeclaration@tinyxml2@@@8
	DD	FLAT:??_R3XMLDeclaration@tinyxml2@@8
rdata$r	ENDS
;	COMDAT ??_R0?AVXMLPrinter@tinyxml2@@@8
data$r	SEGMENT
??_R0?AVXMLPrinter@tinyxml2@@@8 DD FLAT:??_7type_info@@6B@ ; tinyxml2::XMLPrinter `RTTI Type Descriptor'
	DD	00H
	DB	'.?AVXMLPrinter@tinyxml2@@', 00H
data$r	ENDS
;	COMDAT ??_7XMLVisitor@tinyxml2@@6B@
CONST	SEGMENT
??_7XMLVisitor@tinyxml2@@6B@ DD FLAT:??_R4XMLVisitor@tinyxml2@@6B@ ; tinyxml2::XMLVisitor::`vftable'
	DD	FLAT:??_EXMLVisitor@tinyxml2@@UAEPAXI@Z
	DD	FLAT:?VisitEnter@XMLVisitor@tinyxml2@@UAE_NABVXMLElement@2@PBVXMLAttribute@2@@Z
	DD	FLAT:?VisitEnter@XMLVisitor@tinyxml2@@UAE_NABVXMLDocument@2@@Z
	DD	FLAT:?VisitExit@XMLVisitor@tinyxml2@@UAE_NABVXMLElement@2@@Z
	DD	FLAT:?VisitExit@XMLVisitor@tinyxml2@@UAE_NABVXMLDocument@2@@Z
	DD	FLAT:?Visit@XMLVisitor@tinyxml2@@UAE_NABVXMLUnknown@2@@Z
	DD	FLAT:?Visit@XMLVisitor@tinyxml2@@UAE_NABVXMLComment@2@@Z
	DD	FLAT:?Visit@XMLVisitor@tinyxml2@@UAE_NABVXMLText@2@@Z
	DD	FLAT:?Visit@XMLVisitor@tinyxml2@@UAE_NABVXMLDeclaration@2@@Z
CONST	ENDS
;	COMDAT ??_7XMLText@tinyxml2@@6B@
CONST	SEGMENT
??_7XMLText@tinyxml2@@6B@ DD FLAT:??_R4XMLText@tinyxml2@@6B@ ; tinyxml2::XMLText::`vftable'
	DD	FLAT:?ToElement@XMLNode@tinyxml2@@UBEPBVXMLElement@2@XZ
	DD	FLAT:?ToElement@XMLNode@tinyxml2@@UAEPAVXMLElement@2@XZ
	DD	FLAT:?ToText@XMLText@tinyxml2@@UBEPBV12@XZ
	DD	FLAT:?ToText@XMLText@tinyxml2@@UAEPAV12@XZ
	DD	FLAT:?ToComment@XMLNode@tinyxml2@@UBEPBVXMLComment@2@XZ
	DD	FLAT:?ToComment@XMLNode@tinyxml2@@UAEPAVXMLComment@2@XZ
	DD	FLAT:?ToDocument@XMLNode@tinyxml2@@UBEPBVXMLDocument@2@XZ
	DD	FLAT:?ToDocument@XMLNode@tinyxml2@@UAEPAVXMLDocument@2@XZ
	DD	FLAT:?ToDeclaration@XMLNode@tinyxml2@@UBEPBVXMLDeclaration@2@XZ
	DD	FLAT:?ToDeclaration@XMLNode@tinyxml2@@UAEPAVXMLDeclaration@2@XZ
	DD	FLAT:?ToUnknown@XMLNode@tinyxml2@@UBEPBVXMLUnknown@2@XZ
	DD	FLAT:?ToUnknown@XMLNode@tinyxml2@@UAEPAVXMLUnknown@2@XZ
	DD	FLAT:?ShallowClone@XMLText@tinyxml2@@UBEPAVXMLNode@2@PAVXMLDocument@2@@Z
	DD	FLAT:?ShallowEqual@XMLText@tinyxml2@@UBE_NPBVXMLNode@2@@Z
	DD	FLAT:?Accept@XMLText@tinyxml2@@UBE_NPAVXMLVisitor@2@@Z
	DD	FLAT:??_EXMLText@tinyxml2@@MAEPAXI@Z
	DD	FLAT:?ParseDeep@XMLText@tinyxml2@@MAEPADPADPAVStrPair@2@@Z
CONST	ENDS
;	COMDAT ??_R3XMLVisitor@tinyxml2@@8
rdata$r	SEGMENT
??_R3XMLVisitor@tinyxml2@@8 DD 00H			; tinyxml2::XMLVisitor::`RTTI Class Hierarchy Descriptor'
	DD	00H
	DD	01H
	DD	FLAT:??_R2XMLVisitor@tinyxml2@@8
rdata$r	ENDS
;	COMDAT ??_R2XMLText@tinyxml2@@8
rdata$r	SEGMENT
??_R2XMLText@tinyxml2@@8 DD FLAT:??_R1A@?0A@EA@XMLText@tinyxml2@@8 ; tinyxml2::XMLText::`RTTI Base Class Array'
	DD	FLAT:??_R1A@?0A@EA@XMLNode@tinyxml2@@8
rdata$r	ENDS
;	COMDAT ??_R4MemPool@tinyxml2@@6B@
rdata$r	SEGMENT
??_R4MemPool@tinyxml2@@6B@ DD 00H			; tinyxml2::MemPool::`RTTI Complete Object Locator'
	DD	00H
	DD	00H
	DD	FLAT:??_R0?AVMemPool@tinyxml2@@@8
	DD	FLAT:??_R3MemPool@tinyxml2@@8
rdata$r	ENDS
;	COMDAT ??_7?$MemPoolT@$0DE@@tinyxml2@@6B@
CONST	SEGMENT
??_7?$MemPoolT@$0DE@@tinyxml2@@6B@ DD FLAT:??_R4?$MemPoolT@$0DE@@tinyxml2@@6B@ ; tinyxml2::MemPoolT<52>::`vftable'
	DD	FLAT:??_E?$MemPoolT@$0DE@@tinyxml2@@UAEPAXI@Z
	DD	FLAT:?ItemSize@?$MemPoolT@$0DE@@tinyxml2@@UBEHXZ
	DD	FLAT:?Alloc@?$MemPoolT@$0DE@@tinyxml2@@UAEPAXXZ
	DD	FLAT:?Free@?$MemPoolT@$0DE@@tinyxml2@@UAEXPAX@Z
	DD	FLAT:?SetTracked@?$MemPoolT@$0DE@@tinyxml2@@UAEXXZ
	DD	FLAT:?Clear@?$MemPoolT@$0DE@@tinyxml2@@UAEXXZ
CONST	ENDS
;	COMDAT ??_R2XMLVisitor@tinyxml2@@8
rdata$r	SEGMENT
??_R2XMLVisitor@tinyxml2@@8 DD FLAT:??_R1A@?0A@EA@XMLVisitor@tinyxml2@@8 ; tinyxml2::XMLVisitor::`RTTI Base Class Array'
rdata$r	ENDS
;	COMDAT ??_R1A@?0A@EA@?$MemPoolT@$0DE@@tinyxml2@@8
rdata$r	SEGMENT
??_R1A@?0A@EA@?$MemPoolT@$0DE@@tinyxml2@@8 DD FLAT:??_R0?AV?$MemPoolT@$0DE@@tinyxml2@@@8 ; tinyxml2::MemPoolT<52>::`RTTI Base Class Descriptor at (0,-1,0,64)'
	DD	01H
	DD	00H
	DD	0ffffffffH
	DD	00H
	DD	040H
	DD	FLAT:??_R3?$MemPoolT@$0DE@@tinyxml2@@8
rdata$r	ENDS
;	COMDAT ??_R4XMLDocument@tinyxml2@@6B@
rdata$r	SEGMENT
??_R4XMLDocument@tinyxml2@@6B@ DD 00H			; tinyxml2::XMLDocument::`RTTI Complete Object Locator'
	DD	00H
	DD	00H
	DD	FLAT:??_R0?AVXMLDocument@tinyxml2@@@8
	DD	FLAT:??_R3XMLDocument@tinyxml2@@8
rdata$r	ENDS
;	COMDAT ??_R1A@?0A@EA@XMLUnknown@tinyxml2@@8
rdata$r	SEGMENT
??_R1A@?0A@EA@XMLUnknown@tinyxml2@@8 DD FLAT:??_R0?AVXMLUnknown@tinyxml2@@@8 ; tinyxml2::XMLUnknown::`RTTI Base Class Descriptor at (0,-1,0,64)'
	DD	01H
	DD	00H
	DD	0ffffffffH
	DD	00H
	DD	040H
	DD	FLAT:??_R3XMLUnknown@tinyxml2@@8
rdata$r	ENDS
;	COMDAT ??_7XMLComment@tinyxml2@@6B@
CONST	SEGMENT
??_7XMLComment@tinyxml2@@6B@ DD FLAT:??_R4XMLComment@tinyxml2@@6B@ ; tinyxml2::XMLComment::`vftable'
	DD	FLAT:?ToElement@XMLNode@tinyxml2@@UBEPBVXMLElement@2@XZ
	DD	FLAT:?ToElement@XMLNode@tinyxml2@@UAEPAVXMLElement@2@XZ
	DD	FLAT:?ToText@XMLNode@tinyxml2@@UBEPBVXMLText@2@XZ
	DD	FLAT:?ToText@XMLNode@tinyxml2@@UAEPAVXMLText@2@XZ
	DD	FLAT:?ToComment@XMLComment@tinyxml2@@UBEPBV12@XZ
	DD	FLAT:?ToComment@XMLComment@tinyxml2@@UAEPAV12@XZ
	DD	FLAT:?ToDocument@XMLNode@tinyxml2@@UBEPBVXMLDocument@2@XZ
	DD	FLAT:?ToDocument@XMLNode@tinyxml2@@UAEPAVXMLDocument@2@XZ
	DD	FLAT:?ToDeclaration@XMLNode@tinyxml2@@UBEPBVXMLDeclaration@2@XZ
	DD	FLAT:?ToDeclaration@XMLNode@tinyxml2@@UAEPAVXMLDeclaration@2@XZ
	DD	FLAT:?ToUnknown@XMLNode@tinyxml2@@UBEPBVXMLUnknown@2@XZ
	DD	FLAT:?ToUnknown@XMLNode@tinyxml2@@UAEPAVXMLUnknown@2@XZ
	DD	FLAT:?ShallowClone@XMLComment@tinyxml2@@UBEPAVXMLNode@2@PAVXMLDocument@2@@Z
	DD	FLAT:?ShallowEqual@XMLComment@tinyxml2@@UBE_NPBVXMLNode@2@@Z
	DD	FLAT:?Accept@XMLComment@tinyxml2@@UBE_NPAVXMLVisitor@2@@Z
	DD	FLAT:??_EXMLComment@tinyxml2@@MAEPAXI@Z
	DD	FLAT:?ParseDeep@XMLComment@tinyxml2@@MAEPADPADPAVStrPair@2@@Z
CONST	ENDS
;	COMDAT ??_7?$MemPoolT@$0CM@@tinyxml2@@6B@
CONST	SEGMENT
??_7?$MemPoolT@$0CM@@tinyxml2@@6B@ DD FLAT:??_R4?$MemPoolT@$0CM@@tinyxml2@@6B@ ; tinyxml2::MemPoolT<44>::`vftable'
	DD	FLAT:??_E?$MemPoolT@$0CM@@tinyxml2@@UAEPAXI@Z
	DD	FLAT:?ItemSize@?$MemPoolT@$0CM@@tinyxml2@@UBEHXZ
	DD	FLAT:?Alloc@?$MemPoolT@$0CM@@tinyxml2@@UAEPAXXZ
	DD	FLAT:?Free@?$MemPoolT@$0CM@@tinyxml2@@UAEXPAX@Z
	DD	FLAT:?SetTracked@?$MemPoolT@$0CM@@tinyxml2@@UAEXXZ
	DD	FLAT:?Clear@?$MemPoolT@$0CM@@tinyxml2@@UAEXXZ
CONST	ENDS
;	COMDAT ??_R1A@?0A@EA@XMLElement@tinyxml2@@8
rdata$r	SEGMENT
??_R1A@?0A@EA@XMLElement@tinyxml2@@8 DD FLAT:??_R0?AVXMLElement@tinyxml2@@@8 ; tinyxml2::XMLElement::`RTTI Base Class Descriptor at (0,-1,0,64)'
	DD	01H
	DD	00H
	DD	0ffffffffH
	DD	00H
	DD	040H
	DD	FLAT:??_R3XMLElement@tinyxml2@@8
rdata$r	ENDS
;	COMDAT ??_7XMLPrinter@tinyxml2@@6B@
CONST	SEGMENT
??_7XMLPrinter@tinyxml2@@6B@ DD FLAT:??_R4XMLPrinter@tinyxml2@@6B@ ; tinyxml2::XMLPrinter::`vftable'
	DD	FLAT:??_EXMLPrinter@tinyxml2@@UAEPAXI@Z
	DD	FLAT:?VisitEnter@XMLPrinter@tinyxml2@@UAE_NABVXMLElement@2@PBVXMLAttribute@2@@Z
	DD	FLAT:?VisitEnter@XMLPrinter@tinyxml2@@UAE_NABVXMLDocument@2@@Z
	DD	FLAT:?VisitExit@XMLPrinter@tinyxml2@@UAE_NABVXMLElement@2@@Z
	DD	FLAT:?VisitExit@XMLPrinter@tinyxml2@@UAE_NABVXMLDocument@2@@Z
	DD	FLAT:?Visit@XMLPrinter@tinyxml2@@UAE_NABVXMLUnknown@2@@Z
	DD	FLAT:?Visit@XMLPrinter@tinyxml2@@UAE_NABVXMLComment@2@@Z
	DD	FLAT:?Visit@XMLPrinter@tinyxml2@@UAE_NABVXMLText@2@@Z
	DD	FLAT:?Visit@XMLPrinter@tinyxml2@@UAE_NABVXMLDeclaration@2@@Z
	DD	FLAT:?CloseElement@XMLPrinter@tinyxml2@@UAEX_N@Z
	DD	FLAT:?CompactMode@XMLPrinter@tinyxml2@@MAE_NABVXMLElement@2@@Z
	DD	FLAT:?PrintSpace@XMLPrinter@tinyxml2@@MAEXH@Z
CONST	ENDS
;	COMDAT ?cdataHeader@?1??Identify@XMLDocument@tinyxml2@@QAEPADPADPAPAVXMLNode@3@@Z@4PBDB
_DATA	SEGMENT
?cdataHeader@?1??Identify@XMLDocument@tinyxml2@@QAEPADPADPAPAVXMLNode@3@@Z@4PBDB DD FLAT:$SG4294882685 ; `tinyxml2::XMLDocument::Identify'::`2'::cdataHeader
_DATA	ENDS
;	COMDAT ??_7?$MemPoolT@$0DA@@tinyxml2@@6B@
CONST	SEGMENT
??_7?$MemPoolT@$0DA@@tinyxml2@@6B@ DD FLAT:??_R4?$MemPoolT@$0DA@@tinyxml2@@6B@ ; tinyxml2::MemPoolT<48>::`vftable'
	DD	FLAT:??_E?$MemPoolT@$0DA@@tinyxml2@@UAEPAXI@Z
	DD	FLAT:?ItemSize@?$MemPoolT@$0DA@@tinyxml2@@UBEHXZ
	DD	FLAT:?Alloc@?$MemPoolT@$0DA@@tinyxml2@@UAEPAXXZ
	DD	FLAT:?Free@?$MemPoolT@$0DA@@tinyxml2@@UAEXPAX@Z
	DD	FLAT:?SetTracked@?$MemPoolT@$0DA@@tinyxml2@@UAEXXZ
	DD	FLAT:?Clear@?$MemPoolT@$0DA@@tinyxml2@@UAEXXZ
CONST	ENDS
;	COMDAT ??_R4?$MemPoolT@$0CE@@tinyxml2@@6B@
rdata$r	SEGMENT
??_R4?$MemPoolT@$0CE@@tinyxml2@@6B@ DD 00H		; tinyxml2::MemPoolT<36>::`RTTI Complete Object Locator'
	DD	00H
	DD	00H
	DD	FLAT:??_R0?AV?$MemPoolT@$0CE@@tinyxml2@@@8
	DD	FLAT:??_R3?$MemPoolT@$0CE@@tinyxml2@@8
rdata$r	ENDS
;	COMDAT ??_R4XMLComment@tinyxml2@@6B@
rdata$r	SEGMENT
??_R4XMLComment@tinyxml2@@6B@ DD 00H			; tinyxml2::XMLComment::`RTTI Complete Object Locator'
	DD	00H
	DD	00H
	DD	FLAT:??_R0?AVXMLComment@tinyxml2@@@8
	DD	FLAT:??_R3XMLComment@tinyxml2@@8
rdata$r	ENDS
;	COMDAT ??_R2XMLPrinter@tinyxml2@@8
rdata$r	SEGMENT
??_R2XMLPrinter@tinyxml2@@8 DD FLAT:??_R1A@?0A@EA@XMLPrinter@tinyxml2@@8 ; tinyxml2::XMLPrinter::`RTTI Base Class Array'
	DD	FLAT:??_R1A@?0A@EA@XMLVisitor@tinyxml2@@8
rdata$r	ENDS
;	COMDAT ??_R1A@?0A@EA@?$MemPoolT@$0CM@@tinyxml2@@8
rdata$r	SEGMENT
??_R1A@?0A@EA@?$MemPoolT@$0CM@@tinyxml2@@8 DD FLAT:??_R0?AV?$MemPoolT@$0CM@@tinyxml2@@@8 ; tinyxml2::MemPoolT<44>::`RTTI Base Class Descriptor at (0,-1,0,64)'
	DD	01H
	DD	00H
	DD	0ffffffffH
	DD	00H
	DD	040H
	DD	FLAT:??_R3?$MemPoolT@$0CM@@tinyxml2@@8
rdata$r	ENDS
;	COMDAT ??_R0?AVXMLVisitor@tinyxml2@@@8
data$r	SEGMENT
??_R0?AVXMLVisitor@tinyxml2@@@8 DD FLAT:??_7type_info@@6B@ ; tinyxml2::XMLVisitor `RTTI Type Descriptor'
	DD	00H
	DB	'.?AVXMLVisitor@tinyxml2@@', 00H
data$r	ENDS
;	COMDAT ??_R3?$MemPoolT@$0CM@@tinyxml2@@8
rdata$r	SEGMENT
??_R3?$MemPoolT@$0CM@@tinyxml2@@8 DD 00H		; tinyxml2::MemPoolT<44>::`RTTI Class Hierarchy Descriptor'
	DD	00H
	DD	02H
	DD	FLAT:??_R2?$MemPoolT@$0CM@@tinyxml2@@8
rdata$r	ENDS
;	COMDAT ??_R0?AVXMLText@tinyxml2@@@8
data$r	SEGMENT
??_R0?AVXMLText@tinyxml2@@@8 DD FLAT:??_7type_info@@6B@	; tinyxml2::XMLText `RTTI Type Descriptor'
	DD	00H
	DB	'.?AVXMLText@tinyxml2@@', 00H
data$r	ENDS
;	COMDAT ??_R0?AV?$MemPoolT@$0DA@@tinyxml2@@@8
data$r	SEGMENT
??_R0?AV?$MemPoolT@$0DA@@tinyxml2@@@8 DD FLAT:??_7type_info@@6B@ ; tinyxml2::MemPoolT<48> `RTTI Type Descriptor'
	DD	00H
	DB	'.?AV?$MemPoolT@$0DA@@tinyxml2@@', 00H
data$r	ENDS
;	COMDAT ??_R3XMLAttribute@tinyxml2@@8
rdata$r	SEGMENT
??_R3XMLAttribute@tinyxml2@@8 DD 00H			; tinyxml2::XMLAttribute::`RTTI Class Hierarchy Descriptor'
	DD	00H
	DD	01H
	DD	FLAT:??_R2XMLAttribute@tinyxml2@@8
rdata$r	ENDS
;	COMDAT ??_R4XMLAttribute@tinyxml2@@6B@
rdata$r	SEGMENT
??_R4XMLAttribute@tinyxml2@@6B@ DD 00H			; tinyxml2::XMLAttribute::`RTTI Complete Object Locator'
	DD	00H
	DD	00H
	DD	FLAT:??_R0?AVXMLAttribute@tinyxml2@@@8
	DD	FLAT:??_R3XMLAttribute@tinyxml2@@8
?_errorNames@XMLDocument@tinyxml2@@0PAPBDA DD FLAT:$SG4294882677 ; tinyxml2::XMLDocument::_errorNames
	DD	FLAT:$SG4294882676
	DD	FLAT:$SG4294882675
	DD	FLAT:$SG4294882674
	DD	FLAT:$SG4294882673
	DD	FLAT:$SG4294882672
	DD	FLAT:$SG4294882671
	DD	FLAT:$SG4294882670
	DD	FLAT:$SG4294882669
	DD	FLAT:$SG4294882668
	DD	FLAT:$SG4294882667
	DD	FLAT:$SG4294882666
	DD	FLAT:$SG4294882665
	DD	FLAT:$SG4294882664
	DD	FLAT:$SG4294882663
	DD	FLAT:$SG4294882662
	DD	FLAT:$SG4294882661
	DD	FLAT:$SG4294882660
	DD	FLAT:$SG4294882659
	DD	FLAT:$SG4294882658
	ORG $+3
$SG4294882702 DB 'amp', 00H
	ORG $+3
$SG4294882700 DB 'lt', 00H
	ORG $+1
$SG4294882703 DB 'quot', 00H
	ORG $+3
$SG4294882701 DB 'apos', 00H
	ORG $+3
$SG4294882698 DB '%d', 00H
	ORG $+1
$SG4294882699 DB 'gt', 00H
	ORG $+1
$SG4294882696 DB '%d', 00H
	ORG $+1
$SG4294882697 DB '%u', 00H
	ORG $+1
$SG4294882694 DB '%.17g', 00H
	ORG $+2
$SG4294882695 DB '%.8g', 00H
	ORG $+3
$SG4294882692 DB '%u', 00H
	ORG $+1
$SG4294882693 DB '%d', 00H
	ORG $+1
$SG4294882690 DB 'false', 00H
	ORG $+2
$SG4294882691 DB 'true', 00H
	ORG $+3
$SG4294882688 DB '%lf', 00H
$SG4294882689 DB '%f', 00H
	ORG $+1
$SG4294882686 DB '<!--', 00H
	ORG $+3
$SG4294882687 DB '<?', 00H
	ORG $+1
$SG4294882684 DB '<!', 00H
	ORG $+1
$SG4294882685 DB '<![CDATA[', 00H
	ORG $+2
$SG4294882682 DB ']]>', 00H
$SG4294882683 DB '<', 00H
	ORG $+2
$SG4294882680 DB '-->', 00H
$SG4294882681 DB '<', 00H
	ORG $+2
$SG4294882678 DB '>', 00H
	ORG $+2
$SG4294882679 DB '?>', 00H
	ORG $+1
$SG4294882676 DB 'XML_NO_ATTRIBUTE', 00H
	ORG $+3
$SG4294882677 DB 'XML_SUCCESS', 00H
$SG4294882674 DB 'XML_ERROR_FILE_NOT_FOUND', 00H
	ORG $+3
$SG4294882675 DB 'XML_WRONG_ATTRIBUTE_TYPE', 00H
	ORG $+3
$SG4294882672 DB 'XML_ERROR_FILE_READ_ERROR', 00H
	ORG $+2
$SG4294882673 DB 'XML_ERROR_FILE_COULD_NOT_BE_OPENED', 00H
	ORG $+1
$SG4294882670 DB 'XML_ERROR_PARSING_ELEMENT', 00H
	ORG $+2
$SG4294882671 DB 'XML_ERROR_ELEMENT_MISMATCH', 00H
	ORG $+1
$SG4294882668 DB 'XML_ERROR_IDENTIFYING_TAG', 00H
	ORG $+2
$SG4294882669 DB 'XML_ERROR_PARSING_ATTRIBUTE', 00H
$SG4294882666 DB 'XML_ERROR_PARSING_CDATA', 00H
$SG4294882667 DB 'XML_ERROR_PARSING_TEXT', 00H
	ORG $+1
$SG4294882664 DB 'XML_ERROR_PARSING_DECLARATION', 00H
	ORG $+2
$SG4294882665 DB 'XML_ERROR_PARSING_COMMENT', 00H
	ORG $+2
$SG4294882662 DB 'XML_ERROR_EMPTY_DOCUMENT', 00H
	ORG $+3
$SG4294882663 DB 'XML_ERROR_PARSING_UNKNOWN', 00H
	ORG $+2
$SG4294882660 DB 'XML_ERROR_PARSING', 00H
	ORG $+2
$SG4294882661 DB 'XML_ERROR_MISMATCHED_ELEMENT', 00H
	ORG $+3
$SG4294882658 DB 'XML_NO_TEXT_NODE', 00H
	ORG $+3
$SG4294882659 DB 'XML_CAN_NOT_CONVERT_TEXT', 00H
	ORG $+3
$SG4294882656 DB 'rb', 00H
	ORG $+1
$SG4294882657 DB 'xml version="1.0" encoding="UTF-8"', 00H
	ORG $+1
$SG4294882654 DB '%s', 00H
	ORG $+1
$SG4294882655 DB 'w', 00H
	ORG $+2
$SG4294882652 DB 'XMLDocument error id=%d ''%s'' str1=%s str2=%s', 0aH, 00H
	ORG $+2
$SG4294882653 DB '%s', 00H
	ORG $+1
$SG4294882650 DB '%.*s', 00H
	ORG $+3
$SG4294882651 DB '    ', 00H
	ORG $+3
$SG4294882648 DB '%s', 00H
	ORG $+1
$SG4294882649 DB '&%s;', 00H
	ORG $+3
$SG4294882646 DB 'xml version="1.0"', 00H
	ORG $+2
$SG4294882647 DB '%s', 00H
	ORG $+1
$SG4294882644 DB '<%s', 00H
$SG4294882645 DB 0aH, 00H
	ORG $+2
$SG4294882642 DB '"', 00H
	ORG $+2
$SG4294882643 DB ' %s="', 00H
	ORG $+2
$SG4294882640 DB 0aH, 00H
	ORG $+2
$SG4294882641 DB '/>', 00H
	ORG $+1
$SG4294882638 DB 0aH, 00H
	ORG $+2
$SG4294882639 DB '</%s>', 00H
	ORG $+2
$SG4294882636 DB '<![CDATA[%s]]>', 00H
	ORG $+1
$SG4294882637 DB '>', 00H
	ORG $+2
$SG4294882634 DB '<!--%s-->', 00H
	ORG $+2
$SG4294882635 DB 0aH, 00H
	ORG $+2
$SG4294882632 DB '<?%s?>', 00H
	ORG $+1
$SG4294882633 DB 0aH, 00H
	ORG $+2
$SG4294882630 DB '<!%s>', 00H
	ORG $+2
$SG4294882631 DB 0aH, 00H
	ORG $+2
?entities@tinyxml2@@3QBUEntity@1@B DD FLAT:$SG4294882703 ; tinyxml2::entities
	DD	04H
	DB	022H
	ORG $+3
	DD	FLAT:$SG4294882702
	DD	03H
	DB	026H
	ORG $+3
	DD	FLAT:$SG4294882701
	DD	04H
	DB	027H
	ORG $+3
	DD	FLAT:$SG4294882700
	DD	02H
	DB	03cH
	ORG $+3
	DD	FLAT:$SG4294882699
	DD	02H
	DB	03eH
	ORG $+3
PUBLIC	??$__vcrt_va_start_verify_argument_type@PBD@@YAXXZ ; __vcrt_va_start_verify_argument_type<char const *>
PUBLIC	?EnsureCapacity@?$DynArray@PAUBlock@?$MemPoolT@$0DE@@tinyxml2@@$09@tinyxml2@@AAEXH@Z ; tinyxml2::DynArray<tinyxml2::MemPoolT<52>::Block *,10>::EnsureCapacity
PUBLIC	?EnsureCapacity@?$DynArray@PAUBlock@?$MemPoolT@$0CE@@tinyxml2@@$09@tinyxml2@@AAEXH@Z ; tinyxml2::DynArray<tinyxml2::MemPoolT<36>::Block *,10>::EnsureCapacity
PUBLIC	?EnsureCapacity@?$DynArray@PAUBlock@?$MemPoolT@$0DA@@tinyxml2@@$09@tinyxml2@@AAEXH@Z ; tinyxml2::DynArray<tinyxml2::MemPoolT<48>::Block *,10>::EnsureCapacity
PUBLIC	?EnsureCapacity@?$DynArray@PAUBlock@?$MemPoolT@$0CM@@tinyxml2@@$09@tinyxml2@@AAEXH@Z ; tinyxml2::DynArray<tinyxml2::MemPoolT<44>::Block *,10>::EnsureCapacity
PUBLIC	??0?$DynArray@PAUBlock@?$MemPoolT@$0DE@@tinyxml2@@$09@tinyxml2@@QAE@XZ ; tinyxml2::DynArray<tinyxml2::MemPoolT<52>::Block *,10>::DynArray<tinyxml2::MemPoolT<52>::Block *,10>
PUBLIC	??1?$DynArray@PAUBlock@?$MemPoolT@$0DE@@tinyxml2@@$09@tinyxml2@@QAE@XZ ; tinyxml2::DynArray<tinyxml2::MemPoolT<52>::Block *,10>::~DynArray<tinyxml2::MemPoolT<52>::Block *,10>
PUBLIC	?Push@?$DynArray@PAUBlock@?$MemPoolT@$0DE@@tinyxml2@@$09@tinyxml2@@QAEXPAUBlock@?$MemPoolT@$0DE@@2@@Z ; tinyxml2::DynArray<tinyxml2::MemPoolT<52>::Block *,10>::Push
PUBLIC	?Pop@?$DynArray@PAUBlock@?$MemPoolT@$0DE@@tinyxml2@@$09@tinyxml2@@QAEPAUBlock@?$MemPoolT@$0DE@@2@XZ ; tinyxml2::DynArray<tinyxml2::MemPoolT<52>::Block *,10>::Pop
PUBLIC	?Empty@?$DynArray@PAUBlock@?$MemPoolT@$0DE@@tinyxml2@@$09@tinyxml2@@QBE_NXZ ; tinyxml2::DynArray<tinyxml2::MemPoolT<52>::Block *,10>::Empty
PUBLIC	??0?$DynArray@PAUBlock@?$MemPoolT@$0CE@@tinyxml2@@$09@tinyxml2@@QAE@XZ ; tinyxml2::DynArray<tinyxml2::MemPoolT<36>::Block *,10>::DynArray<tinyxml2::MemPoolT<36>::Block *,10>
PUBLIC	??1?$DynArray@PAUBlock@?$MemPoolT@$0CE@@tinyxml2@@$09@tinyxml2@@QAE@XZ ; tinyxml2::DynArray<tinyxml2::MemPoolT<36>::Block *,10>::~DynArray<tinyxml2::MemPoolT<36>::Block *,10>
PUBLIC	?Push@?$DynArray@PAUBlock@?$MemPoolT@$0CE@@tinyxml2@@$09@tinyxml2@@QAEXPAUBlock@?$MemPoolT@$0CE@@2@@Z ; tinyxml2::DynArray<tinyxml2::MemPoolT<36>::Block *,10>::Push
PUBLIC	?Pop@?$DynArray@PAUBlock@?$MemPoolT@$0CE@@tinyxml2@@$09@tinyxml2@@QAEPAUBlock@?$MemPoolT@$0CE@@2@XZ ; tinyxml2::DynArray<tinyxml2::MemPoolT<36>::Block *,10>::Pop
PUBLIC	?Empty@?$DynArray@PAUBlock@?$MemPoolT@$0CE@@tinyxml2@@$09@tinyxml2@@QBE_NXZ ; tinyxml2::DynArray<tinyxml2::MemPoolT<36>::Block *,10>::Empty
PUBLIC	??0?$DynArray@PAUBlock@?$MemPoolT@$0DA@@tinyxml2@@$09@tinyxml2@@QAE@XZ ; tinyxml2::DynArray<tinyxml2::MemPoolT<48>::Block *,10>::DynArray<tinyxml2::MemPoolT<48>::Block *,10>
PUBLIC	??1?$DynArray@PAUBlock@?$MemPoolT@$0DA@@tinyxml2@@$09@tinyxml2@@QAE@XZ ; tinyxml2::DynArray<tinyxml2::MemPoolT<48>::Block *,10>::~DynArray<tinyxml2::MemPoolT<48>::Block *,10>
PUBLIC	?Push@?$DynArray@PAUBlock@?$MemPoolT@$0DA@@tinyxml2@@$09@tinyxml2@@QAEXPAUBlock@?$MemPoolT@$0DA@@2@@Z ; tinyxml2::DynArray<tinyxml2::MemPoolT<48>::Block *,10>::Push
PUBLIC	?Pop@?$DynArray@PAUBlock@?$MemPoolT@$0DA@@tinyxml2@@$09@tinyxml2@@QAEPAUBlock@?$MemPoolT@$0DA@@2@XZ ; tinyxml2::DynArray<tinyxml2::MemPoolT<48>::Block *,10>::Pop
PUBLIC	?Empty@?$DynArray@PAUBlock@?$MemPoolT@$0DA@@tinyxml2@@$09@tinyxml2@@QBE_NXZ ; tinyxml2::DynArray<tinyxml2::MemPoolT<48>::Block *,10>::Empty
PUBLIC	??0?$DynArray@PAUBlock@?$MemPoolT@$0CM@@tinyxml2@@$09@tinyxml2@@QAE@XZ ; tinyxml2::DynArray<tinyxml2::MemPoolT<44>::Block *,10>::DynArray<tinyxml2::MemPoolT<44>::Block *,10>
PUBLIC	??1?$DynArray@PAUBlock@?$MemPoolT@$0CM@@tinyxml2@@$09@tinyxml2@@QAE@XZ ; tinyxml2::DynArray<tinyxml2::MemPoolT<44>::Block *,10>::~DynArray<tinyxml2::MemPoolT<44>::Block *,10>
PUBLIC	?Push@?$DynArray@PAUBlock@?$MemPoolT@$0CM@@tinyxml2@@$09@tinyxml2@@QAEXPAUBlock@?$MemPoolT@$0CM@@2@@Z ; tinyxml2::DynArray<tinyxml2::MemPoolT<44>::Block *,10>::Push
PUBLIC	?Pop@?$DynArray@PAUBlock@?$MemPoolT@$0CM@@tinyxml2@@$09@tinyxml2@@QAEPAUBlock@?$MemPoolT@$0CM@@2@XZ ; tinyxml2::DynArray<tinyxml2::MemPoolT<44>::Block *,10>::Pop
PUBLIC	?Empty@?$DynArray@PAUBlock@?$MemPoolT@$0CM@@tinyxml2@@$09@tinyxml2@@QBE_NXZ ; tinyxml2::DynArray<tinyxml2::MemPoolT<44>::Block *,10>::Empty
PUBLIC	?EnsureCapacity@?$DynArray@PBD$09@tinyxml2@@AAEXH@Z ; tinyxml2::DynArray<char const *,10>::EnsureCapacity
PUBLIC	?EnsureCapacity@?$DynArray@D$0BE@@tinyxml2@@AAEXH@Z ; tinyxml2::DynArray<char,20>::EnsureCapacity
PUBLIC	??_G?$MemPoolT@$0DE@@tinyxml2@@UAEPAXI@Z	; tinyxml2::MemPoolT<52>::`scalar deleting destructor'
PUBLIC	??_G?$MemPoolT@$0CE@@tinyxml2@@UAEPAXI@Z	; tinyxml2::MemPoolT<36>::`scalar deleting destructor'
PUBLIC	??_G?$MemPoolT@$0DA@@tinyxml2@@UAEPAXI@Z	; tinyxml2::MemPoolT<48>::`scalar deleting destructor'
PUBLIC	??_G?$MemPoolT@$0CM@@tinyxml2@@UAEPAXI@Z	; tinyxml2::MemPoolT<44>::`scalar deleting destructor'
PUBLIC	??0?$MemPoolT@$0DE@@tinyxml2@@QAE@XZ		; tinyxml2::MemPoolT<52>::MemPoolT<52>
PUBLIC	??1?$MemPoolT@$0DE@@tinyxml2@@UAE@XZ		; tinyxml2::MemPoolT<52>::~MemPoolT<52>
PUBLIC	?Clear@?$MemPoolT@$0DE@@tinyxml2@@UAEXXZ	; tinyxml2::MemPoolT<52>::Clear
PUBLIC	?ItemSize@?$MemPoolT@$0DE@@tinyxml2@@UBEHXZ	; tinyxml2::MemPoolT<52>::ItemSize
PUBLIC	?CurrentAllocs@?$MemPoolT@$0DE@@tinyxml2@@QBEHXZ ; tinyxml2::MemPoolT<52>::CurrentAllocs
PUBLIC	?Alloc@?$MemPoolT@$0DE@@tinyxml2@@UAEPAXXZ	; tinyxml2::MemPoolT<52>::Alloc
PUBLIC	?Free@?$MemPoolT@$0DE@@tinyxml2@@UAEXPAX@Z	; tinyxml2::MemPoolT<52>::Free
PUBLIC	?SetTracked@?$MemPoolT@$0DE@@tinyxml2@@UAEXXZ	; tinyxml2::MemPoolT<52>::SetTracked
PUBLIC	?Untracked@?$MemPoolT@$0DE@@tinyxml2@@QBEHXZ	; tinyxml2::MemPoolT<52>::Untracked
PUBLIC	??0?$MemPoolT@$0CE@@tinyxml2@@QAE@XZ		; tinyxml2::MemPoolT<36>::MemPoolT<36>
PUBLIC	??1?$MemPoolT@$0CE@@tinyxml2@@UAE@XZ		; tinyxml2::MemPoolT<36>::~MemPoolT<36>
PUBLIC	?Clear@?$MemPoolT@$0CE@@tinyxml2@@UAEXXZ	; tinyxml2::MemPoolT<36>::Clear
PUBLIC	?ItemSize@?$MemPoolT@$0CE@@tinyxml2@@UBEHXZ	; tinyxml2::MemPoolT<36>::ItemSize
PUBLIC	?CurrentAllocs@?$MemPoolT@$0CE@@tinyxml2@@QBEHXZ ; tinyxml2::MemPoolT<36>::CurrentAllocs
PUBLIC	?Alloc@?$MemPoolT@$0CE@@tinyxml2@@UAEPAXXZ	; tinyxml2::MemPoolT<36>::Alloc
PUBLIC	?Free@?$MemPoolT@$0CE@@tinyxml2@@UAEXPAX@Z	; tinyxml2::MemPoolT<36>::Free
PUBLIC	?SetTracked@?$MemPoolT@$0CE@@tinyxml2@@UAEXXZ	; tinyxml2::MemPoolT<36>::SetTracked
PUBLIC	?Untracked@?$MemPoolT@$0CE@@tinyxml2@@QBEHXZ	; tinyxml2::MemPoolT<36>::Untracked
PUBLIC	??0?$MemPoolT@$0DA@@tinyxml2@@QAE@XZ		; tinyxml2::MemPoolT<48>::MemPoolT<48>
PUBLIC	??1?$MemPoolT@$0DA@@tinyxml2@@UAE@XZ		; tinyxml2::MemPoolT<48>::~MemPoolT<48>
PUBLIC	?Clear@?$MemPoolT@$0DA@@tinyxml2@@UAEXXZ	; tinyxml2::MemPoolT<48>::Clear
PUBLIC	?ItemSize@?$MemPoolT@$0DA@@tinyxml2@@UBEHXZ	; tinyxml2::MemPoolT<48>::ItemSize
PUBLIC	?CurrentAllocs@?$MemPoolT@$0DA@@tinyxml2@@QBEHXZ ; tinyxml2::MemPoolT<48>::CurrentAllocs
PUBLIC	?Alloc@?$MemPoolT@$0DA@@tinyxml2@@UAEPAXXZ	; tinyxml2::MemPoolT<48>::Alloc
PUBLIC	?Free@?$MemPoolT@$0DA@@tinyxml2@@UAEXPAX@Z	; tinyxml2::MemPoolT<48>::Free
PUBLIC	?SetTracked@?$MemPoolT@$0DA@@tinyxml2@@UAEXXZ	; tinyxml2::MemPoolT<48>::SetTracked
PUBLIC	?Untracked@?$MemPoolT@$0DA@@tinyxml2@@QBEHXZ	; tinyxml2::MemPoolT<48>::Untracked
PUBLIC	??0?$MemPoolT@$0CM@@tinyxml2@@QAE@XZ		; tinyxml2::MemPoolT<44>::MemPoolT<44>
PUBLIC	??1?$MemPoolT@$0CM@@tinyxml2@@UAE@XZ		; tinyxml2::MemPoolT<44>::~MemPoolT<44>
PUBLIC	?Clear@?$MemPoolT@$0CM@@tinyxml2@@UAEXXZ	; tinyxml2::MemPoolT<44>::Clear
PUBLIC	?ItemSize@?$MemPoolT@$0CM@@tinyxml2@@UBEHXZ	; tinyxml2::MemPoolT<44>::ItemSize
PUBLIC	?CurrentAllocs@?$MemPoolT@$0CM@@tinyxml2@@QBEHXZ ; tinyxml2::MemPoolT<44>::CurrentAllocs
PUBLIC	?Alloc@?$MemPoolT@$0CM@@tinyxml2@@UAEPAXXZ	; tinyxml2::MemPoolT<44>::Alloc
PUBLIC	?Free@?$MemPoolT@$0CM@@tinyxml2@@UAEXPAX@Z	; tinyxml2::MemPoolT<44>::Free
PUBLIC	?SetTracked@?$MemPoolT@$0CM@@tinyxml2@@UAEXXZ	; tinyxml2::MemPoolT<44>::SetTracked
PUBLIC	?Untracked@?$MemPoolT@$0CM@@tinyxml2@@QBEHXZ	; tinyxml2::MemPoolT<44>::Untracked
PUBLIC	??0?$DynArray@PBD$09@tinyxml2@@QAE@XZ		; tinyxml2::DynArray<char const *,10>::DynArray<char const *,10>
PUBLIC	??1?$DynArray@PBD$09@tinyxml2@@QAE@XZ		; tinyxml2::DynArray<char const *,10>::~DynArray<char const *,10>
PUBLIC	?Push@?$DynArray@PBD$09@tinyxml2@@QAEXPBD@Z	; tinyxml2::DynArray<char const *,10>::Push
PUBLIC	?Pop@?$DynArray@PBD$09@tinyxml2@@QAEPBDXZ	; tinyxml2::DynArray<char const *,10>::Pop
PUBLIC	??0?$DynArray@D$0BE@@tinyxml2@@QAE@XZ		; tinyxml2::DynArray<char,20>::DynArray<char,20>
PUBLIC	??1?$DynArray@D$0BE@@tinyxml2@@QAE@XZ		; tinyxml2::DynArray<char,20>::~DynArray<char,20>
PUBLIC	?Push@?$DynArray@D$0BE@@tinyxml2@@QAEXD@Z	; tinyxml2::DynArray<char,20>::Push
PUBLIC	?PushArr@?$DynArray@D$0BE@@tinyxml2@@QAEPADH@Z	; tinyxml2::DynArray<char,20>::PushArr
PUBLIC	??A?$DynArray@D$0BE@@tinyxml2@@QAEAADH@Z	; tinyxml2::DynArray<char,20>::operator[]
PUBLIC	?Size@?$DynArray@D$0BE@@tinyxml2@@QBEHXZ	; tinyxml2::DynArray<char,20>::Size
PUBLIC	?Fits@?$LongFitsIntoSizeTMinusOne@$00@tinyxml2@@SA_NK@Z ; tinyxml2::LongFitsIntoSizeTMinusOne<1>::Fits
PUBLIC	?Visit@XMLPrinter@tinyxml2@@UAE_NABVXMLUnknown@2@@Z ; tinyxml2::XMLPrinter::Visit
PUBLIC	?Visit@XMLPrinter@tinyxml2@@UAE_NABVXMLDeclaration@2@@Z ; tinyxml2::XMLPrinter::Visit
PUBLIC	?Visit@XMLPrinter@tinyxml2@@UAE_NABVXMLComment@2@@Z ; tinyxml2::XMLPrinter::Visit
PUBLIC	?Visit@XMLPrinter@tinyxml2@@UAE_NABVXMLText@2@@Z ; tinyxml2::XMLPrinter::Visit
PUBLIC	?VisitExit@XMLPrinter@tinyxml2@@UAE_NABVXMLElement@2@@Z ; tinyxml2::XMLPrinter::VisitExit
PUBLIC	?VisitEnter@XMLPrinter@tinyxml2@@UAE_NABVXMLElement@2@PBVXMLAttribute@2@@Z ; tinyxml2::XMLPrinter::VisitEnter
PUBLIC	?VisitEnter@XMLPrinter@tinyxml2@@UAE_NABVXMLDocument@2@@Z ; tinyxml2::XMLPrinter::VisitEnter
PUBLIC	?PushUnknown@XMLPrinter@tinyxml2@@QAEXPBD@Z	; tinyxml2::XMLPrinter::PushUnknown
PUBLIC	?PushDeclaration@XMLPrinter@tinyxml2@@QAEXPBD@Z	; tinyxml2::XMLPrinter::PushDeclaration
PUBLIC	?PushComment@XMLPrinter@tinyxml2@@QAEXPBD@Z	; tinyxml2::XMLPrinter::PushComment
PUBLIC	?PushText@XMLPrinter@tinyxml2@@QAEXN@Z		; tinyxml2::XMLPrinter::PushText
PUBLIC	?PushText@XMLPrinter@tinyxml2@@QAEXM@Z		; tinyxml2::XMLPrinter::PushText
PUBLIC	?PushText@XMLPrinter@tinyxml2@@QAEX_N@Z		; tinyxml2::XMLPrinter::PushText
PUBLIC	?PushText@XMLPrinter@tinyxml2@@QAEXI@Z		; tinyxml2::XMLPrinter::PushText
PUBLIC	?PushText@XMLPrinter@tinyxml2@@QAEXH@Z		; tinyxml2::XMLPrinter::PushText
PUBLIC	?PushText@XMLPrinter@tinyxml2@@QAEXPBD_N@Z	; tinyxml2::XMLPrinter::PushText
PUBLIC	?SealElementIfJustOpened@XMLPrinter@tinyxml2@@IAEXXZ ; tinyxml2::XMLPrinter::SealElementIfJustOpened
PUBLIC	?CloseElement@XMLPrinter@tinyxml2@@UAEX_N@Z	; tinyxml2::XMLPrinter::CloseElement
PUBLIC	?PushAttribute@XMLPrinter@tinyxml2@@QAEXPBDN@Z	; tinyxml2::XMLPrinter::PushAttribute
PUBLIC	?PushAttribute@XMLPrinter@tinyxml2@@QAEXPBD_N@Z	; tinyxml2::XMLPrinter::PushAttribute
PUBLIC	?PushAttribute@XMLPrinter@tinyxml2@@QAEXPBDI@Z	; tinyxml2::XMLPrinter::PushAttribute
PUBLIC	?PushAttribute@XMLPrinter@tinyxml2@@QAEXPBDH@Z	; tinyxml2::XMLPrinter::PushAttribute
PUBLIC	?PushAttribute@XMLPrinter@tinyxml2@@QAEXPBD0@Z	; tinyxml2::XMLPrinter::PushAttribute
PUBLIC	?OpenElement@XMLPrinter@tinyxml2@@QAEXPBD_N@Z	; tinyxml2::XMLPrinter::OpenElement
PUBLIC	?PushHeader@XMLPrinter@tinyxml2@@QAEX_N0@Z	; tinyxml2::XMLPrinter::PushHeader
PUBLIC	?PrintString@XMLPrinter@tinyxml2@@AAEXPBD_N@Z	; tinyxml2::XMLPrinter::PrintString
PUBLIC	?PrintSpace@XMLPrinter@tinyxml2@@MAEXH@Z	; tinyxml2::XMLPrinter::PrintSpace
PUBLIC	?Print@XMLPrinter@tinyxml2@@IAAXPBDZZ		; tinyxml2::XMLPrinter::Print
PUBLIC	??0XMLVisitor@tinyxml2@@QAE@XZ			; tinyxml2::XMLVisitor::XMLVisitor
PUBLIC	??0XMLPrinter@tinyxml2@@QAE@PAU_iobuf@@_NH@Z	; tinyxml2::XMLPrinter::XMLPrinter
PUBLIC	?Parse@XMLDocument@tinyxml2@@AAEXXZ		; tinyxml2::XMLDocument::Parse
PUBLIC	?PrintError@XMLDocument@tinyxml2@@QBEXXZ	; tinyxml2::XMLDocument::PrintError
PUBLIC	?ErrorName@XMLDocument@tinyxml2@@QBEPBDXZ	; tinyxml2::XMLDocument::ErrorName
PUBLIC	?SetError@XMLDocument@tinyxml2@@QAEXW4XMLError@2@PBD1@Z ; tinyxml2::XMLDocument::SetError
PUBLIC	?Print@XMLDocument@tinyxml2@@QBEXPAVXMLPrinter@2@@Z ; tinyxml2::XMLDocument::Print
PUBLIC	?Parse@XMLDocument@tinyxml2@@QAE?AW4XMLError@2@PBDI@Z ; tinyxml2::XMLDocument::Parse
PUBLIC	?SaveFile@XMLDocument@tinyxml2@@QAE?AW4XMLError@2@PAU_iobuf@@_N@Z ; tinyxml2::XMLDocument::SaveFile
PUBLIC	?SaveFile@XMLDocument@tinyxml2@@QAE?AW4XMLError@2@PBD_N@Z ; tinyxml2::XMLDocument::SaveFile
PUBLIC	?LoadFile@XMLDocument@tinyxml2@@QAE?AW4XMLError@2@PAU_iobuf@@@Z ; tinyxml2::XMLDocument::LoadFile
PUBLIC	?LoadFile@XMLDocument@tinyxml2@@QAE?AW4XMLError@2@PBD@Z ; tinyxml2::XMLDocument::LoadFile
PUBLIC	?DeleteNode@XMLDocument@tinyxml2@@QAEXPAVXMLNode@2@@Z ; tinyxml2::XMLDocument::DeleteNode
PUBLIC	?NewUnknown@XMLDocument@tinyxml2@@QAEPAVXMLUnknown@2@PBD@Z ; tinyxml2::XMLDocument::NewUnknown
PUBLIC	?NewDeclaration@XMLDocument@tinyxml2@@QAEPAVXMLDeclaration@2@PBD@Z ; tinyxml2::XMLDocument::NewDeclaration
PUBLIC	?NewText@XMLDocument@tinyxml2@@QAEPAVXMLText@2@PBD@Z ; tinyxml2::XMLDocument::NewText
PUBLIC	?NewComment@XMLDocument@tinyxml2@@QAEPAVXMLComment@2@PBD@Z ; tinyxml2::XMLDocument::NewComment
PUBLIC	?NewElement@XMLDocument@tinyxml2@@QAEPAVXMLElement@2@PBD@Z ; tinyxml2::XMLDocument::NewElement
PUBLIC	?Clear@XMLDocument@tinyxml2@@QAEXXZ		; tinyxml2::XMLDocument::Clear
PUBLIC	??1XMLDocument@tinyxml2@@UAE@XZ			; tinyxml2::XMLDocument::~XMLDocument
PUBLIC	??_GXMLDocument@tinyxml2@@UAEPAXI@Z		; tinyxml2::XMLDocument::`scalar deleting destructor'
PUBLIC	??0XMLDocument@tinyxml2@@QAE@_NW4Whitespace@1@@Z ; tinyxml2::XMLDocument::XMLDocument
PUBLIC	?Accept@XMLElement@tinyxml2@@UBE_NPAVXMLVisitor@2@@Z ; tinyxml2::XMLElement::Accept
PUBLIC	?ShallowEqual@XMLElement@tinyxml2@@UBE_NPBVXMLNode@2@@Z ; tinyxml2::XMLElement::ShallowEqual
PUBLIC	?ShallowClone@XMLElement@tinyxml2@@UBEPAVXMLNode@2@PAVXMLDocument@2@@Z ; tinyxml2::XMLElement::ShallowClone
PUBLIC	?ParseDeep@XMLElement@tinyxml2@@MAEPADPADPAVStrPair@2@@Z ; tinyxml2::XMLElement::ParseDeep
PUBLIC	?DeleteAttribute@XMLElement@tinyxml2@@CAXPAVXMLAttribute@2@@Z ; tinyxml2::XMLElement::DeleteAttribute
PUBLIC	?ParseAttributes@XMLElement@tinyxml2@@AAEPADPAD@Z ; tinyxml2::XMLElement::ParseAttributes
PUBLIC	?DeleteAttribute@XMLElement@tinyxml2@@QAEXPBD@Z	; tinyxml2::XMLElement::DeleteAttribute
PUBLIC	?FindOrCreateAttribute@XMLElement@tinyxml2@@AAEPAVXMLAttribute@2@PBD@Z ; tinyxml2::XMLElement::FindOrCreateAttribute
PUBLIC	?QueryFloatText@XMLElement@tinyxml2@@QBE?AW4XMLError@2@PAM@Z ; tinyxml2::XMLElement::QueryFloatText
PUBLIC	?QueryDoubleText@XMLElement@tinyxml2@@QBE?AW4XMLError@2@PAN@Z ; tinyxml2::XMLElement::QueryDoubleText
PUBLIC	?QueryBoolText@XMLElement@tinyxml2@@QBE?AW4XMLError@2@PA_N@Z ; tinyxml2::XMLElement::QueryBoolText
PUBLIC	?QueryUnsignedText@XMLElement@tinyxml2@@QBE?AW4XMLError@2@PAI@Z ; tinyxml2::XMLElement::QueryUnsignedText
PUBLIC	?QueryIntText@XMLElement@tinyxml2@@QBE?AW4XMLError@2@PAH@Z ; tinyxml2::XMLElement::QueryIntText
PUBLIC	?SetText@XMLElement@tinyxml2@@QAEXN@Z		; tinyxml2::XMLElement::SetText
PUBLIC	?SetText@XMLElement@tinyxml2@@QAEXM@Z		; tinyxml2::XMLElement::SetText
PUBLIC	?SetText@XMLElement@tinyxml2@@QAEX_N@Z		; tinyxml2::XMLElement::SetText
PUBLIC	?SetText@XMLElement@tinyxml2@@QAEXI@Z		; tinyxml2::XMLElement::SetText
PUBLIC	?SetText@XMLElement@tinyxml2@@QAEXH@Z		; tinyxml2::XMLElement::SetText
PUBLIC	?SetText@XMLElement@tinyxml2@@QAEXPBD@Z		; tinyxml2::XMLElement::SetText
PUBLIC	?FindAttribute@XMLElement@tinyxml2@@QBEPBVXMLAttribute@2@PBD@Z ; tinyxml2::XMLElement::FindAttribute
PUBLIC	??1XMLElement@tinyxml2@@EAE@XZ			; tinyxml2::XMLElement::~XMLElement
PUBLIC	??_GXMLElement@tinyxml2@@EAEPAXI@Z		; tinyxml2::XMLElement::`scalar deleting destructor'
PUBLIC	??0XMLElement@tinyxml2@@AAE@PAVXMLDocument@1@@Z	; tinyxml2::XMLElement::XMLElement
PUBLIC	?SetAttribute@XMLAttribute@tinyxml2@@QAEXM@Z	; tinyxml2::XMLAttribute::SetAttribute
PUBLIC	?SetAttribute@XMLAttribute@tinyxml2@@QAEXN@Z	; tinyxml2::XMLAttribute::SetAttribute
PUBLIC	?SetAttribute@XMLAttribute@tinyxml2@@QAEX_N@Z	; tinyxml2::XMLAttribute::SetAttribute
PUBLIC	?SetAttribute@XMLAttribute@tinyxml2@@QAEXI@Z	; tinyxml2::XMLAttribute::SetAttribute
PUBLIC	?SetAttribute@XMLAttribute@tinyxml2@@QAEXH@Z	; tinyxml2::XMLAttribute::SetAttribute
PUBLIC	?SetAttribute@XMLAttribute@tinyxml2@@QAEXPBD@Z	; tinyxml2::XMLAttribute::SetAttribute
PUBLIC	?QueryDoubleValue@XMLAttribute@tinyxml2@@QBE?AW4XMLError@2@PAN@Z ; tinyxml2::XMLAttribute::QueryDoubleValue
PUBLIC	?QueryFloatValue@XMLAttribute@tinyxml2@@QBE?AW4XMLError@2@PAM@Z ; tinyxml2::XMLAttribute::QueryFloatValue
PUBLIC	?QueryBoolValue@XMLAttribute@tinyxml2@@QBE?AW4XMLError@2@PA_N@Z ; tinyxml2::XMLAttribute::QueryBoolValue
PUBLIC	?QueryUnsignedValue@XMLAttribute@tinyxml2@@QBE?AW4XMLError@2@PAI@Z ; tinyxml2::XMLAttribute::QueryUnsignedValue
PUBLIC	?QueryIntValue@XMLAttribute@tinyxml2@@QBE?AW4XMLError@2@PAH@Z ; tinyxml2::XMLAttribute::QueryIntValue
PUBLIC	?SetName@XMLAttribute@tinyxml2@@AAEXPBD@Z	; tinyxml2::XMLAttribute::SetName
PUBLIC	?ParseDeep@XMLAttribute@tinyxml2@@AAEPADPAD_N@Z	; tinyxml2::XMLAttribute::ParseDeep
PUBLIC	?Value@XMLAttribute@tinyxml2@@QBEPBDXZ		; tinyxml2::XMLAttribute::Value
PUBLIC	?Name@XMLAttribute@tinyxml2@@QBEPBDXZ		; tinyxml2::XMLAttribute::Name
PUBLIC	?Accept@XMLUnknown@tinyxml2@@UBE_NPAVXMLVisitor@2@@Z ; tinyxml2::XMLUnknown::Accept
PUBLIC	?ShallowEqual@XMLUnknown@tinyxml2@@UBE_NPBVXMLNode@2@@Z ; tinyxml2::XMLUnknown::ShallowEqual
PUBLIC	?ShallowClone@XMLUnknown@tinyxml2@@UBEPAVXMLNode@2@PAVXMLDocument@2@@Z ; tinyxml2::XMLUnknown::ShallowClone
PUBLIC	?ParseDeep@XMLUnknown@tinyxml2@@MAEPADPADPAVStrPair@2@@Z ; tinyxml2::XMLUnknown::ParseDeep
PUBLIC	??1XMLUnknown@tinyxml2@@MAE@XZ			; tinyxml2::XMLUnknown::~XMLUnknown
PUBLIC	??_GXMLUnknown@tinyxml2@@MAEPAXI@Z		; tinyxml2::XMLUnknown::`scalar deleting destructor'
PUBLIC	??0XMLUnknown@tinyxml2@@IAE@PAVXMLDocument@1@@Z	; tinyxml2::XMLUnknown::XMLUnknown
PUBLIC	?Accept@XMLDeclaration@tinyxml2@@UBE_NPAVXMLVisitor@2@@Z ; tinyxml2::XMLDeclaration::Accept
PUBLIC	?ShallowEqual@XMLDeclaration@tinyxml2@@UBE_NPBVXMLNode@2@@Z ; tinyxml2::XMLDeclaration::ShallowEqual
PUBLIC	?ShallowClone@XMLDeclaration@tinyxml2@@UBEPAVXMLNode@2@PAVXMLDocument@2@@Z ; tinyxml2::XMLDeclaration::ShallowClone
PUBLIC	?ParseDeep@XMLDeclaration@tinyxml2@@MAEPADPADPAVStrPair@2@@Z ; tinyxml2::XMLDeclaration::ParseDeep
PUBLIC	??1XMLDeclaration@tinyxml2@@MAE@XZ		; tinyxml2::XMLDeclaration::~XMLDeclaration
PUBLIC	??_GXMLDeclaration@tinyxml2@@MAEPAXI@Z		; tinyxml2::XMLDeclaration::`scalar deleting destructor'
PUBLIC	??0XMLDeclaration@tinyxml2@@IAE@PAVXMLDocument@1@@Z ; tinyxml2::XMLDeclaration::XMLDeclaration
PUBLIC	?Accept@XMLComment@tinyxml2@@UBE_NPAVXMLVisitor@2@@Z ; tinyxml2::XMLComment::Accept
PUBLIC	?ShallowEqual@XMLComment@tinyxml2@@UBE_NPBVXMLNode@2@@Z ; tinyxml2::XMLComment::ShallowEqual
PUBLIC	?ShallowClone@XMLComment@tinyxml2@@UBEPAVXMLNode@2@PAVXMLDocument@2@@Z ; tinyxml2::XMLComment::ShallowClone
PUBLIC	?ParseDeep@XMLComment@tinyxml2@@MAEPADPADPAVStrPair@2@@Z ; tinyxml2::XMLComment::ParseDeep
PUBLIC	??1XMLComment@tinyxml2@@MAE@XZ			; tinyxml2::XMLComment::~XMLComment
PUBLIC	??_GXMLComment@tinyxml2@@MAEPAXI@Z		; tinyxml2::XMLComment::`scalar deleting destructor'
PUBLIC	??0XMLComment@tinyxml2@@IAE@PAVXMLDocument@1@@Z	; tinyxml2::XMLComment::XMLComment
PUBLIC	?Accept@XMLText@tinyxml2@@UBE_NPAVXMLVisitor@2@@Z ; tinyxml2::XMLText::Accept
PUBLIC	?ShallowEqual@XMLText@tinyxml2@@UBE_NPBVXMLNode@2@@Z ; tinyxml2::XMLText::ShallowEqual
PUBLIC	?ShallowClone@XMLText@tinyxml2@@UBEPAVXMLNode@2@PAVXMLDocument@2@@Z ; tinyxml2::XMLText::ShallowClone
PUBLIC	?ParseDeep@XMLText@tinyxml2@@MAEPADPADPAVStrPair@2@@Z ; tinyxml2::XMLText::ParseDeep
PUBLIC	?InsertChildPreamble@XMLNode@tinyxml2@@ABEXPAV12@@Z ; tinyxml2::XMLNode::InsertChildPreamble
PUBLIC	?DeleteNode@XMLNode@tinyxml2@@CAXPAV12@@Z	; tinyxml2::XMLNode::DeleteNode
PUBLIC	?ParseDeep@XMLNode@tinyxml2@@MAEPADPADPAVStrPair@2@@Z ; tinyxml2::XMLNode::ParseDeep
PUBLIC	?PreviousSiblingElement@XMLNode@tinyxml2@@QBEPBVXMLElement@2@PBD@Z ; tinyxml2::XMLNode::PreviousSiblingElement
PUBLIC	?NextSiblingElement@XMLNode@tinyxml2@@QBEPBVXMLElement@2@PBD@Z ; tinyxml2::XMLNode::NextSiblingElement
PUBLIC	?LastChildElement@XMLNode@tinyxml2@@QBEPBVXMLElement@2@PBD@Z ; tinyxml2::XMLNode::LastChildElement
PUBLIC	?FirstChildElement@XMLNode@tinyxml2@@QBEPBVXMLElement@2@PBD@Z ; tinyxml2::XMLNode::FirstChildElement
PUBLIC	?InsertAfterChild@XMLNode@tinyxml2@@QAEPAV12@PAV12@0@Z ; tinyxml2::XMLNode::InsertAfterChild
PUBLIC	?InsertFirstChild@XMLNode@tinyxml2@@QAEPAV12@PAV12@@Z ; tinyxml2::XMLNode::InsertFirstChild
PUBLIC	?InsertEndChild@XMLNode@tinyxml2@@QAEPAV12@PAV12@@Z ; tinyxml2::XMLNode::InsertEndChild
PUBLIC	?DeleteChild@XMLNode@tinyxml2@@QAEXPAV12@@Z	; tinyxml2::XMLNode::DeleteChild
PUBLIC	?Unlink@XMLNode@tinyxml2@@AAEXPAV12@@Z		; tinyxml2::XMLNode::Unlink
PUBLIC	?DeleteChildren@XMLNode@tinyxml2@@QAEXXZ	; tinyxml2::XMLNode::DeleteChildren
PUBLIC	?SetValue@XMLNode@tinyxml2@@QAEXPBD_N@Z		; tinyxml2::XMLNode::SetValue
PUBLIC	?Value@XMLNode@tinyxml2@@QBEPBDXZ		; tinyxml2::XMLNode::Value
PUBLIC	??1XMLNode@tinyxml2@@MAE@XZ			; tinyxml2::XMLNode::~XMLNode
PUBLIC	??_GXMLNode@tinyxml2@@MAEPAXI@Z			; tinyxml2::XMLNode::`scalar deleting destructor'
PUBLIC	??0XMLNode@tinyxml2@@IAE@PAVXMLDocument@1@@Z	; tinyxml2::XMLNode::XMLNode
PUBLIC	?Accept@XMLDocument@tinyxml2@@UBE_NPAVXMLVisitor@2@@Z ; tinyxml2::XMLDocument::Accept
PUBLIC	?Identify@XMLDocument@tinyxml2@@QAEPADPADPAPAVXMLNode@2@@Z ; tinyxml2::XMLDocument::Identify
PUBLIC	?ToDouble@XMLUtil@tinyxml2@@SA_NPBDPAN@Z	; tinyxml2::XMLUtil::ToDouble
PUBLIC	?ToFloat@XMLUtil@tinyxml2@@SA_NPBDPAM@Z		; tinyxml2::XMLUtil::ToFloat
PUBLIC	?ToBool@XMLUtil@tinyxml2@@SA_NPBDPA_N@Z		; tinyxml2::XMLUtil::ToBool
PUBLIC	?ToUnsigned@XMLUtil@tinyxml2@@SA_NPBDPAI@Z	; tinyxml2::XMLUtil::ToUnsigned
PUBLIC	?ToInt@XMLUtil@tinyxml2@@SA_NPBDPAH@Z		; tinyxml2::XMLUtil::ToInt
PUBLIC	?ToStr@XMLUtil@tinyxml2@@SAXNPADH@Z		; tinyxml2::XMLUtil::ToStr
PUBLIC	?ToStr@XMLUtil@tinyxml2@@SAXMPADH@Z		; tinyxml2::XMLUtil::ToStr
PUBLIC	?ToStr@XMLUtil@tinyxml2@@SAX_NPADH@Z		; tinyxml2::XMLUtil::ToStr
PUBLIC	?ToStr@XMLUtil@tinyxml2@@SAXIPADH@Z		; tinyxml2::XMLUtil::ToStr
PUBLIC	?ToStr@XMLUtil@tinyxml2@@SAXHPADH@Z		; tinyxml2::XMLUtil::ToStr
PUBLIC	?GetCharacterRef@XMLUtil@tinyxml2@@SAPBDPBDPADPAH@Z ; tinyxml2::XMLUtil::GetCharacterRef
PUBLIC	?ConvertUTF32ToUTF8@XMLUtil@tinyxml2@@SAXKPADPAH@Z ; tinyxml2::XMLUtil::ConvertUTF32ToUTF8
PUBLIC	?ReadBOM@XMLUtil@tinyxml2@@SAPBDPBDPA_N@Z	; tinyxml2::XMLUtil::ReadBOM
PUBLIC	?GetStr@StrPair@tinyxml2@@QAEPBDXZ		; tinyxml2::StrPair::GetStr
PUBLIC	?CollapseWhitespace@StrPair@tinyxml2@@AAEXXZ	; tinyxml2::StrPair::CollapseWhitespace
PUBLIC	?ParseName@StrPair@tinyxml2@@QAEPADPAD@Z	; tinyxml2::StrPair::ParseName
PUBLIC	?ParseText@StrPair@tinyxml2@@QAEPADPADPBDH@Z	; tinyxml2::StrPair::ParseText
PUBLIC	?SetStr@StrPair@tinyxml2@@QAEXPBDH@Z		; tinyxml2::StrPair::SetStr
PUBLIC	?Reset@StrPair@tinyxml2@@AAEXXZ			; tinyxml2::StrPair::Reset
PUBLIC	?TransferTo@StrPair@tinyxml2@@QAEXPAV12@@Z	; tinyxml2::StrPair::TransferTo
PUBLIC	??1StrPair@tinyxml2@@QAE@XZ			; tinyxml2::StrPair::~StrPair
PUBLIC	??_GXMLPrinter@tinyxml2@@UAEPAXI@Z		; tinyxml2::XMLPrinter::`scalar deleting destructor'
PUBLIC	?CompactMode@XMLPrinter@tinyxml2@@MAE_NABVXMLElement@2@@Z ; tinyxml2::XMLPrinter::CompactMode
PUBLIC	?VisitExit@XMLPrinter@tinyxml2@@UAE_NABVXMLDocument@2@@Z ; tinyxml2::XMLPrinter::VisitExit
PUBLIC	??1XMLPrinter@tinyxml2@@UAE@XZ			; tinyxml2::XMLPrinter::~XMLPrinter
PUBLIC	?ShallowEqual@XMLDocument@tinyxml2@@UBE_NPBVXMLNode@2@@Z ; tinyxml2::XMLDocument::ShallowEqual
PUBLIC	?ShallowClone@XMLDocument@tinyxml2@@UBEPAVXMLNode@2@PAV12@@Z ; tinyxml2::XMLDocument::ShallowClone
PUBLIC	?Error@XMLDocument@tinyxml2@@QBE_NXZ		; tinyxml2::XMLDocument::Error
PUBLIC	?HasBOM@XMLDocument@tinyxml2@@QBE_NXZ		; tinyxml2::XMLDocument::HasBOM
PUBLIC	?WhitespaceMode@XMLDocument@tinyxml2@@QBE?AW4Whitespace@2@XZ ; tinyxml2::XMLDocument::WhitespaceMode
PUBLIC	?ProcessEntities@XMLDocument@tinyxml2@@QBE_NXZ	; tinyxml2::XMLDocument::ProcessEntities
PUBLIC	?ToDocument@XMLDocument@tinyxml2@@UBEPBV12@XZ	; tinyxml2::XMLDocument::ToDocument
PUBLIC	?ToDocument@XMLDocument@tinyxml2@@UAEPAV12@XZ	; tinyxml2::XMLDocument::ToDocument
PUBLIC	?ClosingType@XMLElement@tinyxml2@@QBEHXZ	; tinyxml2::XMLElement::ClosingType
PUBLIC	?FirstAttribute@XMLElement@tinyxml2@@QBEPBVXMLAttribute@2@XZ ; tinyxml2::XMLElement::FirstAttribute
PUBLIC	?SetAttribute@XMLElement@tinyxml2@@QAEXPBD0@Z	; tinyxml2::XMLElement::SetAttribute
PUBLIC	?ToElement@XMLElement@tinyxml2@@UBEPBV12@XZ	; tinyxml2::XMLElement::ToElement
PUBLIC	?ToElement@XMLElement@tinyxml2@@UAEPAV12@XZ	; tinyxml2::XMLElement::ToElement
PUBLIC	?SetName@XMLElement@tinyxml2@@QAEXPBD_N@Z	; tinyxml2::XMLElement::SetName
PUBLIC	?Name@XMLElement@tinyxml2@@QBEPBDXZ		; tinyxml2::XMLElement::Name
PUBLIC	??_GXMLAttribute@tinyxml2@@EAEPAXI@Z		; tinyxml2::XMLAttribute::`scalar deleting destructor'
PUBLIC	??1XMLAttribute@tinyxml2@@EAE@XZ		; tinyxml2::XMLAttribute::~XMLAttribute
PUBLIC	??0XMLAttribute@tinyxml2@@AAE@XZ		; tinyxml2::XMLAttribute::XMLAttribute
PUBLIC	?Next@XMLAttribute@tinyxml2@@QBEPBV12@XZ	; tinyxml2::XMLAttribute::Next
PUBLIC	?ToUnknown@XMLUnknown@tinyxml2@@UBEPBV12@XZ	; tinyxml2::XMLUnknown::ToUnknown
PUBLIC	?ToUnknown@XMLUnknown@tinyxml2@@UAEPAV12@XZ	; tinyxml2::XMLUnknown::ToUnknown
PUBLIC	?ToDeclaration@XMLDeclaration@tinyxml2@@UBEPBV12@XZ ; tinyxml2::XMLDeclaration::ToDeclaration
PUBLIC	?ToDeclaration@XMLDeclaration@tinyxml2@@UAEPAV12@XZ ; tinyxml2::XMLDeclaration::ToDeclaration
PUBLIC	?ToComment@XMLComment@tinyxml2@@UBEPBV12@XZ	; tinyxml2::XMLComment::ToComment
PUBLIC	?ToComment@XMLComment@tinyxml2@@UAEPAV12@XZ	; tinyxml2::XMLComment::ToComment
PUBLIC	??_GXMLText@tinyxml2@@MAEPAXI@Z			; tinyxml2::XMLText::`scalar deleting destructor'
PUBLIC	??1XMLText@tinyxml2@@MAE@XZ			; tinyxml2::XMLText::~XMLText
PUBLIC	??0XMLText@tinyxml2@@IAE@PAVXMLDocument@1@@Z	; tinyxml2::XMLText::XMLText
PUBLIC	?CData@XMLText@tinyxml2@@QBE_NXZ		; tinyxml2::XMLText::CData
PUBLIC	?SetCData@XMLText@tinyxml2@@QAEX_N@Z		; tinyxml2::XMLText::SetCData
PUBLIC	?ToText@XMLText@tinyxml2@@UBEPBV12@XZ		; tinyxml2::XMLText::ToText
PUBLIC	?ToText@XMLText@tinyxml2@@UAEPAV12@XZ		; tinyxml2::XMLText::ToText
PUBLIC	?NextSibling@XMLNode@tinyxml2@@QBEPBV12@XZ	; tinyxml2::XMLNode::NextSibling
PUBLIC	?FirstChild@XMLNode@tinyxml2@@QAEPAV12@XZ	; tinyxml2::XMLNode::FirstChild
PUBLIC	?FirstChild@XMLNode@tinyxml2@@QBEPBV12@XZ	; tinyxml2::XMLNode::FirstChild
PUBLIC	?NoChildren@XMLNode@tinyxml2@@QBE_NXZ		; tinyxml2::XMLNode::NoChildren
PUBLIC	?Parent@XMLNode@tinyxml2@@QBEPBV12@XZ		; tinyxml2::XMLNode::Parent
PUBLIC	?ToUnknown@XMLNode@tinyxml2@@UBEPBVXMLUnknown@2@XZ ; tinyxml2::XMLNode::ToUnknown
PUBLIC	?ToDeclaration@XMLNode@tinyxml2@@UBEPBVXMLDeclaration@2@XZ ; tinyxml2::XMLNode::ToDeclaration
PUBLIC	?ToDocument@XMLNode@tinyxml2@@UBEPBVXMLDocument@2@XZ ; tinyxml2::XMLNode::ToDocument
PUBLIC	?ToComment@XMLNode@tinyxml2@@UBEPBVXMLComment@2@XZ ; tinyxml2::XMLNode::ToComment
PUBLIC	?ToText@XMLNode@tinyxml2@@UBEPBVXMLText@2@XZ	; tinyxml2::XMLNode::ToText
PUBLIC	?ToElement@XMLNode@tinyxml2@@UBEPBVXMLElement@2@XZ ; tinyxml2::XMLNode::ToElement
PUBLIC	?ToUnknown@XMLNode@tinyxml2@@UAEPAVXMLUnknown@2@XZ ; tinyxml2::XMLNode::ToUnknown
PUBLIC	?ToDeclaration@XMLNode@tinyxml2@@UAEPAVXMLDeclaration@2@XZ ; tinyxml2::XMLNode::ToDeclaration
PUBLIC	?ToDocument@XMLNode@tinyxml2@@UAEPAVXMLDocument@2@XZ ; tinyxml2::XMLNode::ToDocument
PUBLIC	?ToComment@XMLNode@tinyxml2@@UAEPAVXMLComment@2@XZ ; tinyxml2::XMLNode::ToComment
PUBLIC	?ToText@XMLNode@tinyxml2@@UAEPAVXMLText@2@XZ	; tinyxml2::XMLNode::ToText
PUBLIC	?ToElement@XMLNode@tinyxml2@@UAEPAVXMLElement@2@XZ ; tinyxml2::XMLNode::ToElement
PUBLIC	?GetDocument@XMLNode@tinyxml2@@QAEPAVXMLDocument@2@XZ ; tinyxml2::XMLNode::GetDocument
PUBLIC	?IsUTF8Continuation@XMLUtil@tinyxml2@@SA_ND@Z	; tinyxml2::XMLUtil::IsUTF8Continuation
PUBLIC	?StringEqual@XMLUtil@tinyxml2@@SA_NPBD0H@Z	; tinyxml2::XMLUtil::StringEqual
PUBLIC	?IsNameChar@XMLUtil@tinyxml2@@SA_NE@Z		; tinyxml2::XMLUtil::IsNameChar
PUBLIC	?IsNameStartChar@XMLUtil@tinyxml2@@SA_NE@Z	; tinyxml2::XMLUtil::IsNameStartChar
PUBLIC	?IsWhiteSpace@XMLUtil@tinyxml2@@SA_ND@Z		; tinyxml2::XMLUtil::IsWhiteSpace
PUBLIC	?SkipWhiteSpace@XMLUtil@tinyxml2@@SAPADPAD@Z	; tinyxml2::XMLUtil::SkipWhiteSpace
PUBLIC	?SkipWhiteSpace@XMLUtil@tinyxml2@@SAPBDPBD@Z	; tinyxml2::XMLUtil::SkipWhiteSpace
PUBLIC	??_GXMLVisitor@tinyxml2@@UAEPAXI@Z		; tinyxml2::XMLVisitor::`scalar deleting destructor'
PUBLIC	?Visit@XMLVisitor@tinyxml2@@UAE_NABVXMLUnknown@2@@Z ; tinyxml2::XMLVisitor::Visit
PUBLIC	?Visit@XMLVisitor@tinyxml2@@UAE_NABVXMLComment@2@@Z ; tinyxml2::XMLVisitor::Visit
PUBLIC	?Visit@XMLVisitor@tinyxml2@@UAE_NABVXMLText@2@@Z ; tinyxml2::XMLVisitor::Visit
PUBLIC	?Visit@XMLVisitor@tinyxml2@@UAE_NABVXMLDeclaration@2@@Z ; tinyxml2::XMLVisitor::Visit
PUBLIC	?VisitExit@XMLVisitor@tinyxml2@@UAE_NABVXMLElement@2@@Z ; tinyxml2::XMLVisitor::VisitExit
PUBLIC	?VisitEnter@XMLVisitor@tinyxml2@@UAE_NABVXMLElement@2@PBVXMLAttribute@2@@Z ; tinyxml2::XMLVisitor::VisitEnter
PUBLIC	?VisitExit@XMLVisitor@tinyxml2@@UAE_NABVXMLDocument@2@@Z ; tinyxml2::XMLVisitor::VisitExit
PUBLIC	?VisitEnter@XMLVisitor@tinyxml2@@UAE_NABVXMLDocument@2@@Z ; tinyxml2::XMLVisitor::VisitEnter
PUBLIC	??1XMLVisitor@tinyxml2@@UAE@XZ			; tinyxml2::XMLVisitor::~XMLVisitor
PUBLIC	??_GMemPool@tinyxml2@@UAEPAXI@Z			; tinyxml2::MemPool::`scalar deleting destructor'
PUBLIC	??1MemPool@tinyxml2@@UAE@XZ			; tinyxml2::MemPool::~MemPool
PUBLIC	??0MemPool@tinyxml2@@QAE@XZ			; tinyxml2::MemPool::MemPool
PUBLIC	?SetInternedStr@StrPair@tinyxml2@@QAEXPBD@Z	; tinyxml2::StrPair::SetInternedStr
PUBLIC	?Empty@StrPair@tinyxml2@@QBE_NXZ		; tinyxml2::StrPair::Empty
PUBLIC	?Set@StrPair@tinyxml2@@QAEXPAD0H@Z		; tinyxml2::StrPair::Set
PUBLIC	??0StrPair@tinyxml2@@QAE@XZ			; tinyxml2::StrPair::StrPair
PUBLIC	_sscanf_s
PUBLIC	_vsscanf_s
PUBLIC	__vsscanf_s_l
PUBLIC	__vscprintf
PUBLIC	__vscprintf_l
PUBLIC	_vsnprintf_s
PUBLIC	__vsnprintf_s_l
PUBLIC	_vfprintf
PUBLIC	___local_stdio_scanf_options
PUBLIC	?GetText@XMLElement@tinyxml2@@QBEPBDXZ		; tinyxml2::XMLElement::GetText
PUBLIC	?Attribute@XMLElement@tinyxml2@@QBEPBDPBD0@Z	; tinyxml2::XMLElement::Attribute
EXTRN	??_EXMLAttribute@tinyxml2@@EAEPAXI@Z:PROC	; tinyxml2::XMLAttribute::`vector deleting destructor'
EXTRN	??_EXMLUnknown@tinyxml2@@MAEPAXI@Z:PROC		; tinyxml2::XMLUnknown::`vector deleting destructor'
EXTRN	??_EXMLPrinter@tinyxml2@@UAEPAXI@Z:PROC		; tinyxml2::XMLPrinter::`vector deleting destructor'
EXTRN	??_EXMLComment@tinyxml2@@MAEPAXI@Z:PROC		; tinyxml2::XMLComment::`vector deleting destructor'
EXTRN	??_EMemPool@tinyxml2@@UAEPAXI@Z:PROC		; tinyxml2::MemPool::`vector deleting destructor'
EXTRN	??_EXMLNode@tinyxml2@@MAEPAXI@Z:PROC		; tinyxml2::XMLNode::`vector deleting destructor'
EXTRN	??_EXMLDeclaration@tinyxml2@@MAEPAXI@Z:PROC	; tinyxml2::XMLDeclaration::`vector deleting destructor'
EXTRN	??_EXMLText@tinyxml2@@MAEPAXI@Z:PROC		; tinyxml2::XMLText::`vector deleting destructor'
EXTRN	??_E?$MemPoolT@$0CM@@tinyxml2@@UAEPAXI@Z:PROC	; tinyxml2::MemPoolT<44>::`vector deleting destructor'
EXTRN	??_E?$MemPoolT@$0DE@@tinyxml2@@UAEPAXI@Z:PROC	; tinyxml2::MemPoolT<52>::`vector deleting destructor'
EXTRN	??_E?$MemPoolT@$0CE@@tinyxml2@@UAEPAXI@Z:PROC	; tinyxml2::MemPoolT<36>::`vector deleting destructor'
EXTRN	??_E?$MemPoolT@$0DA@@tinyxml2@@UAEPAXI@Z:PROC	; tinyxml2::MemPoolT<48>::`vector deleting destructor'
EXTRN	??_EXMLElement@tinyxml2@@EAEPAXI@Z:PROC		; tinyxml2::XMLElement::`vector deleting destructor'
EXTRN	??_EXMLVisitor@tinyxml2@@UAEPAXI@Z:PROC		; tinyxml2::XMLVisitor::`vector deleting destructor'
EXTRN	??_EXMLDocument@tinyxml2@@UAEPAXI@Z:PROC	; tinyxml2::XMLDocument::`vector deleting destructor'
;	COMDAT xdata$x
xdata$x	SEGMENT
__ehfuncinfo$??0XMLAttribute@tinyxml2@@AAE@XZ DD 019930522H
	DD	01H
	DD	FLAT:__unwindtable$??0XMLAttribute@tinyxml2@@AAE@XZ
	DD	2 DUP(00H)
	DD	2 DUP(00H)
	DD	00H
	DD	01H
__unwindtable$??0XMLAttribute@tinyxml2@@AAE@XZ DD 0ffffffffH
	DD	FLAT:__unwindfunclet$??0XMLAttribute@tinyxml2@@AAE@XZ$0
xdata$x	ENDS
;	COMDAT xdata$x
xdata$x	SEGMENT
__ehfuncinfo$??1?$MemPoolT@$0CM@@tinyxml2@@UAE@XZ DD 019930522H
	DD	00H
	DD	00H
	DD	2 DUP(00H)
	DD	2 DUP(00H)
	DD	00H
	DD	05H
xdata$x	ENDS
;	COMDAT xdata$x
xdata$x	SEGMENT
__ehfuncinfo$??0?$MemPoolT@$0CM@@tinyxml2@@QAE@XZ DD 019930522H
	DD	01H
	DD	FLAT:__unwindtable$??0?$MemPoolT@$0CM@@tinyxml2@@QAE@XZ
	DD	2 DUP(00H)
	DD	2 DUP(00H)
	DD	00H
	DD	01H
__unwindtable$??0?$MemPoolT@$0CM@@tinyxml2@@QAE@XZ DD 0ffffffffH
	DD	FLAT:__unwindfunclet$??0?$MemPoolT@$0CM@@tinyxml2@@QAE@XZ$0
xdata$x	ENDS
;	COMDAT xdata$x
xdata$x	SEGMENT
__ehfuncinfo$??1?$MemPoolT@$0DA@@tinyxml2@@UAE@XZ DD 019930522H
	DD	00H
	DD	00H
	DD	2 DUP(00H)
	DD	2 DUP(00H)
	DD	00H
	DD	05H
xdata$x	ENDS
;	COMDAT xdata$x
xdata$x	SEGMENT
__ehfuncinfo$??0?$MemPoolT@$0DA@@tinyxml2@@QAE@XZ DD 019930522H
	DD	01H
	DD	FLAT:__unwindtable$??0?$MemPoolT@$0DA@@tinyxml2@@QAE@XZ
	DD	2 DUP(00H)
	DD	2 DUP(00H)
	DD	00H
	DD	01H
__unwindtable$??0?$MemPoolT@$0DA@@tinyxml2@@QAE@XZ DD 0ffffffffH
	DD	FLAT:__unwindfunclet$??0?$MemPoolT@$0DA@@tinyxml2@@QAE@XZ$0
xdata$x	ENDS
;	COMDAT xdata$x
xdata$x	SEGMENT
__ehfuncinfo$??1?$MemPoolT@$0CE@@tinyxml2@@UAE@XZ DD 019930522H
	DD	00H
	DD	00H
	DD	2 DUP(00H)
	DD	2 DUP(00H)
	DD	00H
	DD	05H
xdata$x	ENDS
;	COMDAT xdata$x
xdata$x	SEGMENT
__ehfuncinfo$??0?$MemPoolT@$0CE@@tinyxml2@@QAE@XZ DD 019930522H
	DD	01H
	DD	FLAT:__unwindtable$??0?$MemPoolT@$0CE@@tinyxml2@@QAE@XZ
	DD	2 DUP(00H)
	DD	2 DUP(00H)
	DD	00H
	DD	01H
__unwindtable$??0?$MemPoolT@$0CE@@tinyxml2@@QAE@XZ DD 0ffffffffH
	DD	FLAT:__unwindfunclet$??0?$MemPoolT@$0CE@@tinyxml2@@QAE@XZ$0
xdata$x	ENDS
;	COMDAT xdata$x
xdata$x	SEGMENT
__ehfuncinfo$??1?$MemPoolT@$0DE@@tinyxml2@@UAE@XZ DD 019930522H
	DD	00H
	DD	00H
	DD	2 DUP(00H)
	DD	2 DUP(00H)
	DD	00H
	DD	05H
xdata$x	ENDS
;	COMDAT xdata$x
xdata$x	SEGMENT
__ehfuncinfo$??0?$MemPoolT@$0DE@@tinyxml2@@QAE@XZ DD 019930522H
	DD	01H
	DD	FLAT:__unwindtable$??0?$MemPoolT@$0DE@@tinyxml2@@QAE@XZ
	DD	2 DUP(00H)
	DD	2 DUP(00H)
	DD	00H
	DD	01H
__unwindtable$??0?$MemPoolT@$0DE@@tinyxml2@@QAE@XZ DD 0ffffffffH
	DD	FLAT:__unwindfunclet$??0?$MemPoolT@$0DE@@tinyxml2@@QAE@XZ$0
__ehfuncinfo$??0XMLPrinter@tinyxml2@@QAE@PAU_iobuf@@_NH@Z DD 019930522H
	DD	03H
	DD	FLAT:__unwindtable$??0XMLPrinter@tinyxml2@@QAE@PAU_iobuf@@_NH@Z
	DD	2 DUP(00H)
	DD	2 DUP(00H)
	DD	00H
	DD	01H
__unwindtable$??0XMLPrinter@tinyxml2@@QAE@PAU_iobuf@@_NH@Z DD 0ffffffffH
	DD	FLAT:__unwindfunclet$??0XMLPrinter@tinyxml2@@QAE@PAU_iobuf@@_NH@Z$0
	DD	00H
	DD	FLAT:__unwindfunclet$??0XMLPrinter@tinyxml2@@QAE@PAU_iobuf@@_NH@Z$1
	DD	01H
	DD	FLAT:__unwindfunclet$??0XMLPrinter@tinyxml2@@QAE@PAU_iobuf@@_NH@Z$2
__ehfuncinfo$?Print@XMLDocument@tinyxml2@@QBEXPAVXMLPrinter@2@@Z DD 019930522H
	DD	01H
	DD	FLAT:__unwindtable$?Print@XMLDocument@tinyxml2@@QBEXPAVXMLPrinter@2@@Z
	DD	2 DUP(00H)
	DD	2 DUP(00H)
	DD	00H
	DD	01H
__unwindtable$?Print@XMLDocument@tinyxml2@@QBEXPAVXMLPrinter@2@@Z DD 0ffffffffH
	DD	FLAT:__unwindfunclet$?Print@XMLDocument@tinyxml2@@QBEXPAVXMLPrinter@2@@Z$0
__ehfuncinfo$?SaveFile@XMLDocument@tinyxml2@@QAE?AW4XMLError@2@PAU_iobuf@@_N@Z DD 019930522H
	DD	01H
	DD	FLAT:__unwindtable$?SaveFile@XMLDocument@tinyxml2@@QAE?AW4XMLError@2@PAU_iobuf@@_N@Z
	DD	2 DUP(00H)
	DD	2 DUP(00H)
	DD	00H
	DD	01H
__unwindtable$?SaveFile@XMLDocument@tinyxml2@@QAE?AW4XMLError@2@PAU_iobuf@@_N@Z DD 0ffffffffH
	DD	FLAT:__unwindfunclet$?SaveFile@XMLDocument@tinyxml2@@QAE?AW4XMLError@2@PAU_iobuf@@_N@Z$0
__ehfuncinfo$?NewUnknown@XMLDocument@tinyxml2@@QAEPAVXMLUnknown@2@PBD@Z DD 019930522H
	DD	01H
	DD	FLAT:__unwindtable$?NewUnknown@XMLDocument@tinyxml2@@QAEPAVXMLUnknown@2@PBD@Z
	DD	2 DUP(00H)
	DD	2 DUP(00H)
	DD	00H
	DD	01H
__unwindtable$?NewUnknown@XMLDocument@tinyxml2@@QAEPAVXMLUnknown@2@PBD@Z DD 0ffffffffH
	DD	FLAT:__unwindfunclet$?NewUnknown@XMLDocument@tinyxml2@@QAEPAVXMLUnknown@2@PBD@Z$0
__ehfuncinfo$?NewDeclaration@XMLDocument@tinyxml2@@QAEPAVXMLDeclaration@2@PBD@Z DD 019930522H
	DD	01H
	DD	FLAT:__unwindtable$?NewDeclaration@XMLDocument@tinyxml2@@QAEPAVXMLDeclaration@2@PBD@Z
	DD	2 DUP(00H)
	DD	2 DUP(00H)
	DD	00H
	DD	01H
__unwindtable$?NewDeclaration@XMLDocument@tinyxml2@@QAEPAVXMLDeclaration@2@PBD@Z DD 0ffffffffH
	DD	FLAT:__unwindfunclet$?NewDeclaration@XMLDocument@tinyxml2@@QAEPAVXMLDeclaration@2@PBD@Z$0
__ehfuncinfo$?NewText@XMLDocument@tinyxml2@@QAEPAVXMLText@2@PBD@Z DD 019930522H
	DD	01H
	DD	FLAT:__unwindtable$?NewText@XMLDocument@tinyxml2@@QAEPAVXMLText@2@PBD@Z
	DD	2 DUP(00H)
	DD	2 DUP(00H)
	DD	00H
	DD	01H
__unwindtable$?NewText@XMLDocument@tinyxml2@@QAEPAVXMLText@2@PBD@Z DD 0ffffffffH
	DD	FLAT:__unwindfunclet$?NewText@XMLDocument@tinyxml2@@QAEPAVXMLText@2@PBD@Z$0
__ehfuncinfo$?NewComment@XMLDocument@tinyxml2@@QAEPAVXMLComment@2@PBD@Z DD 019930522H
	DD	01H
	DD	FLAT:__unwindtable$?NewComment@XMLDocument@tinyxml2@@QAEPAVXMLComment@2@PBD@Z
	DD	2 DUP(00H)
	DD	2 DUP(00H)
	DD	00H
	DD	01H
__unwindtable$?NewComment@XMLDocument@tinyxml2@@QAEPAVXMLComment@2@PBD@Z DD 0ffffffffH
	DD	FLAT:__unwindfunclet$?NewComment@XMLDocument@tinyxml2@@QAEPAVXMLComment@2@PBD@Z$0
__ehfuncinfo$?NewElement@XMLDocument@tinyxml2@@QAEPAVXMLElement@2@PBD@Z DD 019930522H
	DD	01H
	DD	FLAT:__unwindtable$?NewElement@XMLDocument@tinyxml2@@QAEPAVXMLElement@2@PBD@Z
	DD	2 DUP(00H)
	DD	2 DUP(00H)
	DD	00H
	DD	01H
__unwindtable$?NewElement@XMLDocument@tinyxml2@@QAEPAVXMLElement@2@PBD@Z DD 0ffffffffH
	DD	FLAT:__unwindfunclet$?NewElement@XMLDocument@tinyxml2@@QAEPAVXMLElement@2@PBD@Z$0
__ehfuncinfo$??1XMLDocument@tinyxml2@@UAE@XZ DD 019930522H
	DD	00H
	DD	00H
	DD	2 DUP(00H)
	DD	2 DUP(00H)
	DD	00H
	DD	05H
__ehfuncinfo$??0XMLDocument@tinyxml2@@QAE@_NW4Whitespace@1@@Z DD 019930522H
	DD	04H
	DD	FLAT:__unwindtable$??0XMLDocument@tinyxml2@@QAE@_NW4Whitespace@1@@Z
	DD	2 DUP(00H)
	DD	2 DUP(00H)
	DD	00H
	DD	01H
__unwindtable$??0XMLDocument@tinyxml2@@QAE@_NW4Whitespace@1@@Z DD 0ffffffffH
	DD	FLAT:__unwindfunclet$??0XMLDocument@tinyxml2@@QAE@_NW4Whitespace@1@@Z$0
	DD	00H
	DD	FLAT:__unwindfunclet$??0XMLDocument@tinyxml2@@QAE@_NW4Whitespace@1@@Z$1
	DD	01H
	DD	FLAT:__unwindfunclet$??0XMLDocument@tinyxml2@@QAE@_NW4Whitespace@1@@Z$2
	DD	02H
	DD	FLAT:__unwindfunclet$??0XMLDocument@tinyxml2@@QAE@_NW4Whitespace@1@@Z$3
__ehfuncinfo$?ParseAttributes@XMLElement@tinyxml2@@AAEPADPAD@Z DD 019930522H
	DD	01H
	DD	FLAT:__unwindtable$?ParseAttributes@XMLElement@tinyxml2@@AAEPADPAD@Z
	DD	2 DUP(00H)
	DD	2 DUP(00H)
	DD	00H
	DD	01H
__unwindtable$?ParseAttributes@XMLElement@tinyxml2@@AAEPADPAD@Z DD 0ffffffffH
	DD	FLAT:__unwindfunclet$?ParseAttributes@XMLElement@tinyxml2@@AAEPADPAD@Z$0
__ehfuncinfo$?FindOrCreateAttribute@XMLElement@tinyxml2@@AAEPAVXMLAttribute@2@PBD@Z DD 019930522H
	DD	01H
	DD	FLAT:__unwindtable$?FindOrCreateAttribute@XMLElement@tinyxml2@@AAEPAVXMLAttribute@2@PBD@Z
	DD	2 DUP(00H)
	DD	2 DUP(00H)
	DD	00H
	DD	01H
__unwindtable$?FindOrCreateAttribute@XMLElement@tinyxml2@@AAEPAVXMLAttribute@2@PBD@Z DD 0ffffffffH
	DD	FLAT:__unwindfunclet$?FindOrCreateAttribute@XMLElement@tinyxml2@@AAEPAVXMLAttribute@2@PBD@Z$0
__ehfuncinfo$??1XMLElement@tinyxml2@@EAE@XZ DD 019930522H
	DD	00H
	DD	00H
	DD	2 DUP(00H)
	DD	2 DUP(00H)
	DD	00H
	DD	05H
__ehfuncinfo$?ParseDeep@XMLNode@tinyxml2@@MAEPADPADPAVStrPair@2@@Z DD 019930522H
	DD	01H
	DD	FLAT:__unwindtable$?ParseDeep@XMLNode@tinyxml2@@MAEPADPADPAVStrPair@2@@Z
	DD	2 DUP(00H)
	DD	2 DUP(00H)
	DD	00H
	DD	01H
__unwindtable$?ParseDeep@XMLNode@tinyxml2@@MAEPADPADPAVStrPair@2@@Z DD 0ffffffffH
	DD	FLAT:__unwindfunclet$?ParseDeep@XMLNode@tinyxml2@@MAEPADPADPAVStrPair@2@@Z$0
__ehfuncinfo$??1XMLNode@tinyxml2@@MAE@XZ DD 019930522H
	DD	00H
	DD	00H
	DD	2 DUP(00H)
	DD	2 DUP(00H)
	DD	00H
	DD	05H
__ehfuncinfo$?Identify@XMLDocument@tinyxml2@@QAEPADPADPAPAVXMLNode@2@@Z DD 019930522H
	DD	06H
	DD	FLAT:__unwindtable$?Identify@XMLDocument@tinyxml2@@QAEPADPADPAPAVXMLNode@2@@Z
	DD	2 DUP(00H)
	DD	2 DUP(00H)
	DD	00H
	DD	01H
__unwindtable$?Identify@XMLDocument@tinyxml2@@QAEPADPADPAPAVXMLNode@2@@Z DD 0ffffffffH
	DD	FLAT:__unwindfunclet$?Identify@XMLDocument@tinyxml2@@QAEPADPADPAPAVXMLNode@2@@Z$0
	DD	0ffffffffH
	DD	FLAT:__unwindfunclet$?Identify@XMLDocument@tinyxml2@@QAEPADPADPAPAVXMLNode@2@@Z$1
	DD	0ffffffffH
	DD	FLAT:__unwindfunclet$?Identify@XMLDocument@tinyxml2@@QAEPADPADPAPAVXMLNode@2@@Z$2
	DD	0ffffffffH
	DD	FLAT:__unwindfunclet$?Identify@XMLDocument@tinyxml2@@QAEPADPADPAPAVXMLNode@2@@Z$3
	DD	0ffffffffH
	DD	FLAT:__unwindfunclet$?Identify@XMLDocument@tinyxml2@@QAEPADPADPAPAVXMLNode@2@@Z$4
	DD	0ffffffffH
	DD	FLAT:__unwindfunclet$?Identify@XMLDocument@tinyxml2@@QAEPADPADPAPAVXMLNode@2@@Z$5
__ehfuncinfo$??1StrPair@tinyxml2@@QAE@XZ DD 019930522H
	DD	00H
	DD	00H
	DD	2 DUP(00H)
	DD	2 DUP(00H)
	DD	00H
	DD	05H
; Function compile flags: /Odtp /RTCsu
; File e:\fusion3d_work\engine\src\staticlibs\tinyxml2.cpp
_TEXT	SEGMENT
_a$ = -8						; size = 4
_this$ = -4						; size = 4
_name$ = 8						; size = 4
_value$ = 12						; size = 4
?Attribute@XMLElement@tinyxml2@@QBEPBDPBD0@Z PROC	; tinyxml2::XMLElement::Attribute
; _this$ = ecx

; 1403 : {

  00000	55		 push	 ebp
  00001	8b ec		 mov	 ebp, esp
  00003	83 ec 08	 sub	 esp, 8
  00006	c7 45 f8 cc cc
	cc cc		 mov	 DWORD PTR [ebp-8], -858993460 ; ccccccccH
  0000d	c7 45 fc cc cc
	cc cc		 mov	 DWORD PTR [ebp-4], -858993460 ; ccccccccH
  00014	89 4d fc	 mov	 DWORD PTR _this$[ebp], ecx

; 1404 :     const XMLAttribute* a = FindAttribute( name );

  00017	8b 45 08	 mov	 eax, DWORD PTR _name$[ebp]
  0001a	50		 push	 eax
  0001b	8b 4d fc	 mov	 ecx, DWORD PTR _this$[ebp]
  0001e	e8 00 00 00 00	 call	 ?FindAttribute@XMLElement@tinyxml2@@QBEPBVXMLAttribute@2@PBD@Z ; tinyxml2::XMLElement::FindAttribute
  00023	89 45 f8	 mov	 DWORD PTR _a$[ebp], eax

; 1405 :     if ( !a ) {

  00026	83 7d f8 00	 cmp	 DWORD PTR _a$[ebp], 0
  0002a	75 04		 jne	 SHORT $LN2@Attribute

; 1406 :         return 0;

  0002c	33 c0		 xor	 eax, eax
  0002e	eb 33		 jmp	 SHORT $LN1@Attribute
$LN2@Attribute:

; 1407 :     }
; 1408 :     if ( !value || XMLUtil::StringEqual( a->Value(), value )) {

  00030	83 7d 0c 00	 cmp	 DWORD PTR _value$[ebp], 0
  00034	74 21		 je	 SHORT $LN4@Attribute
  00036	68 ff ff ff 7f	 push	 2147483647		; 7fffffffH
  0003b	8b 4d 0c	 mov	 ecx, DWORD PTR _value$[ebp]
  0003e	51		 push	 ecx
  0003f	8b 4d f8	 mov	 ecx, DWORD PTR _a$[ebp]
  00042	e8 00 00 00 00	 call	 ?Value@XMLAttribute@tinyxml2@@QBEPBDXZ ; tinyxml2::XMLAttribute::Value
  00047	50		 push	 eax
  00048	e8 00 00 00 00	 call	 ?StringEqual@XMLUtil@tinyxml2@@SA_NPBD0H@Z ; tinyxml2::XMLUtil::StringEqual
  0004d	83 c4 0c	 add	 esp, 12			; 0000000cH
  00050	0f b6 d0	 movzx	 edx, al
  00053	85 d2		 test	 edx, edx
  00055	74 0a		 je	 SHORT $LN3@Attribute
$LN4@Attribute:

; 1409 :         return a->Value();

  00057	8b 4d f8	 mov	 ecx, DWORD PTR _a$[ebp]
  0005a	e8 00 00 00 00	 call	 ?Value@XMLAttribute@tinyxml2@@QBEPBDXZ ; tinyxml2::XMLAttribute::Value
  0005f	eb 02		 jmp	 SHORT $LN1@Attribute
$LN3@Attribute:

; 1410 :     }
; 1411 :     return 0;

  00061	33 c0		 xor	 eax, eax
$LN1@Attribute:

; 1412 : }

  00063	83 c4 08	 add	 esp, 8
  00066	3b ec		 cmp	 ebp, esp
  00068	e8 00 00 00 00	 call	 __RTC_CheckEsp
  0006d	8b e5		 mov	 esp, ebp
  0006f	5d		 pop	 ebp
  00070	c2 08 00	 ret	 8
?Attribute@XMLElement@tinyxml2@@QBEPBDPBD0@Z ENDP	; tinyxml2::XMLElement::Attribute
_TEXT	ENDS
; Function compile flags: /Odtp /RTCsu
; File e:\fusion3d_work\engine\src\staticlibs\tinyxml2.cpp
_TEXT	SEGMENT
tv78 = -8						; size = 4
_this$ = -4						; size = 4
?GetText@XMLElement@tinyxml2@@QBEPBDXZ PROC		; tinyxml2::XMLElement::GetText
; _this$ = ecx

; 1416 : {

  00000	55		 push	 ebp
  00001	8b ec		 mov	 ebp, esp
  00003	83 ec 08	 sub	 esp, 8
  00006	56		 push	 esi
  00007	c7 45 f8 cc cc
	cc cc		 mov	 DWORD PTR [ebp-8], -858993460 ; ccccccccH
  0000e	c7 45 fc cc cc
	cc cc		 mov	 DWORD PTR [ebp-4], -858993460 ; ccccccccH
  00015	89 4d fc	 mov	 DWORD PTR _this$[ebp], ecx

; 1417 :     if ( FirstChild() && FirstChild()->ToText() ) {

  00018	8b 4d fc	 mov	 ecx, DWORD PTR _this$[ebp]
  0001b	e8 00 00 00 00	 call	 ?FirstChild@XMLNode@tinyxml2@@QBEPBV12@XZ ; tinyxml2::XMLNode::FirstChild
  00020	85 c0		 test	 eax, eax
  00022	74 36		 je	 SHORT $LN2@GetText
  00024	8b 4d fc	 mov	 ecx, DWORD PTR _this$[ebp]
  00027	e8 00 00 00 00	 call	 ?FirstChild@XMLNode@tinyxml2@@QBEPBV12@XZ ; tinyxml2::XMLNode::FirstChild
  0002c	89 45 f8	 mov	 DWORD PTR tv78[ebp], eax
  0002f	8b 45 f8	 mov	 eax, DWORD PTR tv78[ebp]
  00032	8b 10		 mov	 edx, DWORD PTR [eax]
  00034	8b f4		 mov	 esi, esp
  00036	8b 4d f8	 mov	 ecx, DWORD PTR tv78[ebp]
  00039	8b 42 08	 mov	 eax, DWORD PTR [edx+8]
  0003c	ff d0		 call	 eax
  0003e	3b f4		 cmp	 esi, esp
  00040	e8 00 00 00 00	 call	 __RTC_CheckEsp
  00045	85 c0		 test	 eax, eax
  00047	74 11		 je	 SHORT $LN2@GetText

; 1418 :         return FirstChild()->Value();

  00049	8b 4d fc	 mov	 ecx, DWORD PTR _this$[ebp]
  0004c	e8 00 00 00 00	 call	 ?FirstChild@XMLNode@tinyxml2@@QBEPBV12@XZ ; tinyxml2::XMLNode::FirstChild
  00051	8b c8		 mov	 ecx, eax
  00053	e8 00 00 00 00	 call	 ?Value@XMLNode@tinyxml2@@QBEPBDXZ ; tinyxml2::XMLNode::Value
  00058	eb 02		 jmp	 SHORT $LN1@GetText
$LN2@GetText:

; 1419 :     }
; 1420 :     return 0;

  0005a	33 c0		 xor	 eax, eax
$LN1@GetText:

; 1421 : }

  0005c	5e		 pop	 esi
  0005d	83 c4 08	 add	 esp, 8
  00060	3b ec		 cmp	 ebp, esp
  00062	e8 00 00 00 00	 call	 __RTC_CheckEsp
  00067	8b e5		 mov	 esp, ebp
  00069	5d		 pop	 ebp
  0006a	c3		 ret	 0
?GetText@XMLElement@tinyxml2@@QBEPBDXZ ENDP		; tinyxml2::XMLElement::GetText
_TEXT	ENDS
; Function compile flags: /Odtp /RTCsu
; File c:\program files (x86)\windows kits\10\include\10.0.10240.0\ucrt\corecrt_stdio_config.h
;	COMDAT ___local_stdio_scanf_options
_TEXT	SEGMENT
___local_stdio_scanf_options PROC			; COMDAT

; 82   : {

  00000	55		 push	 ebp
  00001	8b ec		 mov	 ebp, esp

; 83   :     static unsigned __int64 _OptionsStorage;
; 84   :     return &_OptionsStorage;

  00003	b8 00 00 00 00	 mov	 eax, OFFSET ?_OptionsStorage@?1??__local_stdio_scanf_options@@9@4_KA ; `__local_stdio_scanf_options'::`2'::_OptionsStorage

; 85   : }

  00008	5d		 pop	 ebp
  00009	c3		 ret	 0
___local_stdio_scanf_options ENDP
_TEXT	ENDS
; Function compile flags: /Odtp /RTCsu
; File c:\program files (x86)\windows kits\10\include\10.0.10240.0\ucrt\stdio.h
;	COMDAT _vfprintf
_TEXT	SEGMENT
__Stream$ = 8						; size = 4
__Format$ = 12						; size = 4
__ArgList$ = 16						; size = 4
_vfprintf PROC						; COMDAT

; 652  : {

  00000	55		 push	 ebp
  00001	8b ec		 mov	 ebp, esp

; 653  :     return _vfprintf_l(_Stream, _Format, NULL, _ArgList);

  00003	8b 45 10	 mov	 eax, DWORD PTR __ArgList$[ebp]
  00006	50		 push	 eax
  00007	6a 00		 push	 0
  00009	8b 4d 0c	 mov	 ecx, DWORD PTR __Format$[ebp]
  0000c	51		 push	 ecx
  0000d	8b 55 08	 mov	 edx, DWORD PTR __Stream$[ebp]
  00010	52		 push	 edx
  00011	e8 00 00 00 00	 call	 __vfprintf_l
  00016	83 c4 10	 add	 esp, 16			; 00000010H

; 654  : }

  00019	3b ec		 cmp	 ebp, esp
  0001b	e8 00 00 00 00	 call	 __RTC_CheckEsp
  00020	5d		 pop	 ebp
  00021	c3		 ret	 0
_vfprintf ENDP
_TEXT	ENDS
; Function compile flags: /Odtp /RTCsu
; File c:\program files (x86)\windows kits\10\include\10.0.10240.0\ucrt\stdio.h
;	COMDAT __vsnprintf_s_l
_TEXT	SEGMENT
tv74 = -8						; size = 4
__Result$ = -4						; size = 4
__Buffer$ = 8						; size = 4
__BufferCount$ = 12					; size = 4
__MaxCount$ = 16					; size = 4
__Format$ = 20						; size = 4
__Locale$ = 24						; size = 4
__ArgList$ = 28						; size = 4
__vsnprintf_s_l PROC					; COMDAT

; 1580 : {

  00000	55		 push	 ebp
  00001	8b ec		 mov	 ebp, esp
  00003	83 ec 08	 sub	 esp, 8
  00006	56		 push	 esi
  00007	c7 45 f8 cc cc
	cc cc		 mov	 DWORD PTR [ebp-8], -858993460 ; ccccccccH
  0000e	c7 45 fc cc cc
	cc cc		 mov	 DWORD PTR [ebp-4], -858993460 ; ccccccccH

; 1581 :     int const _Result = __stdio_common_vsnprintf_s(

  00015	8b f4		 mov	 esi, esp
  00017	8b 45 1c	 mov	 eax, DWORD PTR __ArgList$[ebp]
  0001a	50		 push	 eax
  0001b	8b 4d 18	 mov	 ecx, DWORD PTR __Locale$[ebp]
  0001e	51		 push	 ecx
  0001f	8b 55 14	 mov	 edx, DWORD PTR __Format$[ebp]
  00022	52		 push	 edx
  00023	8b 45 10	 mov	 eax, DWORD PTR __MaxCount$[ebp]
  00026	50		 push	 eax
  00027	8b 4d 0c	 mov	 ecx, DWORD PTR __BufferCount$[ebp]
  0002a	51		 push	 ecx
  0002b	8b 55 08	 mov	 edx, DWORD PTR __Buffer$[ebp]
  0002e	52		 push	 edx
  0002f	e8 00 00 00 00	 call	 ___local_stdio_printf_options
  00034	8b 48 04	 mov	 ecx, DWORD PTR [eax+4]
  00037	51		 push	 ecx
  00038	8b 10		 mov	 edx, DWORD PTR [eax]
  0003a	52		 push	 edx
  0003b	ff 15 00 00 00
	00		 call	 DWORD PTR __imp____stdio_common_vsnprintf_s
  00041	83 c4 20	 add	 esp, 32			; 00000020H
  00044	3b f4		 cmp	 esi, esp
  00046	e8 00 00 00 00	 call	 __RTC_CheckEsp
  0004b	89 45 fc	 mov	 DWORD PTR __Result$[ebp], eax

; 1582 :         _CRT_INTERNAL_LOCAL_PRINTF_OPTIONS,
; 1583 :         _Buffer, _BufferCount, _MaxCount, _Format, _Locale, _ArgList);
; 1584 : 
; 1585 :     return _Result < 0 ? -1 : _Result;

  0004e	83 7d fc 00	 cmp	 DWORD PTR __Result$[ebp], 0
  00052	7d 09		 jge	 SHORT $LN3@vsnprintf_
  00054	c7 45 f8 ff ff
	ff ff		 mov	 DWORD PTR tv74[ebp], -1
  0005b	eb 06		 jmp	 SHORT $LN4@vsnprintf_
$LN3@vsnprintf_:
  0005d	8b 45 fc	 mov	 eax, DWORD PTR __Result$[ebp]
  00060	89 45 f8	 mov	 DWORD PTR tv74[ebp], eax
$LN4@vsnprintf_:
  00063	8b 45 f8	 mov	 eax, DWORD PTR tv74[ebp]

; 1586 : }

  00066	5e		 pop	 esi
  00067	83 c4 08	 add	 esp, 8
  0006a	3b ec		 cmp	 ebp, esp
  0006c	e8 00 00 00 00	 call	 __RTC_CheckEsp
  00071	8b e5		 mov	 esp, ebp
  00073	5d		 pop	 ebp
  00074	c3		 ret	 0
__vsnprintf_s_l ENDP
_TEXT	ENDS
; Function compile flags: /Odtp /RTCsu
; File c:\program files (x86)\windows kits\10\include\10.0.10240.0\ucrt\stdio.h
;	COMDAT _vsnprintf_s
_TEXT	SEGMENT
__Buffer$ = 8						; size = 4
__BufferCount$ = 12					; size = 4
__MaxCount$ = 16					; size = 4
__Format$ = 20						; size = 4
__ArgList$ = 24						; size = 4
_vsnprintf_s PROC					; COMDAT

; 1629 :     {

  00000	55		 push	 ebp
  00001	8b ec		 mov	 ebp, esp

; 1630 :         return _vsnprintf_s_l(_Buffer, _BufferCount, _MaxCount, _Format, NULL, _ArgList);

  00003	8b 45 18	 mov	 eax, DWORD PTR __ArgList$[ebp]
  00006	50		 push	 eax
  00007	6a 00		 push	 0
  00009	8b 4d 14	 mov	 ecx, DWORD PTR __Format$[ebp]
  0000c	51		 push	 ecx
  0000d	8b 55 10	 mov	 edx, DWORD PTR __MaxCount$[ebp]
  00010	52		 push	 edx
  00011	8b 45 0c	 mov	 eax, DWORD PTR __BufferCount$[ebp]
  00014	50		 push	 eax
  00015	8b 4d 08	 mov	 ecx, DWORD PTR __Buffer$[ebp]
  00018	51		 push	 ecx
  00019	e8 00 00 00 00	 call	 __vsnprintf_s_l
  0001e	83 c4 18	 add	 esp, 24			; 00000018H

; 1631 :     }

  00021	3b ec		 cmp	 ebp, esp
  00023	e8 00 00 00 00	 call	 __RTC_CheckEsp
  00028	5d		 pop	 ebp
  00029	c3		 ret	 0
_vsnprintf_s ENDP
_TEXT	ENDS
; Function compile flags: /Odtp /RTCsu
; File c:\program files (x86)\windows kits\10\include\10.0.10240.0\ucrt\stdio.h
;	COMDAT __vscprintf_l
_TEXT	SEGMENT
tv74 = -8						; size = 4
__Result$ = -4						; size = 4
__Format$ = 8						; size = 4
__Locale$ = 12						; size = 4
__ArgList$ = 16						; size = 4
__vscprintf_l PROC					; COMDAT

; 1654 : {

  00000	55		 push	 ebp
  00001	8b ec		 mov	 ebp, esp
  00003	83 ec 08	 sub	 esp, 8
  00006	56		 push	 esi
  00007	c7 45 f8 cc cc
	cc cc		 mov	 DWORD PTR [ebp-8], -858993460 ; ccccccccH
  0000e	c7 45 fc cc cc
	cc cc		 mov	 DWORD PTR [ebp-4], -858993460 ; ccccccccH

; 1655 :     int const _Result = __stdio_common_vsprintf(

  00015	8b f4		 mov	 esi, esp
  00017	8b 45 10	 mov	 eax, DWORD PTR __ArgList$[ebp]
  0001a	50		 push	 eax
  0001b	8b 4d 0c	 mov	 ecx, DWORD PTR __Locale$[ebp]
  0001e	51		 push	 ecx
  0001f	8b 55 08	 mov	 edx, DWORD PTR __Format$[ebp]
  00022	52		 push	 edx
  00023	6a 00		 push	 0
  00025	6a 00		 push	 0
  00027	e8 00 00 00 00	 call	 ___local_stdio_printf_options
  0002c	8b 08		 mov	 ecx, DWORD PTR [eax]
  0002e	83 c9 02	 or	 ecx, 2
  00031	8b 50 04	 mov	 edx, DWORD PTR [eax+4]
  00034	52		 push	 edx
  00035	51		 push	 ecx
  00036	ff 15 00 00 00
	00		 call	 DWORD PTR __imp____stdio_common_vsprintf
  0003c	83 c4 1c	 add	 esp, 28			; 0000001cH
  0003f	3b f4		 cmp	 esi, esp
  00041	e8 00 00 00 00	 call	 __RTC_CheckEsp
  00046	89 45 fc	 mov	 DWORD PTR __Result$[ebp], eax

; 1656 :         _CRT_INTERNAL_LOCAL_PRINTF_OPTIONS | _CRT_INTERNAL_PRINTF_STANDARD_SNPRINTF_BEHAVIOR,
; 1657 :         NULL, 0, _Format, _Locale, _ArgList);
; 1658 : 
; 1659 :     return _Result < 0 ? -1 : _Result;

  00049	83 7d fc 00	 cmp	 DWORD PTR __Result$[ebp], 0
  0004d	7d 09		 jge	 SHORT $LN3@vscprintf_
  0004f	c7 45 f8 ff ff
	ff ff		 mov	 DWORD PTR tv74[ebp], -1
  00056	eb 06		 jmp	 SHORT $LN4@vscprintf_
$LN3@vscprintf_:
  00058	8b 45 fc	 mov	 eax, DWORD PTR __Result$[ebp]
  0005b	89 45 f8	 mov	 DWORD PTR tv74[ebp], eax
$LN4@vscprintf_:
  0005e	8b 45 f8	 mov	 eax, DWORD PTR tv74[ebp]

; 1660 : }

  00061	5e		 pop	 esi
  00062	83 c4 08	 add	 esp, 8
  00065	3b ec		 cmp	 ebp, esp
  00067	e8 00 00 00 00	 call	 __RTC_CheckEsp
  0006c	8b e5		 mov	 esp, ebp
  0006e	5d		 pop	 ebp
  0006f	c3		 ret	 0
__vscprintf_l ENDP
_TEXT	ENDS
; Function compile flags: /Odtp /RTCsu
; File c:\program files (x86)\windows kits\10\include\10.0.10240.0\ucrt\stdio.h
;	COMDAT __vscprintf
_TEXT	SEGMENT
__Format$ = 8						; size = 4
__ArgList$ = 12						; size = 4
__vscprintf PROC					; COMDAT

; 1671 : {

  00000	55		 push	 ebp
  00001	8b ec		 mov	 ebp, esp

; 1672 :     return _vscprintf_l(_Format, NULL, _ArgList);

  00003	8b 45 0c	 mov	 eax, DWORD PTR __ArgList$[ebp]
  00006	50		 push	 eax
  00007	6a 00		 push	 0
  00009	8b 4d 08	 mov	 ecx, DWORD PTR __Format$[ebp]
  0000c	51		 push	 ecx
  0000d	e8 00 00 00 00	 call	 __vscprintf_l
  00012	83 c4 0c	 add	 esp, 12			; 0000000cH

; 1673 : }

  00015	3b ec		 cmp	 ebp, esp
  00017	e8 00 00 00 00	 call	 __RTC_CheckEsp
  0001c	5d		 pop	 ebp
  0001d	c3		 ret	 0
__vscprintf ENDP
_TEXT	ENDS
; Function compile flags: /Odtp /RTCsu
; File c:\program files (x86)\windows kits\10\include\10.0.10240.0\ucrt\stdio.h
;	COMDAT __vsscanf_s_l
_TEXT	SEGMENT
__Buffer$ = 8						; size = 4
__Format$ = 12						; size = 4
__Locale$ = 16						; size = 4
__ArgList$ = 20						; size = 4
__vsscanf_s_l PROC					; COMDAT

; 2197 : {

  00000	55		 push	 ebp
  00001	8b ec		 mov	 ebp, esp
  00003	56		 push	 esi

; 2198 :     return __stdio_common_vsscanf(

  00004	8b f4		 mov	 esi, esp
  00006	8b 45 14	 mov	 eax, DWORD PTR __ArgList$[ebp]
  00009	50		 push	 eax
  0000a	8b 4d 10	 mov	 ecx, DWORD PTR __Locale$[ebp]
  0000d	51		 push	 ecx
  0000e	8b 55 0c	 mov	 edx, DWORD PTR __Format$[ebp]
  00011	52		 push	 edx
  00012	6a ff		 push	 -1
  00014	8b 45 08	 mov	 eax, DWORD PTR __Buffer$[ebp]
  00017	50		 push	 eax
  00018	e8 00 00 00 00	 call	 ___local_stdio_scanf_options
  0001d	8b 08		 mov	 ecx, DWORD PTR [eax]
  0001f	83 c9 01	 or	 ecx, 1
  00022	8b 50 04	 mov	 edx, DWORD PTR [eax+4]
  00025	52		 push	 edx
  00026	51		 push	 ecx
  00027	ff 15 00 00 00
	00		 call	 DWORD PTR __imp____stdio_common_vsscanf
  0002d	83 c4 1c	 add	 esp, 28			; 0000001cH
  00030	3b f4		 cmp	 esi, esp
  00032	e8 00 00 00 00	 call	 __RTC_CheckEsp

; 2199 :         _CRT_INTERNAL_LOCAL_SCANF_OPTIONS | _CRT_INTERNAL_SCANF_SECURECRT,
; 2200 :         _Buffer, (size_t)-1, _Format, _Locale, _ArgList);
; 2201 : }

  00037	5e		 pop	 esi
  00038	3b ec		 cmp	 ebp, esp
  0003a	e8 00 00 00 00	 call	 __RTC_CheckEsp
  0003f	5d		 pop	 ebp
  00040	c3		 ret	 0
__vsscanf_s_l ENDP
_TEXT	ENDS
; Function compile flags: /Odtp /RTCsu
; File c:\program files (x86)\windows kits\10\include\10.0.10240.0\ucrt\stdio.h
;	COMDAT _vsscanf_s
_TEXT	SEGMENT
__Buffer$ = 8						; size = 4
__Format$ = 12						; size = 4
__ArgList$ = 16						; size = 4
_vsscanf_s PROC						; COMDAT

; 2218 :     {

  00000	55		 push	 ebp
  00001	8b ec		 mov	 ebp, esp

; 2219 :         return _vsscanf_s_l(_Buffer, _Format, NULL, _ArgList);

  00003	8b 45 10	 mov	 eax, DWORD PTR __ArgList$[ebp]
  00006	50		 push	 eax
  00007	6a 00		 push	 0
  00009	8b 4d 0c	 mov	 ecx, DWORD PTR __Format$[ebp]
  0000c	51		 push	 ecx
  0000d	8b 55 08	 mov	 edx, DWORD PTR __Buffer$[ebp]
  00010	52		 push	 edx
  00011	e8 00 00 00 00	 call	 __vsscanf_s_l
  00016	83 c4 10	 add	 esp, 16			; 00000010H

; 2220 :     }

  00019	3b ec		 cmp	 ebp, esp
  0001b	e8 00 00 00 00	 call	 __RTC_CheckEsp
  00020	5d		 pop	 ebp
  00021	c3		 ret	 0
_vsscanf_s ENDP
_TEXT	ENDS
; Function compile flags: /Odtp /RTCsu
; File c:\program files (x86)\windows kits\10\include\10.0.10240.0\ucrt\stdio.h
;	COMDAT _sscanf_s
_TEXT	SEGMENT
__ArgList$ = -8						; size = 4
__Result$ = -4						; size = 4
__Buffer$ = 8						; size = 4
__Format$ = 12						; size = 4
_sscanf_s PROC						; COMDAT

; 2300 :     {

  00000	55		 push	 ebp
  00001	8b ec		 mov	 ebp, esp
  00003	83 ec 08	 sub	 esp, 8
  00006	c7 45 f8 cc cc
	cc cc		 mov	 DWORD PTR [ebp-8], -858993460 ; ccccccccH
  0000d	c7 45 fc cc cc
	cc cc		 mov	 DWORD PTR [ebp-4], -858993460 ; ccccccccH

; 2301 :         int _Result;
; 2302 :         va_list _ArgList;
; 2303 :         __crt_va_start(_ArgList, _Format);

  00014	e8 00 00 00 00	 call	 ??$__vcrt_va_start_verify_argument_type@QBD@@YAXXZ ; __vcrt_va_start_verify_argument_type<char const * const>
  00019	8d 45 10	 lea	 eax, DWORD PTR __Format$[ebp+4]
  0001c	89 45 f8	 mov	 DWORD PTR __ArgList$[ebp], eax

; 2304 : 
; 2305 :         #pragma warning(push)
; 2306 :         #pragma warning(disable: 4996) // Deprecation
; 2307 :         _Result = vsscanf_s(_Buffer, _Format, _ArgList);

  0001f	8b 4d f8	 mov	 ecx, DWORD PTR __ArgList$[ebp]
  00022	51		 push	 ecx
  00023	8b 55 0c	 mov	 edx, DWORD PTR __Format$[ebp]
  00026	52		 push	 edx
  00027	8b 45 08	 mov	 eax, DWORD PTR __Buffer$[ebp]
  0002a	50		 push	 eax
  0002b	e8 00 00 00 00	 call	 _vsscanf_s
  00030	83 c4 0c	 add	 esp, 12			; 0000000cH
  00033	89 45 fc	 mov	 DWORD PTR __Result$[ebp], eax

; 2308 :         #pragma warning(pop)
; 2309 : 
; 2310 :         __crt_va_end(_ArgList);

  00036	c7 45 f8 00 00
	00 00		 mov	 DWORD PTR __ArgList$[ebp], 0

; 2311 :         return _Result;

  0003d	8b 45 fc	 mov	 eax, DWORD PTR __Result$[ebp]

; 2312 :     }

  00040	83 c4 08	 add	 esp, 8
  00043	3b ec		 cmp	 ebp, esp
  00045	e8 00 00 00 00	 call	 __RTC_CheckEsp
  0004a	8b e5		 mov	 esp, ebp
  0004c	5d		 pop	 ebp
  0004d	c3		 ret	 0
_sscanf_s ENDP
_TEXT	ENDS
; Function compile flags: /Odtp /RTCsu
; File e:\fusion3d_work\engine\src\staticlibs\tinyxml2.h
;	COMDAT ??0StrPair@tinyxml2@@QAE@XZ
_TEXT	SEGMENT
_this$ = -4						; size = 4
??0StrPair@tinyxml2@@QAE@XZ PROC			; tinyxml2::StrPair::StrPair, COMDAT
; _this$ = ecx

; 132  :     StrPair() : _flags( 0 ), _start( 0 ), _end( 0 ) {}

  00000	55		 push	 ebp
  00001	8b ec		 mov	 ebp, esp
  00003	51		 push	 ecx
  00004	c7 45 fc cc cc
	cc cc		 mov	 DWORD PTR [ebp-4], -858993460 ; ccccccccH
  0000b	89 4d fc	 mov	 DWORD PTR _this$[ebp], ecx
  0000e	8b 45 fc	 mov	 eax, DWORD PTR _this$[ebp]
  00011	c7 00 00 00 00
	00		 mov	 DWORD PTR [eax], 0
  00017	8b 4d fc	 mov	 ecx, DWORD PTR _this$[ebp]
  0001a	c7 41 04 00 00
	00 00		 mov	 DWORD PTR [ecx+4], 0
  00021	8b 55 fc	 mov	 edx, DWORD PTR _this$[ebp]
  00024	c7 42 08 00 00
	00 00		 mov	 DWORD PTR [edx+8], 0
  0002b	8b 45 fc	 mov	 eax, DWORD PTR _this$[ebp]
  0002e	8b e5		 mov	 esp, ebp
  00030	5d		 pop	 ebp
  00031	c3		 ret	 0
??0StrPair@tinyxml2@@QAE@XZ ENDP			; tinyxml2::StrPair::StrPair
_TEXT	ENDS
; Function compile flags: /Odtp /RTCsu
; File e:\fusion3d_work\engine\src\staticlibs\tinyxml2.h
;	COMDAT ?Set@StrPair@tinyxml2@@QAEXPAD0H@Z
_TEXT	SEGMENT
_this$ = -4						; size = 4
_start$ = 8						; size = 4
_end$ = 12						; size = 4
_flags$ = 16						; size = 4
?Set@StrPair@tinyxml2@@QAEXPAD0H@Z PROC			; tinyxml2::StrPair::Set, COMDAT
; _this$ = ecx

; 135  :     void Set( char* start, char* end, int flags ) {

  00000	55		 push	 ebp
  00001	8b ec		 mov	 ebp, esp
  00003	51		 push	 ecx
  00004	c7 45 fc cc cc
	cc cc		 mov	 DWORD PTR [ebp-4], -858993460 ; ccccccccH
  0000b	89 4d fc	 mov	 DWORD PTR _this$[ebp], ecx

; 136  :         Reset();

  0000e	8b 4d fc	 mov	 ecx, DWORD PTR _this$[ebp]
  00011	e8 00 00 00 00	 call	 ?Reset@StrPair@tinyxml2@@AAEXXZ ; tinyxml2::StrPair::Reset

; 137  :         _start  = start;

  00016	8b 45 fc	 mov	 eax, DWORD PTR _this$[ebp]
  00019	8b 4d 08	 mov	 ecx, DWORD PTR _start$[ebp]
  0001c	89 48 04	 mov	 DWORD PTR [eax+4], ecx

; 138  :         _end    = end;

  0001f	8b 55 fc	 mov	 edx, DWORD PTR _this$[ebp]
  00022	8b 45 0c	 mov	 eax, DWORD PTR _end$[ebp]
  00025	89 42 08	 mov	 DWORD PTR [edx+8], eax

; 139  :         _flags  = flags | NEEDS_FLUSH;

  00028	8b 4d 10	 mov	 ecx, DWORD PTR _flags$[ebp]
  0002b	81 c9 00 01 00
	00		 or	 ecx, 256		; 00000100H
  00031	8b 55 fc	 mov	 edx, DWORD PTR _this$[ebp]
  00034	89 0a		 mov	 DWORD PTR [edx], ecx

; 140  :     }

  00036	83 c4 04	 add	 esp, 4
  00039	3b ec		 cmp	 ebp, esp
  0003b	e8 00 00 00 00	 call	 __RTC_CheckEsp
  00040	8b e5		 mov	 esp, ebp
  00042	5d		 pop	 ebp
  00043	c2 0c 00	 ret	 12			; 0000000cH
?Set@StrPair@tinyxml2@@QAEXPAD0H@Z ENDP			; tinyxml2::StrPair::Set
_TEXT	ENDS
; Function compile flags: /Odtp /RTCsu
; File e:\fusion3d_work\engine\src\staticlibs\tinyxml2.h
;	COMDAT ?Empty@StrPair@tinyxml2@@QBE_NXZ
_TEXT	SEGMENT
tv67 = -8						; size = 4
_this$ = -4						; size = 4
?Empty@StrPair@tinyxml2@@QBE_NXZ PROC			; tinyxml2::StrPair::Empty, COMDAT
; _this$ = ecx

; 144  :     bool Empty() const {

  00000	55		 push	 ebp
  00001	8b ec		 mov	 ebp, esp
  00003	83 ec 08	 sub	 esp, 8
  00006	c7 45 f8 cc cc
	cc cc		 mov	 DWORD PTR [ebp-8], -858993460 ; ccccccccH
  0000d	c7 45 fc cc cc
	cc cc		 mov	 DWORD PTR [ebp-4], -858993460 ; ccccccccH
  00014	89 4d fc	 mov	 DWORD PTR _this$[ebp], ecx

; 145  :         return _start == _end;

  00017	8b 45 fc	 mov	 eax, DWORD PTR _this$[ebp]
  0001a	8b 4d fc	 mov	 ecx, DWORD PTR _this$[ebp]
  0001d	8b 50 04	 mov	 edx, DWORD PTR [eax+4]
  00020	3b 51 08	 cmp	 edx, DWORD PTR [ecx+8]
  00023	75 09		 jne	 SHORT $LN3@Empty
  00025	c7 45 f8 01 00
	00 00		 mov	 DWORD PTR tv67[ebp], 1
  0002c	eb 07		 jmp	 SHORT $LN4@Empty
$LN3@Empty:
  0002e	c7 45 f8 00 00
	00 00		 mov	 DWORD PTR tv67[ebp], 0
$LN4@Empty:
  00035	8a 45 f8	 mov	 al, BYTE PTR tv67[ebp]

; 146  :     }

  00038	8b e5		 mov	 esp, ebp
  0003a	5d		 pop	 ebp
  0003b	c3		 ret	 0
?Empty@StrPair@tinyxml2@@QBE_NXZ ENDP			; tinyxml2::StrPair::Empty
_TEXT	ENDS
; Function compile flags: /Odtp /RTCsu
; File e:\fusion3d_work\engine\src\staticlibs\tinyxml2.h
;	COMDAT ?SetInternedStr@StrPair@tinyxml2@@QAEXPBD@Z
_TEXT	SEGMENT
_this$ = -4						; size = 4
_str$ = 8						; size = 4
?SetInternedStr@StrPair@tinyxml2@@QAEXPBD@Z PROC	; tinyxml2::StrPair::SetInternedStr, COMDAT
; _this$ = ecx

; 148  :     void SetInternedStr( const char* str ) {

  00000	55		 push	 ebp
  00001	8b ec		 mov	 ebp, esp
  00003	51		 push	 ecx
  00004	c7 45 fc cc cc
	cc cc		 mov	 DWORD PTR [ebp-4], -858993460 ; ccccccccH
  0000b	89 4d fc	 mov	 DWORD PTR _this$[ebp], ecx

; 149  :         Reset();

  0000e	8b 4d fc	 mov	 ecx, DWORD PTR _this$[ebp]
  00011	e8 00 00 00 00	 call	 ?Reset@StrPair@tinyxml2@@AAEXXZ ; tinyxml2::StrPair::Reset

; 150  :         _start = const_cast<char*>(str);

  00016	8b 45 fc	 mov	 eax, DWORD PTR _this$[ebp]
  00019	8b 4d 08	 mov	 ecx, DWORD PTR _str$[ebp]
  0001c	89 48 04	 mov	 DWORD PTR [eax+4], ecx

; 151  :     }

  0001f	83 c4 04	 add	 esp, 4
  00022	3b ec		 cmp	 ebp, esp
  00024	e8 00 00 00 00	 call	 __RTC_CheckEsp
  00029	8b e5		 mov	 esp, ebp
  0002b	5d		 pop	 ebp
  0002c	c2 04 00	 ret	 4
?SetInternedStr@StrPair@tinyxml2@@QAEXPBD@Z ENDP	; tinyxml2::StrPair::SetInternedStr
_TEXT	ENDS
; Function compile flags: /Odtp /RTCsu
; File e:\fusion3d_work\engine\src\staticlibs\tinyxml2.h
;	COMDAT ??0MemPool@tinyxml2@@QAE@XZ
_TEXT	SEGMENT
_this$ = -4						; size = 4
??0MemPool@tinyxml2@@QAE@XZ PROC			; tinyxml2::MemPool::MemPool, COMDAT
; _this$ = ecx

; 300  :     MemPool() {}

  00000	55		 push	 ebp
  00001	8b ec		 mov	 ebp, esp
  00003	51		 push	 ecx
  00004	c7 45 fc cc cc
	cc cc		 mov	 DWORD PTR [ebp-4], -858993460 ; ccccccccH
  0000b	89 4d fc	 mov	 DWORD PTR _this$[ebp], ecx
  0000e	8b 45 fc	 mov	 eax, DWORD PTR _this$[ebp]
  00011	c7 00 00 00 00
	00		 mov	 DWORD PTR [eax], OFFSET ??_7MemPool@tinyxml2@@6B@
  00017	8b 45 fc	 mov	 eax, DWORD PTR _this$[ebp]
  0001a	8b e5		 mov	 esp, ebp
  0001c	5d		 pop	 ebp
  0001d	c3		 ret	 0
??0MemPool@tinyxml2@@QAE@XZ ENDP			; tinyxml2::MemPool::MemPool
_TEXT	ENDS
; Function compile flags: /Odtp /RTCsu
; File e:\fusion3d_work\engine\src\staticlibs\tinyxml2.h
;	COMDAT ??1MemPool@tinyxml2@@UAE@XZ
_TEXT	SEGMENT
_this$ = -4						; size = 4
??1MemPool@tinyxml2@@UAE@XZ PROC			; tinyxml2::MemPool::~MemPool, COMDAT
; _this$ = ecx

; 301  :     virtual ~MemPool() {}

  00000	55		 push	 ebp
  00001	8b ec		 mov	 ebp, esp
  00003	51		 push	 ecx
  00004	c7 45 fc cc cc
	cc cc		 mov	 DWORD PTR [ebp-4], -858993460 ; ccccccccH
  0000b	89 4d fc	 mov	 DWORD PTR _this$[ebp], ecx
  0000e	8b 45 fc	 mov	 eax, DWORD PTR _this$[ebp]
  00011	c7 00 00 00 00
	00		 mov	 DWORD PTR [eax], OFFSET ??_7MemPool@tinyxml2@@6B@
  00017	8b e5		 mov	 esp, ebp
  00019	5d		 pop	 ebp
  0001a	c3		 ret	 0
??1MemPool@tinyxml2@@UAE@XZ ENDP			; tinyxml2::MemPool::~MemPool
_TEXT	ENDS
; Function compile flags: /Odtp /RTCsu
;	COMDAT ??_GMemPool@tinyxml2@@UAEPAXI@Z
_TEXT	SEGMENT
_this$ = -4						; size = 4
___flags$ = 8						; size = 4
??_GMemPool@tinyxml2@@UAEPAXI@Z PROC			; tinyxml2::MemPool::`scalar deleting destructor', COMDAT
; _this$ = ecx
  00000	55		 push	 ebp
  00001	8b ec		 mov	 ebp, esp
  00003	51		 push	 ecx
  00004	c7 45 fc cc cc
	cc cc		 mov	 DWORD PTR [ebp-4], -858993460 ; ccccccccH
  0000b	89 4d fc	 mov	 DWORD PTR _this$[ebp], ecx
  0000e	8b 4d fc	 mov	 ecx, DWORD PTR _this$[ebp]
  00011	e8 00 00 00 00	 call	 ??1MemPool@tinyxml2@@UAE@XZ ; tinyxml2::MemPool::~MemPool
  00016	8b 45 08	 mov	 eax, DWORD PTR ___flags$[ebp]
  00019	83 e0 01	 and	 eax, 1
  0001c	74 0e		 je	 SHORT $LN2@scalar
  0001e	6a 04		 push	 4
  00020	8b 4d fc	 mov	 ecx, DWORD PTR _this$[ebp]
  00023	51		 push	 ecx
  00024	e8 00 00 00 00	 call	 ??3@YAXPAXI@Z		; operator delete
  00029	83 c4 08	 add	 esp, 8
$LN2@scalar:
  0002c	8b 45 fc	 mov	 eax, DWORD PTR _this$[ebp]
  0002f	83 c4 04	 add	 esp, 4
  00032	3b ec		 cmp	 ebp, esp
  00034	e8 00 00 00 00	 call	 __RTC_CheckEsp
  00039	8b e5		 mov	 esp, ebp
  0003b	5d		 pop	 ebp
  0003c	c2 04 00	 ret	 4
??_GMemPool@tinyxml2@@UAEPAXI@Z ENDP			; tinyxml2::MemPool::`scalar deleting destructor'
_TEXT	ENDS
; Function compile flags: /Odtp /RTCsu
; File e:\fusion3d_work\engine\src\staticlibs\tinyxml2.h
;	COMDAT ??1XMLVisitor@tinyxml2@@UAE@XZ
_TEXT	SEGMENT
_this$ = -4						; size = 4
??1XMLVisitor@tinyxml2@@UAE@XZ PROC			; tinyxml2::XMLVisitor::~XMLVisitor, COMDAT
; _this$ = ecx

; 447  :     virtual ~XMLVisitor() {}

  00000	55		 push	 ebp
  00001	8b ec		 mov	 ebp, esp
  00003	51		 push	 ecx
  00004	c7 45 fc cc cc
	cc cc		 mov	 DWORD PTR [ebp-4], -858993460 ; ccccccccH
  0000b	89 4d fc	 mov	 DWORD PTR _this$[ebp], ecx
  0000e	8b 45 fc	 mov	 eax, DWORD PTR _this$[ebp]
  00011	c7 00 00 00 00
	00		 mov	 DWORD PTR [eax], OFFSET ??_7XMLVisitor@tinyxml2@@6B@
  00017	8b e5		 mov	 esp, ebp
  00019	5d		 pop	 ebp
  0001a	c3		 ret	 0
??1XMLVisitor@tinyxml2@@UAE@XZ ENDP			; tinyxml2::XMLVisitor::~XMLVisitor
_TEXT	ENDS
; Function compile flags: /Odtp /RTCsu
; File e:\fusion3d_work\engine\src\staticlibs\tinyxml2.h
;	COMDAT ?VisitEnter@XMLVisitor@tinyxml2@@UAE_NABVXMLDocument@2@@Z
_TEXT	SEGMENT
_this$ = -4						; size = 4
___formal$ = 8						; size = 4
?VisitEnter@XMLVisitor@tinyxml2@@UAE_NABVXMLDocument@2@@Z PROC ; tinyxml2::XMLVisitor::VisitEnter, COMDAT
; _this$ = ecx

; 450  :     virtual bool VisitEnter( const XMLDocument& /*doc*/ )			{

  00000	55		 push	 ebp
  00001	8b ec		 mov	 ebp, esp
  00003	51		 push	 ecx
  00004	c7 45 fc cc cc
	cc cc		 mov	 DWORD PTR [ebp-4], -858993460 ; ccccccccH
  0000b	89 4d fc	 mov	 DWORD PTR _this$[ebp], ecx

; 451  :         return true;

  0000e	b0 01		 mov	 al, 1

; 452  :     }

  00010	8b e5		 mov	 esp, ebp
  00012	5d		 pop	 ebp
  00013	c2 04 00	 ret	 4
?VisitEnter@XMLVisitor@tinyxml2@@UAE_NABVXMLDocument@2@@Z ENDP ; tinyxml2::XMLVisitor::VisitEnter
_TEXT	ENDS
; Function compile flags: /Odtp /RTCsu
; File e:\fusion3d_work\engine\src\staticlibs\tinyxml2.h
;	COMDAT ?VisitExit@XMLVisitor@tinyxml2@@UAE_NABVXMLDocument@2@@Z
_TEXT	SEGMENT
_this$ = -4						; size = 4
___formal$ = 8						; size = 4
?VisitExit@XMLVisitor@tinyxml2@@UAE_NABVXMLDocument@2@@Z PROC ; tinyxml2::XMLVisitor::VisitExit, COMDAT
; _this$ = ecx

; 454  :     virtual bool VisitExit( const XMLDocument& /*doc*/ )			{

  00000	55		 push	 ebp
  00001	8b ec		 mov	 ebp, esp
  00003	51		 push	 ecx
  00004	c7 45 fc cc cc
	cc cc		 mov	 DWORD PTR [ebp-4], -858993460 ; ccccccccH
  0000b	89 4d fc	 mov	 DWORD PTR _this$[ebp], ecx

; 455  :         return true;

  0000e	b0 01		 mov	 al, 1

; 456  :     }

  00010	8b e5		 mov	 esp, ebp
  00012	5d		 pop	 ebp
  00013	c2 04 00	 ret	 4
?VisitExit@XMLVisitor@tinyxml2@@UAE_NABVXMLDocument@2@@Z ENDP ; tinyxml2::XMLVisitor::VisitExit
_TEXT	ENDS
; Function compile flags: /Odtp /RTCsu
; File e:\fusion3d_work\engine\src\staticlibs\tinyxml2.h
;	COMDAT ?VisitEnter@XMLVisitor@tinyxml2@@UAE_NABVXMLElement@2@PBVXMLAttribute@2@@Z
_TEXT	SEGMENT
_this$ = -4						; size = 4
___formal$ = 8						; size = 4
___formal$ = 12						; size = 4
?VisitEnter@XMLVisitor@tinyxml2@@UAE_NABVXMLElement@2@PBVXMLAttribute@2@@Z PROC ; tinyxml2::XMLVisitor::VisitEnter, COMDAT
; _this$ = ecx

; 459  :     virtual bool VisitEnter( const XMLElement& /*element*/, const XMLAttribute* /*firstAttribute*/ )	{

  00000	55		 push	 ebp
  00001	8b ec		 mov	 ebp, esp
  00003	51		 push	 ecx
  00004	c7 45 fc cc cc
	cc cc		 mov	 DWORD PTR [ebp-4], -858993460 ; ccccccccH
  0000b	89 4d fc	 mov	 DWORD PTR _this$[ebp], ecx

; 460  :         return true;

  0000e	b0 01		 mov	 al, 1

; 461  :     }

  00010	8b e5		 mov	 esp, ebp
  00012	5d		 pop	 ebp
  00013	c2 08 00	 ret	 8
?VisitEnter@XMLVisitor@tinyxml2@@UAE_NABVXMLElement@2@PBVXMLAttribute@2@@Z ENDP ; tinyxml2::XMLVisitor::VisitEnter
_TEXT	ENDS
; Function compile flags: /Odtp /RTCsu
; File e:\fusion3d_work\engine\src\staticlibs\tinyxml2.h
;	COMDAT ?VisitExit@XMLVisitor@tinyxml2@@UAE_NABVXMLElement@2@@Z
_TEXT	SEGMENT
_this$ = -4						; size = 4
___formal$ = 8						; size = 4
?VisitExit@XMLVisitor@tinyxml2@@UAE_NABVXMLElement@2@@Z PROC ; tinyxml2::XMLVisitor::VisitExit, COMDAT
; _this$ = ecx

; 463  :     virtual bool VisitExit( const XMLElement& /*element*/ )			{

  00000	55		 push	 ebp
  00001	8b ec		 mov	 ebp, esp
  00003	51		 push	 ecx
  00004	c7 45 fc cc cc
	cc cc		 mov	 DWORD PTR [ebp-4], -858993460 ; ccccccccH
  0000b	89 4d fc	 mov	 DWORD PTR _this$[ebp], ecx

; 464  :         return true;

  0000e	b0 01		 mov	 al, 1

; 465  :     }

  00010	8b e5		 mov	 esp, ebp
  00012	5d		 pop	 ebp
  00013	c2 04 00	 ret	 4
?VisitExit@XMLVisitor@tinyxml2@@UAE_NABVXMLElement@2@@Z ENDP ; tinyxml2::XMLVisitor::VisitExit
_TEXT	ENDS
; Function compile flags: /Odtp /RTCsu
; File e:\fusion3d_work\engine\src\staticlibs\tinyxml2.h
;	COMDAT ?Visit@XMLVisitor@tinyxml2@@UAE_NABVXMLDeclaration@2@@Z
_TEXT	SEGMENT
_this$ = -4						; size = 4
___formal$ = 8						; size = 4
?Visit@XMLVisitor@tinyxml2@@UAE_NABVXMLDeclaration@2@@Z PROC ; tinyxml2::XMLVisitor::Visit, COMDAT
; _this$ = ecx

; 468  :     virtual bool Visit( const XMLDeclaration& /*declaration*/ )		{

  00000	55		 push	 ebp
  00001	8b ec		 mov	 ebp, esp
  00003	51		 push	 ecx
  00004	c7 45 fc cc cc
	cc cc		 mov	 DWORD PTR [ebp-4], -858993460 ; ccccccccH
  0000b	89 4d fc	 mov	 DWORD PTR _this$[ebp], ecx

; 469  :         return true;

  0000e	b0 01		 mov	 al, 1

; 470  :     }

  00010	8b e5		 mov	 esp, ebp
  00012	5d		 pop	 ebp
  00013	c2 04 00	 ret	 4
?Visit@XMLVisitor@tinyxml2@@UAE_NABVXMLDeclaration@2@@Z ENDP ; tinyxml2::XMLVisitor::Visit
_TEXT	ENDS
; Function compile flags: /Odtp /RTCsu
; File e:\fusion3d_work\engine\src\staticlibs\tinyxml2.h
;	COMDAT ?Visit@XMLVisitor@tinyxml2@@UAE_NABVXMLText@2@@Z
_TEXT	SEGMENT
_this$ = -4						; size = 4
___formal$ = 8						; size = 4
?Visit@XMLVisitor@tinyxml2@@UAE_NABVXMLText@2@@Z PROC	; tinyxml2::XMLVisitor::Visit, COMDAT
; _this$ = ecx

; 472  :     virtual bool Visit( const XMLText& /*text*/ )					{

  00000	55		 push	 ebp
  00001	8b ec		 mov	 ebp, esp
  00003	51		 push	 ecx
  00004	c7 45 fc cc cc
	cc cc		 mov	 DWORD PTR [ebp-4], -858993460 ; ccccccccH
  0000b	89 4d fc	 mov	 DWORD PTR _this$[ebp], ecx

; 473  :         return true;

  0000e	b0 01		 mov	 al, 1

; 474  :     }

  00010	8b e5		 mov	 esp, ebp
  00012	5d		 pop	 ebp
  00013	c2 04 00	 ret	 4
?Visit@XMLVisitor@tinyxml2@@UAE_NABVXMLText@2@@Z ENDP	; tinyxml2::XMLVisitor::Visit
_TEXT	ENDS
; Function compile flags: /Odtp /RTCsu
; File e:\fusion3d_work\engine\src\staticlibs\tinyxml2.h
;	COMDAT ?Visit@XMLVisitor@tinyxml2@@UAE_NABVXMLComment@2@@Z
_TEXT	SEGMENT
_this$ = -4						; size = 4
___formal$ = 8						; size = 4
?Visit@XMLVisitor@tinyxml2@@UAE_NABVXMLComment@2@@Z PROC ; tinyxml2::XMLVisitor::Visit, COMDAT
; _this$ = ecx

; 476  :     virtual bool Visit( const XMLComment& /*comment*/ )				{

  00000	55		 push	 ebp
  00001	8b ec		 mov	 ebp, esp
  00003	51		 push	 ecx
  00004	c7 45 fc cc cc
	cc cc		 mov	 DWORD PTR [ebp-4], -858993460 ; ccccccccH
  0000b	89 4d fc	 mov	 DWORD PTR _this$[ebp], ecx

; 477  :         return true;

  0000e	b0 01		 mov	 al, 1

; 478  :     }

  00010	8b e5		 mov	 esp, ebp
  00012	5d		 pop	 ebp
  00013	c2 04 00	 ret	 4
?Visit@XMLVisitor@tinyxml2@@UAE_NABVXMLComment@2@@Z ENDP ; tinyxml2::XMLVisitor::Visit
_TEXT	ENDS
; Function compile flags: /Odtp /RTCsu
; File e:\fusion3d_work\engine\src\staticlibs\tinyxml2.h
;	COMDAT ?Visit@XMLVisitor@tinyxml2@@UAE_NABVXMLUnknown@2@@Z
_TEXT	SEGMENT
_this$ = -4						; size = 4
___formal$ = 8						; size = 4
?Visit@XMLVisitor@tinyxml2@@UAE_NABVXMLUnknown@2@@Z PROC ; tinyxml2::XMLVisitor::Visit, COMDAT
; _this$ = ecx

; 480  :     virtual bool Visit( const XMLUnknown& /*unknown*/ )				{

  00000	55		 push	 ebp
  00001	8b ec		 mov	 ebp, esp
  00003	51		 push	 ecx
  00004	c7 45 fc cc cc
	cc cc		 mov	 DWORD PTR [ebp-4], -858993460 ; ccccccccH
  0000b	89 4d fc	 mov	 DWORD PTR _this$[ebp], ecx

; 481  :         return true;

  0000e	b0 01		 mov	 al, 1

; 482  :     }

  00010	8b e5		 mov	 esp, ebp
  00012	5d		 pop	 ebp
  00013	c2 04 00	 ret	 4
?Visit@XMLVisitor@tinyxml2@@UAE_NABVXMLUnknown@2@@Z ENDP ; tinyxml2::XMLVisitor::Visit
_TEXT	ENDS
; Function compile flags: /Odtp /RTCsu
;	COMDAT ??_GXMLVisitor@tinyxml2@@UAEPAXI@Z
_TEXT	SEGMENT
_this$ = -4						; size = 4
___flags$ = 8						; size = 4
??_GXMLVisitor@tinyxml2@@UAEPAXI@Z PROC			; tinyxml2::XMLVisitor::`scalar deleting destructor', COMDAT
; _this$ = ecx
  00000	55		 push	 ebp
  00001	8b ec		 mov	 ebp, esp
  00003	51		 push	 ecx
  00004	c7 45 fc cc cc
	cc cc		 mov	 DWORD PTR [ebp-4], -858993460 ; ccccccccH
  0000b	89 4d fc	 mov	 DWORD PTR _this$[ebp], ecx
  0000e	8b 4d fc	 mov	 ecx, DWORD PTR _this$[ebp]
  00011	e8 00 00 00 00	 call	 ??1XMLVisitor@tinyxml2@@UAE@XZ ; tinyxml2::XMLVisitor::~XMLVisitor
  00016	8b 45 08	 mov	 eax, DWORD PTR ___flags$[ebp]
  00019	83 e0 01	 and	 eax, 1
  0001c	74 0e		 je	 SHORT $LN2@scalar
  0001e	6a 04		 push	 4
  00020	8b 4d fc	 mov	 ecx, DWORD PTR _this$[ebp]
  00023	51		 push	 ecx
  00024	e8 00 00 00 00	 call	 ??3@YAXPAXI@Z		; operator delete
  00029	83 c4 08	 add	 esp, 8
$LN2@scalar:
  0002c	8b 45 fc	 mov	 eax, DWORD PTR _this$[ebp]
  0002f	83 c4 04	 add	 esp, 4
  00032	3b ec		 cmp	 ebp, esp
  00034	e8 00 00 00 00	 call	 __RTC_CheckEsp
  00039	8b e5		 mov	 esp, ebp
  0003b	5d		 pop	 ebp
  0003c	c2 04 00	 ret	 4
??_GXMLVisitor@tinyxml2@@UAEPAXI@Z ENDP			; tinyxml2::XMLVisitor::`scalar deleting destructor'
_TEXT	ENDS
; Function compile flags: /Odtp /RTCsu
; File e:\fusion3d_work\engine\src\staticlibs\tinyxml2.h
;	COMDAT ?SkipWhiteSpace@XMLUtil@tinyxml2@@SAPBDPBD@Z
_TEXT	SEGMENT
_p$ = 8							; size = 4
?SkipWhiteSpace@XMLUtil@tinyxml2@@SAPBDPBD@Z PROC	; tinyxml2::XMLUtil::SkipWhiteSpace, COMDAT

; 519  :     static const char* SkipWhiteSpace( const char* p )	{

  00000	55		 push	 ebp
  00001	8b ec		 mov	 ebp, esp

; 520  :         TIXMLASSERT( p );

  00003	83 7d 08 00	 cmp	 DWORD PTR _p$[ebp], 0
  00007	75 01		 jne	 SHORT $LN2@SkipWhiteS
  00009	cc		 int	 3
$LN2@SkipWhiteS:

; 521  :         while( IsWhiteSpace(*p) ) {

  0000a	8b 45 08	 mov	 eax, DWORD PTR _p$[ebp]
  0000d	0f b6 08	 movzx	 ecx, BYTE PTR [eax]
  00010	51		 push	 ecx
  00011	e8 00 00 00 00	 call	 ?IsWhiteSpace@XMLUtil@tinyxml2@@SA_ND@Z ; tinyxml2::XMLUtil::IsWhiteSpace
  00016	83 c4 04	 add	 esp, 4
  00019	0f b6 d0	 movzx	 edx, al
  0001c	85 d2		 test	 edx, edx
  0001e	74 0b		 je	 SHORT $LN3@SkipWhiteS

; 522  :             ++p;

  00020	8b 45 08	 mov	 eax, DWORD PTR _p$[ebp]
  00023	83 c0 01	 add	 eax, 1
  00026	89 45 08	 mov	 DWORD PTR _p$[ebp], eax

; 523  :         }

  00029	eb df		 jmp	 SHORT $LN2@SkipWhiteS
$LN3@SkipWhiteS:

; 524  :         TIXMLASSERT( p );

  0002b	83 7d 08 00	 cmp	 DWORD PTR _p$[ebp], 0
  0002f	75 01		 jne	 SHORT $LN5@SkipWhiteS
  00031	cc		 int	 3
$LN5@SkipWhiteS:

; 525  :         return p;

  00032	8b 45 08	 mov	 eax, DWORD PTR _p$[ebp]

; 526  :     }

  00035	3b ec		 cmp	 ebp, esp
  00037	e8 00 00 00 00	 call	 __RTC_CheckEsp
  0003c	5d		 pop	 ebp
  0003d	c3		 ret	 0
?SkipWhiteSpace@XMLUtil@tinyxml2@@SAPBDPBD@Z ENDP	; tinyxml2::XMLUtil::SkipWhiteSpace
_TEXT	ENDS
; Function compile flags: /Odtp /RTCsu
; File e:\fusion3d_work\engine\src\staticlibs\tinyxml2.h
;	COMDAT ?SkipWhiteSpace@XMLUtil@tinyxml2@@SAPADPAD@Z
_TEXT	SEGMENT
_p$ = 8							; size = 4
?SkipWhiteSpace@XMLUtil@tinyxml2@@SAPADPAD@Z PROC	; tinyxml2::XMLUtil::SkipWhiteSpace, COMDAT

; 527  :     static char* SkipWhiteSpace( char* p )				{

  00000	55		 push	 ebp
  00001	8b ec		 mov	 ebp, esp

; 528  :         return const_cast<char*>( SkipWhiteSpace( const_cast<const char*>(p) ) );

  00003	8b 45 08	 mov	 eax, DWORD PTR _p$[ebp]
  00006	50		 push	 eax
  00007	e8 00 00 00 00	 call	 ?SkipWhiteSpace@XMLUtil@tinyxml2@@SAPBDPBD@Z ; tinyxml2::XMLUtil::SkipWhiteSpace
  0000c	83 c4 04	 add	 esp, 4

; 529  :     }

  0000f	3b ec		 cmp	 ebp, esp
  00011	e8 00 00 00 00	 call	 __RTC_CheckEsp
  00016	5d		 pop	 ebp
  00017	c3		 ret	 0
?SkipWhiteSpace@XMLUtil@tinyxml2@@SAPADPAD@Z ENDP	; tinyxml2::XMLUtil::SkipWhiteSpace
_TEXT	ENDS
; Function compile flags: /Odtp /RTCsu
; File e:\fusion3d_work\engine\src\staticlibs\tinyxml2.h
;	COMDAT ?IsWhiteSpace@XMLUtil@tinyxml2@@SA_ND@Z
_TEXT	SEGMENT
tv72 = -4						; size = 4
_p$ = 8							; size = 1
?IsWhiteSpace@XMLUtil@tinyxml2@@SA_ND@Z PROC		; tinyxml2::XMLUtil::IsWhiteSpace, COMDAT

; 533  :     static bool IsWhiteSpace( char p )					{

  00000	55		 push	 ebp
  00001	8b ec		 mov	 ebp, esp
  00003	51		 push	 ecx
  00004	56		 push	 esi
  00005	c7 45 fc cc cc
	cc cc		 mov	 DWORD PTR [ebp-4], -858993460 ; ccccccccH

; 534  :         return !IsUTF8Continuation(p) && isspace( static_cast<unsigned char>(p) );

  0000c	0f b6 45 08	 movzx	 eax, BYTE PTR _p$[ebp]
  00010	50		 push	 eax
  00011	e8 00 00 00 00	 call	 ?IsUTF8Continuation@XMLUtil@tinyxml2@@SA_ND@Z ; tinyxml2::XMLUtil::IsUTF8Continuation
  00016	83 c4 04	 add	 esp, 4
  00019	0f b6 c8	 movzx	 ecx, al
  0001c	85 c9		 test	 ecx, ecx
  0001e	75 24		 jne	 SHORT $LN3@IsWhiteSpa
  00020	0f b6 55 08	 movzx	 edx, BYTE PTR _p$[ebp]
  00024	8b f4		 mov	 esi, esp
  00026	52		 push	 edx
  00027	ff 15 00 00 00
	00		 call	 DWORD PTR __imp__isspace
  0002d	83 c4 04	 add	 esp, 4
  00030	3b f4		 cmp	 esi, esp
  00032	e8 00 00 00 00	 call	 __RTC_CheckEsp
  00037	85 c0		 test	 eax, eax
  00039	74 09		 je	 SHORT $LN3@IsWhiteSpa
  0003b	c7 45 fc 01 00
	00 00		 mov	 DWORD PTR tv72[ebp], 1
  00042	eb 07		 jmp	 SHORT $LN4@IsWhiteSpa
$LN3@IsWhiteSpa:
  00044	c7 45 fc 00 00
	00 00		 mov	 DWORD PTR tv72[ebp], 0
$LN4@IsWhiteSpa:
  0004b	8a 45 fc	 mov	 al, BYTE PTR tv72[ebp]

; 535  :     }

  0004e	5e		 pop	 esi
  0004f	83 c4 04	 add	 esp, 4
  00052	3b ec		 cmp	 ebp, esp
  00054	e8 00 00 00 00	 call	 __RTC_CheckEsp
  00059	8b e5		 mov	 esp, ebp
  0005b	5d		 pop	 ebp
  0005c	c3		 ret	 0
?IsWhiteSpace@XMLUtil@tinyxml2@@SA_ND@Z ENDP		; tinyxml2::XMLUtil::IsWhiteSpace
_TEXT	ENDS
; Function compile flags: /Odtp /RTCsu
; File e:\fusion3d_work\engine\src\staticlibs\tinyxml2.h
;	COMDAT ?IsNameStartChar@XMLUtil@tinyxml2@@SA_NE@Z
_TEXT	SEGMENT
tv74 = -4						; size = 4
_ch$ = 8						; size = 1
?IsNameStartChar@XMLUtil@tinyxml2@@SA_NE@Z PROC		; tinyxml2::XMLUtil::IsNameStartChar, COMDAT

; 537  :     inline static bool IsNameStartChar( unsigned char ch ) {

  00000	55		 push	 ebp
  00001	8b ec		 mov	 ebp, esp
  00003	51		 push	 ecx
  00004	56		 push	 esi
  00005	c7 45 fc cc cc
	cc cc		 mov	 DWORD PTR [ebp-4], -858993460 ; ccccccccH

; 538  :         if ( ch >= 128 ) {

  0000c	0f b6 45 08	 movzx	 eax, BYTE PTR _ch$[ebp]
  00010	3d 80 00 00 00	 cmp	 eax, 128		; 00000080H
  00015	7c 04		 jl	 SHORT $LN2@IsNameStar

; 539  :             // This is a heuristic guess in attempt to not implement Unicode-aware isalpha()
; 540  :             return true;

  00017	b0 01		 mov	 al, 1
  00019	eb 44		 jmp	 SHORT $LN1@IsNameStar
$LN2@IsNameStar:

; 541  :         }
; 542  :         if ( isalpha( ch ) ) {

  0001b	0f b6 4d 08	 movzx	 ecx, BYTE PTR _ch$[ebp]
  0001f	8b f4		 mov	 esi, esp
  00021	51		 push	 ecx
  00022	ff 15 00 00 00
	00		 call	 DWORD PTR __imp__isalpha
  00028	83 c4 04	 add	 esp, 4
  0002b	3b f4		 cmp	 esi, esp
  0002d	e8 00 00 00 00	 call	 __RTC_CheckEsp
  00032	85 c0		 test	 eax, eax
  00034	74 04		 je	 SHORT $LN3@IsNameStar

; 543  :             return true;

  00036	b0 01		 mov	 al, 1
  00038	eb 25		 jmp	 SHORT $LN1@IsNameStar
$LN3@IsNameStar:

; 544  :         }
; 545  :         return ch == ':' || ch == '_';

  0003a	0f b6 55 08	 movzx	 edx, BYTE PTR _ch$[ebp]
  0003e	83 fa 3a	 cmp	 edx, 58			; 0000003aH
  00041	74 12		 je	 SHORT $LN5@IsNameStar
  00043	0f b6 45 08	 movzx	 eax, BYTE PTR _ch$[ebp]
  00047	83 f8 5f	 cmp	 eax, 95			; 0000005fH
  0004a	74 09		 je	 SHORT $LN5@IsNameStar
  0004c	c7 45 fc 00 00
	00 00		 mov	 DWORD PTR tv74[ebp], 0
  00053	eb 07		 jmp	 SHORT $LN6@IsNameStar
$LN5@IsNameStar:
  00055	c7 45 fc 01 00
	00 00		 mov	 DWORD PTR tv74[ebp], 1
$LN6@IsNameStar:
  0005c	8a 45 fc	 mov	 al, BYTE PTR tv74[ebp]
$LN1@IsNameStar:

; 546  :     }

  0005f	5e		 pop	 esi
  00060	83 c4 04	 add	 esp, 4
  00063	3b ec		 cmp	 ebp, esp
  00065	e8 00 00 00 00	 call	 __RTC_CheckEsp
  0006a	8b e5		 mov	 esp, ebp
  0006c	5d		 pop	 ebp
  0006d	c3		 ret	 0
?IsNameStartChar@XMLUtil@tinyxml2@@SA_NE@Z ENDP		; tinyxml2::XMLUtil::IsNameStartChar
_TEXT	ENDS
; Function compile flags: /Odtp /RTCsu
; File e:\fusion3d_work\engine\src\staticlibs\tinyxml2.h
;	COMDAT ?IsNameChar@XMLUtil@tinyxml2@@SA_NE@Z
_TEXT	SEGMENT
tv76 = -4						; size = 4
_ch$ = 8						; size = 1
?IsNameChar@XMLUtil@tinyxml2@@SA_NE@Z PROC		; tinyxml2::XMLUtil::IsNameChar, COMDAT

; 548  :     inline static bool IsNameChar( unsigned char ch ) {

  00000	55		 push	 ebp
  00001	8b ec		 mov	 ebp, esp
  00003	51		 push	 ecx
  00004	56		 push	 esi
  00005	c7 45 fc cc cc
	cc cc		 mov	 DWORD PTR [ebp-4], -858993460 ; ccccccccH

; 549  :         return IsNameStartChar( ch )

  0000c	0f b6 45 08	 movzx	 eax, BYTE PTR _ch$[ebp]
  00010	50		 push	 eax
  00011	e8 00 00 00 00	 call	 ?IsNameStartChar@XMLUtil@tinyxml2@@SA_NE@Z ; tinyxml2::XMLUtil::IsNameStartChar
  00016	83 c4 04	 add	 esp, 4
  00019	0f b6 c8	 movzx	 ecx, al
  0001c	85 c9		 test	 ecx, ecx
  0001e	75 36		 jne	 SHORT $LN3@IsNameChar
  00020	0f b6 55 08	 movzx	 edx, BYTE PTR _ch$[ebp]
  00024	8b f4		 mov	 esi, esp
  00026	52		 push	 edx
  00027	ff 15 00 00 00
	00		 call	 DWORD PTR __imp__isdigit
  0002d	83 c4 04	 add	 esp, 4
  00030	3b f4		 cmp	 esi, esp
  00032	e8 00 00 00 00	 call	 __RTC_CheckEsp
  00037	85 c0		 test	 eax, eax
  00039	75 1b		 jne	 SHORT $LN3@IsNameChar
  0003b	0f b6 45 08	 movzx	 eax, BYTE PTR _ch$[ebp]
  0003f	83 f8 2e	 cmp	 eax, 46			; 0000002eH
  00042	74 12		 je	 SHORT $LN3@IsNameChar
  00044	0f b6 4d 08	 movzx	 ecx, BYTE PTR _ch$[ebp]
  00048	83 f9 2d	 cmp	 ecx, 45			; 0000002dH
  0004b	74 09		 je	 SHORT $LN3@IsNameChar
  0004d	c7 45 fc 00 00
	00 00		 mov	 DWORD PTR tv76[ebp], 0
  00054	eb 07		 jmp	 SHORT $LN4@IsNameChar
$LN3@IsNameChar:
  00056	c7 45 fc 01 00
	00 00		 mov	 DWORD PTR tv76[ebp], 1
$LN4@IsNameChar:
  0005d	8a 45 fc	 mov	 al, BYTE PTR tv76[ebp]

; 550  :                || isdigit( ch )
; 551  :                || ch == '.'
; 552  :                || ch == '-';
; 553  :     }

  00060	5e		 pop	 esi
  00061	83 c4 04	 add	 esp, 4
  00064	3b ec		 cmp	 ebp, esp
  00066	e8 00 00 00 00	 call	 __RTC_CheckEsp
  0006b	8b e5		 mov	 esp, ebp
  0006d	5d		 pop	 ebp
  0006e	c3		 ret	 0
?IsNameChar@XMLUtil@tinyxml2@@SA_NE@Z ENDP		; tinyxml2::XMLUtil::IsNameChar
_TEXT	ENDS
; Function compile flags: /Odtp /RTCsu
; File e:\fusion3d_work\engine\src\staticlibs\tinyxml2.h
;	COMDAT ?StringEqual@XMLUtil@tinyxml2@@SA_NPBD0H@Z
_TEXT	SEGMENT
tv70 = -4						; size = 4
_p$ = 8							; size = 4
_q$ = 12						; size = 4
_nChar$ = 16						; size = 4
?StringEqual@XMLUtil@tinyxml2@@SA_NPBD0H@Z PROC		; tinyxml2::XMLUtil::StringEqual, COMDAT

; 555  :     inline static bool StringEqual( const char* p, const char* q, int nChar=INT_MAX )  {

  00000	55		 push	 ebp
  00001	8b ec		 mov	 ebp, esp
  00003	51		 push	 ecx
  00004	56		 push	 esi
  00005	c7 45 fc cc cc
	cc cc		 mov	 DWORD PTR [ebp-4], -858993460 ; ccccccccH

; 556  :         if ( p == q ) {

  0000c	8b 45 08	 mov	 eax, DWORD PTR _p$[ebp]
  0000f	3b 45 0c	 cmp	 eax, DWORD PTR _q$[ebp]
  00012	75 04		 jne	 SHORT $LN2@StringEqua

; 557  :             return true;

  00014	b0 01		 mov	 al, 1
  00016	eb 35		 jmp	 SHORT $LN1@StringEqua
$LN2@StringEqua:

; 558  :         }
; 559  :         return strncmp( p, q, nChar ) == 0;

  00018	8b f4		 mov	 esi, esp
  0001a	8b 4d 10	 mov	 ecx, DWORD PTR _nChar$[ebp]
  0001d	51		 push	 ecx
  0001e	8b 55 0c	 mov	 edx, DWORD PTR _q$[ebp]
  00021	52		 push	 edx
  00022	8b 45 08	 mov	 eax, DWORD PTR _p$[ebp]
  00025	50		 push	 eax
  00026	ff 15 00 00 00
	00		 call	 DWORD PTR __imp__strncmp
  0002c	83 c4 0c	 add	 esp, 12			; 0000000cH
  0002f	3b f4		 cmp	 esi, esp
  00031	e8 00 00 00 00	 call	 __RTC_CheckEsp
  00036	85 c0		 test	 eax, eax
  00038	75 09		 jne	 SHORT $LN4@StringEqua
  0003a	c7 45 fc 01 00
	00 00		 mov	 DWORD PTR tv70[ebp], 1
  00041	eb 07		 jmp	 SHORT $LN5@StringEqua
$LN4@StringEqua:
  00043	c7 45 fc 00 00
	00 00		 mov	 DWORD PTR tv70[ebp], 0
$LN5@StringEqua:
  0004a	8a 45 fc	 mov	 al, BYTE PTR tv70[ebp]
$LN1@StringEqua:

; 560  :     }

  0004d	5e		 pop	 esi
  0004e	83 c4 04	 add	 esp, 4
  00051	3b ec		 cmp	 ebp, esp
  00053	e8 00 00 00 00	 call	 __RTC_CheckEsp
  00058	8b e5		 mov	 esp, ebp
  0005a	5d		 pop	 ebp
  0005b	c3		 ret	 0
?StringEqual@XMLUtil@tinyxml2@@SA_NPBD0H@Z ENDP		; tinyxml2::XMLUtil::StringEqual
_TEXT	ENDS
; Function compile flags: /Odtp /RTCsu
; File e:\fusion3d_work\engine\src\staticlibs\tinyxml2.h
;	COMDAT ?IsUTF8Continuation@XMLUtil@tinyxml2@@SA_ND@Z
_TEXT	SEGMENT
tv67 = -4						; size = 4
_p$ = 8							; size = 1
?IsUTF8Continuation@XMLUtil@tinyxml2@@SA_ND@Z PROC	; tinyxml2::XMLUtil::IsUTF8Continuation, COMDAT

; 562  :     inline static bool IsUTF8Continuation( char p ) {

  00000	55		 push	 ebp
  00001	8b ec		 mov	 ebp, esp
  00003	51		 push	 ecx
  00004	c7 45 fc cc cc
	cc cc		 mov	 DWORD PTR [ebp-4], -858993460 ; ccccccccH

; 563  :         return ( p & 0x80 ) != 0;

  0000b	0f be 45 08	 movsx	 eax, BYTE PTR _p$[ebp]
  0000f	25 80 00 00 00	 and	 eax, 128		; 00000080H
  00014	74 09		 je	 SHORT $LN3@IsUTF8Cont
  00016	c7 45 fc 01 00
	00 00		 mov	 DWORD PTR tv67[ebp], 1
  0001d	eb 07		 jmp	 SHORT $LN4@IsUTF8Cont
$LN3@IsUTF8Cont:
  0001f	c7 45 fc 00 00
	00 00		 mov	 DWORD PTR tv67[ebp], 0
$LN4@IsUTF8Cont:
  00026	8a 45 fc	 mov	 al, BYTE PTR tv67[ebp]

; 564  :     }

  00029	8b e5		 mov	 esp, ebp
  0002b	5d		 pop	 ebp
  0002c	c3		 ret	 0
?IsUTF8Continuation@XMLUtil@tinyxml2@@SA_ND@Z ENDP	; tinyxml2::XMLUtil::IsUTF8Continuation
_TEXT	ENDS
; Function compile flags: /Odtp /RTCsu
; File e:\fusion3d_work\engine\src\staticlibs\tinyxml2.h
;	COMDAT ?GetDocument@XMLNode@tinyxml2@@QAEPAVXMLDocument@2@XZ
_TEXT	SEGMENT
_this$ = -4						; size = 4
?GetDocument@XMLNode@tinyxml2@@QAEPAVXMLDocument@2@XZ PROC ; tinyxml2::XMLNode::GetDocument, COMDAT
; _this$ = ecx

; 625  :     XMLDocument* GetDocument()				{

  00000	55		 push	 ebp
  00001	8b ec		 mov	 ebp, esp
  00003	51		 push	 ecx
  00004	c7 45 fc cc cc
	cc cc		 mov	 DWORD PTR [ebp-4], -858993460 ; ccccccccH
  0000b	89 4d fc	 mov	 DWORD PTR _this$[ebp], ecx

; 626  :         TIXMLASSERT( _document );

  0000e	8b 45 fc	 mov	 eax, DWORD PTR _this$[ebp]
  00011	83 78 04 00	 cmp	 DWORD PTR [eax+4], 0
  00015	75 01		 jne	 SHORT $LN2@GetDocumen
  00017	cc		 int	 3
$LN2@GetDocumen:

; 627  :         return _document;

  00018	8b 4d fc	 mov	 ecx, DWORD PTR _this$[ebp]
  0001b	8b 41 04	 mov	 eax, DWORD PTR [ecx+4]

; 628  :     }

  0001e	8b e5		 mov	 esp, ebp
  00020	5d		 pop	 ebp
  00021	c3		 ret	 0
?GetDocument@XMLNode@tinyxml2@@QAEPAVXMLDocument@2@XZ ENDP ; tinyxml2::XMLNode::GetDocument
_TEXT	ENDS
; Function compile flags: /Odtp /RTCsu
; File e:\fusion3d_work\engine\src\staticlibs\tinyxml2.h
;	COMDAT ?ToElement@XMLNode@tinyxml2@@UAEPAVXMLElement@2@XZ
_TEXT	SEGMENT
_this$ = -4						; size = 4
?ToElement@XMLNode@tinyxml2@@UAEPAVXMLElement@2@XZ PROC	; tinyxml2::XMLNode::ToElement, COMDAT
; _this$ = ecx

; 631  :     virtual XMLElement*		ToElement()		{

  00000	55		 push	 ebp
  00001	8b ec		 mov	 ebp, esp
  00003	51		 push	 ecx
  00004	c7 45 fc cc cc
	cc cc		 mov	 DWORD PTR [ebp-4], -858993460 ; ccccccccH
  0000b	89 4d fc	 mov	 DWORD PTR _this$[ebp], ecx

; 632  :         return 0;

  0000e	33 c0		 xor	 eax, eax

; 633  :     }

  00010	8b e5		 mov	 esp, ebp
  00012	5d		 pop	 ebp
  00013	c3		 ret	 0
?ToElement@XMLNode@tinyxml2@@UAEPAVXMLElement@2@XZ ENDP	; tinyxml2::XMLNode::ToElement
_TEXT	ENDS
; Function compile flags: /Odtp /RTCsu
; File e:\fusion3d_work\engine\src\staticlibs\tinyxml2.h
;	COMDAT ?ToText@XMLNode@tinyxml2@@UAEPAVXMLText@2@XZ
_TEXT	SEGMENT
_this$ = -4						; size = 4
?ToText@XMLNode@tinyxml2@@UAEPAVXMLText@2@XZ PROC	; tinyxml2::XMLNode::ToText, COMDAT
; _this$ = ecx

; 635  :     virtual XMLText*		ToText()		{

  00000	55		 push	 ebp
  00001	8b ec		 mov	 ebp, esp
  00003	51		 push	 ecx
  00004	c7 45 fc cc cc
	cc cc		 mov	 DWORD PTR [ebp-4], -858993460 ; ccccccccH
  0000b	89 4d fc	 mov	 DWORD PTR _this$[ebp], ecx

; 636  :         return 0;

  0000e	33 c0		 xor	 eax, eax

; 637  :     }

  00010	8b e5		 mov	 esp, ebp
  00012	5d		 pop	 ebp
  00013	c3		 ret	 0
?ToText@XMLNode@tinyxml2@@UAEPAVXMLText@2@XZ ENDP	; tinyxml2::XMLNode::ToText
_TEXT	ENDS
; Function compile flags: /Odtp /RTCsu
; File e:\fusion3d_work\engine\src\staticlibs\tinyxml2.h
;	COMDAT ?ToComment@XMLNode@tinyxml2@@UAEPAVXMLComment@2@XZ
_TEXT	SEGMENT
_this$ = -4						; size = 4
?ToComment@XMLNode@tinyxml2@@UAEPAVXMLComment@2@XZ PROC	; tinyxml2::XMLNode::ToComment, COMDAT
; _this$ = ecx

; 639  :     virtual XMLComment*		ToComment()		{

  00000	55		 push	 ebp
  00001	8b ec		 mov	 ebp, esp
  00003	51		 push	 ecx
  00004	c7 45 fc cc cc
	cc cc		 mov	 DWORD PTR [ebp-4], -858993460 ; ccccccccH
  0000b	89 4d fc	 mov	 DWORD PTR _this$[ebp], ecx

; 640  :         return 0;

  0000e	33 c0		 xor	 eax, eax

; 641  :     }

  00010	8b e5		 mov	 esp, ebp
  00012	5d		 pop	 ebp
  00013	c3		 ret	 0
?ToComment@XMLNode@tinyxml2@@UAEPAVXMLComment@2@XZ ENDP	; tinyxml2::XMLNode::ToComment
_TEXT	ENDS
; Function compile flags: /Odtp /RTCsu
; File e:\fusion3d_work\engine\src\staticlibs\tinyxml2.h
;	COMDAT ?ToDocument@XMLNode@tinyxml2@@UAEPAVXMLDocument@2@XZ
_TEXT	SEGMENT
_this$ = -4						; size = 4
?ToDocument@XMLNode@tinyxml2@@UAEPAVXMLDocument@2@XZ PROC ; tinyxml2::XMLNode::ToDocument, COMDAT
; _this$ = ecx

; 643  :     virtual XMLDocument*	ToDocument()	{

  00000	55		 push	 ebp
  00001	8b ec		 mov	 ebp, esp
  00003	51		 push	 ecx
  00004	c7 45 fc cc cc
	cc cc		 mov	 DWORD PTR [ebp-4], -858993460 ; ccccccccH
  0000b	89 4d fc	 mov	 DWORD PTR _this$[ebp], ecx

; 644  :         return 0;

  0000e	33 c0		 xor	 eax, eax

; 645  :     }

  00010	8b e5		 mov	 esp, ebp
  00012	5d		 pop	 ebp
  00013	c3		 ret	 0
?ToDocument@XMLNode@tinyxml2@@UAEPAVXMLDocument@2@XZ ENDP ; tinyxml2::XMLNode::ToDocument
_TEXT	ENDS
; Function compile flags: /Odtp /RTCsu
; File e:\fusion3d_work\engine\src\staticlibs\tinyxml2.h
;	COMDAT ?ToDeclaration@XMLNode@tinyxml2@@UAEPAVXMLDeclaration@2@XZ
_TEXT	SEGMENT
_this$ = -4						; size = 4
?ToDeclaration@XMLNode@tinyxml2@@UAEPAVXMLDeclaration@2@XZ PROC ; tinyxml2::XMLNode::ToDeclaration, COMDAT
; _this$ = ecx

; 647  :     virtual XMLDeclaration*	ToDeclaration()	{

  00000	55		 push	 ebp
  00001	8b ec		 mov	 ebp, esp
  00003	51		 push	 ecx
  00004	c7 45 fc cc cc
	cc cc		 mov	 DWORD PTR [ebp-4], -858993460 ; ccccccccH
  0000b	89 4d fc	 mov	 DWORD PTR _this$[ebp], ecx

; 648  :         return 0;

  0000e	33 c0		 xor	 eax, eax

; 649  :     }

  00010	8b e5		 mov	 esp, ebp
  00012	5d		 pop	 ebp
  00013	c3		 ret	 0
?ToDeclaration@XMLNode@tinyxml2@@UAEPAVXMLDeclaration@2@XZ ENDP ; tinyxml2::XMLNode::ToDeclaration
_TEXT	ENDS
; Function compile flags: /Odtp /RTCsu
; File e:\fusion3d_work\engine\src\staticlibs\tinyxml2.h
;	COMDAT ?ToUnknown@XMLNode@tinyxml2@@UAEPAVXMLUnknown@2@XZ
_TEXT	SEGMENT
_this$ = -4						; size = 4
?ToUnknown@XMLNode@tinyxml2@@UAEPAVXMLUnknown@2@XZ PROC	; tinyxml2::XMLNode::ToUnknown, COMDAT
; _this$ = ecx

; 651  :     virtual XMLUnknown*		ToUnknown()		{

  00000	55		 push	 ebp
  00001	8b ec		 mov	 ebp, esp
  00003	51		 push	 ecx
  00004	c7 45 fc cc cc
	cc cc		 mov	 DWORD PTR [ebp-4], -858993460 ; ccccccccH
  0000b	89 4d fc	 mov	 DWORD PTR _this$[ebp], ecx

; 652  :         return 0;

  0000e	33 c0		 xor	 eax, eax

; 653  :     }

  00010	8b e5		 mov	 esp, ebp
  00012	5d		 pop	 ebp
  00013	c3		 ret	 0
?ToUnknown@XMLNode@tinyxml2@@UAEPAVXMLUnknown@2@XZ ENDP	; tinyxml2::XMLNode::ToUnknown
_TEXT	ENDS
; Function compile flags: /Odtp /RTCsu
; File e:\fusion3d_work\engine\src\staticlibs\tinyxml2.h
;	COMDAT ?ToElement@XMLNode@tinyxml2@@UBEPBVXMLElement@2@XZ
_TEXT	SEGMENT
_this$ = -4						; size = 4
?ToElement@XMLNode@tinyxml2@@UBEPBVXMLElement@2@XZ PROC	; tinyxml2::XMLNode::ToElement, COMDAT
; _this$ = ecx

; 655  :     virtual const XMLElement*		ToElement() const		{

  00000	55		 push	 ebp
  00001	8b ec		 mov	 ebp, esp
  00003	51		 push	 ecx
  00004	c7 45 fc cc cc
	cc cc		 mov	 DWORD PTR [ebp-4], -858993460 ; ccccccccH
  0000b	89 4d fc	 mov	 DWORD PTR _this$[ebp], ecx

; 656  :         return 0;

  0000e	33 c0		 xor	 eax, eax

; 657  :     }

  00010	8b e5		 mov	 esp, ebp
  00012	5d		 pop	 ebp
  00013	c3		 ret	 0
?ToElement@XMLNode@tinyxml2@@UBEPBVXMLElement@2@XZ ENDP	; tinyxml2::XMLNode::ToElement
_TEXT	ENDS
; Function compile flags: /Odtp /RTCsu
; File e:\fusion3d_work\engine\src\staticlibs\tinyxml2.h
;	COMDAT ?ToText@XMLNode@tinyxml2@@UBEPBVXMLText@2@XZ
_TEXT	SEGMENT
_this$ = -4						; size = 4
?ToText@XMLNode@tinyxml2@@UBEPBVXMLText@2@XZ PROC	; tinyxml2::XMLNode::ToText, COMDAT
; _this$ = ecx

; 658  :     virtual const XMLText*			ToText() const			{

  00000	55		 push	 ebp
  00001	8b ec		 mov	 ebp, esp
  00003	51		 push	 ecx
  00004	c7 45 fc cc cc
	cc cc		 mov	 DWORD PTR [ebp-4], -858993460 ; ccccccccH
  0000b	89 4d fc	 mov	 DWORD PTR _this$[ebp], ecx

; 659  :         return 0;

  0000e	33 c0		 xor	 eax, eax

; 660  :     }

  00010	8b e5		 mov	 esp, ebp
  00012	5d		 pop	 ebp
  00013	c3		 ret	 0
?ToText@XMLNode@tinyxml2@@UBEPBVXMLText@2@XZ ENDP	; tinyxml2::XMLNode::ToText
_TEXT	ENDS
; Function compile flags: /Odtp /RTCsu
; File e:\fusion3d_work\engine\src\staticlibs\tinyxml2.h
;	COMDAT ?ToComment@XMLNode@tinyxml2@@UBEPBVXMLComment@2@XZ
_TEXT	SEGMENT
_this$ = -4						; size = 4
?ToComment@XMLNode@tinyxml2@@UBEPBVXMLComment@2@XZ PROC	; tinyxml2::XMLNode::ToComment, COMDAT
; _this$ = ecx

; 661  :     virtual const XMLComment*		ToComment() const		{

  00000	55		 push	 ebp
  00001	8b ec		 mov	 ebp, esp
  00003	51		 push	 ecx
  00004	c7 45 fc cc cc
	cc cc		 mov	 DWORD PTR [ebp-4], -858993460 ; ccccccccH
  0000b	89 4d fc	 mov	 DWORD PTR _this$[ebp], ecx

; 662  :         return 0;

  0000e	33 c0		 xor	 eax, eax

; 663  :     }

  00010	8b e5		 mov	 esp, ebp
  00012	5d		 pop	 ebp
  00013	c3		 ret	 0
?ToComment@XMLNode@tinyxml2@@UBEPBVXMLComment@2@XZ ENDP	; tinyxml2::XMLNode::ToComment
_TEXT	ENDS
; Function compile flags: /Odtp /RTCsu
; File e:\fusion3d_work\engine\src\staticlibs\tinyxml2.h
;	COMDAT ?ToDocument@XMLNode@tinyxml2@@UBEPBVXMLDocument@2@XZ
_TEXT	SEGMENT
_this$ = -4						; size = 4
?ToDocument@XMLNode@tinyxml2@@UBEPBVXMLDocument@2@XZ PROC ; tinyxml2::XMLNode::ToDocument, COMDAT
; _this$ = ecx

; 664  :     virtual const XMLDocument*		ToDocument() const		{

  00000	55		 push	 ebp
  00001	8b ec		 mov	 ebp, esp
  00003	51		 push	 ecx
  00004	c7 45 fc cc cc
	cc cc		 mov	 DWORD PTR [ebp-4], -858993460 ; ccccccccH
  0000b	89 4d fc	 mov	 DWORD PTR _this$[ebp], ecx

; 665  :         return 0;

  0000e	33 c0		 xor	 eax, eax

; 666  :     }

  00010	8b e5		 mov	 esp, ebp
  00012	5d		 pop	 ebp
  00013	c3		 ret	 0
?ToDocument@XMLNode@tinyxml2@@UBEPBVXMLDocument@2@XZ ENDP ; tinyxml2::XMLNode::ToDocument
_TEXT	ENDS
; Function compile flags: /Odtp /RTCsu
; File e:\fusion3d_work\engine\src\staticlibs\tinyxml2.h
;	COMDAT ?ToDeclaration@XMLNode@tinyxml2@@UBEPBVXMLDeclaration@2@XZ
_TEXT	SEGMENT
_this$ = -4						; size = 4
?ToDeclaration@XMLNode@tinyxml2@@UBEPBVXMLDeclaration@2@XZ PROC ; tinyxml2::XMLNode::ToDeclaration, COMDAT
; _this$ = ecx

; 667  :     virtual const XMLDeclaration*	ToDeclaration() const	{

  00000	55		 push	 ebp
  00001	8b ec		 mov	 ebp, esp
  00003	51		 push	 ecx
  00004	c7 45 fc cc cc
	cc cc		 mov	 DWORD PTR [ebp-4], -858993460 ; ccccccccH
  0000b	89 4d fc	 mov	 DWORD PTR _this$[ebp], ecx

; 668  :         return 0;

  0000e	33 c0		 xor	 eax, eax

; 669  :     }

  00010	8b e5		 mov	 esp, ebp
  00012	5d		 pop	 ebp
  00013	c3		 ret	 0
?ToDeclaration@XMLNode@tinyxml2@@UBEPBVXMLDeclaration@2@XZ ENDP ; tinyxml2::XMLNode::ToDeclaration
_TEXT	ENDS
; Function compile flags: /Odtp /RTCsu
; File e:\fusion3d_work\engine\src\staticlibs\tinyxml2.h
;	COMDAT ?ToUnknown@XMLNode@tinyxml2@@UBEPBVXMLUnknown@2@XZ
_TEXT	SEGMENT
_this$ = -4						; size = 4
?ToUnknown@XMLNode@tinyxml2@@UBEPBVXMLUnknown@2@XZ PROC	; tinyxml2::XMLNode::ToUnknown, COMDAT
; _this$ = ecx

; 670  :     virtual const XMLUnknown*		ToUnknown() const		{

  00000	55		 push	 ebp
  00001	8b ec		 mov	 ebp, esp
  00003	51		 push	 ecx
  00004	c7 45 fc cc cc
	cc cc		 mov	 DWORD PTR [ebp-4], -858993460 ; ccccccccH
  0000b	89 4d fc	 mov	 DWORD PTR _this$[ebp], ecx

; 671  :         return 0;

  0000e	33 c0		 xor	 eax, eax

; 672  :     }

  00010	8b e5		 mov	 esp, ebp
  00012	5d		 pop	 ebp
  00013	c3		 ret	 0
?ToUnknown@XMLNode@tinyxml2@@UBEPBVXMLUnknown@2@XZ ENDP	; tinyxml2::XMLNode::ToUnknown
_TEXT	ENDS
; Function compile flags: /Odtp /RTCsu
; File e:\fusion3d_work\engine\src\staticlibs\tinyxml2.h
;	COMDAT ?Parent@XMLNode@tinyxml2@@QBEPBV12@XZ
_TEXT	SEGMENT
_this$ = -4						; size = 4
?Parent@XMLNode@tinyxml2@@QBEPBV12@XZ PROC		; tinyxml2::XMLNode::Parent, COMDAT
; _this$ = ecx

; 691  :     const XMLNode*	Parent() const			{

  00000	55		 push	 ebp
  00001	8b ec		 mov	 ebp, esp
  00003	51		 push	 ecx
  00004	c7 45 fc cc cc
	cc cc		 mov	 DWORD PTR [ebp-4], -858993460 ; ccccccccH
  0000b	89 4d fc	 mov	 DWORD PTR _this$[ebp], ecx

; 692  :         return _parent;

  0000e	8b 45 fc	 mov	 eax, DWORD PTR _this$[ebp]
  00011	8b 40 08	 mov	 eax, DWORD PTR [eax+8]

; 693  :     }

  00014	8b e5		 mov	 esp, ebp
  00016	5d		 pop	 ebp
  00017	c3		 ret	 0
?Parent@XMLNode@tinyxml2@@QBEPBV12@XZ ENDP		; tinyxml2::XMLNode::Parent
_TEXT	ENDS
; Function compile flags: /Odtp /RTCsu
; File e:\fusion3d_work\engine\src\staticlibs\tinyxml2.h
;	COMDAT ?NoChildren@XMLNode@tinyxml2@@QBE_NXZ
_TEXT	SEGMENT
tv66 = -8						; size = 4
_this$ = -4						; size = 4
?NoChildren@XMLNode@tinyxml2@@QBE_NXZ PROC		; tinyxml2::XMLNode::NoChildren, COMDAT
; _this$ = ecx

; 700  :     bool NoChildren() const					{

  00000	55		 push	 ebp
  00001	8b ec		 mov	 ebp, esp
  00003	83 ec 08	 sub	 esp, 8
  00006	c7 45 f8 cc cc
	cc cc		 mov	 DWORD PTR [ebp-8], -858993460 ; ccccccccH
  0000d	c7 45 fc cc cc
	cc cc		 mov	 DWORD PTR [ebp-4], -858993460 ; ccccccccH
  00014	89 4d fc	 mov	 DWORD PTR _this$[ebp], ecx

; 701  :         return !_firstChild;

  00017	8b 45 fc	 mov	 eax, DWORD PTR _this$[ebp]
  0001a	83 78 18 00	 cmp	 DWORD PTR [eax+24], 0
  0001e	75 09		 jne	 SHORT $LN3@NoChildren
  00020	c7 45 f8 01 00
	00 00		 mov	 DWORD PTR tv66[ebp], 1
  00027	eb 07		 jmp	 SHORT $LN4@NoChildren
$LN3@NoChildren:
  00029	c7 45 f8 00 00
	00 00		 mov	 DWORD PTR tv66[ebp], 0
$LN4@NoChildren:
  00030	8a 45 f8	 mov	 al, BYTE PTR tv66[ebp]

; 702  :     }

  00033	8b e5		 mov	 esp, ebp
  00035	5d		 pop	 ebp
  00036	c3		 ret	 0
?NoChildren@XMLNode@tinyxml2@@QBE_NXZ ENDP		; tinyxml2::XMLNode::NoChildren
_TEXT	ENDS
; Function compile flags: /Odtp /RTCsu
; File e:\fusion3d_work\engine\src\staticlibs\tinyxml2.h
;	COMDAT ?FirstChild@XMLNode@tinyxml2@@QBEPBV12@XZ
_TEXT	SEGMENT
_this$ = -4						; size = 4
?FirstChild@XMLNode@tinyxml2@@QBEPBV12@XZ PROC		; tinyxml2::XMLNode::FirstChild, COMDAT
; _this$ = ecx

; 705  :     const XMLNode*  FirstChild() const		{

  00000	55		 push	 ebp
  00001	8b ec		 mov	 ebp, esp
  00003	51		 push	 ecx
  00004	c7 45 fc cc cc
	cc cc		 mov	 DWORD PTR [ebp-4], -858993460 ; ccccccccH
  0000b	89 4d fc	 mov	 DWORD PTR _this$[ebp], ecx

; 706  :         return _firstChild;

  0000e	8b 45 fc	 mov	 eax, DWORD PTR _this$[ebp]
  00011	8b 40 18	 mov	 eax, DWORD PTR [eax+24]

; 707  :     }

  00014	8b e5		 mov	 esp, ebp
  00016	5d		 pop	 ebp
  00017	c3		 ret	 0
?FirstChild@XMLNode@tinyxml2@@QBEPBV12@XZ ENDP		; tinyxml2::XMLNode::FirstChild
_TEXT	ENDS
; Function compile flags: /Odtp /RTCsu
; File e:\fusion3d_work\engine\src\staticlibs\tinyxml2.h
;	COMDAT ?FirstChild@XMLNode@tinyxml2@@QAEPAV12@XZ
_TEXT	SEGMENT
_this$ = -4						; size = 4
?FirstChild@XMLNode@tinyxml2@@QAEPAV12@XZ PROC		; tinyxml2::XMLNode::FirstChild, COMDAT
; _this$ = ecx

; 709  :     XMLNode*		FirstChild()			{

  00000	55		 push	 ebp
  00001	8b ec		 mov	 ebp, esp
  00003	51		 push	 ecx
  00004	c7 45 fc cc cc
	cc cc		 mov	 DWORD PTR [ebp-4], -858993460 ; ccccccccH
  0000b	89 4d fc	 mov	 DWORD PTR _this$[ebp], ecx

; 710  :         return _firstChild;

  0000e	8b 45 fc	 mov	 eax, DWORD PTR _this$[ebp]
  00011	8b 40 18	 mov	 eax, DWORD PTR [eax+24]

; 711  :     }

  00014	8b e5		 mov	 esp, ebp
  00016	5d		 pop	 ebp
  00017	c3		 ret	 0
?FirstChild@XMLNode@tinyxml2@@QAEPAV12@XZ ENDP		; tinyxml2::XMLNode::FirstChild
_TEXT	ENDS
; Function compile flags: /Odtp /RTCsu
; File e:\fusion3d_work\engine\src\staticlibs\tinyxml2.h
;	COMDAT ?NextSibling@XMLNode@tinyxml2@@QBEPBV12@XZ
_TEXT	SEGMENT
_this$ = -4						; size = 4
?NextSibling@XMLNode@tinyxml2@@QBEPBV12@XZ PROC		; tinyxml2::XMLNode::NextSibling, COMDAT
; _this$ = ecx

; 757  :     const XMLNode*	NextSibling() const						{

  00000	55		 push	 ebp
  00001	8b ec		 mov	 ebp, esp
  00003	51		 push	 ecx
  00004	c7 45 fc cc cc
	cc cc		 mov	 DWORD PTR [ebp-4], -858993460 ; ccccccccH
  0000b	89 4d fc	 mov	 DWORD PTR _this$[ebp], ecx

; 758  :         return _next;

  0000e	8b 45 fc	 mov	 eax, DWORD PTR _this$[ebp]
  00011	8b 40 24	 mov	 eax, DWORD PTR [eax+36]

; 759  :     }

  00014	8b e5		 mov	 esp, ebp
  00016	5d		 pop	 ebp
  00017	c3		 ret	 0
?NextSibling@XMLNode@tinyxml2@@QBEPBV12@XZ ENDP		; tinyxml2::XMLNode::NextSibling
_TEXT	ENDS
; Function compile flags: /Odtp /RTCsu
; File e:\fusion3d_work\engine\src\staticlibs\tinyxml2.h
;	COMDAT ?ToText@XMLText@tinyxml2@@UAEPAV12@XZ
_TEXT	SEGMENT
_this$ = -4						; size = 4
?ToText@XMLText@tinyxml2@@UAEPAV12@XZ PROC		; tinyxml2::XMLText::ToText, COMDAT
; _this$ = ecx

; 901  :     virtual XMLText* ToText()			{

  00000	55		 push	 ebp
  00001	8b ec		 mov	 ebp, esp
  00003	51		 push	 ecx
  00004	c7 45 fc cc cc
	cc cc		 mov	 DWORD PTR [ebp-4], -858993460 ; ccccccccH
  0000b	89 4d fc	 mov	 DWORD PTR _this$[ebp], ecx

; 902  :         return this;

  0000e	8b 45 fc	 mov	 eax, DWORD PTR _this$[ebp]

; 903  :     }

  00011	8b e5		 mov	 esp, ebp
  00013	5d		 pop	 ebp
  00014	c3		 ret	 0
?ToText@XMLText@tinyxml2@@UAEPAV12@XZ ENDP		; tinyxml2::XMLText::ToText
_TEXT	ENDS
; Function compile flags: /Odtp /RTCsu
; File e:\fusion3d_work\engine\src\staticlibs\tinyxml2.h
;	COMDAT ?ToText@XMLText@tinyxml2@@UBEPBV12@XZ
_TEXT	SEGMENT
_this$ = -4						; size = 4
?ToText@XMLText@tinyxml2@@UBEPBV12@XZ PROC		; tinyxml2::XMLText::ToText, COMDAT
; _this$ = ecx

; 904  :     virtual const XMLText* ToText() const	{

  00000	55		 push	 ebp
  00001	8b ec		 mov	 ebp, esp
  00003	51		 push	 ecx
  00004	c7 45 fc cc cc
	cc cc		 mov	 DWORD PTR [ebp-4], -858993460 ; ccccccccH
  0000b	89 4d fc	 mov	 DWORD PTR _this$[ebp], ecx

; 905  :         return this;

  0000e	8b 45 fc	 mov	 eax, DWORD PTR _this$[ebp]

; 906  :     }

  00011	8b e5		 mov	 esp, ebp
  00013	5d		 pop	 ebp
  00014	c3		 ret	 0
?ToText@XMLText@tinyxml2@@UBEPBV12@XZ ENDP		; tinyxml2::XMLText::ToText
_TEXT	ENDS
; Function compile flags: /Odtp /RTCsu
; File e:\fusion3d_work\engine\src\staticlibs\tinyxml2.h
;	COMDAT ?SetCData@XMLText@tinyxml2@@QAEX_N@Z
_TEXT	SEGMENT
_this$ = -4						; size = 4
_isCData$ = 8						; size = 1
?SetCData@XMLText@tinyxml2@@QAEX_N@Z PROC		; tinyxml2::XMLText::SetCData, COMDAT
; _this$ = ecx

; 909  :     void SetCData( bool isCData )			{

  00000	55		 push	 ebp
  00001	8b ec		 mov	 ebp, esp
  00003	51		 push	 ecx
  00004	c7 45 fc cc cc
	cc cc		 mov	 DWORD PTR [ebp-4], -858993460 ; ccccccccH
  0000b	89 4d fc	 mov	 DWORD PTR _this$[ebp], ecx

; 910  :         _isCData = isCData;

  0000e	8b 45 fc	 mov	 eax, DWORD PTR _this$[ebp]
  00011	8a 4d 08	 mov	 cl, BYTE PTR _isCData$[ebp]
  00014	88 48 2c	 mov	 BYTE PTR [eax+44], cl

; 911  :     }

  00017	8b e5		 mov	 esp, ebp
  00019	5d		 pop	 ebp
  0001a	c2 04 00	 ret	 4
?SetCData@XMLText@tinyxml2@@QAEX_N@Z ENDP		; tinyxml2::XMLText::SetCData
_TEXT	ENDS
; Function compile flags: /Odtp /RTCsu
; File e:\fusion3d_work\engine\src\staticlibs\tinyxml2.h
;	COMDAT ?CData@XMLText@tinyxml2@@QBE_NXZ
_TEXT	SEGMENT
_this$ = -4						; size = 4
?CData@XMLText@tinyxml2@@QBE_NXZ PROC			; tinyxml2::XMLText::CData, COMDAT
; _this$ = ecx

; 913  :     bool CData() const						{

  00000	55		 push	 ebp
  00001	8b ec		 mov	 ebp, esp
  00003	51		 push	 ecx
  00004	c7 45 fc cc cc
	cc cc		 mov	 DWORD PTR [ebp-4], -858993460 ; ccccccccH
  0000b	89 4d fc	 mov	 DWORD PTR _this$[ebp], ecx

; 914  :         return _isCData;

  0000e	8b 45 fc	 mov	 eax, DWORD PTR _this$[ebp]
  00011	8a 40 2c	 mov	 al, BYTE PTR [eax+44]

; 915  :     }

  00014	8b e5		 mov	 esp, ebp
  00016	5d		 pop	 ebp
  00017	c3		 ret	 0
?CData@XMLText@tinyxml2@@QBE_NXZ ENDP			; tinyxml2::XMLText::CData
_TEXT	ENDS
; Function compile flags: /Odtp /RTCsu
; File e:\fusion3d_work\engine\src\staticlibs\tinyxml2.h
;	COMDAT ??0XMLText@tinyxml2@@IAE@PAVXMLDocument@1@@Z
_TEXT	SEGMENT
_this$ = -4						; size = 4
_doc$ = 8						; size = 4
??0XMLText@tinyxml2@@IAE@PAVXMLDocument@1@@Z PROC	; tinyxml2::XMLText::XMLText, COMDAT
; _this$ = ecx

; 921  :     XMLText( XMLDocument* doc )	: XMLNode( doc ), _isCData( false )	{}

  00000	55		 push	 ebp
  00001	8b ec		 mov	 ebp, esp
  00003	51		 push	 ecx
  00004	c7 45 fc cc cc
	cc cc		 mov	 DWORD PTR [ebp-4], -858993460 ; ccccccccH
  0000b	89 4d fc	 mov	 DWORD PTR _this$[ebp], ecx
  0000e	8b 45 08	 mov	 eax, DWORD PTR _doc$[ebp]
  00011	50		 push	 eax
  00012	8b 4d fc	 mov	 ecx, DWORD PTR _this$[ebp]
  00015	e8 00 00 00 00	 call	 ??0XMLNode@tinyxml2@@IAE@PAVXMLDocument@1@@Z ; tinyxml2::XMLNode::XMLNode
  0001a	8b 4d fc	 mov	 ecx, DWORD PTR _this$[ebp]
  0001d	c7 01 00 00 00
	00		 mov	 DWORD PTR [ecx], OFFSET ??_7XMLText@tinyxml2@@6B@
  00023	8b 55 fc	 mov	 edx, DWORD PTR _this$[ebp]
  00026	c6 42 2c 00	 mov	 BYTE PTR [edx+44], 0
  0002a	8b 45 fc	 mov	 eax, DWORD PTR _this$[ebp]
  0002d	83 c4 04	 add	 esp, 4
  00030	3b ec		 cmp	 ebp, esp
  00032	e8 00 00 00 00	 call	 __RTC_CheckEsp
  00037	8b e5		 mov	 esp, ebp
  00039	5d		 pop	 ebp
  0003a	c2 04 00	 ret	 4
??0XMLText@tinyxml2@@IAE@PAVXMLDocument@1@@Z ENDP	; tinyxml2::XMLText::XMLText
_TEXT	ENDS
; Function compile flags: /Odtp /RTCsu
; File e:\fusion3d_work\engine\src\staticlibs\tinyxml2.h
;	COMDAT ??1XMLText@tinyxml2@@MAE@XZ
_TEXT	SEGMENT
_this$ = -4						; size = 4
??1XMLText@tinyxml2@@MAE@XZ PROC			; tinyxml2::XMLText::~XMLText, COMDAT
; _this$ = ecx

; 922  :     virtual ~XMLText()												{}

  00000	55		 push	 ebp
  00001	8b ec		 mov	 ebp, esp
  00003	51		 push	 ecx
  00004	c7 45 fc cc cc
	cc cc		 mov	 DWORD PTR [ebp-4], -858993460 ; ccccccccH
  0000b	89 4d fc	 mov	 DWORD PTR _this$[ebp], ecx
  0000e	8b 45 fc	 mov	 eax, DWORD PTR _this$[ebp]
  00011	c7 00 00 00 00
	00		 mov	 DWORD PTR [eax], OFFSET ??_7XMLText@tinyxml2@@6B@
  00017	8b 4d fc	 mov	 ecx, DWORD PTR _this$[ebp]
  0001a	e8 00 00 00 00	 call	 ??1XMLNode@tinyxml2@@MAE@XZ ; tinyxml2::XMLNode::~XMLNode
  0001f	83 c4 04	 add	 esp, 4
  00022	3b ec		 cmp	 ebp, esp
  00024	e8 00 00 00 00	 call	 __RTC_CheckEsp
  00029	8b e5		 mov	 esp, ebp
  0002b	5d		 pop	 ebp
  0002c	c3		 ret	 0
??1XMLText@tinyxml2@@MAE@XZ ENDP			; tinyxml2::XMLText::~XMLText
_TEXT	ENDS
; Function compile flags: /Odtp /RTCsu
;	COMDAT ??_GXMLText@tinyxml2@@MAEPAXI@Z
_TEXT	SEGMENT
_this$ = -4						; size = 4
___flags$ = 8						; size = 4
??_GXMLText@tinyxml2@@MAEPAXI@Z PROC			; tinyxml2::XMLText::`scalar deleting destructor', COMDAT
; _this$ = ecx
  00000	55		 push	 ebp
  00001	8b ec		 mov	 ebp, esp
  00003	51		 push	 ecx
  00004	c7 45 fc cc cc
	cc cc		 mov	 DWORD PTR [ebp-4], -858993460 ; ccccccccH
  0000b	89 4d fc	 mov	 DWORD PTR _this$[ebp], ecx
  0000e	8b 4d fc	 mov	 ecx, DWORD PTR _this$[ebp]
  00011	e8 00 00 00 00	 call	 ??1XMLText@tinyxml2@@MAE@XZ ; tinyxml2::XMLText::~XMLText
  00016	8b 45 08	 mov	 eax, DWORD PTR ___flags$[ebp]
  00019	83 e0 01	 and	 eax, 1
  0001c	74 0e		 je	 SHORT $LN2@scalar
  0001e	6a 30		 push	 48			; 00000030H
  00020	8b 4d fc	 mov	 ecx, DWORD PTR _this$[ebp]
  00023	51		 push	 ecx
  00024	e8 00 00 00 00	 call	 ??3@YAXPAXI@Z		; operator delete
  00029	83 c4 08	 add	 esp, 8
$LN2@scalar:
  0002c	8b 45 fc	 mov	 eax, DWORD PTR _this$[ebp]
  0002f	83 c4 04	 add	 esp, 4
  00032	3b ec		 cmp	 ebp, esp
  00034	e8 00 00 00 00	 call	 __RTC_CheckEsp
  00039	8b e5		 mov	 esp, ebp
  0003b	5d		 pop	 ebp
  0003c	c2 04 00	 ret	 4
??_GXMLText@tinyxml2@@MAEPAXI@Z ENDP			; tinyxml2::XMLText::`scalar deleting destructor'
_TEXT	ENDS
; Function compile flags: /Odtp /RTCsu
; File e:\fusion3d_work\engine\src\staticlibs\tinyxml2.h
;	COMDAT ?ToComment@XMLComment@tinyxml2@@UAEPAV12@XZ
_TEXT	SEGMENT
_this$ = -4						; size = 4
?ToComment@XMLComment@tinyxml2@@UAEPAV12@XZ PROC	; tinyxml2::XMLComment::ToComment, COMDAT
; _this$ = ecx

; 939  :     virtual XMLComment*	ToComment()					{

  00000	55		 push	 ebp
  00001	8b ec		 mov	 ebp, esp
  00003	51		 push	 ecx
  00004	c7 45 fc cc cc
	cc cc		 mov	 DWORD PTR [ebp-4], -858993460 ; ccccccccH
  0000b	89 4d fc	 mov	 DWORD PTR _this$[ebp], ecx

; 940  :         return this;

  0000e	8b 45 fc	 mov	 eax, DWORD PTR _this$[ebp]

; 941  :     }

  00011	8b e5		 mov	 esp, ebp
  00013	5d		 pop	 ebp
  00014	c3		 ret	 0
?ToComment@XMLComment@tinyxml2@@UAEPAV12@XZ ENDP	; tinyxml2::XMLComment::ToComment
_TEXT	ENDS
; Function compile flags: /Odtp /RTCsu
; File e:\fusion3d_work\engine\src\staticlibs\tinyxml2.h
;	COMDAT ?ToComment@XMLComment@tinyxml2@@UBEPBV12@XZ
_TEXT	SEGMENT
_this$ = -4						; size = 4
?ToComment@XMLComment@tinyxml2@@UBEPBV12@XZ PROC	; tinyxml2::XMLComment::ToComment, COMDAT
; _this$ = ecx

; 942  :     virtual const XMLComment* ToComment() const		{

  00000	55		 push	 ebp
  00001	8b ec		 mov	 ebp, esp
  00003	51		 push	 ecx
  00004	c7 45 fc cc cc
	cc cc		 mov	 DWORD PTR [ebp-4], -858993460 ; ccccccccH
  0000b	89 4d fc	 mov	 DWORD PTR _this$[ebp], ecx

; 943  :         return this;

  0000e	8b 45 fc	 mov	 eax, DWORD PTR _this$[ebp]

; 944  :     }

  00011	8b e5		 mov	 esp, ebp
  00013	5d		 pop	 ebp
  00014	c3		 ret	 0
?ToComment@XMLComment@tinyxml2@@UBEPBV12@XZ ENDP	; tinyxml2::XMLComment::ToComment
_TEXT	ENDS
; Function compile flags: /Odtp /RTCsu
; File e:\fusion3d_work\engine\src\staticlibs\tinyxml2.h
;	COMDAT ?ToDeclaration@XMLDeclaration@tinyxml2@@UAEPAV12@XZ
_TEXT	SEGMENT
_this$ = -4						; size = 4
?ToDeclaration@XMLDeclaration@tinyxml2@@UAEPAV12@XZ PROC ; tinyxml2::XMLDeclaration::ToDeclaration, COMDAT
; _this$ = ecx

; 978  :     virtual XMLDeclaration*	ToDeclaration()					{

  00000	55		 push	 ebp
  00001	8b ec		 mov	 ebp, esp
  00003	51		 push	 ecx
  00004	c7 45 fc cc cc
	cc cc		 mov	 DWORD PTR [ebp-4], -858993460 ; ccccccccH
  0000b	89 4d fc	 mov	 DWORD PTR _this$[ebp], ecx

; 979  :         return this;

  0000e	8b 45 fc	 mov	 eax, DWORD PTR _this$[ebp]

; 980  :     }

  00011	8b e5		 mov	 esp, ebp
  00013	5d		 pop	 ebp
  00014	c3		 ret	 0
?ToDeclaration@XMLDeclaration@tinyxml2@@UAEPAV12@XZ ENDP ; tinyxml2::XMLDeclaration::ToDeclaration
_TEXT	ENDS
; Function compile flags: /Odtp /RTCsu
; File e:\fusion3d_work\engine\src\staticlibs\tinyxml2.h
;	COMDAT ?ToDeclaration@XMLDeclaration@tinyxml2@@UBEPBV12@XZ
_TEXT	SEGMENT
_this$ = -4						; size = 4
?ToDeclaration@XMLDeclaration@tinyxml2@@UBEPBV12@XZ PROC ; tinyxml2::XMLDeclaration::ToDeclaration, COMDAT
; _this$ = ecx

; 981  :     virtual const XMLDeclaration* ToDeclaration() const		{

  00000	55		 push	 ebp
  00001	8b ec		 mov	 ebp, esp
  00003	51		 push	 ecx
  00004	c7 45 fc cc cc
	cc cc		 mov	 DWORD PTR [ebp-4], -858993460 ; ccccccccH
  0000b	89 4d fc	 mov	 DWORD PTR _this$[ebp], ecx

; 982  :         return this;

  0000e	8b 45 fc	 mov	 eax, DWORD PTR _this$[ebp]

; 983  :     }

  00011	8b e5		 mov	 esp, ebp
  00013	5d		 pop	 ebp
  00014	c3		 ret	 0
?ToDeclaration@XMLDeclaration@tinyxml2@@UBEPBV12@XZ ENDP ; tinyxml2::XMLDeclaration::ToDeclaration
_TEXT	ENDS
; Function compile flags: /Odtp /RTCsu
; File e:\fusion3d_work\engine\src\staticlibs\tinyxml2.h
;	COMDAT ?ToUnknown@XMLUnknown@tinyxml2@@UAEPAV12@XZ
_TEXT	SEGMENT
_this$ = -4						; size = 4
?ToUnknown@XMLUnknown@tinyxml2@@UAEPAV12@XZ PROC	; tinyxml2::XMLUnknown::ToUnknown, COMDAT
; _this$ = ecx

; 1013 :     virtual XMLUnknown*	ToUnknown()					{

  00000	55		 push	 ebp
  00001	8b ec		 mov	 ebp, esp
  00003	51		 push	 ecx
  00004	c7 45 fc cc cc
	cc cc		 mov	 DWORD PTR [ebp-4], -858993460 ; ccccccccH
  0000b	89 4d fc	 mov	 DWORD PTR _this$[ebp], ecx

; 1014 :         return this;

  0000e	8b 45 fc	 mov	 eax, DWORD PTR _this$[ebp]

; 1015 :     }

  00011	8b e5		 mov	 esp, ebp
  00013	5d		 pop	 ebp
  00014	c3		 ret	 0
?ToUnknown@XMLUnknown@tinyxml2@@UAEPAV12@XZ ENDP	; tinyxml2::XMLUnknown::ToUnknown
_TEXT	ENDS
; Function compile flags: /Odtp /RTCsu
; File e:\fusion3d_work\engine\src\staticlibs\tinyxml2.h
;	COMDAT ?ToUnknown@XMLUnknown@tinyxml2@@UBEPBV12@XZ
_TEXT	SEGMENT
_this$ = -4						; size = 4
?ToUnknown@XMLUnknown@tinyxml2@@UBEPBV12@XZ PROC	; tinyxml2::XMLUnknown::ToUnknown, COMDAT
; _this$ = ecx

; 1016 :     virtual const XMLUnknown* ToUnknown() const		{

  00000	55		 push	 ebp
  00001	8b ec		 mov	 ebp, esp
  00003	51		 push	 ecx
  00004	c7 45 fc cc cc
	cc cc		 mov	 DWORD PTR [ebp-4], -858993460 ; ccccccccH
  0000b	89 4d fc	 mov	 DWORD PTR _this$[ebp], ecx

; 1017 :         return this;

  0000e	8b 45 fc	 mov	 eax, DWORD PTR _this$[ebp]

; 1018 :     }

  00011	8b e5		 mov	 esp, ebp
  00013	5d		 pop	 ebp
  00014	c3		 ret	 0
?ToUnknown@XMLUnknown@tinyxml2@@UBEPBV12@XZ ENDP	; tinyxml2::XMLUnknown::ToUnknown
_TEXT	ENDS
; Function compile flags: /Odtp /RTCsu
; File e:\fusion3d_work\engine\src\staticlibs\tinyxml2.h
;	COMDAT ?Next@XMLAttribute@tinyxml2@@QBEPBV12@XZ
_TEXT	SEGMENT
_this$ = -4						; size = 4
?Next@XMLAttribute@tinyxml2@@QBEPBV12@XZ PROC		; tinyxml2::XMLAttribute::Next, COMDAT
; _this$ = ecx

; 1055 :     const XMLAttribute* Next() const {

  00000	55		 push	 ebp
  00001	8b ec		 mov	 ebp, esp
  00003	51		 push	 ecx
  00004	c7 45 fc cc cc
	cc cc		 mov	 DWORD PTR [ebp-4], -858993460 ; ccccccccH
  0000b	89 4d fc	 mov	 DWORD PTR _this$[ebp], ecx

; 1056 :         return _next;

  0000e	8b 45 fc	 mov	 eax, DWORD PTR _this$[ebp]
  00011	8b 40 1c	 mov	 eax, DWORD PTR [eax+28]

; 1057 :     }

  00014	8b e5		 mov	 esp, ebp
  00016	5d		 pop	 ebp
  00017	c3		 ret	 0
?Next@XMLAttribute@tinyxml2@@QBEPBV12@XZ ENDP		; tinyxml2::XMLAttribute::Next
_TEXT	ENDS
; Function compile flags: /Odtp /RTCsu
; File e:\fusion3d_work\engine\src\staticlibs\tinyxml2.h
;	COMDAT ??0XMLAttribute@tinyxml2@@AAE@XZ
_TEXT	SEGMENT
_this$ = -16						; size = 4
__$EHRec$ = -12						; size = 12
??0XMLAttribute@tinyxml2@@AAE@XZ PROC			; tinyxml2::XMLAttribute::XMLAttribute, COMDAT
; _this$ = ecx

; 1123 :     XMLAttribute() : _next( 0 ), _memPool( 0 ) {}

  00000	55		 push	 ebp
  00001	8b ec		 mov	 ebp, esp
  00003	6a ff		 push	 -1
  00005	68 00 00 00 00	 push	 __ehhandler$??0XMLAttribute@tinyxml2@@AAE@XZ
  0000a	64 a1 00 00 00
	00		 mov	 eax, DWORD PTR fs:0
  00010	50		 push	 eax
  00011	51		 push	 ecx
  00012	c7 45 f0 cc cc
	cc cc		 mov	 DWORD PTR [ebp-16], -858993460 ; ccccccccH
  00019	a1 00 00 00 00	 mov	 eax, DWORD PTR ___security_cookie
  0001e	33 c5		 xor	 eax, ebp
  00020	50		 push	 eax
  00021	8d 45 f4	 lea	 eax, DWORD PTR __$EHRec$[ebp]
  00024	64 a3 00 00 00
	00		 mov	 DWORD PTR fs:0, eax
  0002a	89 4d f0	 mov	 DWORD PTR _this$[ebp], ecx
  0002d	8b 45 f0	 mov	 eax, DWORD PTR _this$[ebp]
  00030	c7 00 00 00 00
	00		 mov	 DWORD PTR [eax], OFFSET ??_7XMLAttribute@tinyxml2@@6B@
  00036	8b 4d f0	 mov	 ecx, DWORD PTR _this$[ebp]
  00039	83 c1 04	 add	 ecx, 4
  0003c	e8 00 00 00 00	 call	 ??0StrPair@tinyxml2@@QAE@XZ ; tinyxml2::StrPair::StrPair
  00041	c7 45 fc 00 00
	00 00		 mov	 DWORD PTR __$EHRec$[ebp+8], 0
  00048	8b 4d f0	 mov	 ecx, DWORD PTR _this$[ebp]
  0004b	83 c1 10	 add	 ecx, 16			; 00000010H
  0004e	e8 00 00 00 00	 call	 ??0StrPair@tinyxml2@@QAE@XZ ; tinyxml2::StrPair::StrPair
  00053	8b 4d f0	 mov	 ecx, DWORD PTR _this$[ebp]
  00056	c7 41 1c 00 00
	00 00		 mov	 DWORD PTR [ecx+28], 0
  0005d	8b 55 f0	 mov	 edx, DWORD PTR _this$[ebp]
  00060	c7 42 20 00 00
	00 00		 mov	 DWORD PTR [edx+32], 0
  00067	c7 45 fc ff ff
	ff ff		 mov	 DWORD PTR __$EHRec$[ebp+8], -1
  0006e	8b 45 f0	 mov	 eax, DWORD PTR _this$[ebp]
  00071	8b 4d f4	 mov	 ecx, DWORD PTR __$EHRec$[ebp]
  00074	64 89 0d 00 00
	00 00		 mov	 DWORD PTR fs:0, ecx
  0007b	59		 pop	 ecx
  0007c	83 c4 10	 add	 esp, 16			; 00000010H
  0007f	3b ec		 cmp	 ebp, esp
  00081	e8 00 00 00 00	 call	 __RTC_CheckEsp
  00086	8b e5		 mov	 esp, ebp
  00088	5d		 pop	 ebp
  00089	c3		 ret	 0
_TEXT	ENDS
;	COMDAT text$x
text$x	SEGMENT
__unwindfunclet$??0XMLAttribute@tinyxml2@@AAE@XZ$0:
  00000	8b 4d f0	 mov	 ecx, DWORD PTR _this$[ebp]
  00003	83 c1 04	 add	 ecx, 4
  00006	e9 00 00 00 00	 jmp	 ??1StrPair@tinyxml2@@QAE@XZ ; tinyxml2::StrPair::~StrPair
__ehhandler$??0XMLAttribute@tinyxml2@@AAE@XZ:
  0000b	8b 54 24 08	 mov	 edx, DWORD PTR [esp+8]
  0000f	8d 42 0c	 lea	 eax, DWORD PTR [edx+12]
  00012	8b 4a f8	 mov	 ecx, DWORD PTR [edx-8]
  00015	33 c8		 xor	 ecx, eax
  00017	e8 00 00 00 00	 call	 @__security_check_cookie@4
  0001c	b8 00 00 00 00	 mov	 eax, OFFSET __ehfuncinfo$??0XMLAttribute@tinyxml2@@AAE@XZ
  00021	e9 00 00 00 00	 jmp	 ___CxxFrameHandler3
text$x	ENDS
??0XMLAttribute@tinyxml2@@AAE@XZ ENDP			; tinyxml2::XMLAttribute::XMLAttribute
; Function compile flags: /Odtp /RTCsu
; File e:\fusion3d_work\engine\src\staticlibs\tinyxml2.h
;	COMDAT ??1XMLAttribute@tinyxml2@@EAE@XZ
_TEXT	SEGMENT
_this$ = -4						; size = 4
??1XMLAttribute@tinyxml2@@EAE@XZ PROC			; tinyxml2::XMLAttribute::~XMLAttribute, COMDAT
; _this$ = ecx

; 1124 :     virtual ~XMLAttribute()	{}

  00000	55		 push	 ebp
  00001	8b ec		 mov	 ebp, esp
  00003	51		 push	 ecx
  00004	c7 45 fc cc cc
	cc cc		 mov	 DWORD PTR [ebp-4], -858993460 ; ccccccccH
  0000b	89 4d fc	 mov	 DWORD PTR _this$[ebp], ecx
  0000e	8b 45 fc	 mov	 eax, DWORD PTR _this$[ebp]
  00011	c7 00 00 00 00
	00		 mov	 DWORD PTR [eax], OFFSET ??_7XMLAttribute@tinyxml2@@6B@
  00017	8b 4d fc	 mov	 ecx, DWORD PTR _this$[ebp]
  0001a	83 c1 10	 add	 ecx, 16			; 00000010H
  0001d	e8 00 00 00 00	 call	 ??1StrPair@tinyxml2@@QAE@XZ ; tinyxml2::StrPair::~StrPair
  00022	8b 4d fc	 mov	 ecx, DWORD PTR _this$[ebp]
  00025	83 c1 04	 add	 ecx, 4
  00028	e8 00 00 00 00	 call	 ??1StrPair@tinyxml2@@QAE@XZ ; tinyxml2::StrPair::~StrPair
  0002d	83 c4 04	 add	 esp, 4
  00030	3b ec		 cmp	 ebp, esp
  00032	e8 00 00 00 00	 call	 __RTC_CheckEsp
  00037	8b e5		 mov	 esp, ebp
  00039	5d		 pop	 ebp
  0003a	c3		 ret	 0
??1XMLAttribute@tinyxml2@@EAE@XZ ENDP			; tinyxml2::XMLAttribute::~XMLAttribute
_TEXT	ENDS
; Function compile flags: /Odtp /RTCsu
;	COMDAT ??_GXMLAttribute@tinyxml2@@EAEPAXI@Z
_TEXT	SEGMENT
_this$ = -4						; size = 4
___flags$ = 8						; size = 4
??_GXMLAttribute@tinyxml2@@EAEPAXI@Z PROC		; tinyxml2::XMLAttribute::`scalar deleting destructor', COMDAT
; _this$ = ecx
  00000	55		 push	 ebp
  00001	8b ec		 mov	 ebp, esp
  00003	51		 push	 ecx
  00004	c7 45 fc cc cc
	cc cc		 mov	 DWORD PTR [ebp-4], -858993460 ; ccccccccH
  0000b	89 4d fc	 mov	 DWORD PTR _this$[ebp], ecx
  0000e	8b 4d fc	 mov	 ecx, DWORD PTR _this$[ebp]
  00011	e8 00 00 00 00	 call	 ??1XMLAttribute@tinyxml2@@EAE@XZ ; tinyxml2::XMLAttribute::~XMLAttribute
  00016	8b 45 08	 mov	 eax, DWORD PTR ___flags$[ebp]
  00019	83 e0 01	 and	 eax, 1
  0001c	74 0e		 je	 SHORT $LN2@scalar
  0001e	6a 24		 push	 36			; 00000024H
  00020	8b 4d fc	 mov	 ecx, DWORD PTR _this$[ebp]
  00023	51		 push	 ecx
  00024	e8 00 00 00 00	 call	 ??3@YAXPAXI@Z		; operator delete
  00029	83 c4 08	 add	 esp, 8
$LN2@scalar:
  0002c	8b 45 fc	 mov	 eax, DWORD PTR _this$[ebp]
  0002f	83 c4 04	 add	 esp, 4
  00032	3b ec		 cmp	 ebp, esp
  00034	e8 00 00 00 00	 call	 __RTC_CheckEsp
  00039	8b e5		 mov	 esp, ebp
  0003b	5d		 pop	 ebp
  0003c	c2 04 00	 ret	 4
??_GXMLAttribute@tinyxml2@@EAEPAXI@Z ENDP		; tinyxml2::XMLAttribute::`scalar deleting destructor'
_TEXT	ENDS
; Function compile flags: /Odtp /RTCsu
; File e:\fusion3d_work\engine\src\staticlibs\tinyxml2.h
;	COMDAT ?Name@XMLElement@tinyxml2@@QBEPBDXZ
_TEXT	SEGMENT
_this$ = -4						; size = 4
?Name@XMLElement@tinyxml2@@QBEPBDXZ PROC		; tinyxml2::XMLElement::Name, COMDAT
; _this$ = ecx

; 1149 :     const char* Name() const		{

  00000	55		 push	 ebp
  00001	8b ec		 mov	 ebp, esp
  00003	51		 push	 ecx
  00004	c7 45 fc cc cc
	cc cc		 mov	 DWORD PTR [ebp-4], -858993460 ; ccccccccH
  0000b	89 4d fc	 mov	 DWORD PTR _this$[ebp], ecx

; 1150 :         return Value();

  0000e	8b 4d fc	 mov	 ecx, DWORD PTR _this$[ebp]
  00011	e8 00 00 00 00	 call	 ?Value@XMLNode@tinyxml2@@QBEPBDXZ ; tinyxml2::XMLNode::Value

; 1151 :     }

  00016	83 c4 04	 add	 esp, 4
  00019	3b ec		 cmp	 ebp, esp
  0001b	e8 00 00 00 00	 call	 __RTC_CheckEsp
  00020	8b e5		 mov	 esp, ebp
  00022	5d		 pop	 ebp
  00023	c3		 ret	 0
?Name@XMLElement@tinyxml2@@QBEPBDXZ ENDP		; tinyxml2::XMLElement::Name
_TEXT	ENDS
; Function compile flags: /Odtp /RTCsu
; File e:\fusion3d_work\engine\src\staticlibs\tinyxml2.h
;	COMDAT ?SetName@XMLElement@tinyxml2@@QAEXPBD_N@Z
_TEXT	SEGMENT
_this$ = -4						; size = 4
_str$ = 8						; size = 4
_staticMem$ = 12					; size = 1
?SetName@XMLElement@tinyxml2@@QAEXPBD_N@Z PROC		; tinyxml2::XMLElement::SetName, COMDAT
; _this$ = ecx

; 1153 :     void SetName( const char* str, bool staticMem=false )	{

  00000	55		 push	 ebp
  00001	8b ec		 mov	 ebp, esp
  00003	51		 push	 ecx
  00004	c7 45 fc cc cc
	cc cc		 mov	 DWORD PTR [ebp-4], -858993460 ; ccccccccH
  0000b	89 4d fc	 mov	 DWORD PTR _this$[ebp], ecx

; 1154 :         SetValue( str, staticMem );

  0000e	0f b6 45 0c	 movzx	 eax, BYTE PTR _staticMem$[ebp]
  00012	50		 push	 eax
  00013	8b 4d 08	 mov	 ecx, DWORD PTR _str$[ebp]
  00016	51		 push	 ecx
  00017	8b 4d fc	 mov	 ecx, DWORD PTR _this$[ebp]
  0001a	e8 00 00 00 00	 call	 ?SetValue@XMLNode@tinyxml2@@QAEXPBD_N@Z ; tinyxml2::XMLNode::SetValue

; 1155 :     }

  0001f	83 c4 04	 add	 esp, 4
  00022	3b ec		 cmp	 ebp, esp
  00024	e8 00 00 00 00	 call	 __RTC_CheckEsp
  00029	8b e5		 mov	 esp, ebp
  0002b	5d		 pop	 ebp
  0002c	c2 08 00	 ret	 8
?SetName@XMLElement@tinyxml2@@QAEXPBD_N@Z ENDP		; tinyxml2::XMLElement::SetName
_TEXT	ENDS
; Function compile flags: /Odtp /RTCsu
; File e:\fusion3d_work\engine\src\staticlibs\tinyxml2.h
;	COMDAT ?ToElement@XMLElement@tinyxml2@@UAEPAV12@XZ
_TEXT	SEGMENT
_this$ = -4						; size = 4
?ToElement@XMLElement@tinyxml2@@UAEPAV12@XZ PROC	; tinyxml2::XMLElement::ToElement, COMDAT
; _this$ = ecx

; 1157 :     virtual XMLElement* ToElement()				{

  00000	55		 push	 ebp
  00001	8b ec		 mov	 ebp, esp
  00003	51		 push	 ecx
  00004	c7 45 fc cc cc
	cc cc		 mov	 DWORD PTR [ebp-4], -858993460 ; ccccccccH
  0000b	89 4d fc	 mov	 DWORD PTR _this$[ebp], ecx

; 1158 :         return this;

  0000e	8b 45 fc	 mov	 eax, DWORD PTR _this$[ebp]

; 1159 :     }

  00011	8b e5		 mov	 esp, ebp
  00013	5d		 pop	 ebp
  00014	c3		 ret	 0
?ToElement@XMLElement@tinyxml2@@UAEPAV12@XZ ENDP	; tinyxml2::XMLElement::ToElement
_TEXT	ENDS
; Function compile flags: /Odtp /RTCsu
; File e:\fusion3d_work\engine\src\staticlibs\tinyxml2.h
;	COMDAT ?ToElement@XMLElement@tinyxml2@@UBEPBV12@XZ
_TEXT	SEGMENT
_this$ = -4						; size = 4
?ToElement@XMLElement@tinyxml2@@UBEPBV12@XZ PROC	; tinyxml2::XMLElement::ToElement, COMDAT
; _this$ = ecx

; 1160 :     virtual const XMLElement* ToElement() const {

  00000	55		 push	 ebp
  00001	8b ec		 mov	 ebp, esp
  00003	51		 push	 ecx
  00004	c7 45 fc cc cc
	cc cc		 mov	 DWORD PTR [ebp-4], -858993460 ; ccccccccH
  0000b	89 4d fc	 mov	 DWORD PTR _this$[ebp], ecx

; 1161 :         return this;

  0000e	8b 45 fc	 mov	 eax, DWORD PTR _this$[ebp]

; 1162 :     }

  00011	8b e5		 mov	 esp, ebp
  00013	5d		 pop	 ebp
  00014	c3		 ret	 0
?ToElement@XMLElement@tinyxml2@@UBEPBV12@XZ ENDP	; tinyxml2::XMLElement::ToElement
_TEXT	ENDS
; Function compile flags: /Odtp /RTCsu
; File e:\fusion3d_work\engine\src\staticlibs\tinyxml2.h
;	COMDAT ?SetAttribute@XMLElement@tinyxml2@@QAEXPBD0@Z
_TEXT	SEGMENT
_a$ = -8						; size = 4
_this$ = -4						; size = 4
_name$ = 8						; size = 4
_value$ = 12						; size = 4
?SetAttribute@XMLElement@tinyxml2@@QAEXPBD0@Z PROC	; tinyxml2::XMLElement::SetAttribute, COMDAT
; _this$ = ecx

; 1317 :     void SetAttribute( const char* name, const char* value )	{

  00000	55		 push	 ebp
  00001	8b ec		 mov	 ebp, esp
  00003	83 ec 08	 sub	 esp, 8
  00006	c7 45 f8 cc cc
	cc cc		 mov	 DWORD PTR [ebp-8], -858993460 ; ccccccccH
  0000d	c7 45 fc cc cc
	cc cc		 mov	 DWORD PTR [ebp-4], -858993460 ; ccccccccH
  00014	89 4d fc	 mov	 DWORD PTR _this$[ebp], ecx

; 1318 :         XMLAttribute* a = FindOrCreateAttribute( name );

  00017	8b 45 08	 mov	 eax, DWORD PTR _name$[ebp]
  0001a	50		 push	 eax
  0001b	8b 4d fc	 mov	 ecx, DWORD PTR _this$[ebp]
  0001e	e8 00 00 00 00	 call	 ?FindOrCreateAttribute@XMLElement@tinyxml2@@AAEPAVXMLAttribute@2@PBD@Z ; tinyxml2::XMLElement::FindOrCreateAttribute
  00023	89 45 f8	 mov	 DWORD PTR _a$[ebp], eax

; 1319 :         a->SetAttribute( value );

  00026	8b 4d 0c	 mov	 ecx, DWORD PTR _value$[ebp]
  00029	51		 push	 ecx
  0002a	8b 4d f8	 mov	 ecx, DWORD PTR _a$[ebp]
  0002d	e8 00 00 00 00	 call	 ?SetAttribute@XMLAttribute@tinyxml2@@QAEXPBD@Z ; tinyxml2::XMLAttribute::SetAttribute

; 1320 :     }

  00032	83 c4 08	 add	 esp, 8
  00035	3b ec		 cmp	 ebp, esp
  00037	e8 00 00 00 00	 call	 __RTC_CheckEsp
  0003c	8b e5		 mov	 esp, ebp
  0003e	5d		 pop	 ebp
  0003f	c2 08 00	 ret	 8
?SetAttribute@XMLElement@tinyxml2@@QAEXPBD0@Z ENDP	; tinyxml2::XMLElement::SetAttribute
_TEXT	ENDS
; Function compile flags: /Odtp /RTCsu
; File e:\fusion3d_work\engine\src\staticlibs\tinyxml2.h
;	COMDAT ?FirstAttribute@XMLElement@tinyxml2@@QBEPBVXMLAttribute@2@XZ
_TEXT	SEGMENT
_this$ = -4						; size = 4
?FirstAttribute@XMLElement@tinyxml2@@QBEPBVXMLAttribute@2@XZ PROC ; tinyxml2::XMLElement::FirstAttribute, COMDAT
; _this$ = ecx

; 1353 :     const XMLAttribute* FirstAttribute() const {

  00000	55		 push	 ebp
  00001	8b ec		 mov	 ebp, esp
  00003	51		 push	 ecx
  00004	c7 45 fc cc cc
	cc cc		 mov	 DWORD PTR [ebp-4], -858993460 ; ccccccccH
  0000b	89 4d fc	 mov	 DWORD PTR _this$[ebp], ecx

; 1354 :         return _rootAttribute;

  0000e	8b 45 fc	 mov	 eax, DWORD PTR _this$[ebp]
  00011	8b 40 30	 mov	 eax, DWORD PTR [eax+48]

; 1355 :     }

  00014	8b e5		 mov	 esp, ebp
  00016	5d		 pop	 ebp
  00017	c3		 ret	 0
?FirstAttribute@XMLElement@tinyxml2@@QBEPBVXMLAttribute@2@XZ ENDP ; tinyxml2::XMLElement::FirstAttribute
_TEXT	ENDS
; Function compile flags: /Odtp /RTCsu
; File e:\fusion3d_work\engine\src\staticlibs\tinyxml2.h
;	COMDAT ?ClosingType@XMLElement@tinyxml2@@QBEHXZ
_TEXT	SEGMENT
_this$ = -4						; size = 4
?ClosingType@XMLElement@tinyxml2@@QBEHXZ PROC		; tinyxml2::XMLElement::ClosingType, COMDAT
; _this$ = ecx

; 1477 :     int ClosingType() const {

  00000	55		 push	 ebp
  00001	8b ec		 mov	 ebp, esp
  00003	51		 push	 ecx
  00004	c7 45 fc cc cc
	cc cc		 mov	 DWORD PTR [ebp-4], -858993460 ; ccccccccH
  0000b	89 4d fc	 mov	 DWORD PTR _this$[ebp], ecx

; 1478 :         return _closingType;

  0000e	8b 45 fc	 mov	 eax, DWORD PTR _this$[ebp]
  00011	8b 40 2c	 mov	 eax, DWORD PTR [eax+44]

; 1479 :     }

  00014	8b e5		 mov	 esp, ebp
  00016	5d		 pop	 ebp
  00017	c3		 ret	 0
?ClosingType@XMLElement@tinyxml2@@QBEHXZ ENDP		; tinyxml2::XMLElement::ClosingType
_TEXT	ENDS
; Function compile flags: /Odtp /RTCsu
; File e:\fusion3d_work\engine\src\staticlibs\tinyxml2.h
;	COMDAT ?ToDocument@XMLDocument@tinyxml2@@UAEPAV12@XZ
_TEXT	SEGMENT
_this$ = -4						; size = 4
?ToDocument@XMLDocument@tinyxml2@@UAEPAV12@XZ PROC	; tinyxml2::XMLDocument::ToDocument, COMDAT
; _this$ = ecx

; 1528 :     virtual XMLDocument* ToDocument()				{

  00000	55		 push	 ebp
  00001	8b ec		 mov	 ebp, esp
  00003	51		 push	 ecx
  00004	c7 45 fc cc cc
	cc cc		 mov	 DWORD PTR [ebp-4], -858993460 ; ccccccccH
  0000b	89 4d fc	 mov	 DWORD PTR _this$[ebp], ecx

; 1529 :         TIXMLASSERT( this == _document );

  0000e	8b 45 fc	 mov	 eax, DWORD PTR _this$[ebp]
  00011	8b 4d fc	 mov	 ecx, DWORD PTR _this$[ebp]
  00014	3b 48 04	 cmp	 ecx, DWORD PTR [eax+4]
  00017	74 01		 je	 SHORT $LN2@ToDocument
  00019	cc		 int	 3
$LN2@ToDocument:

; 1530 :         return this;

  0001a	8b 45 fc	 mov	 eax, DWORD PTR _this$[ebp]

; 1531 :     }

  0001d	8b e5		 mov	 esp, ebp
  0001f	5d		 pop	 ebp
  00020	c3		 ret	 0
?ToDocument@XMLDocument@tinyxml2@@UAEPAV12@XZ ENDP	; tinyxml2::XMLDocument::ToDocument
_TEXT	ENDS
; Function compile flags: /Odtp /RTCsu
; File e:\fusion3d_work\engine\src\staticlibs\tinyxml2.h
;	COMDAT ?ToDocument@XMLDocument@tinyxml2@@UBEPBV12@XZ
_TEXT	SEGMENT
_this$ = -4						; size = 4
?ToDocument@XMLDocument@tinyxml2@@UBEPBV12@XZ PROC	; tinyxml2::XMLDocument::ToDocument, COMDAT
; _this$ = ecx

; 1532 :     virtual const XMLDocument* ToDocument() const	{

  00000	55		 push	 ebp
  00001	8b ec		 mov	 ebp, esp
  00003	51		 push	 ecx
  00004	c7 45 fc cc cc
	cc cc		 mov	 DWORD PTR [ebp-4], -858993460 ; ccccccccH
  0000b	89 4d fc	 mov	 DWORD PTR _this$[ebp], ecx

; 1533 :         TIXMLASSERT( this == _document );

  0000e	8b 45 fc	 mov	 eax, DWORD PTR _this$[ebp]
  00011	8b 4d fc	 mov	 ecx, DWORD PTR _this$[ebp]
  00014	3b 48 04	 cmp	 ecx, DWORD PTR [eax+4]
  00017	74 01		 je	 SHORT $LN2@ToDocument
  00019	cc		 int	 3
$LN2@ToDocument:

; 1534 :         return this;

  0001a	8b 45 fc	 mov	 eax, DWORD PTR _this$[ebp]

; 1535 :     }

  0001d	8b e5		 mov	 esp, ebp
  0001f	5d		 pop	 ebp
  00020	c3		 ret	 0
?ToDocument@XMLDocument@tinyxml2@@UBEPBV12@XZ ENDP	; tinyxml2::XMLDocument::ToDocument
_TEXT	ENDS
; Function compile flags: /Odtp /RTCsu
; File e:\fusion3d_work\engine\src\staticlibs\tinyxml2.h
;	COMDAT ?ProcessEntities@XMLDocument@tinyxml2@@QBE_NXZ
_TEXT	SEGMENT
_this$ = -4						; size = 4
?ProcessEntities@XMLDocument@tinyxml2@@QBE_NXZ PROC	; tinyxml2::XMLDocument::ProcessEntities, COMDAT
; _this$ = ecx

; 1585 :     bool ProcessEntities() const		{

  00000	55		 push	 ebp
  00001	8b ec		 mov	 ebp, esp
  00003	51		 push	 ecx
  00004	c7 45 fc cc cc
	cc cc		 mov	 DWORD PTR [ebp-4], -858993460 ; ccccccccH
  0000b	89 4d fc	 mov	 DWORD PTR _this$[ebp], ecx

; 1586 :         return _processEntities;

  0000e	8b 45 fc	 mov	 eax, DWORD PTR _this$[ebp]
  00011	8a 40 2d	 mov	 al, BYTE PTR [eax+45]

; 1587 :     }

  00014	8b e5		 mov	 esp, ebp
  00016	5d		 pop	 ebp
  00017	c3		 ret	 0
?ProcessEntities@XMLDocument@tinyxml2@@QBE_NXZ ENDP	; tinyxml2::XMLDocument::ProcessEntities
_TEXT	ENDS
; Function compile flags: /Odtp /RTCsu
; File e:\fusion3d_work\engine\src\staticlibs\tinyxml2.h
;	COMDAT ?WhitespaceMode@XMLDocument@tinyxml2@@QBE?AW4Whitespace@2@XZ
_TEXT	SEGMENT
_this$ = -4						; size = 4
?WhitespaceMode@XMLDocument@tinyxml2@@QBE?AW4Whitespace@2@XZ PROC ; tinyxml2::XMLDocument::WhitespaceMode, COMDAT
; _this$ = ecx

; 1588 :     Whitespace WhitespaceMode() const	{

  00000	55		 push	 ebp
  00001	8b ec		 mov	 ebp, esp
  00003	51		 push	 ecx
  00004	c7 45 fc cc cc
	cc cc		 mov	 DWORD PTR [ebp-4], -858993460 ; ccccccccH
  0000b	89 4d fc	 mov	 DWORD PTR _this$[ebp], ecx

; 1589 :         return _whitespace;

  0000e	8b 45 fc	 mov	 eax, DWORD PTR _this$[ebp]
  00011	8b 40 34	 mov	 eax, DWORD PTR [eax+52]

; 1590 :     }

  00014	8b e5		 mov	 esp, ebp
  00016	5d		 pop	 ebp
  00017	c3		 ret	 0
?WhitespaceMode@XMLDocument@tinyxml2@@QBE?AW4Whitespace@2@XZ ENDP ; tinyxml2::XMLDocument::WhitespaceMode
_TEXT	ENDS
; Function compile flags: /Odtp /RTCsu
; File e:\fusion3d_work\engine\src\staticlibs\tinyxml2.h
;	COMDAT ?HasBOM@XMLDocument@tinyxml2@@QBE_NXZ
_TEXT	SEGMENT
_this$ = -4						; size = 4
?HasBOM@XMLDocument@tinyxml2@@QBE_NXZ PROC		; tinyxml2::XMLDocument::HasBOM, COMDAT
; _this$ = ecx

; 1595 :     bool HasBOM() const {

  00000	55		 push	 ebp
  00001	8b ec		 mov	 ebp, esp
  00003	51		 push	 ecx
  00004	c7 45 fc cc cc
	cc cc		 mov	 DWORD PTR [ebp-4], -858993460 ; ccccccccH
  0000b	89 4d fc	 mov	 DWORD PTR _this$[ebp], ecx

; 1596 :         return _writeBOM;

  0000e	8b 45 fc	 mov	 eax, DWORD PTR _this$[ebp]
  00011	8a 40 2c	 mov	 al, BYTE PTR [eax+44]

; 1597 :     }

  00014	8b e5		 mov	 esp, ebp
  00016	5d		 pop	 ebp
  00017	c3		 ret	 0
?HasBOM@XMLDocument@tinyxml2@@QBE_NXZ ENDP		; tinyxml2::XMLDocument::HasBOM
_TEXT	ENDS
; Function compile flags: /Odtp /RTCsu
; File e:\fusion3d_work\engine\src\staticlibs\tinyxml2.h
;	COMDAT ?Error@XMLDocument@tinyxml2@@QBE_NXZ
_TEXT	SEGMENT
tv66 = -8						; size = 4
_this$ = -4						; size = 4
?Error@XMLDocument@tinyxml2@@QBE_NXZ PROC		; tinyxml2::XMLDocument::Error, COMDAT
; _this$ = ecx

; 1677 :     bool Error() const {

  00000	55		 push	 ebp
  00001	8b ec		 mov	 ebp, esp
  00003	83 ec 08	 sub	 esp, 8
  00006	c7 45 f8 cc cc
	cc cc		 mov	 DWORD PTR [ebp-8], -858993460 ; ccccccccH
  0000d	c7 45 fc cc cc
	cc cc		 mov	 DWORD PTR [ebp-4], -858993460 ; ccccccccH
  00014	89 4d fc	 mov	 DWORD PTR _this$[ebp], ecx

; 1678 :         return _errorID != XML_NO_ERROR;

  00017	8b 45 fc	 mov	 eax, DWORD PTR _this$[ebp]
  0001a	83 78 30 00	 cmp	 DWORD PTR [eax+48], 0
  0001e	74 09		 je	 SHORT $LN3@Error
  00020	c7 45 f8 01 00
	00 00		 mov	 DWORD PTR tv66[ebp], 1
  00027	eb 07		 jmp	 SHORT $LN4@Error
$LN3@Error:
  00029	c7 45 f8 00 00
	00 00		 mov	 DWORD PTR tv66[ebp], 0
$LN4@Error:
  00030	8a 45 f8	 mov	 al, BYTE PTR tv66[ebp]

; 1679 :     }

  00033	8b e5		 mov	 esp, ebp
  00035	5d		 pop	 ebp
  00036	c3		 ret	 0
?Error@XMLDocument@tinyxml2@@QBE_NXZ ENDP		; tinyxml2::XMLDocument::Error
_TEXT	ENDS
; Function compile flags: /Odtp /RTCsu
; File e:\fusion3d_work\engine\src\staticlibs\tinyxml2.h
;	COMDAT ?ShallowClone@XMLDocument@tinyxml2@@UBEPAVXMLNode@2@PAV12@@Z
_TEXT	SEGMENT
_this$ = -4						; size = 4
___formal$ = 8						; size = 4
?ShallowClone@XMLDocument@tinyxml2@@UBEPAVXMLNode@2@PAV12@@Z PROC ; tinyxml2::XMLDocument::ShallowClone, COMDAT
; _this$ = ecx

; 1703 :     virtual XMLNode* ShallowClone( XMLDocument* /*document*/ ) const	{

  00000	55		 push	 ebp
  00001	8b ec		 mov	 ebp, esp
  00003	51		 push	 ecx
  00004	c7 45 fc cc cc
	cc cc		 mov	 DWORD PTR [ebp-4], -858993460 ; ccccccccH
  0000b	89 4d fc	 mov	 DWORD PTR _this$[ebp], ecx

; 1704 :         return 0;

  0000e	33 c0		 xor	 eax, eax

; 1705 :     }

  00010	8b e5		 mov	 esp, ebp
  00012	5d		 pop	 ebp
  00013	c2 04 00	 ret	 4
?ShallowClone@XMLDocument@tinyxml2@@UBEPAVXMLNode@2@PAV12@@Z ENDP ; tinyxml2::XMLDocument::ShallowClone
_TEXT	ENDS
; Function compile flags: /Odtp /RTCsu
; File e:\fusion3d_work\engine\src\staticlibs\tinyxml2.h
;	COMDAT ?ShallowEqual@XMLDocument@tinyxml2@@UBE_NPBVXMLNode@2@@Z
_TEXT	SEGMENT
_this$ = -4						; size = 4
___formal$ = 8						; size = 4
?ShallowEqual@XMLDocument@tinyxml2@@UBE_NPBVXMLNode@2@@Z PROC ; tinyxml2::XMLDocument::ShallowEqual, COMDAT
; _this$ = ecx

; 1706 :     virtual bool ShallowEqual( const XMLNode* /*compare*/ ) const	{

  00000	55		 push	 ebp
  00001	8b ec		 mov	 ebp, esp
  00003	51		 push	 ecx
  00004	c7 45 fc cc cc
	cc cc		 mov	 DWORD PTR [ebp-4], -858993460 ; ccccccccH
  0000b	89 4d fc	 mov	 DWORD PTR _this$[ebp], ecx

; 1707 :         return false;

  0000e	32 c0		 xor	 al, al

; 1708 :     }

  00010	8b e5		 mov	 esp, ebp
  00012	5d		 pop	 ebp
  00013	c2 04 00	 ret	 4
?ShallowEqual@XMLDocument@tinyxml2@@UBE_NPBVXMLNode@2@@Z ENDP ; tinyxml2::XMLDocument::ShallowEqual
_TEXT	ENDS
; Function compile flags: /Odtp /RTCsu
; File e:\fusion3d_work\engine\src\staticlibs\tinyxml2.h
;	COMDAT ??1XMLPrinter@tinyxml2@@UAE@XZ
_TEXT	SEGMENT
_this$ = -4						; size = 4
??1XMLPrinter@tinyxml2@@UAE@XZ PROC			; tinyxml2::XMLPrinter::~XMLPrinter, COMDAT
; _this$ = ecx

; 1989 :     virtual ~XMLPrinter()	{}

  00000	55		 push	 ebp
  00001	8b ec		 mov	 ebp, esp
  00003	51		 push	 ecx
  00004	c7 45 fc cc cc
	cc cc		 mov	 DWORD PTR [ebp-4], -858993460 ; ccccccccH
  0000b	89 4d fc	 mov	 DWORD PTR _this$[ebp], ecx
  0000e	8b 45 fc	 mov	 eax, DWORD PTR _this$[ebp]
  00011	c7 00 00 00 00
	00		 mov	 DWORD PTR [eax], OFFSET ??_7XMLPrinter@tinyxml2@@6B@
  00017	8b 4d fc	 mov	 ecx, DWORD PTR _this$[ebp]
  0001a	81 c1 d0 00 00
	00		 add	 ecx, 208		; 000000d0H
  00020	e8 00 00 00 00	 call	 ??1?$DynArray@D$0BE@@tinyxml2@@QAE@XZ ; tinyxml2::DynArray<char,20>::~DynArray<char,20>
  00025	8b 4d fc	 mov	 ecx, DWORD PTR _this$[ebp]
  00028	83 c1 08	 add	 ecx, 8
  0002b	e8 00 00 00 00	 call	 ??1?$DynArray@PBD$09@tinyxml2@@QAE@XZ ; tinyxml2::DynArray<char const *,10>::~DynArray<char const *,10>
  00030	8b 4d fc	 mov	 ecx, DWORD PTR _this$[ebp]
  00033	e8 00 00 00 00	 call	 ??1XMLVisitor@tinyxml2@@UAE@XZ ; tinyxml2::XMLVisitor::~XMLVisitor
  00038	83 c4 04	 add	 esp, 4
  0003b	3b ec		 cmp	 ebp, esp
  0003d	e8 00 00 00 00	 call	 __RTC_CheckEsp
  00042	8b e5		 mov	 esp, ebp
  00044	5d		 pop	 ebp
  00045	c3		 ret	 0
??1XMLPrinter@tinyxml2@@UAE@XZ ENDP			; tinyxml2::XMLPrinter::~XMLPrinter
_TEXT	ENDS
; Function compile flags: /Odtp /RTCsu
; File e:\fusion3d_work\engine\src\staticlibs\tinyxml2.h
;	COMDAT ?VisitExit@XMLPrinter@tinyxml2@@UAE_NABVXMLDocument@2@@Z
_TEXT	SEGMENT
_this$ = -4						; size = 4
___formal$ = 8						; size = 4
?VisitExit@XMLPrinter@tinyxml2@@UAE_NABVXMLDocument@2@@Z PROC ; tinyxml2::XMLPrinter::VisitExit, COMDAT
; _this$ = ecx

; 2026 :     virtual bool VisitExit( const XMLDocument& /*doc*/ )			{

  00000	55		 push	 ebp
  00001	8b ec		 mov	 ebp, esp
  00003	51		 push	 ecx
  00004	c7 45 fc cc cc
	cc cc		 mov	 DWORD PTR [ebp-4], -858993460 ; ccccccccH
  0000b	89 4d fc	 mov	 DWORD PTR _this$[ebp], ecx

; 2027 :         return true;

  0000e	b0 01		 mov	 al, 1

; 2028 :     }

  00010	8b e5		 mov	 esp, ebp
  00012	5d		 pop	 ebp
  00013	c2 04 00	 ret	 4
?VisitExit@XMLPrinter@tinyxml2@@UAE_NABVXMLDocument@2@@Z ENDP ; tinyxml2::XMLPrinter::VisitExit
_TEXT	ENDS
; Function compile flags: /Odtp /RTCsu
; File e:\fusion3d_work\engine\src\staticlibs\tinyxml2.h
;	COMDAT ?CompactMode@XMLPrinter@tinyxml2@@MAE_NABVXMLElement@2@@Z
_TEXT	SEGMENT
_this$ = -4						; size = 4
___formal$ = 8						; size = 4
?CompactMode@XMLPrinter@tinyxml2@@MAE_NABVXMLElement@2@@Z PROC ; tinyxml2::XMLPrinter::CompactMode, COMDAT
; _this$ = ecx

; 2063 : 	virtual bool CompactMode( const XMLElement& )	{ return _compactMode; }

  00000	55		 push	 ebp
  00001	8b ec		 mov	 ebp, esp
  00003	51		 push	 ecx
  00004	c7 45 fc cc cc
	cc cc		 mov	 DWORD PTR [ebp-4], -858993460 ; ccccccccH
  0000b	89 4d fc	 mov	 DWORD PTR _this$[ebp], ecx
  0000e	8b 45 fc	 mov	 eax, DWORD PTR _this$[ebp]
  00011	8a 40 4d	 mov	 al, BYTE PTR [eax+77]
  00014	8b e5		 mov	 esp, ebp
  00016	5d		 pop	 ebp
  00017	c2 04 00	 ret	 4
?CompactMode@XMLPrinter@tinyxml2@@MAE_NABVXMLElement@2@@Z ENDP ; tinyxml2::XMLPrinter::CompactMode
_TEXT	ENDS
; Function compile flags: /Odtp /RTCsu
;	COMDAT ??_GXMLPrinter@tinyxml2@@UAEPAXI@Z
_TEXT	SEGMENT
_this$ = -4						; size = 4
___flags$ = 8						; size = 4
??_GXMLPrinter@tinyxml2@@UAEPAXI@Z PROC			; tinyxml2::XMLPrinter::`scalar deleting destructor', COMDAT
; _this$ = ecx
  00000	55		 push	 ebp
  00001	8b ec		 mov	 ebp, esp
  00003	51		 push	 ecx
  00004	c7 45 fc cc cc
	cc cc		 mov	 DWORD PTR [ebp-4], -858993460 ; ccccccccH
  0000b	89 4d fc	 mov	 DWORD PTR _this$[ebp], ecx
  0000e	8b 4d fc	 mov	 ecx, DWORD PTR _this$[ebp]
  00011	e8 00 00 00 00	 call	 ??1XMLPrinter@tinyxml2@@UAE@XZ ; tinyxml2::XMLPrinter::~XMLPrinter
  00016	8b 45 08	 mov	 eax, DWORD PTR ___flags$[ebp]
  00019	83 e0 01	 and	 eax, 1
  0001c	74 11		 je	 SHORT $LN2@scalar
  0001e	68 f0 00 00 00	 push	 240			; 000000f0H
  00023	8b 4d fc	 mov	 ecx, DWORD PTR _this$[ebp]
  00026	51		 push	 ecx
  00027	e8 00 00 00 00	 call	 ??3@YAXPAXI@Z		; operator delete
  0002c	83 c4 08	 add	 esp, 8
$LN2@scalar:
  0002f	8b 45 fc	 mov	 eax, DWORD PTR _this$[ebp]
  00032	83 c4 04	 add	 esp, 4
  00035	3b ec		 cmp	 ebp, esp
  00037	e8 00 00 00 00	 call	 __RTC_CheckEsp
  0003c	8b e5		 mov	 esp, ebp
  0003e	5d		 pop	 ebp
  0003f	c2 04 00	 ret	 4
??_GXMLPrinter@tinyxml2@@UAEPAXI@Z ENDP			; tinyxml2::XMLPrinter::`scalar deleting destructor'
_TEXT	ENDS
; Function compile flags: /Odtp /RTCsu
; File e:\fusion3d_work\engine\src\staticlibs\tinyxml2.cpp
_TEXT	SEGMENT
_result$ = -8						; size = 4
_va$ = -4						; size = 4
_buffer$ = 8						; size = 4
_size$ = 12						; size = 4
_format$ = 16						; size = 4
?TIXML_SNPRINTF@@YAHPADIPBDZZ PROC			; TIXML_SNPRINTF

; 45   : 	{

  00000	55		 push	 ebp
  00001	8b ec		 mov	 ebp, esp
  00003	83 ec 08	 sub	 esp, 8
  00006	c7 45 f8 cc cc
	cc cc		 mov	 DWORD PTR [ebp-8], -858993460 ; ccccccccH
  0000d	c7 45 fc cc cc
	cc cc		 mov	 DWORD PTR [ebp-4], -858993460 ; ccccccccH

; 46   : 		va_list va;
; 47   : 		va_start( va, format );

  00014	e8 00 00 00 00	 call	 ??$__vcrt_va_start_verify_argument_type@PBD@@YAXXZ ; __vcrt_va_start_verify_argument_type<char const *>
  00019	8d 45 14	 lea	 eax, DWORD PTR _format$[ebp+4]
  0001c	89 45 fc	 mov	 DWORD PTR _va$[ebp], eax

; 48   : 		int result = vsnprintf_s( buffer, size, _TRUNCATE, format, va );

  0001f	8b 4d fc	 mov	 ecx, DWORD PTR _va$[ebp]
  00022	51		 push	 ecx
  00023	8b 55 10	 mov	 edx, DWORD PTR _format$[ebp]
  00026	52		 push	 edx
  00027	6a ff		 push	 -1
  00029	8b 45 0c	 mov	 eax, DWORD PTR _size$[ebp]
  0002c	50		 push	 eax
  0002d	8b 4d 08	 mov	 ecx, DWORD PTR _buffer$[ebp]
  00030	51		 push	 ecx
  00031	e8 00 00 00 00	 call	 _vsnprintf_s
  00036	83 c4 14	 add	 esp, 20			; 00000014H
  00039	89 45 f8	 mov	 DWORD PTR _result$[ebp], eax

; 49   : 		va_end( va );

  0003c	c7 45 fc 00 00
	00 00		 mov	 DWORD PTR _va$[ebp], 0

; 50   : 		return result;

  00043	8b 45 f8	 mov	 eax, DWORD PTR _result$[ebp]

; 51   : 	}

  00046	83 c4 08	 add	 esp, 8
  00049	3b ec		 cmp	 ebp, esp
  0004b	e8 00 00 00 00	 call	 __RTC_CheckEsp
  00050	8b e5		 mov	 esp, ebp
  00052	5d		 pop	 ebp
  00053	c3		 ret	 0
?TIXML_SNPRINTF@@YAHPADIPBDZZ ENDP			; TIXML_SNPRINTF
_TEXT	ENDS
; Function compile flags: /Odtp /RTCsu
; File e:\fusion3d_work\engine\src\staticlibs\tinyxml2.cpp
_TEXT	SEGMENT
_result$ = -4						; size = 4
_buffer$ = 8						; size = 4
_size$ = 12						; size = 4
_format$ = 16						; size = 4
_va$ = 20						; size = 4
?TIXML_VSNPRINTF@@YAHPADIPBD0@Z PROC			; TIXML_VSNPRINTF

; 54   : 	{

  00000	55		 push	 ebp
  00001	8b ec		 mov	 ebp, esp
  00003	51		 push	 ecx
  00004	c7 45 fc cc cc
	cc cc		 mov	 DWORD PTR [ebp-4], -858993460 ; ccccccccH

; 55   : 		int result = vsnprintf_s( buffer, size, _TRUNCATE, format, va );

  0000b	8b 45 14	 mov	 eax, DWORD PTR _va$[ebp]
  0000e	50		 push	 eax
  0000f	8b 4d 10	 mov	 ecx, DWORD PTR _format$[ebp]
  00012	51		 push	 ecx
  00013	6a ff		 push	 -1
  00015	8b 55 0c	 mov	 edx, DWORD PTR _size$[ebp]
  00018	52		 push	 edx
  00019	8b 45 08	 mov	 eax, DWORD PTR _buffer$[ebp]
  0001c	50		 push	 eax
  0001d	e8 00 00 00 00	 call	 _vsnprintf_s
  00022	83 c4 14	 add	 esp, 20			; 00000014H
  00025	89 45 fc	 mov	 DWORD PTR _result$[ebp], eax

; 56   : 		return result;

  00028	8b 45 fc	 mov	 eax, DWORD PTR _result$[ebp]

; 57   : 	}

  0002b	83 c4 04	 add	 esp, 4
  0002e	3b ec		 cmp	 ebp, esp
  00030	e8 00 00 00 00	 call	 __RTC_CheckEsp
  00035	8b e5		 mov	 esp, ebp
  00037	5d		 pop	 ebp
  00038	c3		 ret	 0
?TIXML_VSNPRINTF@@YAHPADIPBD0@Z ENDP			; TIXML_VSNPRINTF
_TEXT	ENDS
; Function compile flags: /Odtp /RTCsu
; File e:\fusion3d_work\engine\src\staticlibs\tinyxml2.cpp
_TEXT	SEGMENT
_this$ = -16						; size = 4
__$EHRec$ = -12						; size = 12
??1StrPair@tinyxml2@@QAE@XZ PROC			; tinyxml2::StrPair::~StrPair
; _this$ = ecx

; 139  : {

  00000	55		 push	 ebp
  00001	8b ec		 mov	 ebp, esp
  00003	6a ff		 push	 -1
  00005	68 00 00 00 00	 push	 __ehhandler$??1StrPair@tinyxml2@@QAE@XZ
  0000a	64 a1 00 00 00
	00		 mov	 eax, DWORD PTR fs:0
  00010	50		 push	 eax
  00011	51		 push	 ecx
  00012	c7 45 f0 cc cc
	cc cc		 mov	 DWORD PTR [ebp-16], -858993460 ; ccccccccH
  00019	a1 00 00 00 00	 mov	 eax, DWORD PTR ___security_cookie
  0001e	33 c5		 xor	 eax, ebp
  00020	50		 push	 eax
  00021	8d 45 f4	 lea	 eax, DWORD PTR __$EHRec$[ebp]
  00024	64 a3 00 00 00
	00		 mov	 DWORD PTR fs:0, eax
  0002a	89 4d f0	 mov	 DWORD PTR _this$[ebp], ecx

; 140  :     Reset();

  0002d	8b 4d f0	 mov	 ecx, DWORD PTR _this$[ebp]
  00030	e8 00 00 00 00	 call	 ?Reset@StrPair@tinyxml2@@AAEXXZ ; tinyxml2::StrPair::Reset

; 141  : }

  00035	8b 4d f4	 mov	 ecx, DWORD PTR __$EHRec$[ebp]
  00038	64 89 0d 00 00
	00 00		 mov	 DWORD PTR fs:0, ecx
  0003f	59		 pop	 ecx
  00040	83 c4 10	 add	 esp, 16			; 00000010H
  00043	3b ec		 cmp	 ebp, esp
  00045	e8 00 00 00 00	 call	 __RTC_CheckEsp
  0004a	8b e5		 mov	 esp, ebp
  0004c	5d		 pop	 ebp
  0004d	c3		 ret	 0
_TEXT	ENDS
text$x	SEGMENT
__ehhandler$??1StrPair@tinyxml2@@QAE@XZ:
  00000	8b 54 24 08	 mov	 edx, DWORD PTR [esp+8]
  00004	8d 42 0c	 lea	 eax, DWORD PTR [edx+12]
  00007	8b 4a f8	 mov	 ecx, DWORD PTR [edx-8]
  0000a	33 c8		 xor	 ecx, eax
  0000c	e8 00 00 00 00	 call	 @__security_check_cookie@4
  00011	b8 00 00 00 00	 mov	 eax, OFFSET __ehfuncinfo$??1StrPair@tinyxml2@@QAE@XZ
  00016	e9 00 00 00 00	 jmp	 ___CxxFrameHandler3
text$x	ENDS
??1StrPair@tinyxml2@@QAE@XZ ENDP			; tinyxml2::StrPair::~StrPair
; Function compile flags: /Odtp /RTCsu
; File e:\fusion3d_work\engine\src\staticlibs\tinyxml2.cpp
_TEXT	SEGMENT
_this$ = -4						; size = 4
_other$ = 8						; size = 4
?TransferTo@StrPair@tinyxml2@@QAEXPAV12@@Z PROC		; tinyxml2::StrPair::TransferTo
; _this$ = ecx

; 145  : {

  00000	55		 push	 ebp
  00001	8b ec		 mov	 ebp, esp
  00003	51		 push	 ecx
  00004	c7 45 fc cc cc
	cc cc		 mov	 DWORD PTR [ebp-4], -858993460 ; ccccccccH
  0000b	89 4d fc	 mov	 DWORD PTR _this$[ebp], ecx

; 146  :     if ( this == other ) {

  0000e	8b 45 fc	 mov	 eax, DWORD PTR _this$[ebp]
  00011	3b 45 08	 cmp	 eax, DWORD PTR _other$[ebp]
  00014	75 02		 jne	 SHORT $LN2@TransferTo

; 147  :         return;

  00016	eb 64		 jmp	 SHORT $LN1@TransferTo
$LN2@TransferTo:

; 148  :     }
; 149  :     // This in effect implements the assignment operator by "moving"
; 150  :     // ownership (as in auto_ptr).
; 151  : 
; 152  :     TIXMLASSERT( other->_flags == 0 );

  00018	8b 4d 08	 mov	 ecx, DWORD PTR _other$[ebp]
  0001b	83 39 00	 cmp	 DWORD PTR [ecx], 0
  0001e	74 01		 je	 SHORT $LN3@TransferTo
  00020	cc		 int	 3
$LN3@TransferTo:

; 153  :     TIXMLASSERT( other->_start == 0 );

  00021	8b 55 08	 mov	 edx, DWORD PTR _other$[ebp]
  00024	83 7a 04 00	 cmp	 DWORD PTR [edx+4], 0
  00028	74 01		 je	 SHORT $LN4@TransferTo
  0002a	cc		 int	 3
$LN4@TransferTo:

; 154  :     TIXMLASSERT( other->_end == 0 );

  0002b	8b 45 08	 mov	 eax, DWORD PTR _other$[ebp]
  0002e	83 78 08 00	 cmp	 DWORD PTR [eax+8], 0
  00032	74 01		 je	 SHORT $LN5@TransferTo
  00034	cc		 int	 3
$LN5@TransferTo:

; 155  : 
; 156  :     other->Reset();

  00035	8b 4d 08	 mov	 ecx, DWORD PTR _other$[ebp]
  00038	e8 00 00 00 00	 call	 ?Reset@StrPair@tinyxml2@@AAEXXZ ; tinyxml2::StrPair::Reset

; 157  : 
; 158  :     other->_flags = _flags;

  0003d	8b 4d 08	 mov	 ecx, DWORD PTR _other$[ebp]
  00040	8b 55 fc	 mov	 edx, DWORD PTR _this$[ebp]
  00043	8b 02		 mov	 eax, DWORD PTR [edx]
  00045	89 01		 mov	 DWORD PTR [ecx], eax

; 159  :     other->_start = _start;

  00047	8b 4d 08	 mov	 ecx, DWORD PTR _other$[ebp]
  0004a	8b 55 fc	 mov	 edx, DWORD PTR _this$[ebp]
  0004d	8b 42 04	 mov	 eax, DWORD PTR [edx+4]
  00050	89 41 04	 mov	 DWORD PTR [ecx+4], eax

; 160  :     other->_end = _end;

  00053	8b 4d 08	 mov	 ecx, DWORD PTR _other$[ebp]
  00056	8b 55 fc	 mov	 edx, DWORD PTR _this$[ebp]
  00059	8b 42 08	 mov	 eax, DWORD PTR [edx+8]
  0005c	89 41 08	 mov	 DWORD PTR [ecx+8], eax

; 161  : 
; 162  :     _flags = 0;

  0005f	8b 4d fc	 mov	 ecx, DWORD PTR _this$[ebp]
  00062	c7 01 00 00 00
	00		 mov	 DWORD PTR [ecx], 0

; 163  :     _start = 0;

  00068	8b 55 fc	 mov	 edx, DWORD PTR _this$[ebp]
  0006b	c7 42 04 00 00
	00 00		 mov	 DWORD PTR [edx+4], 0

; 164  :     _end = 0;

  00072	8b 45 fc	 mov	 eax, DWORD PTR _this$[ebp]
  00075	c7 40 08 00 00
	00 00		 mov	 DWORD PTR [eax+8], 0
$LN1@TransferTo:

; 165  : }

  0007c	83 c4 04	 add	 esp, 4
  0007f	3b ec		 cmp	 ebp, esp
  00081	e8 00 00 00 00	 call	 __RTC_CheckEsp
  00086	8b e5		 mov	 esp, ebp
  00088	5d		 pop	 ebp
  00089	c2 04 00	 ret	 4
?TransferTo@StrPair@tinyxml2@@QAEXPAV12@@Z ENDP		; tinyxml2::StrPair::TransferTo
_TEXT	ENDS
; Function compile flags: /Odtp /RTCsu
; File e:\fusion3d_work\engine\src\staticlibs\tinyxml2.cpp
_TEXT	SEGMENT
$T1 = -8						; size = 4
_this$ = -4						; size = 4
?Reset@StrPair@tinyxml2@@AAEXXZ PROC			; tinyxml2::StrPair::Reset
; _this$ = ecx

; 168  : {

  00000	55		 push	 ebp
  00001	8b ec		 mov	 ebp, esp
  00003	83 ec 08	 sub	 esp, 8
  00006	c7 45 f8 cc cc
	cc cc		 mov	 DWORD PTR [ebp-8], -858993460 ; ccccccccH
  0000d	c7 45 fc cc cc
	cc cc		 mov	 DWORD PTR [ebp-4], -858993460 ; ccccccccH
  00014	89 4d fc	 mov	 DWORD PTR _this$[ebp], ecx

; 169  :     if ( _flags & NEEDS_DELETE ) {

  00017	8b 45 fc	 mov	 eax, DWORD PTR _this$[ebp]
  0001a	8b 08		 mov	 ecx, DWORD PTR [eax]
  0001c	81 e1 00 02 00
	00		 and	 ecx, 512		; 00000200H
  00022	74 15		 je	 SHORT $LN2@Reset

; 170  :         delete [] _start;

  00024	8b 55 fc	 mov	 edx, DWORD PTR _this$[ebp]
  00027	8b 42 04	 mov	 eax, DWORD PTR [edx+4]
  0002a	89 45 f8	 mov	 DWORD PTR $T1[ebp], eax
  0002d	8b 4d f8	 mov	 ecx, DWORD PTR $T1[ebp]
  00030	51		 push	 ecx
  00031	e8 00 00 00 00	 call	 ??_V@YAXPAX@Z		; operator delete[]
  00036	83 c4 04	 add	 esp, 4
$LN2@Reset:

; 171  :     }
; 172  :     _flags = 0;

  00039	8b 55 fc	 mov	 edx, DWORD PTR _this$[ebp]
  0003c	c7 02 00 00 00
	00		 mov	 DWORD PTR [edx], 0

; 173  :     _start = 0;

  00042	8b 45 fc	 mov	 eax, DWORD PTR _this$[ebp]
  00045	c7 40 04 00 00
	00 00		 mov	 DWORD PTR [eax+4], 0

; 174  :     _end = 0;

  0004c	8b 4d fc	 mov	 ecx, DWORD PTR _this$[ebp]
  0004f	c7 41 08 00 00
	00 00		 mov	 DWORD PTR [ecx+8], 0

; 175  : }

  00056	83 c4 08	 add	 esp, 8
  00059	3b ec		 cmp	 ebp, esp
  0005b	e8 00 00 00 00	 call	 __RTC_CheckEsp
  00060	8b e5		 mov	 esp, ebp
  00062	5d		 pop	 ebp
  00063	c3		 ret	 0
?Reset@StrPair@tinyxml2@@AAEXXZ ENDP			; tinyxml2::StrPair::Reset
_TEXT	ENDS
; Function compile flags: /Odtp /RTCsu
; File e:\fusion3d_work\engine\src\staticlibs\tinyxml2.cpp
_TEXT	SEGMENT
$T1 = -12						; size = 4
_len$ = -8						; size = 4
_this$ = -4						; size = 4
_str$ = 8						; size = 4
_flags$ = 12						; size = 4
?SetStr@StrPair@tinyxml2@@QAEXPBDH@Z PROC		; tinyxml2::StrPair::SetStr
; _this$ = ecx

; 179  : {

  00000	55		 push	 ebp
  00001	8b ec		 mov	 ebp, esp
  00003	83 ec 0c	 sub	 esp, 12			; 0000000cH
  00006	56		 push	 esi
  00007	c7 45 f4 cc cc
	cc cc		 mov	 DWORD PTR [ebp-12], -858993460 ; ccccccccH
  0000e	c7 45 f8 cc cc
	cc cc		 mov	 DWORD PTR [ebp-8], -858993460 ; ccccccccH
  00015	c7 45 fc cc cc
	cc cc		 mov	 DWORD PTR [ebp-4], -858993460 ; ccccccccH
  0001c	89 4d fc	 mov	 DWORD PTR _this$[ebp], ecx

; 180  :     Reset();

  0001f	8b 4d fc	 mov	 ecx, DWORD PTR _this$[ebp]
  00022	e8 00 00 00 00	 call	 ?Reset@StrPair@tinyxml2@@AAEXXZ ; tinyxml2::StrPair::Reset

; 181  :     size_t len = strlen( str );

  00027	8b f4		 mov	 esi, esp
  00029	8b 45 08	 mov	 eax, DWORD PTR _str$[ebp]
  0002c	50		 push	 eax
  0002d	ff 15 00 00 00
	00		 call	 DWORD PTR __imp__strlen
  00033	83 c4 04	 add	 esp, 4
  00036	3b f4		 cmp	 esi, esp
  00038	e8 00 00 00 00	 call	 __RTC_CheckEsp
  0003d	89 45 f8	 mov	 DWORD PTR _len$[ebp], eax

; 182  :     TIXMLASSERT( _start == 0 );

  00040	8b 4d fc	 mov	 ecx, DWORD PTR _this$[ebp]
  00043	83 79 04 00	 cmp	 DWORD PTR [ecx+4], 0
  00047	74 01		 je	 SHORT $LN2@SetStr
  00049	cc		 int	 3
$LN2@SetStr:

; 183  :     _start = new char[ len+1 ];

  0004a	8b 55 f8	 mov	 edx, DWORD PTR _len$[ebp]
  0004d	83 c2 01	 add	 edx, 1
  00050	52		 push	 edx
  00051	e8 00 00 00 00	 call	 ??_U@YAPAXI@Z		; operator new[]
  00056	83 c4 04	 add	 esp, 4
  00059	89 45 f4	 mov	 DWORD PTR $T1[ebp], eax
  0005c	8b 45 fc	 mov	 eax, DWORD PTR _this$[ebp]
  0005f	8b 4d f4	 mov	 ecx, DWORD PTR $T1[ebp]
  00062	89 48 04	 mov	 DWORD PTR [eax+4], ecx

; 184  :     memcpy( _start, str, len+1 );

  00065	8b 55 f8	 mov	 edx, DWORD PTR _len$[ebp]
  00068	83 c2 01	 add	 edx, 1
  0006b	8b f4		 mov	 esi, esp
  0006d	52		 push	 edx
  0006e	8b 45 08	 mov	 eax, DWORD PTR _str$[ebp]
  00071	50		 push	 eax
  00072	8b 4d fc	 mov	 ecx, DWORD PTR _this$[ebp]
  00075	8b 51 04	 mov	 edx, DWORD PTR [ecx+4]
  00078	52		 push	 edx
  00079	ff 15 00 00 00
	00		 call	 DWORD PTR __imp__memcpy
  0007f	83 c4 0c	 add	 esp, 12			; 0000000cH
  00082	3b f4		 cmp	 esi, esp
  00084	e8 00 00 00 00	 call	 __RTC_CheckEsp

; 185  :     _end = _start + len;

  00089	8b 45 fc	 mov	 eax, DWORD PTR _this$[ebp]
  0008c	8b 48 04	 mov	 ecx, DWORD PTR [eax+4]
  0008f	03 4d f8	 add	 ecx, DWORD PTR _len$[ebp]
  00092	8b 55 fc	 mov	 edx, DWORD PTR _this$[ebp]
  00095	89 4a 08	 mov	 DWORD PTR [edx+8], ecx

; 186  :     _flags = flags | NEEDS_DELETE;

  00098	8b 45 0c	 mov	 eax, DWORD PTR _flags$[ebp]
  0009b	0d 00 02 00 00	 or	 eax, 512		; 00000200H
  000a0	8b 4d fc	 mov	 ecx, DWORD PTR _this$[ebp]
  000a3	89 01		 mov	 DWORD PTR [ecx], eax

; 187  : }

  000a5	5e		 pop	 esi
  000a6	83 c4 0c	 add	 esp, 12			; 0000000cH
  000a9	3b ec		 cmp	 ebp, esp
  000ab	e8 00 00 00 00	 call	 __RTC_CheckEsp
  000b0	8b e5		 mov	 esp, ebp
  000b2	5d		 pop	 ebp
  000b3	c2 08 00	 ret	 8
?SetStr@StrPair@tinyxml2@@QAEXPBDH@Z ENDP		; tinyxml2::StrPair::SetStr
_TEXT	ENDS
; Function compile flags: /Odtp /RTCsu
; File e:\fusion3d_work\engine\src\staticlibs\tinyxml2.cpp
_TEXT	SEGMENT
tv67 = -20						; size = 4
_length$ = -16						; size = 4
_endChar$ = -9						; size = 1
_start$ = -8						; size = 4
_this$ = -4						; size = 4
_p$ = 8							; size = 4
_endTag$ = 12						; size = 4
_strFlags$ = 16						; size = 4
?ParseText@StrPair@tinyxml2@@QAEPADPADPBDH@Z PROC	; tinyxml2::StrPair::ParseText
; _this$ = ecx

; 191  : {

  00000	55		 push	 ebp
  00001	8b ec		 mov	 ebp, esp
  00003	83 ec 14	 sub	 esp, 20			; 00000014H
  00006	56		 push	 esi
  00007	b8 cc cc cc cc	 mov	 eax, -858993460		; ccccccccH
  0000c	89 45 ec	 mov	 DWORD PTR [ebp-20], eax
  0000f	89 45 f0	 mov	 DWORD PTR [ebp-16], eax
  00012	89 45 f4	 mov	 DWORD PTR [ebp-12], eax
  00015	89 45 f8	 mov	 DWORD PTR [ebp-8], eax
  00018	89 45 fc	 mov	 DWORD PTR [ebp-4], eax
  0001b	89 4d fc	 mov	 DWORD PTR _this$[ebp], ecx

; 192  :     TIXMLASSERT( endTag && *endTag );

  0001e	83 7d 0c 00	 cmp	 DWORD PTR _endTag$[ebp], 0
  00022	74 13		 je	 SHORT $LN7@ParseText
  00024	8b 45 0c	 mov	 eax, DWORD PTR _endTag$[ebp]
  00027	0f be 08	 movsx	 ecx, BYTE PTR [eax]
  0002a	85 c9		 test	 ecx, ecx
  0002c	74 09		 je	 SHORT $LN7@ParseText
  0002e	c7 45 ec 01 00
	00 00		 mov	 DWORD PTR tv67[ebp], 1
  00035	eb 07		 jmp	 SHORT $LN8@ParseText
$LN7@ParseText:
  00037	c7 45 ec 00 00
	00 00		 mov	 DWORD PTR tv67[ebp], 0
$LN8@ParseText:
  0003e	83 7d ec 00	 cmp	 DWORD PTR tv67[ebp], 0
  00042	75 01		 jne	 SHORT $LN4@ParseText
  00044	cc		 int	 3
$LN4@ParseText:

; 193  : 
; 194  :     char* start = p;

  00045	8b 55 08	 mov	 edx, DWORD PTR _p$[ebp]
  00048	89 55 f8	 mov	 DWORD PTR _start$[ebp], edx

; 195  :     char  endChar = *endTag;

  0004b	8b 45 0c	 mov	 eax, DWORD PTR _endTag$[ebp]
  0004e	8a 08		 mov	 cl, BYTE PTR [eax]
  00050	88 4d f7	 mov	 BYTE PTR _endChar$[ebp], cl

; 196  :     size_t length = strlen( endTag );

  00053	8b f4		 mov	 esi, esp
  00055	8b 55 0c	 mov	 edx, DWORD PTR _endTag$[ebp]
  00058	52		 push	 edx
  00059	ff 15 00 00 00
	00		 call	 DWORD PTR __imp__strlen
  0005f	83 c4 04	 add	 esp, 4
  00062	3b f4		 cmp	 esi, esp
  00064	e8 00 00 00 00	 call	 __RTC_CheckEsp
  00069	89 45 f0	 mov	 DWORD PTR _length$[ebp], eax
$LN2@ParseText:

; 197  : 
; 198  :     // Inner loop of text parsing.
; 199  :     while ( *p ) {

  0006c	8b 45 08	 mov	 eax, DWORD PTR _p$[ebp]
  0006f	0f be 08	 movsx	 ecx, BYTE PTR [eax]
  00072	85 c9		 test	 ecx, ecx
  00074	74 57		 je	 SHORT $LN3@ParseText

; 200  :         if ( *p == endChar && strncmp( p, endTag, length ) == 0 ) {

  00076	8b 55 08	 mov	 edx, DWORD PTR _p$[ebp]
  00079	0f be 02	 movsx	 eax, BYTE PTR [edx]
  0007c	0f be 4d f7	 movsx	 ecx, BYTE PTR _endChar$[ebp]
  00080	3b c1		 cmp	 eax, ecx
  00082	75 3e		 jne	 SHORT $LN5@ParseText
  00084	8b f4		 mov	 esi, esp
  00086	8b 55 f0	 mov	 edx, DWORD PTR _length$[ebp]
  00089	52		 push	 edx
  0008a	8b 45 0c	 mov	 eax, DWORD PTR _endTag$[ebp]
  0008d	50		 push	 eax
  0008e	8b 4d 08	 mov	 ecx, DWORD PTR _p$[ebp]
  00091	51		 push	 ecx
  00092	ff 15 00 00 00
	00		 call	 DWORD PTR __imp__strncmp
  00098	83 c4 0c	 add	 esp, 12			; 0000000cH
  0009b	3b f4		 cmp	 esi, esp
  0009d	e8 00 00 00 00	 call	 __RTC_CheckEsp
  000a2	85 c0		 test	 eax, eax
  000a4	75 1c		 jne	 SHORT $LN5@ParseText

; 201  :             Set( start, p, strFlags );

  000a6	8b 55 10	 mov	 edx, DWORD PTR _strFlags$[ebp]
  000a9	52		 push	 edx
  000aa	8b 45 08	 mov	 eax, DWORD PTR _p$[ebp]
  000ad	50		 push	 eax
  000ae	8b 4d f8	 mov	 ecx, DWORD PTR _start$[ebp]
  000b1	51		 push	 ecx
  000b2	8b 4d fc	 mov	 ecx, DWORD PTR _this$[ebp]
  000b5	e8 00 00 00 00	 call	 ?Set@StrPair@tinyxml2@@QAEXPAD0H@Z ; tinyxml2::StrPair::Set

; 202  :             return p + length;

  000ba	8b 45 08	 mov	 eax, DWORD PTR _p$[ebp]
  000bd	03 45 f0	 add	 eax, DWORD PTR _length$[ebp]
  000c0	eb 0d		 jmp	 SHORT $LN1@ParseText
$LN5@ParseText:

; 203  :         }
; 204  :         ++p;

  000c2	8b 55 08	 mov	 edx, DWORD PTR _p$[ebp]
  000c5	83 c2 01	 add	 edx, 1
  000c8	89 55 08	 mov	 DWORD PTR _p$[ebp], edx

; 205  :     }

  000cb	eb 9f		 jmp	 SHORT $LN2@ParseText
$LN3@ParseText:

; 206  :     return 0;

  000cd	33 c0		 xor	 eax, eax
$LN1@ParseText:

; 207  : }

  000cf	5e		 pop	 esi
  000d0	83 c4 14	 add	 esp, 20			; 00000014H
  000d3	3b ec		 cmp	 ebp, esp
  000d5	e8 00 00 00 00	 call	 __RTC_CheckEsp
  000da	8b e5		 mov	 esp, ebp
  000dc	5d		 pop	 ebp
  000dd	c2 0c 00	 ret	 12			; 0000000cH
?ParseText@StrPair@tinyxml2@@QAEPADPADPBDH@Z ENDP	; tinyxml2::StrPair::ParseText
_TEXT	ENDS
; Function compile flags: /Odtp /RTCsu
; File e:\fusion3d_work\engine\src\staticlibs\tinyxml2.cpp
_TEXT	SEGMENT
_start$ = -8						; size = 4
_this$ = -4						; size = 4
_p$ = 8							; size = 4
?ParseName@StrPair@tinyxml2@@QAEPADPAD@Z PROC		; tinyxml2::StrPair::ParseName
; _this$ = ecx

; 211  : {

  00000	55		 push	 ebp
  00001	8b ec		 mov	 ebp, esp
  00003	83 ec 08	 sub	 esp, 8
  00006	c7 45 f8 cc cc
	cc cc		 mov	 DWORD PTR [ebp-8], -858993460 ; ccccccccH
  0000d	c7 45 fc cc cc
	cc cc		 mov	 DWORD PTR [ebp-4], -858993460 ; ccccccccH
  00014	89 4d fc	 mov	 DWORD PTR _this$[ebp], ecx

; 212  :     if ( !p || !(*p) ) {

  00017	83 7d 08 00	 cmp	 DWORD PTR _p$[ebp], 0
  0001b	74 0a		 je	 SHORT $LN5@ParseName
  0001d	8b 45 08	 mov	 eax, DWORD PTR _p$[ebp]
  00020	0f be 08	 movsx	 ecx, BYTE PTR [eax]
  00023	85 c9		 test	 ecx, ecx
  00025	75 04		 jne	 SHORT $LN4@ParseName
$LN5@ParseName:

; 213  :         return 0;

  00027	33 c0		 xor	 eax, eax
  00029	eb 69		 jmp	 SHORT $LN1@ParseName
$LN4@ParseName:

; 214  :     }
; 215  :     if ( !XMLUtil::IsNameStartChar( *p ) ) {

  0002b	8b 55 08	 mov	 edx, DWORD PTR _p$[ebp]
  0002e	0f b6 02	 movzx	 eax, BYTE PTR [edx]
  00031	50		 push	 eax
  00032	e8 00 00 00 00	 call	 ?IsNameStartChar@XMLUtil@tinyxml2@@SA_NE@Z ; tinyxml2::XMLUtil::IsNameStartChar
  00037	83 c4 04	 add	 esp, 4
  0003a	0f b6 c8	 movzx	 ecx, al
  0003d	85 c9		 test	 ecx, ecx
  0003f	75 04		 jne	 SHORT $LN6@ParseName

; 216  :         return 0;

  00041	33 c0		 xor	 eax, eax
  00043	eb 4f		 jmp	 SHORT $LN1@ParseName
$LN6@ParseName:

; 217  :     }
; 218  : 
; 219  :     char* const start = p;

  00045	8b 55 08	 mov	 edx, DWORD PTR _p$[ebp]
  00048	89 55 f8	 mov	 DWORD PTR _start$[ebp], edx

; 220  :     ++p;

  0004b	8b 45 08	 mov	 eax, DWORD PTR _p$[ebp]
  0004e	83 c0 01	 add	 eax, 1
  00051	89 45 08	 mov	 DWORD PTR _p$[ebp], eax
$LN2@ParseName:

; 221  :     while ( *p && XMLUtil::IsNameChar( *p ) ) {

  00054	8b 4d 08	 mov	 ecx, DWORD PTR _p$[ebp]
  00057	0f be 11	 movsx	 edx, BYTE PTR [ecx]
  0005a	85 d2		 test	 edx, edx
  0005c	74 21		 je	 SHORT $LN3@ParseName
  0005e	8b 45 08	 mov	 eax, DWORD PTR _p$[ebp]
  00061	0f b6 08	 movzx	 ecx, BYTE PTR [eax]
  00064	51		 push	 ecx
  00065	e8 00 00 00 00	 call	 ?IsNameChar@XMLUtil@tinyxml2@@SA_NE@Z ; tinyxml2::XMLUtil::IsNameChar
  0006a	83 c4 04	 add	 esp, 4
  0006d	0f b6 d0	 movzx	 edx, al
  00070	85 d2		 test	 edx, edx
  00072	74 0b		 je	 SHORT $LN3@ParseName

; 222  :         ++p;

  00074	8b 45 08	 mov	 eax, DWORD PTR _p$[ebp]
  00077	83 c0 01	 add	 eax, 1
  0007a	89 45 08	 mov	 DWORD PTR _p$[ebp], eax

; 223  :     }

  0007d	eb d5		 jmp	 SHORT $LN2@ParseName
$LN3@ParseName:

; 224  : 
; 225  :     Set( start, p, 0 );

  0007f	6a 00		 push	 0
  00081	8b 4d 08	 mov	 ecx, DWORD PTR _p$[ebp]
  00084	51		 push	 ecx
  00085	8b 55 f8	 mov	 edx, DWORD PTR _start$[ebp]
  00088	52		 push	 edx
  00089	8b 4d fc	 mov	 ecx, DWORD PTR _this$[ebp]
  0008c	e8 00 00 00 00	 call	 ?Set@StrPair@tinyxml2@@QAEXPAD0H@Z ; tinyxml2::StrPair::Set

; 226  :     return p;

  00091	8b 45 08	 mov	 eax, DWORD PTR _p$[ebp]
$LN1@ParseName:

; 227  : }

  00094	83 c4 08	 add	 esp, 8
  00097	3b ec		 cmp	 ebp, esp
  00099	e8 00 00 00 00	 call	 __RTC_CheckEsp
  0009e	8b e5		 mov	 esp, ebp
  000a0	5d		 pop	 ebp
  000a1	c2 04 00	 ret	 4
?ParseName@StrPair@tinyxml2@@QAEPADPAD@Z ENDP		; tinyxml2::StrPair::ParseName
_TEXT	ENDS
; Function compile flags: /Odtp /RTCsu
; File e:\fusion3d_work\engine\src\staticlibs\tinyxml2.cpp
_TEXT	SEGMENT
_q$1 = -12						; size = 4
_p$2 = -8						; size = 4
_this$ = -4						; size = 4
?CollapseWhitespace@StrPair@tinyxml2@@AAEXXZ PROC	; tinyxml2::StrPair::CollapseWhitespace
; _this$ = ecx

; 231  : {

  00000	55		 push	 ebp
  00001	8b ec		 mov	 ebp, esp
  00003	83 ec 0c	 sub	 esp, 12			; 0000000cH
  00006	c7 45 f4 cc cc
	cc cc		 mov	 DWORD PTR [ebp-12], -858993460 ; ccccccccH
  0000d	c7 45 f8 cc cc
	cc cc		 mov	 DWORD PTR [ebp-8], -858993460 ; ccccccccH
  00014	c7 45 fc cc cc
	cc cc		 mov	 DWORD PTR [ebp-4], -858993460 ; ccccccccH
  0001b	89 4d fc	 mov	 DWORD PTR _this$[ebp], ecx

; 232  :     // Adjusting _start would cause undefined behavior on delete[]
; 233  :     TIXMLASSERT( ( _flags & NEEDS_DELETE ) == 0 );

  0001e	8b 45 fc	 mov	 eax, DWORD PTR _this$[ebp]
  00021	8b 08		 mov	 ecx, DWORD PTR [eax]
  00023	81 e1 00 02 00
	00		 and	 ecx, 512		; 00000200H
  00029	74 01		 je	 SHORT $LN4@CollapseWh
  0002b	cc		 int	 3
$LN4@CollapseWh:

; 234  :     // Trim leading space.
; 235  :     _start = XMLUtil::SkipWhiteSpace( _start );

  0002c	8b 55 fc	 mov	 edx, DWORD PTR _this$[ebp]
  0002f	8b 42 04	 mov	 eax, DWORD PTR [edx+4]
  00032	50		 push	 eax
  00033	e8 00 00 00 00	 call	 ?SkipWhiteSpace@XMLUtil@tinyxml2@@SAPADPAD@Z ; tinyxml2::XMLUtil::SkipWhiteSpace
  00038	83 c4 04	 add	 esp, 4
  0003b	8b 4d fc	 mov	 ecx, DWORD PTR _this$[ebp]
  0003e	89 41 04	 mov	 DWORD PTR [ecx+4], eax

; 236  : 
; 237  :     if ( *_start ) {

  00041	8b 55 fc	 mov	 edx, DWORD PTR _this$[ebp]
  00044	8b 42 04	 mov	 eax, DWORD PTR [edx+4]
  00047	0f be 08	 movsx	 ecx, BYTE PTR [eax]
  0004a	85 c9		 test	 ecx, ecx
  0004c	0f 84 80 00 00
	00		 je	 $LN1@CollapseWh

; 238  :         char* p = _start;	// the read pointer

  00052	8b 55 fc	 mov	 edx, DWORD PTR _this$[ebp]
  00055	8b 42 04	 mov	 eax, DWORD PTR [edx+4]
  00058	89 45 f8	 mov	 DWORD PTR _p$2[ebp], eax

; 239  :         char* q = _start;	// the write pointer

  0005b	8b 4d fc	 mov	 ecx, DWORD PTR _this$[ebp]
  0005e	8b 51 04	 mov	 edx, DWORD PTR [ecx+4]
  00061	89 55 f4	 mov	 DWORD PTR _q$1[ebp], edx
$LN2@CollapseWh:

; 240  : 
; 241  :         while( *p ) {

  00064	8b 45 f8	 mov	 eax, DWORD PTR _p$2[ebp]
  00067	0f be 08	 movsx	 ecx, BYTE PTR [eax]
  0006a	85 c9		 test	 ecx, ecx
  0006c	74 5e		 je	 SHORT $LN3@CollapseWh

; 242  :             if ( XMLUtil::IsWhiteSpace( *p )) {

  0006e	8b 55 f8	 mov	 edx, DWORD PTR _p$2[ebp]
  00071	0f b6 02	 movzx	 eax, BYTE PTR [edx]
  00074	50		 push	 eax
  00075	e8 00 00 00 00	 call	 ?IsWhiteSpace@XMLUtil@tinyxml2@@SA_ND@Z ; tinyxml2::XMLUtil::IsWhiteSpace
  0007a	83 c4 04	 add	 esp, 4
  0007d	0f b6 c8	 movzx	 ecx, al
  00080	85 c9		 test	 ecx, ecx
  00082	74 2a		 je	 SHORT $LN6@CollapseWh

; 243  :                 p = XMLUtil::SkipWhiteSpace( p );

  00084	8b 55 f8	 mov	 edx, DWORD PTR _p$2[ebp]
  00087	52		 push	 edx
  00088	e8 00 00 00 00	 call	 ?SkipWhiteSpace@XMLUtil@tinyxml2@@SAPADPAD@Z ; tinyxml2::XMLUtil::SkipWhiteSpace
  0008d	83 c4 04	 add	 esp, 4
  00090	89 45 f8	 mov	 DWORD PTR _p$2[ebp], eax

; 244  :                 if ( *p == 0 ) {

  00093	8b 45 f8	 mov	 eax, DWORD PTR _p$2[ebp]
  00096	0f be 08	 movsx	 ecx, BYTE PTR [eax]
  00099	85 c9		 test	 ecx, ecx
  0009b	75 02		 jne	 SHORT $LN7@CollapseWh

; 245  :                     break;    // don't write to q; this trims the trailing space.

  0009d	eb 2d		 jmp	 SHORT $LN3@CollapseWh
$LN7@CollapseWh:

; 246  :                 }
; 247  :                 *q = ' ';

  0009f	8b 55 f4	 mov	 edx, DWORD PTR _q$1[ebp]
  000a2	c6 02 20	 mov	 BYTE PTR [edx], 32	; 00000020H

; 248  :                 ++q;

  000a5	8b 45 f4	 mov	 eax, DWORD PTR _q$1[ebp]
  000a8	83 c0 01	 add	 eax, 1
  000ab	89 45 f4	 mov	 DWORD PTR _q$1[ebp], eax
$LN6@CollapseWh:

; 249  :             }
; 250  :             *q = *p;

  000ae	8b 4d f4	 mov	 ecx, DWORD PTR _q$1[ebp]
  000b1	8b 55 f8	 mov	 edx, DWORD PTR _p$2[ebp]
  000b4	8a 02		 mov	 al, BYTE PTR [edx]
  000b6	88 01		 mov	 BYTE PTR [ecx], al

; 251  :             ++q;

  000b8	8b 4d f4	 mov	 ecx, DWORD PTR _q$1[ebp]
  000bb	83 c1 01	 add	 ecx, 1
  000be	89 4d f4	 mov	 DWORD PTR _q$1[ebp], ecx

; 252  :             ++p;

  000c1	8b 55 f8	 mov	 edx, DWORD PTR _p$2[ebp]
  000c4	83 c2 01	 add	 edx, 1
  000c7	89 55 f8	 mov	 DWORD PTR _p$2[ebp], edx

; 253  :         }

  000ca	eb 98		 jmp	 SHORT $LN2@CollapseWh
$LN3@CollapseWh:

; 254  :         *q = 0;

  000cc	8b 45 f4	 mov	 eax, DWORD PTR _q$1[ebp]
  000cf	c6 00 00	 mov	 BYTE PTR [eax], 0
$LN1@CollapseWh:

; 255  :     }
; 256  : }

  000d2	83 c4 0c	 add	 esp, 12			; 0000000cH
  000d5	3b ec		 cmp	 ebp, esp
  000d7	e8 00 00 00 00	 call	 __RTC_CheckEsp
  000dc	8b e5		 mov	 esp, ebp
  000de	5d		 pop	 ebp
  000df	c3		 ret	 0
?CollapseWhitespace@StrPair@tinyxml2@@AAEXXZ ENDP	; tinyxml2::StrPair::CollapseWhitespace
_TEXT	ENDS
; Function compile flags: /Odtp /RTCsu
; File e:\fusion3d_work\engine\src\staticlibs\tinyxml2.cpp
_TEXT	SEGMENT
tv156 = -72						; size = 4
_entity$1 = -68						; size = 4
_i$2 = -64						; size = 4
_entityFound$3 = -57					; size = 1
_adjusted$4 = -56					; size = 4
_len$5 = -48						; size = 4
_buf$6 = -36						; size = 10
_buflen$7 = -20						; size = 4
_q$8 = -16						; size = 4
_p$9 = -12						; size = 4
_this$ = -8						; size = 4
__$ArrayPad$ = -4					; size = 4
?GetStr@StrPair@tinyxml2@@QAEPBDXZ PROC			; tinyxml2::StrPair::GetStr
; _this$ = ecx

; 260  : {

  00000	55		 push	 ebp
  00001	8b ec		 mov	 ebp, esp
  00003	83 ec 48	 sub	 esp, 72			; 00000048H
  00006	56		 push	 esi
  00007	57		 push	 edi
  00008	51		 push	 ecx
  00009	8d 7d b8	 lea	 edi, DWORD PTR [ebp-72]
  0000c	b9 12 00 00 00	 mov	 ecx, 18			; 00000012H
  00011	b8 cc cc cc cc	 mov	 eax, -858993460		; ccccccccH
  00016	f3 ab		 rep stosd
  00018	59		 pop	 ecx
  00019	a1 00 00 00 00	 mov	 eax, DWORD PTR ___security_cookie
  0001e	33 c5		 xor	 eax, ebp
  00020	89 45 fc	 mov	 DWORD PTR __$ArrayPad$[ebp], eax
  00023	89 4d f8	 mov	 DWORD PTR _this$[ebp], ecx

; 261  :     TIXMLASSERT( _start );

  00026	8b 45 f8	 mov	 eax, DWORD PTR _this$[ebp]
  00029	83 78 04 00	 cmp	 DWORD PTR [eax+4], 0
  0002d	75 01		 jne	 SHORT $LN7@GetStr
  0002f	cc		 int	 3
$LN7@GetStr:

; 262  :     TIXMLASSERT( _end );

  00030	8b 4d f8	 mov	 ecx, DWORD PTR _this$[ebp]
  00033	83 79 08 00	 cmp	 DWORD PTR [ecx+8], 0
  00037	75 01		 jne	 SHORT $LN8@GetStr
  00039	cc		 int	 3
$LN8@GetStr:

; 263  :     if ( _flags & NEEDS_FLUSH ) {

  0003a	8b 55 f8	 mov	 edx, DWORD PTR _this$[ebp]
  0003d	8b 02		 mov	 eax, DWORD PTR [edx]
  0003f	25 00 01 00 00	 and	 eax, 256		; 00000100H
  00044	0f 84 b8 02 00
	00		 je	 $LN9@GetStr

; 264  :         *_end = 0;

  0004a	8b 4d f8	 mov	 ecx, DWORD PTR _this$[ebp]
  0004d	8b 51 08	 mov	 edx, DWORD PTR [ecx+8]
  00050	c6 02 00	 mov	 BYTE PTR [edx], 0

; 265  :         _flags ^= NEEDS_FLUSH;

  00053	8b 45 f8	 mov	 eax, DWORD PTR _this$[ebp]
  00056	8b 08		 mov	 ecx, DWORD PTR [eax]
  00058	81 f1 00 01 00
	00		 xor	 ecx, 256		; 00000100H
  0005e	8b 55 f8	 mov	 edx, DWORD PTR _this$[ebp]
  00061	89 0a		 mov	 DWORD PTR [edx], ecx

; 266  : 
; 267  :         if ( _flags ) {

  00063	8b 45 f8	 mov	 eax, DWORD PTR _this$[ebp]
  00066	83 38 00	 cmp	 DWORD PTR [eax], 0
  00069	0f 84 71 02 00
	00		 je	 $LN10@GetStr

; 268  :             char* p = _start;	// the read pointer

  0006f	8b 4d f8	 mov	 ecx, DWORD PTR _this$[ebp]
  00072	8b 51 04	 mov	 edx, DWORD PTR [ecx+4]
  00075	89 55 f4	 mov	 DWORD PTR _p$9[ebp], edx

; 269  :             char* q = _start;	// the write pointer

  00078	8b 45 f8	 mov	 eax, DWORD PTR _this$[ebp]
  0007b	8b 48 04	 mov	 ecx, DWORD PTR [eax+4]
  0007e	89 4d f0	 mov	 DWORD PTR _q$8[ebp], ecx
$LN2@GetStr:

; 270  : 
; 271  :             while( p < _end ) {

  00081	8b 55 f8	 mov	 edx, DWORD PTR _this$[ebp]
  00084	8b 45 f4	 mov	 eax, DWORD PTR _p$9[ebp]
  00087	3b 42 08	 cmp	 eax, DWORD PTR [edx+8]
  0008a	0f 83 4a 02 00
	00		 jae	 $LN3@GetStr

; 272  :                 if ( (_flags & NEEDS_NEWLINE_NORMALIZATION) && *p == CR ) {

  00090	8b 4d f8	 mov	 ecx, DWORD PTR _this$[ebp]
  00093	8b 11		 mov	 edx, DWORD PTR [ecx]
  00095	83 e2 02	 and	 edx, 2
  00098	74 3f		 je	 SHORT $LN11@GetStr
  0009a	8b 45 f4	 mov	 eax, DWORD PTR _p$9[ebp]
  0009d	0f be 08	 movsx	 ecx, BYTE PTR [eax]
  000a0	83 f9 0d	 cmp	 ecx, 13			; 0000000dH
  000a3	75 34		 jne	 SHORT $LN11@GetStr

; 273  :                     // CR-LF pair becomes LF
; 274  :                     // CR alone becomes LF
; 275  :                     // LF-CR becomes LF
; 276  :                     if ( *(p+1) == LF ) {

  000a5	8b 55 f4	 mov	 edx, DWORD PTR _p$9[ebp]
  000a8	0f be 42 01	 movsx	 eax, BYTE PTR [edx+1]
  000ac	83 f8 0a	 cmp	 eax, 10			; 0000000aH
  000af	75 0b		 jne	 SHORT $LN13@GetStr

; 277  :                         p += 2;

  000b1	8b 4d f4	 mov	 ecx, DWORD PTR _p$9[ebp]
  000b4	83 c1 02	 add	 ecx, 2
  000b7	89 4d f4	 mov	 DWORD PTR _p$9[ebp], ecx

; 278  :                     }
; 279  :                     else {

  000ba	eb 09		 jmp	 SHORT $LN14@GetStr
$LN13@GetStr:

; 280  :                         ++p;

  000bc	8b 55 f4	 mov	 edx, DWORD PTR _p$9[ebp]
  000bf	83 c2 01	 add	 edx, 1
  000c2	89 55 f4	 mov	 DWORD PTR _p$9[ebp], edx
$LN14@GetStr:

; 281  :                     }
; 282  :                     *q++ = LF;

  000c5	8b 45 f0	 mov	 eax, DWORD PTR _q$8[ebp]
  000c8	c6 00 0a	 mov	 BYTE PTR [eax], 10	; 0000000aH
  000cb	8b 4d f0	 mov	 ecx, DWORD PTR _q$8[ebp]
  000ce	83 c1 01	 add	 ecx, 1
  000d1	89 4d f0	 mov	 DWORD PTR _q$8[ebp], ecx
  000d4	e9 fc 01 00 00	 jmp	 $LN12@GetStr
$LN11@GetStr:

; 283  :                 }
; 284  :                 else if ( (_flags & NEEDS_NEWLINE_NORMALIZATION) && *p == LF ) {

  000d9	8b 55 f8	 mov	 edx, DWORD PTR _this$[ebp]
  000dc	8b 02		 mov	 eax, DWORD PTR [edx]
  000de	83 e0 02	 and	 eax, 2
  000e1	74 3f		 je	 SHORT $LN15@GetStr
  000e3	8b 4d f4	 mov	 ecx, DWORD PTR _p$9[ebp]
  000e6	0f be 11	 movsx	 edx, BYTE PTR [ecx]
  000e9	83 fa 0a	 cmp	 edx, 10			; 0000000aH
  000ec	75 34		 jne	 SHORT $LN15@GetStr

; 285  :                     if ( *(p+1) == CR ) {

  000ee	8b 45 f4	 mov	 eax, DWORD PTR _p$9[ebp]
  000f1	0f be 48 01	 movsx	 ecx, BYTE PTR [eax+1]
  000f5	83 f9 0d	 cmp	 ecx, 13			; 0000000dH
  000f8	75 0b		 jne	 SHORT $LN17@GetStr

; 286  :                         p += 2;

  000fa	8b 55 f4	 mov	 edx, DWORD PTR _p$9[ebp]
  000fd	83 c2 02	 add	 edx, 2
  00100	89 55 f4	 mov	 DWORD PTR _p$9[ebp], edx

; 287  :                     }
; 288  :                     else {

  00103	eb 09		 jmp	 SHORT $LN18@GetStr
$LN17@GetStr:

; 289  :                         ++p;

  00105	8b 45 f4	 mov	 eax, DWORD PTR _p$9[ebp]
  00108	83 c0 01	 add	 eax, 1
  0010b	89 45 f4	 mov	 DWORD PTR _p$9[ebp], eax
$LN18@GetStr:

; 290  :                     }
; 291  :                     *q++ = LF;

  0010e	8b 4d f0	 mov	 ecx, DWORD PTR _q$8[ebp]
  00111	c6 01 0a	 mov	 BYTE PTR [ecx], 10	; 0000000aH
  00114	8b 55 f0	 mov	 edx, DWORD PTR _q$8[ebp]
  00117	83 c2 01	 add	 edx, 1
  0011a	89 55 f0	 mov	 DWORD PTR _q$8[ebp], edx
  0011d	e9 b3 01 00 00	 jmp	 $LN12@GetStr
$LN15@GetStr:

; 292  :                 }
; 293  :                 else if ( (_flags & NEEDS_ENTITY_PROCESSING) && *p == '&' ) {

  00122	8b 45 f8	 mov	 eax, DWORD PTR _this$[ebp]
  00125	8b 08		 mov	 ecx, DWORD PTR [eax]
  00127	83 e1 01	 and	 ecx, 1
  0012a	0f 84 89 01 00
	00		 je	 $LN19@GetStr
  00130	8b 55 f4	 mov	 edx, DWORD PTR _p$9[ebp]
  00133	0f be 02	 movsx	 eax, BYTE PTR [edx]
  00136	83 f8 26	 cmp	 eax, 38			; 00000026H
  00139	0f 85 7a 01 00
	00		 jne	 $LN19@GetStr

; 294  :                     // Entities handled by tinyXML2:
; 295  :                     // - special entities in the entity table [in/out]
; 296  :                     // - numeric character reference [in]
; 297  :                     //   &#20013; or &#x4e2d;
; 298  : 
; 299  :                     if ( *(p+1) == '#' ) {

  0013f	8b 4d f4	 mov	 ecx, DWORD PTR _p$9[ebp]
  00142	0f be 51 01	 movsx	 edx, BYTE PTR [ecx+1]
  00146	83 fa 23	 cmp	 edx, 35			; 00000023H
  00149	0f 85 b9 00 00
	00		 jne	 $LN21@GetStr

; 300  :                         const int buflen = 10;

  0014f	c7 45 ec 0a 00
	00 00		 mov	 DWORD PTR _buflen$7[ebp], 10 ; 0000000aH

; 301  :                         char buf[buflen] = { 0 };

  00156	c6 45 dc 00	 mov	 BYTE PTR _buf$6[ebp], 0
  0015a	33 c0		 xor	 eax, eax
  0015c	89 45 dd	 mov	 DWORD PTR _buf$6[ebp+1], eax
  0015f	89 45 e1	 mov	 DWORD PTR _buf$6[ebp+5], eax
  00162	88 45 e5	 mov	 BYTE PTR _buf$6[ebp+9], al

; 302  :                         int len = 0;

  00165	c7 45 d0 00 00
	00 00		 mov	 DWORD PTR _len$5[ebp], 0

; 303  :                         char* adjusted = const_cast<char*>( XMLUtil::GetCharacterRef( p, buf, &len ) );

  0016c	8d 4d d0	 lea	 ecx, DWORD PTR _len$5[ebp]
  0016f	51		 push	 ecx
  00170	8d 55 dc	 lea	 edx, DWORD PTR _buf$6[ebp]
  00173	52		 push	 edx
  00174	8b 45 f4	 mov	 eax, DWORD PTR _p$9[ebp]
  00177	50		 push	 eax
  00178	e8 00 00 00 00	 call	 ?GetCharacterRef@XMLUtil@tinyxml2@@SAPBDPBDPADPAH@Z ; tinyxml2::XMLUtil::GetCharacterRef
  0017d	83 c4 0c	 add	 esp, 12			; 0000000cH
  00180	89 45 c8	 mov	 DWORD PTR _adjusted$4[ebp], eax

; 304  :                         if ( adjusted == 0 ) {

  00183	83 7d c8 00	 cmp	 DWORD PTR _adjusted$4[ebp], 0
  00187	75 1e		 jne	 SHORT $LN23@GetStr

; 305  :                             *q = *p;

  00189	8b 4d f0	 mov	 ecx, DWORD PTR _q$8[ebp]
  0018c	8b 55 f4	 mov	 edx, DWORD PTR _p$9[ebp]
  0018f	8a 02		 mov	 al, BYTE PTR [edx]
  00191	88 01		 mov	 BYTE PTR [ecx], al

; 306  :                             ++p;

  00193	8b 4d f4	 mov	 ecx, DWORD PTR _p$9[ebp]
  00196	83 c1 01	 add	 ecx, 1
  00199	89 4d f4	 mov	 DWORD PTR _p$9[ebp], ecx

; 307  :                             ++q;

  0019c	8b 55 f0	 mov	 edx, DWORD PTR _q$8[ebp]
  0019f	83 c2 01	 add	 edx, 1
  001a2	89 55 f0	 mov	 DWORD PTR _q$8[ebp], edx

; 308  :                         }
; 309  :                         else {

  001a5	eb 5c		 jmp	 SHORT $LN24@GetStr
$LN23@GetStr:

; 310  :                             TIXMLASSERT( 0 <= len && len <= buflen );

  001a7	83 7d d0 00	 cmp	 DWORD PTR _len$5[ebp], 0
  001ab	7c 0f		 jl	 SHORT $LN32@GetStr
  001ad	83 7d d0 0a	 cmp	 DWORD PTR _len$5[ebp], 10 ; 0000000aH
  001b1	7f 09		 jg	 SHORT $LN32@GetStr
  001b3	c7 45 b8 01 00
	00 00		 mov	 DWORD PTR tv156[ebp], 1
  001ba	eb 07		 jmp	 SHORT $LN33@GetStr
$LN32@GetStr:
  001bc	c7 45 b8 00 00
	00 00		 mov	 DWORD PTR tv156[ebp], 0
$LN33@GetStr:
  001c3	83 7d b8 00	 cmp	 DWORD PTR tv156[ebp], 0
  001c7	75 01		 jne	 SHORT $LN25@GetStr
  001c9	cc		 int	 3
$LN25@GetStr:

; 311  :                             TIXMLASSERT( q + len <= adjusted );

  001ca	8b 45 f0	 mov	 eax, DWORD PTR _q$8[ebp]
  001cd	03 45 d0	 add	 eax, DWORD PTR _len$5[ebp]
  001d0	3b 45 c8	 cmp	 eax, DWORD PTR _adjusted$4[ebp]
  001d3	76 01		 jbe	 SHORT $LN26@GetStr
  001d5	cc		 int	 3
$LN26@GetStr:

; 312  :                             p = adjusted;

  001d6	8b 4d c8	 mov	 ecx, DWORD PTR _adjusted$4[ebp]
  001d9	89 4d f4	 mov	 DWORD PTR _p$9[ebp], ecx

; 313  :                             memcpy( q, buf, len );

  001dc	8b f4		 mov	 esi, esp
  001de	8b 55 d0	 mov	 edx, DWORD PTR _len$5[ebp]
  001e1	52		 push	 edx
  001e2	8d 45 dc	 lea	 eax, DWORD PTR _buf$6[ebp]
  001e5	50		 push	 eax
  001e6	8b 4d f0	 mov	 ecx, DWORD PTR _q$8[ebp]
  001e9	51		 push	 ecx
  001ea	ff 15 00 00 00
	00		 call	 DWORD PTR __imp__memcpy
  001f0	83 c4 0c	 add	 esp, 12			; 0000000cH
  001f3	3b f4		 cmp	 esi, esp
  001f5	e8 00 00 00 00	 call	 __RTC_CheckEsp

; 314  :                             q += len;

  001fa	8b 55 f0	 mov	 edx, DWORD PTR _q$8[ebp]
  001fd	03 55 d0	 add	 edx, DWORD PTR _len$5[ebp]
  00200	89 55 f0	 mov	 DWORD PTR _q$8[ebp], edx
$LN24@GetStr:

; 315  :                         }
; 316  :                     }
; 317  :                     else {

  00203	e9 af 00 00 00	 jmp	 $LN22@GetStr
$LN21@GetStr:

; 318  :                         bool entityFound = false;

  00208	c6 45 c7 00	 mov	 BYTE PTR _entityFound$3[ebp], 0

; 319  :                         for( int i = 0; i < NUM_ENTITIES; ++i ) {

  0020c	c7 45 c0 00 00
	00 00		 mov	 DWORD PTR _i$2[ebp], 0
  00213	eb 09		 jmp	 SHORT $LN6@GetStr
$LN4@GetStr:
  00215	8b 45 c0	 mov	 eax, DWORD PTR _i$2[ebp]
  00218	83 c0 01	 add	 eax, 1
  0021b	89 45 c0	 mov	 DWORD PTR _i$2[ebp], eax
$LN6@GetStr:
  0021e	83 7d c0 05	 cmp	 DWORD PTR _i$2[ebp], 5
  00222	7d 79		 jge	 SHORT $LN5@GetStr

; 320  :                             const Entity& entity = entities[i];

  00224	6b 4d c0 0c	 imul	 ecx, DWORD PTR _i$2[ebp], 12
  00228	81 c1 00 00 00
	00		 add	 ecx, OFFSET ?entities@tinyxml2@@3QBUEntity@1@B
  0022e	89 4d bc	 mov	 DWORD PTR _entity$1[ebp], ecx

; 321  :                             if ( strncmp( p + 1, entity.pattern, entity.length ) == 0
; 322  :                                     && *( p + entity.length + 1 ) == ';' ) {

  00231	8b f4		 mov	 esi, esp
  00233	8b 55 bc	 mov	 edx, DWORD PTR _entity$1[ebp]
  00236	8b 42 04	 mov	 eax, DWORD PTR [edx+4]
  00239	50		 push	 eax
  0023a	8b 4d bc	 mov	 ecx, DWORD PTR _entity$1[ebp]
  0023d	8b 11		 mov	 edx, DWORD PTR [ecx]
  0023f	52		 push	 edx
  00240	8b 45 f4	 mov	 eax, DWORD PTR _p$9[ebp]
  00243	83 c0 01	 add	 eax, 1
  00246	50		 push	 eax
  00247	ff 15 00 00 00
	00		 call	 DWORD PTR __imp__strncmp
  0024d	83 c4 0c	 add	 esp, 12			; 0000000cH
  00250	3b f4		 cmp	 esi, esp
  00252	e8 00 00 00 00	 call	 __RTC_CheckEsp
  00257	85 c0		 test	 eax, eax
  00259	75 3d		 jne	 SHORT $LN27@GetStr
  0025b	8b 4d bc	 mov	 ecx, DWORD PTR _entity$1[ebp]
  0025e	8b 51 04	 mov	 edx, DWORD PTR [ecx+4]
  00261	8b 45 f4	 mov	 eax, DWORD PTR _p$9[ebp]
  00264	0f be 4c 10 01	 movsx	 ecx, BYTE PTR [eax+edx+1]
  00269	83 f9 3b	 cmp	 ecx, 59			; 0000003bH
  0026c	75 2a		 jne	 SHORT $LN27@GetStr

; 323  :                                 // Found an entity - convert.
; 324  :                                 *q = entity.value;

  0026e	8b 55 f0	 mov	 edx, DWORD PTR _q$8[ebp]
  00271	8b 45 bc	 mov	 eax, DWORD PTR _entity$1[ebp]
  00274	8a 48 08	 mov	 cl, BYTE PTR [eax+8]
  00277	88 0a		 mov	 BYTE PTR [edx], cl

; 325  :                                 ++q;

  00279	8b 55 f0	 mov	 edx, DWORD PTR _q$8[ebp]
  0027c	83 c2 01	 add	 edx, 1
  0027f	89 55 f0	 mov	 DWORD PTR _q$8[ebp], edx

; 326  :                                 p += entity.length + 2;

  00282	8b 45 bc	 mov	 eax, DWORD PTR _entity$1[ebp]
  00285	8b 48 04	 mov	 ecx, DWORD PTR [eax+4]
  00288	8b 55 f4	 mov	 edx, DWORD PTR _p$9[ebp]
  0028b	8d 44 0a 02	 lea	 eax, DWORD PTR [edx+ecx+2]
  0028f	89 45 f4	 mov	 DWORD PTR _p$9[ebp], eax

; 327  :                                 entityFound = true;

  00292	c6 45 c7 01	 mov	 BYTE PTR _entityFound$3[ebp], 1

; 328  :                                 break;

  00296	eb 05		 jmp	 SHORT $LN5@GetStr
$LN27@GetStr:

; 329  :                             }
; 330  :                         }

  00298	e9 78 ff ff ff	 jmp	 $LN4@GetStr
$LN5@GetStr:

; 331  :                         if ( !entityFound ) {

  0029d	0f b6 4d c7	 movzx	 ecx, BYTE PTR _entityFound$3[ebp]
  002a1	85 c9		 test	 ecx, ecx
  002a3	75 12		 jne	 SHORT $LN22@GetStr

; 332  :                             // fixme: treat as error?
; 333  :                             ++p;

  002a5	8b 55 f4	 mov	 edx, DWORD PTR _p$9[ebp]
  002a8	83 c2 01	 add	 edx, 1
  002ab	89 55 f4	 mov	 DWORD PTR _p$9[ebp], edx

; 334  :                             ++q;

  002ae	8b 45 f0	 mov	 eax, DWORD PTR _q$8[ebp]
  002b1	83 c0 01	 add	 eax, 1
  002b4	89 45 f0	 mov	 DWORD PTR _q$8[ebp], eax
$LN22@GetStr:

; 335  :                         }
; 336  :                     }
; 337  :                 }
; 338  :                 else {

  002b7	eb 1c		 jmp	 SHORT $LN12@GetStr
$LN19@GetStr:

; 339  :                     *q = *p;

  002b9	8b 4d f0	 mov	 ecx, DWORD PTR _q$8[ebp]
  002bc	8b 55 f4	 mov	 edx, DWORD PTR _p$9[ebp]
  002bf	8a 02		 mov	 al, BYTE PTR [edx]
  002c1	88 01		 mov	 BYTE PTR [ecx], al

; 340  :                     ++p;

  002c3	8b 4d f4	 mov	 ecx, DWORD PTR _p$9[ebp]
  002c6	83 c1 01	 add	 ecx, 1
  002c9	89 4d f4	 mov	 DWORD PTR _p$9[ebp], ecx

; 341  :                     ++q;

  002cc	8b 55 f0	 mov	 edx, DWORD PTR _q$8[ebp]
  002cf	83 c2 01	 add	 edx, 1
  002d2	89 55 f0	 mov	 DWORD PTR _q$8[ebp], edx
$LN12@GetStr:

; 342  :                 }
; 343  :             }

  002d5	e9 a7 fd ff ff	 jmp	 $LN2@GetStr
$LN3@GetStr:

; 344  :             *q = 0;

  002da	8b 45 f0	 mov	 eax, DWORD PTR _q$8[ebp]
  002dd	c6 00 00	 mov	 BYTE PTR [eax], 0
$LN10@GetStr:

; 345  :         }
; 346  :         // The loop below has plenty going on, and this
; 347  :         // is a less useful mode. Break it out.
; 348  :         if ( _flags & NEEDS_WHITESPACE_COLLAPSING ) {

  002e0	8b 4d f8	 mov	 ecx, DWORD PTR _this$[ebp]
  002e3	8b 11		 mov	 edx, DWORD PTR [ecx]
  002e5	83 e2 04	 and	 edx, 4
  002e8	74 08		 je	 SHORT $LN29@GetStr

; 349  :             CollapseWhitespace();

  002ea	8b 4d f8	 mov	 ecx, DWORD PTR _this$[ebp]
  002ed	e8 00 00 00 00	 call	 ?CollapseWhitespace@StrPair@tinyxml2@@AAEXXZ ; tinyxml2::StrPair::CollapseWhitespace
$LN29@GetStr:

; 350  :         }
; 351  :         _flags = (_flags & NEEDS_DELETE);

  002f2	8b 45 f8	 mov	 eax, DWORD PTR _this$[ebp]
  002f5	8b 08		 mov	 ecx, DWORD PTR [eax]
  002f7	81 e1 00 02 00
	00		 and	 ecx, 512		; 00000200H
  002fd	8b 55 f8	 mov	 edx, DWORD PTR _this$[ebp]
  00300	89 0a		 mov	 DWORD PTR [edx], ecx
$LN9@GetStr:

; 352  :     }
; 353  :     TIXMLASSERT( _start );

  00302	8b 45 f8	 mov	 eax, DWORD PTR _this$[ebp]
  00305	83 78 04 00	 cmp	 DWORD PTR [eax+4], 0
  00309	75 01		 jne	 SHORT $LN30@GetStr
  0030b	cc		 int	 3
$LN30@GetStr:

; 354  :     return _start;

  0030c	8b 4d f8	 mov	 ecx, DWORD PTR _this$[ebp]
  0030f	8b 41 04	 mov	 eax, DWORD PTR [ecx+4]

; 355  : }

  00312	52		 push	 edx
  00313	8b cd		 mov	 ecx, ebp
  00315	50		 push	 eax
  00316	8d 15 00 00 00
	00		 lea	 edx, DWORD PTR $LN37@GetStr
  0031c	e8 00 00 00 00	 call	 @_RTC_CheckStackVars@8
  00321	58		 pop	 eax
  00322	5a		 pop	 edx
  00323	5f		 pop	 edi
  00324	5e		 pop	 esi
  00325	8b 4d fc	 mov	 ecx, DWORD PTR __$ArrayPad$[ebp]
  00328	33 cd		 xor	 ecx, ebp
  0032a	e8 00 00 00 00	 call	 @__security_check_cookie@4
  0032f	83 c4 48	 add	 esp, 72			; 00000048H
  00332	3b ec		 cmp	 ebp, esp
  00334	e8 00 00 00 00	 call	 __RTC_CheckEsp
  00339	8b e5		 mov	 esp, ebp
  0033b	5d		 pop	 ebp
  0033c	c3		 ret	 0
  0033d	0f 1f 00	 npad	 3
$LN37@GetStr:
  00340	02 00 00 00	 DD	 2
  00344	00 00 00 00	 DD	 $LN36@GetStr
$LN36@GetStr:
  00348	dc ff ff ff	 DD	 -36			; ffffffdcH
  0034c	0a 00 00 00	 DD	 10			; 0000000aH
  00350	00 00 00 00	 DD	 $LN34@GetStr
  00354	d0 ff ff ff	 DD	 -48			; ffffffd0H
  00358	04 00 00 00	 DD	 4
  0035c	00 00 00 00	 DD	 $LN35@GetStr
$LN35@GetStr:
  00360	6c		 DB	 108			; 0000006cH
  00361	65		 DB	 101			; 00000065H
  00362	6e		 DB	 110			; 0000006eH
  00363	00		 DB	 0
$LN34@GetStr:
  00364	62		 DB	 98			; 00000062H
  00365	75		 DB	 117			; 00000075H
  00366	66		 DB	 102			; 00000066H
  00367	00		 DB	 0
?GetStr@StrPair@tinyxml2@@QAEPBDXZ ENDP			; tinyxml2::StrPair::GetStr
_TEXT	ENDS
; Function compile flags: /Odtp /RTCsu
; File e:\fusion3d_work\engine\src\staticlibs\tinyxml2.cpp
_TEXT	SEGMENT
_pu$ = -4						; size = 4
_p$ = 8							; size = 4
_bom$ = 12						; size = 4
?ReadBOM@XMLUtil@tinyxml2@@SAPBDPBDPA_N@Z PROC		; tinyxml2::XMLUtil::ReadBOM

; 363  : {

  00000	55		 push	 ebp
  00001	8b ec		 mov	 ebp, esp
  00003	51		 push	 ecx
  00004	c7 45 fc cc cc
	cc cc		 mov	 DWORD PTR [ebp-4], -858993460 ; ccccccccH

; 364  :     TIXMLASSERT( p );

  0000b	83 7d 08 00	 cmp	 DWORD PTR _p$[ebp], 0
  0000f	75 01		 jne	 SHORT $LN2@ReadBOM
  00011	cc		 int	 3
$LN2@ReadBOM:

; 365  :     TIXMLASSERT( bom );

  00012	83 7d 0c 00	 cmp	 DWORD PTR _bom$[ebp], 0
  00016	75 01		 jne	 SHORT $LN3@ReadBOM
  00018	cc		 int	 3
$LN3@ReadBOM:

; 366  :     *bom = false;

  00019	8b 45 0c	 mov	 eax, DWORD PTR _bom$[ebp]
  0001c	c6 00 00	 mov	 BYTE PTR [eax], 0

; 367  :     const unsigned char* pu = reinterpret_cast<const unsigned char*>(p);

  0001f	8b 4d 08	 mov	 ecx, DWORD PTR _p$[ebp]
  00022	89 4d fc	 mov	 DWORD PTR _pu$[ebp], ecx

; 368  :     // Check for BOM:
; 369  :     if (    *(pu+0) == TIXML_UTF_LEAD_0
; 370  :             && *(pu+1) == TIXML_UTF_LEAD_1
; 371  :             && *(pu+2) == TIXML_UTF_LEAD_2 ) {

  00025	8b 55 fc	 mov	 edx, DWORD PTR _pu$[ebp]
  00028	0f b6 02	 movzx	 eax, BYTE PTR [edx]
  0002b	3d ef 00 00 00	 cmp	 eax, 239		; 000000efH
  00030	75 2d		 jne	 SHORT $LN4@ReadBOM
  00032	8b 4d fc	 mov	 ecx, DWORD PTR _pu$[ebp]
  00035	0f b6 51 01	 movzx	 edx, BYTE PTR [ecx+1]
  00039	81 fa bb 00 00
	00		 cmp	 edx, 187		; 000000bbH
  0003f	75 1e		 jne	 SHORT $LN4@ReadBOM
  00041	8b 45 fc	 mov	 eax, DWORD PTR _pu$[ebp]
  00044	0f b6 48 02	 movzx	 ecx, BYTE PTR [eax+2]
  00048	81 f9 bf 00 00
	00		 cmp	 ecx, 191		; 000000bfH
  0004e	75 0f		 jne	 SHORT $LN4@ReadBOM

; 372  :         *bom = true;

  00050	8b 55 0c	 mov	 edx, DWORD PTR _bom$[ebp]
  00053	c6 02 01	 mov	 BYTE PTR [edx], 1

; 373  :         p += 3;

  00056	8b 45 08	 mov	 eax, DWORD PTR _p$[ebp]
  00059	83 c0 03	 add	 eax, 3
  0005c	89 45 08	 mov	 DWORD PTR _p$[ebp], eax
$LN4@ReadBOM:

; 374  :     }
; 375  :     TIXMLASSERT( p );

  0005f	83 7d 08 00	 cmp	 DWORD PTR _p$[ebp], 0
  00063	75 01		 jne	 SHORT $LN5@ReadBOM
  00065	cc		 int	 3
$LN5@ReadBOM:

; 376  :     return p;

  00066	8b 45 08	 mov	 eax, DWORD PTR _p$[ebp]

; 377  : }

  00069	8b e5		 mov	 esp, ebp
  0006b	5d		 pop	 ebp
  0006c	c3		 ret	 0
?ReadBOM@XMLUtil@tinyxml2@@SAPBDPBDPA_N@Z ENDP		; tinyxml2::XMLUtil::ReadBOM
_TEXT	ENDS
; Function compile flags: /Odtp /RTCsu
; File e:\fusion3d_work\engine\src\staticlibs\tinyxml2.cpp
_TEXT	SEGMENT
tv69 = -52						; size = 4
_FIRST_BYTE_MARK$ = -44					; size = 28
_BYTE_MARK$ = -12					; size = 4
_BYTE_MASK$ = -8					; size = 4
__$ArrayPad$ = -4					; size = 4
_input$ = 8						; size = 4
_output$ = 12						; size = 4
_length$ = 16						; size = 4
?ConvertUTF32ToUTF8@XMLUtil@tinyxml2@@SAXKPADPAH@Z PROC	; tinyxml2::XMLUtil::ConvertUTF32ToUTF8

; 381  : {

  00000	55		 push	 ebp
  00001	8b ec		 mov	 ebp, esp
  00003	83 ec 34	 sub	 esp, 52			; 00000034H
  00006	57		 push	 edi
  00007	8d 7d cc	 lea	 edi, DWORD PTR [ebp-52]
  0000a	b9 0d 00 00 00	 mov	 ecx, 13			; 0000000dH
  0000f	b8 cc cc cc cc	 mov	 eax, -858993460		; ccccccccH
  00014	f3 ab		 rep stosd
  00016	a1 00 00 00 00	 mov	 eax, DWORD PTR ___security_cookie
  0001b	33 c5		 xor	 eax, ebp
  0001d	89 45 fc	 mov	 DWORD PTR __$ArrayPad$[ebp], eax

; 382  :     const unsigned long BYTE_MASK = 0xBF;

  00020	c7 45 f8 bf 00
	00 00		 mov	 DWORD PTR _BYTE_MASK$[ebp], 191 ; 000000bfH

; 383  :     const unsigned long BYTE_MARK = 0x80;

  00027	c7 45 f4 80 00
	00 00		 mov	 DWORD PTR _BYTE_MARK$[ebp], 128 ; 00000080H

; 384  :     const unsigned long FIRST_BYTE_MARK[7] = { 0x00, 0x00, 0xC0, 0xE0, 0xF0, 0xF8, 0xFC };

  0002e	c7 45 d4 00 00
	00 00		 mov	 DWORD PTR _FIRST_BYTE_MARK$[ebp], 0
  00035	c7 45 d8 00 00
	00 00		 mov	 DWORD PTR _FIRST_BYTE_MARK$[ebp+4], 0
  0003c	c7 45 dc c0 00
	00 00		 mov	 DWORD PTR _FIRST_BYTE_MARK$[ebp+8], 192 ; 000000c0H
  00043	c7 45 e0 e0 00
	00 00		 mov	 DWORD PTR _FIRST_BYTE_MARK$[ebp+12], 224 ; 000000e0H
  0004a	c7 45 e4 f0 00
	00 00		 mov	 DWORD PTR _FIRST_BYTE_MARK$[ebp+16], 240 ; 000000f0H
  00051	c7 45 e8 f8 00
	00 00		 mov	 DWORD PTR _FIRST_BYTE_MARK$[ebp+20], 248 ; 000000f8H
  00058	c7 45 ec fc 00
	00 00		 mov	 DWORD PTR _FIRST_BYTE_MARK$[ebp+24], 252 ; 000000fcH

; 385  : 
; 386  :     if (input < 0x80) {

  0005f	81 7d 08 80 00
	00 00		 cmp	 DWORD PTR _input$[ebp], 128 ; 00000080H
  00066	73 0b		 jae	 SHORT $LN4@ConvertUTF

; 387  :         *length = 1;

  00068	8b 45 10	 mov	 eax, DWORD PTR _length$[ebp]
  0006b	c7 00 01 00 00
	00		 mov	 DWORD PTR [eax], 1
  00071	eb 4a		 jmp	 SHORT $LN5@ConvertUTF
$LN4@ConvertUTF:

; 388  :     }
; 389  :     else if ( input < 0x800 ) {

  00073	81 7d 08 00 08
	00 00		 cmp	 DWORD PTR _input$[ebp], 2048 ; 00000800H
  0007a	73 0b		 jae	 SHORT $LN6@ConvertUTF

; 390  :         *length = 2;

  0007c	8b 4d 10	 mov	 ecx, DWORD PTR _length$[ebp]
  0007f	c7 01 02 00 00
	00		 mov	 DWORD PTR [ecx], 2
  00085	eb 36		 jmp	 SHORT $LN5@ConvertUTF
$LN6@ConvertUTF:

; 391  :     }
; 392  :     else if ( input < 0x10000 ) {

  00087	81 7d 08 00 00
	01 00		 cmp	 DWORD PTR _input$[ebp], 65536 ; 00010000H
  0008e	73 0b		 jae	 SHORT $LN8@ConvertUTF

; 393  :         *length = 3;

  00090	8b 55 10	 mov	 edx, DWORD PTR _length$[ebp]
  00093	c7 02 03 00 00
	00		 mov	 DWORD PTR [edx], 3
  00099	eb 22		 jmp	 SHORT $LN5@ConvertUTF
$LN8@ConvertUTF:

; 394  :     }
; 395  :     else if ( input < 0x200000 ) {

  0009b	81 7d 08 00 00
	20 00		 cmp	 DWORD PTR _input$[ebp], 2097152 ; 00200000H
  000a2	73 0b		 jae	 SHORT $LN10@ConvertUTF

; 396  :         *length = 4;

  000a4	8b 45 10	 mov	 eax, DWORD PTR _length$[ebp]
  000a7	c7 00 04 00 00
	00		 mov	 DWORD PTR [eax], 4

; 397  :     }
; 398  :     else {

  000ad	eb 0e		 jmp	 SHORT $LN5@ConvertUTF
$LN10@ConvertUTF:

; 399  :         *length = 0;    // This code won't convert this correctly anyway.

  000af	8b 4d 10	 mov	 ecx, DWORD PTR _length$[ebp]
  000b2	c7 01 00 00 00
	00		 mov	 DWORD PTR [ecx], 0

; 400  :         return;

  000b8	e9 c1 00 00 00	 jmp	 $LN1@ConvertUTF
$LN5@ConvertUTF:

; 401  :     }
; 402  : 
; 403  :     output += *length;

  000bd	8b 55 10	 mov	 edx, DWORD PTR _length$[ebp]
  000c0	8b 45 0c	 mov	 eax, DWORD PTR _output$[ebp]
  000c3	03 02		 add	 eax, DWORD PTR [edx]
  000c5	89 45 0c	 mov	 DWORD PTR _output$[ebp], eax

; 404  : 
; 405  :     // Scary scary fall throughs.
; 406  :     switch (*length) {

  000c8	8b 4d 10	 mov	 ecx, DWORD PTR _length$[ebp]
  000cb	8b 11		 mov	 edx, DWORD PTR [ecx]
  000cd	89 55 cc	 mov	 DWORD PTR tv69[ebp], edx
  000d0	8b 45 cc	 mov	 eax, DWORD PTR tv69[ebp]
  000d3	83 e8 01	 sub	 eax, 1
  000d6	89 45 cc	 mov	 DWORD PTR tv69[ebp], eax
  000d9	83 7d cc 03	 cmp	 DWORD PTR tv69[ebp], 3
  000dd	0f 87 96 00 00
	00		 ja	 $LN16@ConvertUTF
  000e3	8b 4d cc	 mov	 ecx, DWORD PTR tv69[ebp]
  000e6	ff 24 8d 00 00
	00 00		 jmp	 DWORD PTR $LN22@ConvertUTF[ecx*4]
$LN12@ConvertUTF:

; 407  :         case 4:
; 408  :             --output;

  000ed	8b 55 0c	 mov	 edx, DWORD PTR _output$[ebp]
  000f0	83 ea 01	 sub	 edx, 1
  000f3	89 55 0c	 mov	 DWORD PTR _output$[ebp], edx

; 409  :             *output = (char)((input | BYTE_MARK) & BYTE_MASK);

  000f6	8b 45 08	 mov	 eax, DWORD PTR _input$[ebp]
  000f9	0d 80 00 00 00	 or	 eax, 128		; 00000080H
  000fe	25 bf 00 00 00	 and	 eax, 191		; 000000bfH
  00103	8b 4d 0c	 mov	 ecx, DWORD PTR _output$[ebp]
  00106	88 01		 mov	 BYTE PTR [ecx], al

; 410  :             input >>= 6;

  00108	8b 55 08	 mov	 edx, DWORD PTR _input$[ebp]
  0010b	c1 ea 06	 shr	 edx, 6
  0010e	89 55 08	 mov	 DWORD PTR _input$[ebp], edx
$LN13@ConvertUTF:

; 411  :         case 3:
; 412  :             --output;

  00111	8b 45 0c	 mov	 eax, DWORD PTR _output$[ebp]
  00114	83 e8 01	 sub	 eax, 1
  00117	89 45 0c	 mov	 DWORD PTR _output$[ebp], eax

; 413  :             *output = (char)((input | BYTE_MARK) & BYTE_MASK);

  0011a	8b 4d 08	 mov	 ecx, DWORD PTR _input$[ebp]
  0011d	81 c9 80 00 00
	00		 or	 ecx, 128		; 00000080H
  00123	81 e1 bf 00 00
	00		 and	 ecx, 191		; 000000bfH
  00129	8b 55 0c	 mov	 edx, DWORD PTR _output$[ebp]
  0012c	88 0a		 mov	 BYTE PTR [edx], cl

; 414  :             input >>= 6;

  0012e	8b 45 08	 mov	 eax, DWORD PTR _input$[ebp]
  00131	c1 e8 06	 shr	 eax, 6
  00134	89 45 08	 mov	 DWORD PTR _input$[ebp], eax
$LN14@ConvertUTF:

; 415  :         case 2:
; 416  :             --output;

  00137	8b 4d 0c	 mov	 ecx, DWORD PTR _output$[ebp]
  0013a	83 e9 01	 sub	 ecx, 1
  0013d	89 4d 0c	 mov	 DWORD PTR _output$[ebp], ecx

; 417  :             *output = (char)((input | BYTE_MARK) & BYTE_MASK);

  00140	8b 55 08	 mov	 edx, DWORD PTR _input$[ebp]
  00143	81 ca 80 00 00
	00		 or	 edx, 128		; 00000080H
  00149	81 e2 bf 00 00
	00		 and	 edx, 191		; 000000bfH
  0014f	8b 45 0c	 mov	 eax, DWORD PTR _output$[ebp]
  00152	88 10		 mov	 BYTE PTR [eax], dl

; 418  :             input >>= 6;

  00154	8b 4d 08	 mov	 ecx, DWORD PTR _input$[ebp]
  00157	c1 e9 06	 shr	 ecx, 6
  0015a	89 4d 08	 mov	 DWORD PTR _input$[ebp], ecx
$LN15@ConvertUTF:

; 419  :         case 1:
; 420  :             --output;

  0015d	8b 55 0c	 mov	 edx, DWORD PTR _output$[ebp]
  00160	83 ea 01	 sub	 edx, 1
  00163	89 55 0c	 mov	 DWORD PTR _output$[ebp], edx

; 421  :             *output = (char)(input | FIRST_BYTE_MARK[*length]);

  00166	8b 45 10	 mov	 eax, DWORD PTR _length$[ebp]
  00169	8b 08		 mov	 ecx, DWORD PTR [eax]
  0016b	8b 55 08	 mov	 edx, DWORD PTR _input$[ebp]
  0016e	0b 54 8d d4	 or	 edx, DWORD PTR _FIRST_BYTE_MARK$[ebp+ecx*4]
  00172	8b 45 0c	 mov	 eax, DWORD PTR _output$[ebp]
  00175	88 10		 mov	 BYTE PTR [eax], dl

; 422  :             break;

  00177	eb 05		 jmp	 SHORT $LN1@ConvertUTF
$LN16@ConvertUTF:

; 423  :         default:
; 424  :             TIXMLASSERT( false );

  00179	33 c9		 xor	 ecx, ecx
  0017b	75 01		 jne	 SHORT $LN1@ConvertUTF
  0017d	cc		 int	 3
$LN1@ConvertUTF:

; 425  :     }
; 426  : }

  0017e	52		 push	 edx
  0017f	8b cd		 mov	 ecx, ebp
  00181	50		 push	 eax
  00182	8d 15 00 00 00
	00		 lea	 edx, DWORD PTR $LN21@ConvertUTF
  00188	e8 00 00 00 00	 call	 @_RTC_CheckStackVars@8
  0018d	58		 pop	 eax
  0018e	5a		 pop	 edx
  0018f	5f		 pop	 edi
  00190	8b 4d fc	 mov	 ecx, DWORD PTR __$ArrayPad$[ebp]
  00193	33 cd		 xor	 ecx, ebp
  00195	e8 00 00 00 00	 call	 @__security_check_cookie@4
  0019a	8b e5		 mov	 esp, ebp
  0019c	5d		 pop	 ebp
  0019d	c3		 ret	 0
  0019e	66 90		 npad	 2
$LN21@ConvertUTF:
  001a0	01 00 00 00	 DD	 1
  001a4	00 00 00 00	 DD	 $LN20@ConvertUTF
$LN20@ConvertUTF:
  001a8	d4 ff ff ff	 DD	 -44			; ffffffd4H
  001ac	1c 00 00 00	 DD	 28			; 0000001cH
  001b0	00 00 00 00	 DD	 $LN19@ConvertUTF
$LN19@ConvertUTF:
  001b4	46		 DB	 70			; 00000046H
  001b5	49		 DB	 73			; 00000049H
  001b6	52		 DB	 82			; 00000052H
  001b7	53		 DB	 83			; 00000053H
  001b8	54		 DB	 84			; 00000054H
  001b9	5f		 DB	 95			; 0000005fH
  001ba	42		 DB	 66			; 00000042H
  001bb	59		 DB	 89			; 00000059H
  001bc	54		 DB	 84			; 00000054H
  001bd	45		 DB	 69			; 00000045H
  001be	5f		 DB	 95			; 0000005fH
  001bf	4d		 DB	 77			; 0000004dH
  001c0	41		 DB	 65			; 00000041H
  001c1	52		 DB	 82			; 00000052H
  001c2	4b		 DB	 75			; 0000004bH
  001c3	00		 DB	 0
$LN22@ConvertUTF:
  001c4	00 00 00 00	 DD	 $LN15@ConvertUTF
  001c8	00 00 00 00	 DD	 $LN14@ConvertUTF
  001cc	00 00 00 00	 DD	 $LN13@ConvertUTF
  001d0	00 00 00 00	 DD	 $LN12@ConvertUTF
?ConvertUTF32ToUTF8@XMLUtil@tinyxml2@@SAXKPADPAH@Z ENDP	; tinyxml2::XMLUtil::ConvertUTF32ToUTF8
_TEXT	ENDS
; Function compile flags: /Odtp /RTCsu
; File e:\fusion3d_work\engine\src\staticlibs\tinyxml2.cpp
_TEXT	SEGMENT
tv181 = -52						; size = 4
tv176 = -48						; size = 4
tv146 = -44						; size = 4
tv141 = -40						; size = 4
_digitScaled$1 = -36					; size = 4
_digit$2 = -32						; size = 4
_q$3 = -28						; size = 4
_digitScaled$4 = -24					; size = 4
_digit$5 = -20						; size = 4
_q$6 = -16						; size = 4
_mult$7 = -12						; size = 4
_delta$8 = -8						; size = 4
_ucs$9 = -4						; size = 4
_p$ = 8							; size = 4
_value$ = 12						; size = 4
_length$ = 16						; size = 4
?GetCharacterRef@XMLUtil@tinyxml2@@SAPBDPBDPADPAH@Z PROC ; tinyxml2::XMLUtil::GetCharacterRef

; 430  : {

  00000	55		 push	 ebp
  00001	8b ec		 mov	 ebp, esp
  00003	83 ec 34	 sub	 esp, 52			; 00000034H
  00006	56		 push	 esi
  00007	57		 push	 edi
  00008	8d 7d cc	 lea	 edi, DWORD PTR [ebp-52]
  0000b	b9 0d 00 00 00	 mov	 ecx, 13			; 0000000dH
  00010	b8 cc cc cc cc	 mov	 eax, -858993460		; ccccccccH
  00015	f3 ab		 rep stosd

; 431  :     // Presume an entity, and pull it out.
; 432  :     *length = 0;

  00017	8b 45 10	 mov	 eax, DWORD PTR _length$[ebp]
  0001a	c7 00 00 00 00
	00		 mov	 DWORD PTR [eax], 0

; 433  : 
; 434  :     if ( *(p+1) == '#' && *(p+2) ) {

  00020	8b 4d 08	 mov	 ecx, DWORD PTR _p$[ebp]
  00023	0f be 51 01	 movsx	 edx, BYTE PTR [ecx+1]
  00027	83 fa 23	 cmp	 edx, 35			; 00000023H
  0002a	0f 85 f5 02 00
	00		 jne	 $LN6@GetCharact
  00030	8b 45 08	 mov	 eax, DWORD PTR _p$[ebp]
  00033	0f be 48 02	 movsx	 ecx, BYTE PTR [eax+2]
  00037	85 c9		 test	 ecx, ecx
  00039	0f 84 e6 02 00
	00		 je	 $LN6@GetCharact

; 435  :         unsigned long ucs = 0;

  0003f	c7 45 fc 00 00
	00 00		 mov	 DWORD PTR _ucs$9[ebp], 0

; 436  :         TIXMLASSERT( sizeof( ucs ) >= 4 );

  00046	ba 01 00 00 00	 mov	 edx, 1
  0004b	85 d2		 test	 edx, edx
  0004d	75 01		 jne	 SHORT $LN7@GetCharact
  0004f	cc		 int	 3
$LN7@GetCharact:

; 437  :         ptrdiff_t delta = 0;

  00050	c7 45 f8 00 00
	00 00		 mov	 DWORD PTR _delta$8[ebp], 0

; 438  :         unsigned mult = 1;

  00057	c7 45 f4 01 00
	00 00		 mov	 DWORD PTR _mult$7[ebp], 1

; 439  :         static const char SEMICOLON = ';';
; 440  : 
; 441  :         if ( *(p+2) == 'x' ) {

  0005e	8b 45 08	 mov	 eax, DWORD PTR _p$[ebp]
  00061	0f be 48 02	 movsx	 ecx, BYTE PTR [eax+2]
  00065	83 f9 78	 cmp	 ecx, 120		; 00000078H
  00068	0f 85 7b 01 00
	00		 jne	 $LN8@GetCharact

; 442  :             // Hexadecimal.
; 443  :             const char* q = p+3;

  0006e	8b 55 08	 mov	 edx, DWORD PTR _p$[ebp]
  00071	83 c2 03	 add	 edx, 3
  00074	89 55 f0	 mov	 DWORD PTR _q$6[ebp], edx

; 444  :             if ( !(*q) ) {

  00077	8b 45 f0	 mov	 eax, DWORD PTR _q$6[ebp]
  0007a	0f be 08	 movsx	 ecx, BYTE PTR [eax]
  0007d	85 c9		 test	 ecx, ecx
  0007f	75 07		 jne	 SHORT $LN10@GetCharact

; 445  :                 return 0;

  00081	33 c0		 xor	 eax, eax
  00083	e9 a3 02 00 00	 jmp	 $LN1@GetCharact
$LN10@GetCharact:

; 446  :             }
; 447  : 
; 448  :             q = strchr( q, SEMICOLON );

  00088	8b f4		 mov	 esi, esp
  0008a	6a 3b		 push	 59			; 0000003bH
  0008c	8b 55 f0	 mov	 edx, DWORD PTR _q$6[ebp]
  0008f	52		 push	 edx
  00090	ff 15 00 00 00
	00		 call	 DWORD PTR __imp__strchr
  00096	83 c4 08	 add	 esp, 8
  00099	3b f4		 cmp	 esi, esp
  0009b	e8 00 00 00 00	 call	 __RTC_CheckEsp
  000a0	89 45 f0	 mov	 DWORD PTR _q$6[ebp], eax

; 449  : 
; 450  :             if ( !q ) {

  000a3	83 7d f0 00	 cmp	 DWORD PTR _q$6[ebp], 0
  000a7	75 07		 jne	 SHORT $LN11@GetCharact

; 451  :                 return 0;

  000a9	33 c0		 xor	 eax, eax
  000ab	e9 7b 02 00 00	 jmp	 $LN1@GetCharact
$LN11@GetCharact:

; 452  :             }
; 453  :             TIXMLASSERT( *q == SEMICOLON );

  000b0	8b 45 f0	 mov	 eax, DWORD PTR _q$6[ebp]
  000b3	0f be 08	 movsx	 ecx, BYTE PTR [eax]
  000b6	83 f9 3b	 cmp	 ecx, 59			; 0000003bH
  000b9	74 01		 je	 SHORT $LN12@GetCharact
  000bb	cc		 int	 3
$LN12@GetCharact:

; 454  : 
; 455  :             delta = q-p;

  000bc	8b 55 f0	 mov	 edx, DWORD PTR _q$6[ebp]
  000bf	2b 55 08	 sub	 edx, DWORD PTR _p$[ebp]
  000c2	89 55 f8	 mov	 DWORD PTR _delta$8[ebp], edx

; 456  :             --q;

  000c5	8b 45 f0	 mov	 eax, DWORD PTR _q$6[ebp]
